
NCS36510/2_UARTbasic_v05_v2.elf:     file format elf32-littlearm
architecture: arm, flags 0x00000112:
EXEC_P, HAS_SYMS, D_PAGED
start address 0x001071ad


Disassembly of section .text:

00102090 <deregister_tm_clones>:
  102090:	4b04      	ldr	r3, [pc, #16]	; (1020a4 <deregister_tm_clones+0x14>)
  102092:	4805      	ldr	r0, [pc, #20]	; (1020a8 <deregister_tm_clones+0x18>)
  102094:	1a1b      	subs	r3, r3, r0
  102096:	2b06      	cmp	r3, #6
  102098:	d902      	bls.n	1020a0 <deregister_tm_clones+0x10>
  10209a:	4b04      	ldr	r3, [pc, #16]	; (1020ac <deregister_tm_clones+0x1c>)
  10209c:	b103      	cbz	r3, 1020a0 <deregister_tm_clones+0x10>
  10209e:	4718      	bx	r3
  1020a0:	4770      	bx	lr
  1020a2:	bf00      	nop
  1020a4:	3fff4223 	.word	0x3fff4223
  1020a8:	3fff4220 	.word	0x3fff4220
  1020ac:	00000000 	.word	0x00000000

001020b0 <register_tm_clones>:
  1020b0:	4905      	ldr	r1, [pc, #20]	; (1020c8 <register_tm_clones+0x18>)
  1020b2:	4806      	ldr	r0, [pc, #24]	; (1020cc <register_tm_clones+0x1c>)
  1020b4:	1a09      	subs	r1, r1, r0
  1020b6:	1089      	asrs	r1, r1, #2
  1020b8:	eb01 71d1 	add.w	r1, r1, r1, lsr #31
  1020bc:	1049      	asrs	r1, r1, #1
  1020be:	d002      	beq.n	1020c6 <register_tm_clones+0x16>
  1020c0:	4b03      	ldr	r3, [pc, #12]	; (1020d0 <register_tm_clones+0x20>)
  1020c2:	b103      	cbz	r3, 1020c6 <register_tm_clones+0x16>
  1020c4:	4718      	bx	r3
  1020c6:	4770      	bx	lr
  1020c8:	3fff4220 	.word	0x3fff4220
  1020cc:	3fff4220 	.word	0x3fff4220
  1020d0:	00000000 	.word	0x00000000

001020d4 <__do_global_dtors_aux>:
  1020d4:	b510      	push	{r4, lr}
  1020d6:	4c06      	ldr	r4, [pc, #24]	; (1020f0 <__do_global_dtors_aux+0x1c>)
  1020d8:	7823      	ldrb	r3, [r4, #0]
  1020da:	b943      	cbnz	r3, 1020ee <__do_global_dtors_aux+0x1a>
  1020dc:	f7ff ffd8 	bl	102090 <deregister_tm_clones>
  1020e0:	4b04      	ldr	r3, [pc, #16]	; (1020f4 <__do_global_dtors_aux+0x20>)
  1020e2:	b113      	cbz	r3, 1020ea <__do_global_dtors_aux+0x16>
  1020e4:	4804      	ldr	r0, [pc, #16]	; (1020f8 <__do_global_dtors_aux+0x24>)
  1020e6:	f3af 8000 	nop.w
  1020ea:	2301      	movs	r3, #1
  1020ec:	7023      	strb	r3, [r4, #0]
  1020ee:	bd10      	pop	{r4, pc}
  1020f0:	3fff4220 	.word	0x3fff4220
  1020f4:	00000000 	.word	0x00000000
  1020f8:	0010eac0 	.word	0x0010eac0

001020fc <frame_dummy>:
  1020fc:	b508      	push	{r3, lr}
  1020fe:	4b08      	ldr	r3, [pc, #32]	; (102120 <frame_dummy+0x24>)
  102100:	b11b      	cbz	r3, 10210a <frame_dummy+0xe>
  102102:	4908      	ldr	r1, [pc, #32]	; (102124 <frame_dummy+0x28>)
  102104:	4808      	ldr	r0, [pc, #32]	; (102128 <frame_dummy+0x2c>)
  102106:	f3af 8000 	nop.w
  10210a:	4808      	ldr	r0, [pc, #32]	; (10212c <frame_dummy+0x30>)
  10210c:	6803      	ldr	r3, [r0, #0]
  10210e:	b913      	cbnz	r3, 102116 <frame_dummy+0x1a>
  102110:	e8bd 4008 	ldmia.w	sp!, {r3, lr}
  102114:	e7cc      	b.n	1020b0 <register_tm_clones>
  102116:	4b06      	ldr	r3, [pc, #24]	; (102130 <frame_dummy+0x34>)
  102118:	2b00      	cmp	r3, #0
  10211a:	d0f9      	beq.n	102110 <frame_dummy+0x14>
  10211c:	4798      	blx	r3
  10211e:	e7f7      	b.n	102110 <frame_dummy+0x14>
  102120:	00000000 	.word	0x00000000
  102124:	3fff4224 	.word	0x3fff4224
  102128:	0010eac0 	.word	0x0010eac0
  10212c:	3fff4220 	.word	0x3fff4220
  102130:	00000000 	.word	0x00000000

00102134 <void mbed::Callback<void ()>::function_call<void (*)()>(void const*)>:
  102134:	6803      	ldr	r3, [r0, #0]
  102136:	4718      	bx	r3

00102138 <void mbed::Callback<void ()>::function_move<void (*)()>(void*, void const*)>:
  102138:	b108      	cbz	r0, 10213e <void mbed::Callback<void ()>::function_move<void (*)()>(void*, void const*)+0x6>
  10213a:	680b      	ldr	r3, [r1, #0]
  10213c:	6003      	str	r3, [r0, #0]
  10213e:	4770      	bx	lr

00102140 <void mbed::Callback<void ()>::function_dtor<void (*)()>(void*)>:
  102140:	4770      	bx	lr
	...

00102144 <__tcf_0>:
  102144:	b538      	push	{r3, r4, r5, lr}
  102146:	4d06      	ldr	r5, [pc, #24]	; (102160 <__tcf_0+0x1c>)
  102148:	2400      	movs	r4, #0
  10214a:	f504 70b4 	add.w	r0, r4, #360	; 0x168
  10214e:	4428      	add	r0, r5
  102150:	3c18      	subs	r4, #24
  102152:	f005 f849 	bl	1071e8 <std::__cxx11::basic_string<char, std::char_traits<char>, std::allocator<char> >::_M_dispose()>
  102156:	f514 7fc0 	cmn.w	r4, #384	; 0x180
  10215a:	d1f6      	bne.n	10214a <__tcf_0+0x6>
  10215c:	bd38      	pop	{r3, r4, r5, pc}
  10215e:	bf00      	nop
  102160:	3fff423c 	.word	0x3fff423c

00102164 <IRQ_Watchdoq_ContinuoslyRun()>:
  102164:	b500      	push	{lr}
  102166:	4b11      	ldr	r3, [pc, #68]	; (1021ac <IRQ_Watchdoq_ContinuoslyRun()+0x48>)
  102168:	b09b      	sub	sp, #108	; 0x6c
  10216a:	781a      	ldrb	r2, [r3, #0]
  10216c:	b15a      	cbz	r2, 102186 <IRQ_Watchdoq_ContinuoslyRun()+0x22>
  10216e:	2200      	movs	r2, #0
  102170:	480f      	ldr	r0, [pc, #60]	; (1021b0 <IRQ_Watchdoq_ContinuoslyRun()+0x4c>)
  102172:	701a      	strb	r2, [r3, #0]
  102174:	f000 fb92 	bl	10289c <NHD_C0216CZ::clearDisplay()>
  102178:	230f      	movs	r3, #15
  10217a:	2202      	movs	r2, #2
  10217c:	490d      	ldr	r1, [pc, #52]	; (1021b4 <IRQ_Watchdoq_ContinuoslyRun()+0x50>)
  10217e:	480c      	ldr	r0, [pc, #48]	; (1021b0 <IRQ_Watchdoq_ContinuoslyRun()+0x4c>)
  102180:	f000 fc58 	bl	102a34 <NHD_C0216CZ::displayStringToPos(char const*, int, int)>
  102184:	e004      	b.n	102190 <IRQ_Watchdoq_ContinuoslyRun()+0x2c>
  102186:	2201      	movs	r2, #1
  102188:	4809      	ldr	r0, [pc, #36]	; (1021b0 <IRQ_Watchdoq_ContinuoslyRun()+0x4c>)
  10218a:	701a      	strb	r2, [r3, #0]
  10218c:	f000 fb86 	bl	10289c <NHD_C0216CZ::clearDisplay()>
  102190:	4909      	ldr	r1, [pc, #36]	; (1021b8 <IRQ_Watchdoq_ContinuoslyRun()+0x54>)
  102192:	a801      	add	r0, sp, #4
  102194:	f008 f9ff 	bl	10a596 <strcpy>
  102198:	2301      	movs	r3, #1
  10219a:	461a      	mov	r2, r3
  10219c:	a901      	add	r1, sp, #4
  10219e:	4804      	ldr	r0, [pc, #16]	; (1021b0 <IRQ_Watchdoq_ContinuoslyRun()+0x4c>)
  1021a0:	f000 fc48 	bl	102a34 <NHD_C0216CZ::displayStringToPos(char const*, int, int)>
  1021a4:	b01b      	add	sp, #108	; 0x6c
  1021a6:	f85d fb04 	ldr.w	pc, [sp], #4
  1021aa:	bf00      	nop
  1021ac:	3fff4658 	.word	0x3fff4658
  1021b0:	3fff465c 	.word	0x3fff465c
  1021b4:	0010da14 	.word	0x0010da14
  1021b8:	3fff44bc 	.word	0x3fff44bc

001021bc <NHD_C0216CZ::~NHD_C0216CZ()>:
  1021bc:	b510      	push	{r4, lr}
  1021be:	4604      	mov	r4, r0
  1021c0:	3040      	adds	r0, #64	; 0x40
  1021c2:	f000 fac5 	bl	102750 <PCA9655E::~PCA9655E()>
  1021c6:	4620      	mov	r0, r4
  1021c8:	bd10      	pop	{r4, pc}
	...

001021cc <std::__cxx11::basic_string<char, std::char_traits<char>, std::allocator<char> >::basic_string(char const*, std::allocator<char> const&) [clone .isra.17] [clone .constprop.19]>:
  1021cc:	b510      	push	{r4, lr}
  1021ce:	4604      	mov	r4, r0
  1021d0:	4a05      	ldr	r2, [pc, #20]	; (1021e8 <std::__cxx11::basic_string<char, std::char_traits<char>, std::allocator<char> >::basic_string(char const*, std::allocator<char> const&) [clone .isra.17] [clone .constprop.19]+0x1c>)
  1021d2:	3008      	adds	r0, #8
  1021d4:	6020      	str	r0, [r4, #0]
  1021d6:	4611      	mov	r1, r2
  1021d8:	f005 f817 	bl	10720a <std::__cxx11::basic_string<char, std::char_traits<char>, std::allocator<char> >::_S_copy_chars(char*, char const*, char const*)>
  1021dc:	6822      	ldr	r2, [r4, #0]
  1021de:	2300      	movs	r3, #0
  1021e0:	6063      	str	r3, [r4, #4]
  1021e2:	7013      	strb	r3, [r2, #0]
  1021e4:	4620      	mov	r0, r4
  1021e6:	bd10      	pop	{r4, pc}
  1021e8:	0010e739 	.word	0x0010e739

001021ec <IRQ_ReadUART()>:
  1021ec:	b508      	push	{r3, lr}
  1021ee:	4808      	ldr	r0, [pc, #32]	; (102210 <IRQ_ReadUART()+0x24>)
  1021f0:	f004 f93a 	bl	106468 <mbed::SerialBase::readable()>
  1021f4:	b150      	cbz	r0, 10220c <IRQ_ReadUART()+0x20>
  1021f6:	4907      	ldr	r1, [pc, #28]	; (102214 <IRQ_ReadUART()+0x28>)
  1021f8:	4807      	ldr	r0, [pc, #28]	; (102218 <IRQ_ReadUART()+0x2c>)
  1021fa:	f004 ff07 	bl	10700c <mbed::Stream::printf(char const*, ...)>
  1021fe:	e8bd 4008 	ldmia.w	sp!, {r3, lr}
  102202:	4a06      	ldr	r2, [pc, #24]	; (10221c <IRQ_ReadUART()+0x30>)
  102204:	4906      	ldr	r1, [pc, #24]	; (102220 <IRQ_ReadUART()+0x34>)
  102206:	4807      	ldr	r0, [pc, #28]	; (102224 <IRQ_ReadUART()+0x38>)
  102208:	f004 bf1d 	b.w	107046 <mbed::Stream::scanf(char const*, ...)>
  10220c:	bd08      	pop	{r3, pc}
  10220e:	bf00      	nop
  102210:	3fff4440 	.word	0x3fff4440
  102214:	0010da16 	.word	0x0010da16
  102218:	3fff4554 	.word	0x3fff4554
  10221c:	3fff44bc 	.word	0x3fff44bc
  102220:	0010da26 	.word	0x0010da26
  102224:	3fff4474 	.word	0x3fff4474

00102228 <Send_UART(char*)>:
  102228:	4602      	mov	r2, r0
  10222a:	b508      	push	{r3, lr}
  10222c:	4903      	ldr	r1, [pc, #12]	; (10223c <Send_UART(char*)+0x14>)
  10222e:	4804      	ldr	r0, [pc, #16]	; (102240 <Send_UART(char*)+0x18>)
  102230:	f004 feec 	bl	10700c <mbed::Stream::printf(char const*, ...)>
  102234:	3000      	adds	r0, #0
  102236:	bf18      	it	ne
  102238:	2001      	movne	r0, #1
  10223a:	bd08      	pop	{r3, pc}
  10223c:	0010da26 	.word	0x0010da26
  102240:	3fff4474 	.word	0x3fff4474

00102244 <mbed::Callback<void ()>::~Callback()>:
  102244:	68c3      	ldr	r3, [r0, #12]
  102246:	b510      	push	{r4, lr}
  102248:	4604      	mov	r4, r0
  10224a:	b10b      	cbz	r3, 102250 <mbed::Callback<void ()>::~Callback()+0xc>
  10224c:	689b      	ldr	r3, [r3, #8]
  10224e:	4798      	blx	r3
  102250:	4620      	mov	r0, r4
  102252:	bd10      	pop	{r4, pc}

00102254 <mbed::SerialBase::~SerialBase()>:
  102254:	b570      	push	{r4, r5, r6, lr}
  102256:	4605      	mov	r5, r0
  102258:	4b07      	ldr	r3, [pc, #28]	; (102278 <mbed::SerialBase::~SerialBase()+0x24>)
  10225a:	4606      	mov	r6, r0
  10225c:	f845 3b10 	str.w	r3, [r5], #16
  102260:	b145      	cbz	r5, 102274 <mbed::SerialBase::~SerialBase()+0x20>
  102262:	f100 0430 	add.w	r4, r0, #48	; 0x30
  102266:	42ac      	cmp	r4, r5
  102268:	d004      	beq.n	102274 <mbed::SerialBase::~SerialBase()+0x20>
  10226a:	3c10      	subs	r4, #16
  10226c:	4620      	mov	r0, r4
  10226e:	f7ff ffe9 	bl	102244 <mbed::Callback<void ()>::~Callback()>
  102272:	e7f8      	b.n	102266 <mbed::SerialBase::~SerialBase()+0x12>
  102274:	4630      	mov	r0, r6
  102276:	bd70      	pop	{r4, r5, r6, pc}
  102278:	0010e4a4 	.word	0x0010e4a4

0010227c <mbed::SerialBase::~SerialBase()>:
  10227c:	b510      	push	{r4, lr}
  10227e:	4604      	mov	r4, r0
  102280:	f7ff ffe8 	bl	102254 <mbed::SerialBase::~SerialBase()>
  102284:	4620      	mov	r0, r4
  102286:	f004 fd4b 	bl	106d20 <operator delete(void*)>
  10228a:	4620      	mov	r0, r4
  10228c:	bd10      	pop	{r4, pc}
	...

00102290 <mbed::Serial::~Serial()>:
  102290:	b510      	push	{r4, lr}
  102292:	4604      	mov	r4, r0
  102294:	4b0a      	ldr	r3, [pc, #40]	; (1022c0 <mbed::Serial::~Serial()+0x30>)
  102296:	304c      	adds	r0, #76	; 0x4c
  102298:	f103 0220 	add.w	r2, r3, #32
  10229c:	f840 3c4c 	str.w	r3, [r0, #-76]
  1022a0:	337c      	adds	r3, #124	; 0x7c
  1022a2:	f840 2c18 	str.w	r2, [r0, #-24]
  1022a6:	f840 3c14 	str.w	r3, [r0, #-20]
  1022aa:	f004 ff24 	bl	1070f6 <rtos::Mutex::~Mutex()>
  1022ae:	f104 0034 	add.w	r0, r4, #52	; 0x34
  1022b2:	f004 fe99 	bl	106fe8 <mbed::Stream::~Stream()>
  1022b6:	4620      	mov	r0, r4
  1022b8:	f7ff ffcc 	bl	102254 <mbed::SerialBase::~SerialBase()>
  1022bc:	4620      	mov	r0, r4
  1022be:	bd10      	pop	{r4, pc}
  1022c0:	0010e418 	.word	0x0010e418

001022c4 <non-virtual thunk to mbed::Serial::~Serial()>:
  1022c4:	f1a0 0034 	sub.w	r0, r0, #52	; 0x34
  1022c8:	e7e2      	b.n	102290 <mbed::Serial::~Serial()>

001022ca <non-virtual thunk to mbed::Serial::~Serial()>:
  1022ca:	f1a0 0038 	sub.w	r0, r0, #56	; 0x38
  1022ce:	e7df      	b.n	102290 <mbed::Serial::~Serial()>

001022d0 <mbed::Ticker::~Ticker()>:
  1022d0:	b538      	push	{r3, r4, r5, lr}
  1022d2:	4605      	mov	r5, r0
  1022d4:	4604      	mov	r4, r0
  1022d6:	4b06      	ldr	r3, [pc, #24]	; (1022f0 <mbed::Ticker::~Ticker()+0x20>)
  1022d8:	f845 3b28 	str.w	r3, [r5], #40
  1022dc:	f004 fa1a 	bl	106714 <mbed::Ticker::detach()>
  1022e0:	4628      	mov	r0, r5
  1022e2:	f7ff ffaf 	bl	102244 <mbed::Callback<void ()>::~Callback()>
  1022e6:	4620      	mov	r0, r4
  1022e8:	f004 fa60 	bl	1067ac <mbed::TimerEvent::~TimerEvent()>
  1022ec:	4620      	mov	r0, r4
  1022ee:	bd38      	pop	{r3, r4, r5, pc}
  1022f0:	0010e4dc 	.word	0x0010e4dc

001022f4 <mbed::Ticker::~Ticker()>:
  1022f4:	b510      	push	{r4, lr}
  1022f6:	4604      	mov	r4, r0
  1022f8:	f7ff ffea 	bl	1022d0 <mbed::Ticker::~Ticker()>
  1022fc:	4620      	mov	r0, r4
  1022fe:	f004 fd0f 	bl	106d20 <operator delete(void*)>
  102302:	4620      	mov	r0, r4
  102304:	bd10      	pop	{r4, pc}

00102306 <mbed::Callback<void ()>::Callback(mbed::Callback<void ()> const&)>:
  102306:	b538      	push	{r3, r4, r5, lr}
  102308:	68cb      	ldr	r3, [r1, #12]
  10230a:	4604      	mov	r4, r0
  10230c:	460d      	mov	r5, r1
  10230e:	b10b      	cbz	r3, 102314 <mbed::Callback<void ()>::Callback(mbed::Callback<void ()> const&)+0xe>
  102310:	685b      	ldr	r3, [r3, #4]
  102312:	4798      	blx	r3
  102314:	68eb      	ldr	r3, [r5, #12]
  102316:	4620      	mov	r0, r4
  102318:	60e3      	str	r3, [r4, #12]
  10231a:	bd38      	pop	{r3, r4, r5, pc}

0010231c <mbed::Ticker::attach(mbed::Callback<void ()>, float)>:
  10231c:	e92d 437f 	stmdb	sp!, {r0, r1, r2, r3, r4, r5, r6, r8, r9, lr}
  102320:	4615      	mov	r5, r2
  102322:	4606      	mov	r6, r0
  102324:	4668      	mov	r0, sp
  102326:	f7ff ffee 	bl	102306 <mbed::Callback<void ()>::Callback(mbed::Callback<void ()> const&)>
  10232a:	4910      	ldr	r1, [pc, #64]	; (10236c <mbed::Ticker::attach(mbed::Callback<void ()>, float)+0x50>)
  10232c:	4628      	mov	r0, r5
  10232e:	f005 faff 	bl	107930 <__aeabi_fmul>
  102332:	466c      	mov	r4, sp
  102334:	f005 fc8a 	bl	107c4c <__aeabi_f2ulz>
  102338:	f106 0528 	add.w	r5, r6, #40	; 0x28
  10233c:	42a5      	cmp	r5, r4
  10233e:	4680      	mov	r8, r0
  102340:	4689      	mov	r9, r1
  102342:	d007      	beq.n	102354 <mbed::Ticker::attach(mbed::Callback<void ()>, float)+0x38>
  102344:	4628      	mov	r0, r5
  102346:	f7ff ff7d 	bl	102244 <mbed::Callback<void ()>::~Callback()>
  10234a:	b11d      	cbz	r5, 102354 <mbed::Ticker::attach(mbed::Callback<void ()>, float)+0x38>
  10234c:	4669      	mov	r1, sp
  10234e:	4628      	mov	r0, r5
  102350:	f7ff ffd9 	bl	102306 <mbed::Callback<void ()>::Callback(mbed::Callback<void ()> const&)>
  102354:	4642      	mov	r2, r8
  102356:	464b      	mov	r3, r9
  102358:	4630      	mov	r0, r6
  10235a:	f004 f9c3 	bl	1066e4 <mbed::Ticker::setup(unsigned long long)>
  10235e:	4620      	mov	r0, r4
  102360:	f7ff ff70 	bl	102244 <mbed::Callback<void ()>::~Callback()>
  102364:	b004      	add	sp, #16
  102366:	e8bd 8370 	ldmia.w	sp!, {r4, r5, r6, r8, r9, pc}
  10236a:	bf00      	nop
  10236c:	49742400 	.word	0x49742400

00102370 <Read_UART()>:
  102370:	b51f      	push	{r0, r1, r2, r3, r4, lr}
  102372:	4809      	ldr	r0, [pc, #36]	; (102398 <Read_UART()+0x28>)
  102374:	f004 f9ce 	bl	106714 <mbed::Ticker::detach()>
  102378:	4b08      	ldr	r3, [pc, #32]	; (10239c <Read_UART()+0x2c>)
  10237a:	4a09      	ldr	r2, [pc, #36]	; (1023a0 <Read_UART()+0x30>)
  10237c:	9300      	str	r3, [sp, #0]
  10237e:	4b09      	ldr	r3, [pc, #36]	; (1023a4 <Read_UART()+0x34>)
  102380:	4669      	mov	r1, sp
  102382:	4809      	ldr	r0, [pc, #36]	; (1023a8 <Read_UART()+0x38>)
  102384:	9303      	str	r3, [sp, #12]
  102386:	f7ff ffc9 	bl	10231c <mbed::Ticker::attach(mbed::Callback<void ()>, float)>
  10238a:	4668      	mov	r0, sp
  10238c:	f7ff ff5a 	bl	102244 <mbed::Callback<void ()>::~Callback()>
  102390:	b005      	add	sp, #20
  102392:	f85d fb04 	ldr.w	pc, [sp], #4
  102396:	bf00      	nop
  102398:	3fff45d8 	.word	0x3fff45d8
  10239c:	001021ed 	.word	0x001021ed
  1023a0:	3dcccccd 	.word	0x3dcccccd
  1023a4:	0010da08 	.word	0x0010da08
  1023a8:	3fff4408 	.word	0x3fff4408

001023ac <main>:
  1023ac:	b51f      	push	{r0, r1, r2, r3, r4, lr}
  1023ae:	4810      	ldr	r0, [pc, #64]	; (1023f0 <main+0x44>)
  1023b0:	f000 fac4 	bl	10293c <NHD_C0216CZ::init()>
  1023b4:	490f      	ldr	r1, [pc, #60]	; (1023f4 <main+0x48>)
  1023b6:	480e      	ldr	r0, [pc, #56]	; (1023f0 <main+0x44>)
  1023b8:	f000 fb56 	bl	102a68 <NHD_C0216CZ::displayString(char const*)>
  1023bc:	f04f 507e 	mov.w	r0, #1065353216	; 0x3f800000
  1023c0:	f004 fd80 	bl	106ec4 <wait>
  1023c4:	480a      	ldr	r0, [pc, #40]	; (1023f0 <main+0x44>)
  1023c6:	f000 fa69 	bl	10289c <NHD_C0216CZ::clearDisplay()>
  1023ca:	4b0b      	ldr	r3, [pc, #44]	; (1023f8 <main+0x4c>)
  1023cc:	480b      	ldr	r0, [pc, #44]	; (1023fc <main+0x50>)
  1023ce:	9300      	str	r3, [sp, #0]
  1023d0:	4b0b      	ldr	r3, [pc, #44]	; (102400 <main+0x54>)
  1023d2:	4a0c      	ldr	r2, [pc, #48]	; (102404 <main+0x58>)
  1023d4:	4669      	mov	r1, sp
  1023d6:	9303      	str	r3, [sp, #12]
  1023d8:	f7ff ffa0 	bl	10231c <mbed::Ticker::attach(mbed::Callback<void ()>, float)>
  1023dc:	4668      	mov	r0, sp
  1023de:	f7ff ff31 	bl	102244 <mbed::Callback<void ()>::~Callback()>
  1023e2:	f7ff ffc5 	bl	102370 <Read_UART()>
  1023e6:	4808      	ldr	r0, [pc, #32]	; (102408 <main+0x5c>)
  1023e8:	f7ff ff1e 	bl	102228 <Send_UART(char*)>
  1023ec:	e7f9      	b.n	1023e2 <main+0x36>
  1023ee:	bf00      	nop
  1023f0:	3fff465c 	.word	0x3fff465c
  1023f4:	0010da43 	.word	0x0010da43
  1023f8:	00102165 	.word	0x00102165
  1023fc:	3fff45a0 	.word	0x3fff45a0
  102400:	0010da08 	.word	0x0010da08
  102404:	3e4ccccd 	.word	0x3e4ccccd
  102408:	3fff44bc 	.word	0x3fff44bc

0010240c <mbed::Serial::~Serial()>:
  10240c:	b510      	push	{r4, lr}
  10240e:	4604      	mov	r4, r0
  102410:	f7ff ff3e 	bl	102290 <mbed::Serial::~Serial()>
  102414:	4620      	mov	r0, r4
  102416:	f004 fc83 	bl	106d20 <operator delete(void*)>
  10241a:	4620      	mov	r0, r4
  10241c:	bd10      	pop	{r4, pc}

0010241e <non-virtual thunk to mbed::Serial::~Serial()>:
  10241e:	f1a0 0034 	sub.w	r0, r0, #52	; 0x34
  102422:	e7f3      	b.n	10240c <mbed::Serial::~Serial()>

00102424 <non-virtual thunk to mbed::Serial::~Serial()>:
  102424:	f1a0 0038 	sub.w	r0, r0, #56	; 0x38
  102428:	e7f0      	b.n	10240c <mbed::Serial::~Serial()>
	...

0010242c <_GLOBAL__sub_I_TOUCH_LC717A00_mode>:
  10242c:	b573      	push	{r0, r1, r4, r5, r6, lr}
  10242e:	484f      	ldr	r0, [pc, #316]	; (10256c <_GLOBAL__sub_I_TOUCH_LC717A00_mode+0x140>)
  102430:	f7ff fecc 	bl	1021cc <std::__cxx11::basic_string<char, std::char_traits<char>, std::allocator<char> >::basic_string(char const*, std::allocator<char> const&) [clone .isra.17] [clone .constprop.19]>
  102434:	4a4e      	ldr	r2, [pc, #312]	; (102570 <_GLOBAL__sub_I_TOUCH_LC717A00_mode+0x144>)
  102436:	494f      	ldr	r1, [pc, #316]	; (102574 <_GLOBAL__sub_I_TOUCH_LC717A00_mode+0x148>)
  102438:	484c      	ldr	r0, [pc, #304]	; (10256c <_GLOBAL__sub_I_TOUCH_LC717A00_mode+0x140>)
  10243a:	f004 fc48 	bl	106cce <__aeabi_atexit>
  10243e:	4b4e      	ldr	r3, [pc, #312]	; (102578 <_GLOBAL__sub_I_TOUCH_LC717A00_mode+0x14c>)
  102440:	2200      	movs	r2, #0
  102442:	f503 70c0 	add.w	r0, r3, #384	; 0x180
  102446:	4619      	mov	r1, r3
  102448:	f843 2c04 	str.w	r2, [r3, #-4]
  10244c:	f843 3c08 	str.w	r3, [r3, #-8]
  102450:	f801 2b18 	strb.w	r2, [r1], #24
  102454:	6119      	str	r1, [r3, #16]
  102456:	615a      	str	r2, [r3, #20]
  102458:	761a      	strb	r2, [r3, #24]
  10245a:	3330      	adds	r3, #48	; 0x30
  10245c:	4283      	cmp	r3, r0
  10245e:	f04f 0400 	mov.w	r4, #0
  102462:	d1f0      	bne.n	102446 <_GLOBAL__sub_I_TOUCH_LC717A00_mode+0x1a>
  102464:	4a42      	ldr	r2, [pc, #264]	; (102570 <_GLOBAL__sub_I_TOUCH_LC717A00_mode+0x144>)
  102466:	4945      	ldr	r1, [pc, #276]	; (10257c <_GLOBAL__sub_I_TOUCH_LC717A00_mode+0x150>)
  102468:	4620      	mov	r0, r4
  10246a:	f004 fc30 	bl	106cce <__aeabi_atexit>
  10246e:	4844      	ldr	r0, [pc, #272]	; (102580 <_GLOBAL__sub_I_TOUCH_LC717A00_mode+0x154>)
  102470:	f7ff feac 	bl	1021cc <std::__cxx11::basic_string<char, std::char_traits<char>, std::allocator<char> >::basic_string(char const*, std::allocator<char> const&) [clone .isra.17] [clone .constprop.19]>
  102474:	4a3e      	ldr	r2, [pc, #248]	; (102570 <_GLOBAL__sub_I_TOUCH_LC717A00_mode+0x144>)
  102476:	493f      	ldr	r1, [pc, #252]	; (102574 <_GLOBAL__sub_I_TOUCH_LC717A00_mode+0x148>)
  102478:	4841      	ldr	r0, [pc, #260]	; (102580 <_GLOBAL__sub_I_TOUCH_LC717A00_mode+0x154>)
  10247a:	f004 fc28 	bl	106cce <__aeabi_atexit>
  10247e:	4841      	ldr	r0, [pc, #260]	; (102584 <_GLOBAL__sub_I_TOUCH_LC717A00_mode+0x158>)
  102480:	f7ff fea4 	bl	1021cc <std::__cxx11::basic_string<char, std::char_traits<char>, std::allocator<char> >::basic_string(char const*, std::allocator<char> const&) [clone .isra.17] [clone .constprop.19]>
  102484:	4a3a      	ldr	r2, [pc, #232]	; (102570 <_GLOBAL__sub_I_TOUCH_LC717A00_mode+0x144>)
  102486:	493b      	ldr	r1, [pc, #236]	; (102574 <_GLOBAL__sub_I_TOUCH_LC717A00_mode+0x148>)
  102488:	483e      	ldr	r0, [pc, #248]	; (102584 <_GLOBAL__sub_I_TOUCH_LC717A00_mode+0x158>)
  10248a:	f004 fc20 	bl	106cce <__aeabi_atexit>
  10248e:	483e      	ldr	r0, [pc, #248]	; (102588 <_GLOBAL__sub_I_TOUCH_LC717A00_mode+0x15c>)
  102490:	f7ff fe9c 	bl	1021cc <std::__cxx11::basic_string<char, std::char_traits<char>, std::allocator<char> >::basic_string(char const*, std::allocator<char> const&) [clone .isra.17] [clone .constprop.19]>
  102494:	4a36      	ldr	r2, [pc, #216]	; (102570 <_GLOBAL__sub_I_TOUCH_LC717A00_mode+0x144>)
  102496:	4937      	ldr	r1, [pc, #220]	; (102574 <_GLOBAL__sub_I_TOUCH_LC717A00_mode+0x148>)
  102498:	483b      	ldr	r0, [pc, #236]	; (102588 <_GLOBAL__sub_I_TOUCH_LC717A00_mode+0x15c>)
  10249a:	4d3c      	ldr	r5, [pc, #240]	; (10258c <_GLOBAL__sub_I_TOUCH_LC717A00_mode+0x160>)
  10249c:	f004 fc17 	bl	106cce <__aeabi_atexit>
  1024a0:	483b      	ldr	r0, [pc, #236]	; (102590 <_GLOBAL__sub_I_TOUCH_LC717A00_mode+0x164>)
  1024a2:	f004 fe1b 	bl	1070dc <rtos::Mutex::Mutex()>
  1024a6:	f04f 36ff 	mov.w	r6, #4294967295
  1024aa:	4a31      	ldr	r2, [pc, #196]	; (102570 <_GLOBAL__sub_I_TOUCH_LC717A00_mode+0x144>)
  1024ac:	4939      	ldr	r1, [pc, #228]	; (102594 <_GLOBAL__sub_I_TOUCH_LC717A00_mode+0x168>)
  1024ae:	4838      	ldr	r0, [pc, #224]	; (102590 <_GLOBAL__sub_I_TOUCH_LC717A00_mode+0x164>)
  1024b0:	f004 fc0d 	bl	106cce <__aeabi_atexit>
  1024b4:	9600      	str	r6, [sp, #0]
  1024b6:	2304      	movs	r3, #4
  1024b8:	2206      	movs	r2, #6
  1024ba:	2105      	movs	r1, #5
  1024bc:	4628      	mov	r0, r5
  1024be:	f004 f855 	bl	10656c <mbed::SPI::SPI(PinName, PinName, PinName, PinName)>
  1024c2:	62ec      	str	r4, [r5, #44]	; 0x2c
  1024c4:	f885 4030 	strb.w	r4, [r5, #48]	; 0x30
  1024c8:	636c      	str	r4, [r5, #52]	; 0x34
  1024ca:	4631      	mov	r1, r6
  1024cc:	f105 002c 	add.w	r0, r5, #44	; 0x2c
  1024d0:	f000 fb11 	bl	102af6 <gpio_init_out>
  1024d4:	2320      	movs	r3, #32
  1024d6:	9600      	str	r6, [sp, #0]
  1024d8:	2202      	movs	r2, #2
  1024da:	2103      	movs	r1, #3
  1024dc:	f105 0040 	add.w	r0, r5, #64	; 0x40
  1024e0:	f000 f890 	bl	102604 <PCA9655E::PCA9655E(PinName, PinName, unsigned char, PinName)>
  1024e4:	4628      	mov	r0, r5
  1024e6:	4d2c      	ldr	r5, [pc, #176]	; (102598 <_GLOBAL__sub_I_TOUCH_LC717A00_mode+0x16c>)
  1024e8:	4e2c      	ldr	r6, [pc, #176]	; (10259c <_GLOBAL__sub_I_TOUCH_LC717A00_mode+0x170>)
  1024ea:	4a21      	ldr	r2, [pc, #132]	; (102570 <_GLOBAL__sub_I_TOUCH_LC717A00_mode+0x144>)
  1024ec:	492c      	ldr	r1, [pc, #176]	; (1025a0 <_GLOBAL__sub_I_TOUCH_LC717A00_mode+0x174>)
  1024ee:	f004 fbee 	bl	106cce <__aeabi_atexit>
  1024f2:	4628      	mov	r0, r5
  1024f4:	f004 f932 	bl	10675c <mbed::TimerEvent::TimerEvent()>
  1024f8:	602e      	str	r6, [r5, #0]
  1024fa:	636c      	str	r4, [r5, #52]	; 0x34
  1024fc:	4628      	mov	r0, r5
  1024fe:	4d29      	ldr	r5, [pc, #164]	; (1025a4 <_GLOBAL__sub_I_TOUCH_LC717A00_mode+0x178>)
  102500:	4a1b      	ldr	r2, [pc, #108]	; (102570 <_GLOBAL__sub_I_TOUCH_LC717A00_mode+0x144>)
  102502:	4929      	ldr	r1, [pc, #164]	; (1025a8 <_GLOBAL__sub_I_TOUCH_LC717A00_mode+0x17c>)
  102504:	f004 fbe3 	bl	106cce <__aeabi_atexit>
  102508:	4628      	mov	r0, r5
  10250a:	f004 f927 	bl	10675c <mbed::TimerEvent::TimerEvent()>
  10250e:	636c      	str	r4, [r5, #52]	; 0x34
  102510:	4a17      	ldr	r2, [pc, #92]	; (102570 <_GLOBAL__sub_I_TOUCH_LC717A00_mode+0x144>)
  102512:	4925      	ldr	r1, [pc, #148]	; (1025a8 <_GLOBAL__sub_I_TOUCH_LC717A00_mode+0x17c>)
  102514:	4628      	mov	r0, r5
  102516:	602e      	str	r6, [r5, #0]
  102518:	f004 fbd9 	bl	106cce <__aeabi_atexit>
  10251c:	f44f 33e1 	mov.w	r3, #115200	; 0x1c200
  102520:	4d22      	ldr	r5, [pc, #136]	; (1025ac <_GLOBAL__sub_I_TOUCH_LC717A00_mode+0x180>)
  102522:	9300      	str	r3, [sp, #0]
  102524:	2209      	movs	r2, #9
  102526:	4623      	mov	r3, r4
  102528:	2108      	movs	r1, #8
  10252a:	4821      	ldr	r0, [pc, #132]	; (1025b0 <_GLOBAL__sub_I_TOUCH_LC717A00_mode+0x184>)
  10252c:	f003 ff4a 	bl	1063c4 <mbed::Serial::Serial(PinName, PinName, char const*, int)>
  102530:	4a0f      	ldr	r2, [pc, #60]	; (102570 <_GLOBAL__sub_I_TOUCH_LC717A00_mode+0x144>)
  102532:	4920      	ldr	r1, [pc, #128]	; (1025b4 <_GLOBAL__sub_I_TOUCH_LC717A00_mode+0x188>)
  102534:	481e      	ldr	r0, [pc, #120]	; (1025b0 <_GLOBAL__sub_I_TOUCH_LC717A00_mode+0x184>)
  102536:	f004 fbca 	bl	106cce <__aeabi_atexit>
  10253a:	4628      	mov	r0, r5
  10253c:	f004 f90e 	bl	10675c <mbed::TimerEvent::TimerEvent()>
  102540:	636c      	str	r4, [r5, #52]	; 0x34
  102542:	4a0b      	ldr	r2, [pc, #44]	; (102570 <_GLOBAL__sub_I_TOUCH_LC717A00_mode+0x144>)
  102544:	4918      	ldr	r1, [pc, #96]	; (1025a8 <_GLOBAL__sub_I_TOUCH_LC717A00_mode+0x17c>)
  102546:	4628      	mov	r0, r5
  102548:	602e      	str	r6, [r5, #0]
  10254a:	f004 fbc0 	bl	106cce <__aeabi_atexit>
  10254e:	4621      	mov	r1, r4
  102550:	f44f 5316 	mov.w	r3, #9600	; 0x2580
  102554:	2201      	movs	r2, #1
  102556:	4818      	ldr	r0, [pc, #96]	; (1025b8 <_GLOBAL__sub_I_TOUCH_LC717A00_mode+0x18c>)
  102558:	f003 ff50 	bl	1063fc <mbed::Serial::Serial(PinName, PinName, int)>
  10255c:	4a04      	ldr	r2, [pc, #16]	; (102570 <_GLOBAL__sub_I_TOUCH_LC717A00_mode+0x144>)
  10255e:	4915      	ldr	r1, [pc, #84]	; (1025b4 <_GLOBAL__sub_I_TOUCH_LC717A00_mode+0x188>)
  102560:	4815      	ldr	r0, [pc, #84]	; (1025b8 <_GLOBAL__sub_I_TOUCH_LC717A00_mode+0x18c>)
  102562:	b002      	add	sp, #8
  102564:	e8bd 4070 	ldmia.w	sp!, {r4, r5, r6, lr}
  102568:	f004 bbb1 	b.w	106cce <__aeabi_atexit>
  10256c:	3fff43bc 	.word	0x3fff43bc
  102570:	3fff40a0 	.word	0x3fff40a0
  102574:	00107215 	.word	0x00107215
  102578:	3fff4244 	.word	0x3fff4244
  10257c:	00102145 	.word	0x00102145
  102580:	3fff43ec 	.word	0x3fff43ec
  102584:	3fff43d4 	.word	0x3fff43d4
  102588:	3fff4640 	.word	0x3fff4640
  10258c:	3fff465c 	.word	0x3fff465c
  102590:	3fff4610 	.word	0x3fff4610
  102594:	001070f7 	.word	0x001070f7
  102598:	3fff45a0 	.word	0x3fff45a0
  10259c:	0010e4dc 	.word	0x0010e4dc
  1025a0:	001021bd 	.word	0x001021bd
  1025a4:	3fff45d8 	.word	0x3fff45d8
  1025a8:	001022d1 	.word	0x001022d1
  1025ac:	3fff4408 	.word	0x3fff4408
  1025b0:	3fff4520 	.word	0x3fff4520
  1025b4:	00102291 	.word	0x00102291
  1025b8:	3fff4440 	.word	0x3fff4440

001025bc <_start>:
  1025bc:	4808      	ldr	r0, [pc, #32]	; (1025e0 <_start+0x24>)
  1025be:	4a09      	ldr	r2, [pc, #36]	; (1025e4 <_start+0x28>)
  1025c0:	b508      	push	{r3, lr}
  1025c2:	1a12      	subs	r2, r2, r0
  1025c4:	2100      	movs	r1, #0
  1025c6:	f006 faab 	bl	108b20 <memset>
  1025ca:	f000 fd03 	bl	102fd4 <software_init_hook>
  1025ce:	f006 f9ed 	bl	1089ac <__libc_init_array>
  1025d2:	f002 fd67 	bl	1050a4 <expReset_AppLedON>
  1025d6:	f000 fcf5 	bl	102fc4 <__wrap_main>
  1025da:	f004 fb7a 	bl	106cd2 <__wrap_exit>
  1025de:	bf00      	nop
  1025e0:	3fff4220 	.word	0x3fff4220
  1025e4:	3fff60f4 	.word	0x3fff60f4

001025e8 <__wrap__isatty>:
  1025e8:	2802      	cmp	r0, #2
  1025ea:	dd01      	ble.n	1025f0 <__wrap__isatty+0x8>
  1025ec:	f004 baf6 	b.w	106bdc <_isatty>
  1025f0:	2001      	movs	r0, #1
  1025f2:	4770      	bx	lr

001025f4 <abort>:
  1025f4:	b508      	push	{r3, lr}
  1025f6:	2001      	movs	r0, #1
  1025f8:	f004 fb6b 	bl	106cd2 <__wrap_exit>

001025fc <__cxa_pure_virtual>:
  1025fc:	b508      	push	{r3, lr}
  1025fe:	f7ff fff9 	bl	1025f4 <abort>
	...

00102604 <PCA9655E::PCA9655E(PinName, PinName, unsigned char, PinName)>:
  102604:	b538      	push	{r3, r4, r5, lr}
  102606:	4604      	mov	r4, r0
  102608:	461d      	mov	r5, r3
  10260a:	f003 fd5d 	bl	1060c8 <mbed::I2C::I2C(PinName, PinName)>
  10260e:	f99d 1010 	ldrsb.w	r1, [sp, #16]
  102612:	f104 0020 	add.w	r0, r4, #32
  102616:	f003 fe4f 	bl	1062b8 <mbed::InterruptIn::InterruptIn(PinName)>
  10261a:	4620      	mov	r0, r4
  10261c:	7725      	strb	r5, [r4, #28]
  10261e:	4902      	ldr	r1, [pc, #8]	; (102628 <PCA9655E::PCA9655E(PinName, PinName, unsigned char, PinName)+0x24>)
  102620:	f003 fd70 	bl	106104 <mbed::I2C::frequency(int)>
  102624:	4620      	mov	r0, r4
  102626:	bd38      	pop	{r3, r4, r5, pc}
  102628:	000f4240 	.word	0x000f4240

0010262c <PCA9655E::frequency(int)>:
  10262c:	b508      	push	{r3, lr}
  10262e:	b672      	cpsid	i
  102630:	f003 fd68 	bl	106104 <mbed::I2C::frequency(int)>
  102634:	b662      	cpsie	i
  102636:	bd08      	pop	{r3, pc}

00102638 <PCA9655E::write(Register, char)>:
  102638:	b51f      	push	{r0, r1, r2, r3, r4, lr}
  10263a:	b672      	cpsid	i
  10263c:	2300      	movs	r3, #0
  10263e:	f88d 100c 	strb.w	r1, [sp, #12]
  102642:	f88d 200d 	strb.w	r2, [sp, #13]
  102646:	7f01      	ldrb	r1, [r0, #28]
  102648:	aa03      	add	r2, sp, #12
  10264a:	9300      	str	r3, [sp, #0]
  10264c:	2302      	movs	r3, #2
  10264e:	f003 fd85 	bl	10615c <mbed::I2C::write(int, char const*, int, bool)>
  102652:	b662      	cpsie	i
  102654:	b005      	add	sp, #20
  102656:	f85d fb04 	ldr.w	pc, [sp], #4

0010265a <PCA9655E::read(Register)>:
  10265a:	b530      	push	{r4, r5, lr}
  10265c:	b085      	sub	sp, #20
  10265e:	aa04      	add	r2, sp, #16
  102660:	4604      	mov	r4, r0
  102662:	f802 1d01 	strb.w	r1, [r2, #-1]!
  102666:	b672      	cpsid	i
  102668:	2501      	movs	r5, #1
  10266a:	7f01      	ldrb	r1, [r0, #28]
  10266c:	462b      	mov	r3, r5
  10266e:	9500      	str	r5, [sp, #0]
  102670:	f003 fd74 	bl	10615c <mbed::I2C::write(int, char const*, int, bool)>
  102674:	2300      	movs	r3, #0
  102676:	9300      	str	r3, [sp, #0]
  102678:	7f21      	ldrb	r1, [r4, #28]
  10267a:	462b      	mov	r3, r5
  10267c:	f10d 020e 	add.w	r2, sp, #14
  102680:	4620      	mov	r0, r4
  102682:	f003 fd8b 	bl	10619c <mbed::I2C::read(int, char*, int, bool)>
  102686:	b662      	cpsie	i
  102688:	f89d 000e 	ldrb.w	r0, [sp, #14]
  10268c:	b005      	add	sp, #20
  10268e:	bd30      	pop	{r4, r5, pc}

00102690 <PCA9655E::setValue(Port, signed char, SetVal)>:
  102690:	b5f8      	push	{r3, r4, r5, r6, r7, lr}
  102692:	461c      	mov	r4, r3
  102694:	b2d3      	uxtb	r3, r2
  102696:	2b07      	cmp	r3, #7
  102698:	4606      	mov	r6, r0
  10269a:	460d      	mov	r5, r1
  10269c:	4617      	mov	r7, r2
  10269e:	d904      	bls.n	1026aa <PCA9655E::setValue(Port, signed char, SetVal)+0x1a>
  1026a0:	225c      	movs	r2, #92	; 0x5c
  1026a2:	4911      	ldr	r1, [pc, #68]	; (1026e8 <PCA9655E::setValue(Port, signed char, SetVal)+0x58>)
  1026a4:	4811      	ldr	r0, [pc, #68]	; (1026ec <PCA9655E::setValue(Port, signed char, SetVal)+0x5c>)
  1026a6:	f000 fb49 	bl	102d3c <mbed_assert_internal>
  1026aa:	b11d      	cbz	r5, 1026b4 <PCA9655E::setValue(Port, signed char, SetVal)+0x24>
  1026ac:	2d01      	cmp	r5, #1
  1026ae:	d11a      	bne.n	1026e6 <PCA9655E::setValue(Port, signed char, SetVal)+0x56>
  1026b0:	2503      	movs	r5, #3
  1026b2:	e000      	b.n	1026b6 <PCA9655E::setValue(Port, signed char, SetVal)+0x26>
  1026b4:	2502      	movs	r5, #2
  1026b6:	4629      	mov	r1, r5
  1026b8:	4630      	mov	r0, r6
  1026ba:	f7ff ffce 	bl	10265a <PCA9655E::read(Register)>
  1026be:	b13c      	cbz	r4, 1026d0 <PCA9655E::setValue(Port, signed char, SetVal)+0x40>
  1026c0:	2c01      	cmp	r4, #1
  1026c2:	d001      	beq.n	1026c8 <PCA9655E::setValue(Port, signed char, SetVal)+0x38>
  1026c4:	b2c2      	uxtb	r2, r0
  1026c6:	e008      	b.n	1026da <PCA9655E::setValue(Port, signed char, SetVal)+0x4a>
  1026c8:	fa04 f207 	lsl.w	r2, r4, r7
  1026cc:	4302      	orrs	r2, r0
  1026ce:	e003      	b.n	1026d8 <PCA9655E::setValue(Port, signed char, SetVal)+0x48>
  1026d0:	2201      	movs	r2, #1
  1026d2:	40ba      	lsls	r2, r7
  1026d4:	ea20 0202 	bic.w	r2, r0, r2
  1026d8:	b2d2      	uxtb	r2, r2
  1026da:	4629      	mov	r1, r5
  1026dc:	4630      	mov	r0, r6
  1026de:	e8bd 40f8 	ldmia.w	sp!, {r3, r4, r5, r6, r7, lr}
  1026e2:	f7ff bfa9 	b.w	102638 <PCA9655E::write(Register, char)>
  1026e6:	bdf8      	pop	{r3, r4, r5, r6, r7, pc}
  1026e8:	0010da50 	.word	0x0010da50
  1026ec:	0010da75 	.word	0x0010da75

001026f0 <PCA9655E::setDirection(Port, signed char, Direction)>:
  1026f0:	b5f8      	push	{r3, r4, r5, r6, r7, lr}
  1026f2:	461c      	mov	r4, r3
  1026f4:	b2d3      	uxtb	r3, r2
  1026f6:	2b07      	cmp	r3, #7
  1026f8:	4606      	mov	r6, r0
  1026fa:	460d      	mov	r5, r1
  1026fc:	4617      	mov	r7, r2
  1026fe:	d904      	bls.n	10270a <PCA9655E::setDirection(Port, signed char, Direction)+0x1a>
  102700:	227b      	movs	r2, #123	; 0x7b
  102702:	4911      	ldr	r1, [pc, #68]	; (102748 <PCA9655E::setDirection(Port, signed char, Direction)+0x58>)
  102704:	4811      	ldr	r0, [pc, #68]	; (10274c <PCA9655E::setDirection(Port, signed char, Direction)+0x5c>)
  102706:	f000 fb19 	bl	102d3c <mbed_assert_internal>
  10270a:	b11d      	cbz	r5, 102714 <PCA9655E::setDirection(Port, signed char, Direction)+0x24>
  10270c:	2d01      	cmp	r5, #1
  10270e:	d11a      	bne.n	102746 <PCA9655E::setDirection(Port, signed char, Direction)+0x56>
  102710:	2507      	movs	r5, #7
  102712:	e000      	b.n	102716 <PCA9655E::setDirection(Port, signed char, Direction)+0x26>
  102714:	2506      	movs	r5, #6
  102716:	4629      	mov	r1, r5
  102718:	4630      	mov	r0, r6
  10271a:	f7ff ff9e 	bl	10265a <PCA9655E::read(Register)>
  10271e:	b11c      	cbz	r4, 102728 <PCA9655E::setDirection(Port, signed char, Direction)+0x38>
  102720:	2c01      	cmp	r4, #1
  102722:	d006      	beq.n	102732 <PCA9655E::setDirection(Port, signed char, Direction)+0x42>
  102724:	b2c2      	uxtb	r2, r0
  102726:	e008      	b.n	10273a <PCA9655E::setDirection(Port, signed char, Direction)+0x4a>
  102728:	2201      	movs	r2, #1
  10272a:	40ba      	lsls	r2, r7
  10272c:	ea20 0202 	bic.w	r2, r0, r2
  102730:	e002      	b.n	102738 <PCA9655E::setDirection(Port, signed char, Direction)+0x48>
  102732:	fa04 f207 	lsl.w	r2, r4, r7
  102736:	4302      	orrs	r2, r0
  102738:	b2d2      	uxtb	r2, r2
  10273a:	4629      	mov	r1, r5
  10273c:	4630      	mov	r0, r6
  10273e:	e8bd 40f8 	ldmia.w	sp!, {r3, r4, r5, r6, r7, lr}
  102742:	f7ff bf79 	b.w	102638 <PCA9655E::write(Register, char)>
  102746:	bdf8      	pop	{r3, r4, r5, r6, r7, pc}
  102748:	0010da50 	.word	0x0010da50
  10274c:	0010da75 	.word	0x0010da75

00102750 <PCA9655E::~PCA9655E()>:
  102750:	b510      	push	{r4, lr}
  102752:	4604      	mov	r4, r0
  102754:	3020      	adds	r0, #32
  102756:	f003 fd7f 	bl	106258 <mbed::InterruptIn::~InterruptIn()>
  10275a:	4620      	mov	r0, r4
  10275c:	bd10      	pop	{r4, pc}

0010275e <NHD_C0216CZ::getDdramAddr(int, int, unsigned char*)>:
  10275e:	1e48      	subs	r0, r1, #1
  102760:	2801      	cmp	r0, #1
  102762:	d809      	bhi.n	102778 <NHD_C0216CZ::getDdramAddr(int, int, unsigned char*)+0x1a>
  102764:	1e50      	subs	r0, r2, #1
  102766:	280f      	cmp	r0, #15
  102768:	d806      	bhi.n	102778 <NHD_C0216CZ::getDdramAddr(int, int, unsigned char*)+0x1a>
  10276a:	2902      	cmp	r1, #2
  10276c:	bf0a      	itet	eq
  10276e:	323f      	addeq	r2, #63	; 0x3f
  102770:	7018      	strbne	r0, [r3, #0]
  102772:	701a      	strbeq	r2, [r3, #0]
  102774:	2001      	movs	r0, #1
  102776:	4770      	bx	lr
  102778:	2000      	movs	r0, #0
  10277a:	4770      	bx	lr

0010277c <NHD_C0216CZ::i2cCsEnable()>:
  10277c:	b510      	push	{r4, lr}
  10277e:	f100 0440 	add.w	r4, r0, #64	; 0x40
  102782:	2301      	movs	r3, #1
  102784:	2202      	movs	r2, #2
  102786:	2100      	movs	r1, #0
  102788:	4620      	mov	r0, r4
  10278a:	f7ff ff81 	bl	102690 <PCA9655E::setValue(Port, signed char, SetVal)>
  10278e:	2014      	movs	r0, #20
  102790:	f004 fb80 	bl	106e94 <wait_us>
  102794:	2001      	movs	r0, #1
  102796:	f004 fb7d 	bl	106e94 <wait_us>
  10279a:	2300      	movs	r3, #0
  10279c:	4620      	mov	r0, r4
  10279e:	2202      	movs	r2, #2
  1027a0:	4619      	mov	r1, r3
  1027a2:	f7ff ff75 	bl	102690 <PCA9655E::setValue(Port, signed char, SetVal)>
  1027a6:	2014      	movs	r0, #20
  1027a8:	f004 fb74 	bl	106e94 <wait_us>
  1027ac:	e8bd 4010 	ldmia.w	sp!, {r4, lr}
  1027b0:	2001      	movs	r0, #1
  1027b2:	f004 bb6f 	b.w	106e94 <wait_us>

001027b6 <NHD_C0216CZ::i2cCsDisable()>:
  1027b6:	b510      	push	{r4, lr}
  1027b8:	4604      	mov	r4, r0
  1027ba:	2001      	movs	r0, #1
  1027bc:	f004 fb6a 	bl	106e94 <wait_us>
  1027c0:	f104 0040 	add.w	r0, r4, #64	; 0x40
  1027c4:	2301      	movs	r3, #1
  1027c6:	2202      	movs	r2, #2
  1027c8:	2100      	movs	r1, #0
  1027ca:	f7ff ff61 	bl	102690 <PCA9655E::setValue(Port, signed char, SetVal)>
  1027ce:	e8bd 4010 	ldmia.w	sp!, {r4, lr}
  1027d2:	2014      	movs	r0, #20
  1027d4:	f004 bb5e 	b.w	106e94 <wait_us>

001027d8 <NHD_C0216CZ::setRsPin(NHD_C0216CZ::LEVEL_T)>:
  1027d8:	b538      	push	{r3, r4, r5, lr}
  1027da:	460c      	mov	r4, r1
  1027dc:	4605      	mov	r5, r0
  1027de:	f44f 70fa 	mov.w	r0, #500	; 0x1f4
  1027e2:	f004 fb57 	bl	106e94 <wait_us>
  1027e6:	b12c      	cbz	r4, 1027f4 <NHD_C0216CZ::setRsPin(NHD_C0216CZ::LEVEL_T)+0x1c>
  1027e8:	2c01      	cmp	r4, #1
  1027ea:	d10a      	bne.n	102802 <NHD_C0216CZ::setRsPin(NHD_C0216CZ::LEVEL_T)+0x2a>
  1027ec:	4623      	mov	r3, r4
  1027ee:	2203      	movs	r2, #3
  1027f0:	2100      	movs	r1, #0
  1027f2:	e002      	b.n	1027fa <NHD_C0216CZ::setRsPin(NHD_C0216CZ::LEVEL_T)+0x22>
  1027f4:	4623      	mov	r3, r4
  1027f6:	4621      	mov	r1, r4
  1027f8:	2203      	movs	r2, #3
  1027fa:	f105 0040 	add.w	r0, r5, #64	; 0x40
  1027fe:	f7ff ff47 	bl	102690 <PCA9655E::setValue(Port, signed char, SetVal)>
  102802:	2014      	movs	r0, #20
  102804:	f004 fb46 	bl	106e94 <wait_us>
  102808:	e8bd 4038 	ldmia.w	sp!, {r3, r4, r5, lr}
  10280c:	f44f 70fa 	mov.w	r0, #500	; 0x1f4
  102810:	f004 bb40 	b.w	106e94 <wait_us>

00102814 <NHD_C0216CZ::setSpiParams()>:
  102814:	b510      	push	{r4, lr}
  102816:	4604      	mov	r4, r0
  102818:	2108      	movs	r1, #8
  10281a:	2200      	movs	r2, #0
  10281c:	f003 fed0 	bl	1065c0 <mbed::SPI::format(int, int)>
  102820:	4620      	mov	r0, r4
  102822:	e8bd 4010 	ldmia.w	sp!, {r4, lr}
  102826:	4901      	ldr	r1, [pc, #4]	; (10282c <NHD_C0216CZ::setSpiParams()+0x18>)
  102828:	f003 bee2 	b.w	1065f0 <mbed::SPI::frequency(int)>
  10282c:	0007a120 	.word	0x0007a120

00102830 <NHD_C0216CZ::resetSpiParams()>:
  102830:	b510      	push	{r4, lr}
  102832:	4604      	mov	r4, r0
  102834:	2108      	movs	r1, #8
  102836:	2200      	movs	r2, #0
  102838:	f003 fec2 	bl	1065c0 <mbed::SPI::format(int, int)>
  10283c:	4620      	mov	r0, r4
  10283e:	e8bd 4010 	ldmia.w	sp!, {r4, lr}
  102842:	4901      	ldr	r1, [pc, #4]	; (102848 <NHD_C0216CZ::resetSpiParams()+0x18>)
  102844:	f003 bed4 	b.w	1065f0 <mbed::SPI::frequency(int)>
  102848:	000f4240 	.word	0x000f4240

0010284c <NHD_C0216CZ::sendCommand(unsigned char)>:
  10284c:	b538      	push	{r3, r4, r5, lr}
  10284e:	4604      	mov	r4, r0
  102850:	460d      	mov	r5, r1
  102852:	4811      	ldr	r0, [pc, #68]	; (102898 <NHD_C0216CZ::sendCommand(unsigned char)+0x4c>)
  102854:	f04f 31ff 	mov.w	r1, #4294967295
  102858:	f004 fc47 	bl	1070ea <rtos::Mutex::lock(unsigned long)>
  10285c:	4620      	mov	r0, r4
  10285e:	f7ff ffd9 	bl	102814 <NHD_C0216CZ::setSpiParams()>
  102862:	4620      	mov	r0, r4
  102864:	f7ff ff8a 	bl	10277c <NHD_C0216CZ::i2cCsEnable()>
  102868:	4620      	mov	r0, r4
  10286a:	2100      	movs	r1, #0
  10286c:	f7ff ffb4 	bl	1027d8 <NHD_C0216CZ::setRsPin(NHD_C0216CZ::LEVEL_T)>
  102870:	4629      	mov	r1, r5
  102872:	4620      	mov	r0, r4
  102874:	f003 fed2 	bl	10661c <mbed::SPI::write(int)>
  102878:	4620      	mov	r0, r4
  10287a:	f7ff ff9c 	bl	1027b6 <NHD_C0216CZ::i2cCsDisable()>
  10287e:	2d01      	cmp	r5, #1
  102880:	4620      	mov	r0, r4
  102882:	bf04      	itt	eq
  102884:	63a5      	streq	r5, [r4, #56]	; 0x38
  102886:	63e5      	streq	r5, [r4, #60]	; 0x3c
  102888:	f7ff ffd2 	bl	102830 <NHD_C0216CZ::resetSpiParams()>
  10288c:	e8bd 4038 	ldmia.w	sp!, {r3, r4, r5, lr}
  102890:	4801      	ldr	r0, [pc, #4]	; (102898 <NHD_C0216CZ::sendCommand(unsigned char)+0x4c>)
  102892:	f004 bc2d 	b.w	1070f0 <rtos::Mutex::unlock()>
  102896:	bf00      	nop
  102898:	3fff4610 	.word	0x3fff4610

0010289c <NHD_C0216CZ::clearDisplay()>:
  10289c:	2101      	movs	r1, #1
  10289e:	f7ff bfd5 	b.w	10284c <NHD_C0216CZ::sendCommand(unsigned char)>

001028a2 <NHD_C0216CZ::setPosition(int, int)>:
  1028a2:	b573      	push	{r0, r1, r4, r5, r6, lr}
  1028a4:	f10d 0307 	add.w	r3, sp, #7
  1028a8:	4604      	mov	r4, r0
  1028aa:	4615      	mov	r5, r2
  1028ac:	f7ff ff57 	bl	10275e <NHD_C0216CZ::getDdramAddr(int, int, unsigned char*)>
  1028b0:	b150      	cbz	r0, 1028c8 <NHD_C0216CZ::setPosition(int, int)+0x26>
  1028b2:	63a1      	str	r1, [r4, #56]	; 0x38
  1028b4:	f89d 1007 	ldrb.w	r1, [sp, #7]
  1028b8:	4620      	mov	r0, r4
  1028ba:	63e5      	str	r5, [r4, #60]	; 0x3c
  1028bc:	f041 0180 	orr.w	r1, r1, #128	; 0x80
  1028c0:	f7ff ffc4 	bl	10284c <NHD_C0216CZ::sendCommand(unsigned char)>
  1028c4:	2000      	movs	r0, #0
  1028c6:	e001      	b.n	1028cc <NHD_C0216CZ::setPosition(int, int)+0x2a>
  1028c8:	f04f 30ff 	mov.w	r0, #4294967295
  1028cc:	b002      	add	sp, #8
  1028ce:	bd70      	pop	{r4, r5, r6, pc}

001028d0 <NHD_C0216CZ::intializeLcd()>:
  1028d0:	b510      	push	{r4, lr}
  1028d2:	4604      	mov	r4, r0
  1028d4:	2130      	movs	r1, #48	; 0x30
  1028d6:	f7ff ffb9 	bl	10284c <NHD_C0216CZ::sendCommand(unsigned char)>
  1028da:	2002      	movs	r0, #2
  1028dc:	f004 fafe 	bl	106edc <wait_ms>
  1028e0:	4620      	mov	r0, r4
  1028e2:	2130      	movs	r1, #48	; 0x30
  1028e4:	f7ff ffb2 	bl	10284c <NHD_C0216CZ::sendCommand(unsigned char)>
  1028e8:	4620      	mov	r0, r4
  1028ea:	2130      	movs	r1, #48	; 0x30
  1028ec:	f7ff ffae 	bl	10284c <NHD_C0216CZ::sendCommand(unsigned char)>
  1028f0:	4620      	mov	r0, r4
  1028f2:	2139      	movs	r1, #57	; 0x39
  1028f4:	f7ff ffaa 	bl	10284c <NHD_C0216CZ::sendCommand(unsigned char)>
  1028f8:	4620      	mov	r0, r4
  1028fa:	2114      	movs	r1, #20
  1028fc:	f7ff ffa6 	bl	10284c <NHD_C0216CZ::sendCommand(unsigned char)>
  102900:	4620      	mov	r0, r4
  102902:	2156      	movs	r1, #86	; 0x56
  102904:	f7ff ffa2 	bl	10284c <NHD_C0216CZ::sendCommand(unsigned char)>
  102908:	4620      	mov	r0, r4
  10290a:	216d      	movs	r1, #109	; 0x6d
  10290c:	f7ff ff9e 	bl	10284c <NHD_C0216CZ::sendCommand(unsigned char)>
  102910:	4620      	mov	r0, r4
  102912:	2170      	movs	r1, #112	; 0x70
  102914:	f7ff ff9a 	bl	10284c <NHD_C0216CZ::sendCommand(unsigned char)>
  102918:	4620      	mov	r0, r4
  10291a:	210c      	movs	r1, #12
  10291c:	f7ff ff96 	bl	10284c <NHD_C0216CZ::sendCommand(unsigned char)>
  102920:	4620      	mov	r0, r4
  102922:	2106      	movs	r1, #6
  102924:	f7ff ff92 	bl	10284c <NHD_C0216CZ::sendCommand(unsigned char)>
  102928:	4620      	mov	r0, r4
  10292a:	2101      	movs	r1, #1
  10292c:	f7ff ff8e 	bl	10284c <NHD_C0216CZ::sendCommand(unsigned char)>
  102930:	e8bd 4010 	ldmia.w	sp!, {r4, lr}
  102934:	200a      	movs	r0, #10
  102936:	f004 bad1 	b.w	106edc <wait_ms>
	...

0010293c <NHD_C0216CZ::init()>:
  10293c:	b538      	push	{r3, r4, r5, lr}
  10293e:	4604      	mov	r4, r0
  102940:	f100 0540 	add.w	r5, r0, #64	; 0x40
  102944:	4628      	mov	r0, r5
  102946:	490f      	ldr	r1, [pc, #60]	; (102984 <NHD_C0216CZ::init()+0x48>)
  102948:	f7ff fe70 	bl	10262c <PCA9655E::frequency(int)>
  10294c:	2300      	movs	r3, #0
  10294e:	4619      	mov	r1, r3
  102950:	4628      	mov	r0, r5
  102952:	2202      	movs	r2, #2
  102954:	f7ff fecc 	bl	1026f0 <PCA9655E::setDirection(Port, signed char, Direction)>
  102958:	2300      	movs	r3, #0
  10295a:	4619      	mov	r1, r3
  10295c:	2203      	movs	r2, #3
  10295e:	4628      	mov	r0, r5
  102960:	f7ff fec6 	bl	1026f0 <PCA9655E::setDirection(Port, signed char, Direction)>
  102964:	4620      	mov	r0, r4
  102966:	f7ff ff26 	bl	1027b6 <NHD_C0216CZ::i2cCsDisable()>
  10296a:	4620      	mov	r0, r4
  10296c:	f7ff ff52 	bl	102814 <NHD_C0216CZ::setSpiParams()>
  102970:	4620      	mov	r0, r4
  102972:	f7ff ffad 	bl	1028d0 <NHD_C0216CZ::intializeLcd()>
  102976:	2201      	movs	r2, #1
  102978:	4620      	mov	r0, r4
  10297a:	e8bd 4038 	ldmia.w	sp!, {r3, r4, r5, lr}
  10297e:	4611      	mov	r1, r2
  102980:	f7ff bf8f 	b.w	1028a2 <NHD_C0216CZ::setPosition(int, int)>
  102984:	000f4240 	.word	0x000f4240

00102988 <NHD_C0216CZ::sendData(char const*, int)>:
  102988:	e92d 41f0 	stmdb	sp!, {r4, r5, r6, r7, r8, lr}
  10298c:	1e16      	subs	r6, r2, #0
  10298e:	4604      	mov	r4, r0
  102990:	460d      	mov	r5, r1
  102992:	dd48      	ble.n	102a26 <NHD_C0216CZ::sendData(char const*, int)+0x9e>
  102994:	2900      	cmp	r1, #0
  102996:	d046      	beq.n	102a26 <NHD_C0216CZ::sendData(char const*, int)+0x9e>
  102998:	f04f 31ff 	mov.w	r1, #4294967295
  10299c:	4824      	ldr	r0, [pc, #144]	; (102a30 <NHD_C0216CZ::sendData(char const*, int)+0xa8>)
  10299e:	f004 fba4 	bl	1070ea <rtos::Mutex::lock(unsigned long)>
  1029a2:	4620      	mov	r0, r4
  1029a4:	f7ff ff36 	bl	102814 <NHD_C0216CZ::setSpiParams()>
  1029a8:	4620      	mov	r0, r4
  1029aa:	f7ff fee7 	bl	10277c <NHD_C0216CZ::i2cCsEnable()>
  1029ae:	2101      	movs	r1, #1
  1029b0:	4620      	mov	r0, r4
  1029b2:	f7ff ff11 	bl	1027d8 <NHD_C0216CZ::setRsPin(NHD_C0216CZ::LEVEL_T)>
  1029b6:	442e      	add	r6, r5
  1029b8:	f04f 0801 	mov.w	r8, #1
  1029bc:	6be3      	ldr	r3, [r4, #60]	; 0x3c
  1029be:	f815 7b01 	ldrb.w	r7, [r5], #1
  1029c2:	2b10      	cmp	r3, #16
  1029c4:	dc09      	bgt.n	1029da <NHD_C0216CZ::sendData(char const*, int)+0x52>
  1029c6:	2f0a      	cmp	r7, #10
  1029c8:	d007      	beq.n	1029da <NHD_C0216CZ::sendData(char const*, int)+0x52>
  1029ca:	4639      	mov	r1, r7
  1029cc:	4620      	mov	r0, r4
  1029ce:	f003 fe25 	bl	10661c <mbed::SPI::write(int)>
  1029d2:	6be3      	ldr	r3, [r4, #60]	; 0x3c
  1029d4:	3301      	adds	r3, #1
  1029d6:	63e3      	str	r3, [r4, #60]	; 0x3c
  1029d8:	e017      	b.n	102a0a <NHD_C0216CZ::sendData(char const*, int)+0x82>
  1029da:	6ba1      	ldr	r1, [r4, #56]	; 0x38
  1029dc:	2201      	movs	r2, #1
  1029de:	3101      	adds	r1, #1
  1029e0:	2902      	cmp	r1, #2
  1029e2:	bfc8      	it	gt
  1029e4:	2101      	movgt	r1, #1
  1029e6:	63a1      	str	r1, [r4, #56]	; 0x38
  1029e8:	f8c4 803c 	str.w	r8, [r4, #60]	; 0x3c
  1029ec:	4620      	mov	r0, r4
  1029ee:	f7ff ff58 	bl	1028a2 <NHD_C0216CZ::setPosition(int, int)>
  1029f2:	4620      	mov	r0, r4
  1029f4:	f7ff ff0e 	bl	102814 <NHD_C0216CZ::setSpiParams()>
  1029f8:	2101      	movs	r1, #1
  1029fa:	4620      	mov	r0, r4
  1029fc:	f7ff feec 	bl	1027d8 <NHD_C0216CZ::setRsPin(NHD_C0216CZ::LEVEL_T)>
  102a00:	4620      	mov	r0, r4
  102a02:	f7ff febb 	bl	10277c <NHD_C0216CZ::i2cCsEnable()>
  102a06:	2f0a      	cmp	r7, #10
  102a08:	d1df      	bne.n	1029ca <NHD_C0216CZ::sendData(char const*, int)+0x42>
  102a0a:	42b5      	cmp	r5, r6
  102a0c:	d1d6      	bne.n	1029bc <NHD_C0216CZ::sendData(char const*, int)+0x34>
  102a0e:	4620      	mov	r0, r4
  102a10:	f7ff fed1 	bl	1027b6 <NHD_C0216CZ::i2cCsDisable()>
  102a14:	4620      	mov	r0, r4
  102a16:	f7ff ff0b 	bl	102830 <NHD_C0216CZ::resetSpiParams()>
  102a1a:	4805      	ldr	r0, [pc, #20]	; (102a30 <NHD_C0216CZ::sendData(char const*, int)+0xa8>)
  102a1c:	f004 fb68 	bl	1070f0 <rtos::Mutex::unlock()>
  102a20:	2000      	movs	r0, #0
  102a22:	e8bd 81f0 	ldmia.w	sp!, {r4, r5, r6, r7, r8, pc}
  102a26:	f04f 30ff 	mov.w	r0, #4294967295
  102a2a:	e8bd 81f0 	ldmia.w	sp!, {r4, r5, r6, r7, r8, pc}
  102a2e:	bf00      	nop
  102a30:	3fff4610 	.word	0x3fff4610

00102a34 <NHD_C0216CZ::displayStringToPos(char const*, int, int)>:
  102a34:	b570      	push	{r4, r5, r6, lr}
  102a36:	4606      	mov	r6, r0
  102a38:	4614      	mov	r4, r2
  102a3a:	460d      	mov	r5, r1
  102a3c:	b911      	cbnz	r1, 102a44 <NHD_C0216CZ::displayStringToPos(char const*, int, int)+0x10>
  102a3e:	f04f 30ff 	mov.w	r0, #4294967295
  102a42:	bd70      	pop	{r4, r5, r6, pc}
  102a44:	461a      	mov	r2, r3
  102a46:	4621      	mov	r1, r4
  102a48:	f7ff ff2b 	bl	1028a2 <NHD_C0216CZ::setPosition(int, int)>
  102a4c:	2800      	cmp	r0, #0
  102a4e:	d1f6      	bne.n	102a3e <NHD_C0216CZ::displayStringToPos(char const*, int, int)+0xa>
  102a50:	462b      	mov	r3, r5
  102a52:	1b5a      	subs	r2, r3, r5
  102a54:	f813 4b01 	ldrb.w	r4, [r3], #1
  102a58:	2c00      	cmp	r4, #0
  102a5a:	d1fa      	bne.n	102a52 <NHD_C0216CZ::displayStringToPos(char const*, int, int)+0x1e>
  102a5c:	4629      	mov	r1, r5
  102a5e:	4630      	mov	r0, r6
  102a60:	f7ff ff92 	bl	102988 <NHD_C0216CZ::sendData(char const*, int)>
  102a64:	4620      	mov	r0, r4
  102a66:	bd70      	pop	{r4, r5, r6, pc}

00102a68 <NHD_C0216CZ::displayString(char const*)>:
  102a68:	b570      	push	{r4, r5, r6, lr}
  102a6a:	4604      	mov	r4, r0
  102a6c:	460d      	mov	r5, r1
  102a6e:	f7ff ff15 	bl	10289c <NHD_C0216CZ::clearDisplay()>
  102a72:	2301      	movs	r3, #1
  102a74:	4629      	mov	r1, r5
  102a76:	4620      	mov	r0, r4
  102a78:	e8bd 4070 	ldmia.w	sp!, {r4, r5, r6, lr}
  102a7c:	461a      	mov	r2, r3
  102a7e:	f7ff bfd9 	b.w	102a34 <NHD_C0216CZ::displayStringToPos(char const*, int, int)>

00102a82 <_gpio_init_in>:
  102a82:	b570      	push	{r4, r5, r6, lr}
  102a84:	460e      	mov	r6, r1
  102a86:	4604      	mov	r4, r0
  102a88:	4615      	mov	r5, r2
  102a8a:	f002 f925 	bl	104cd8 <gpio_init>
  102a8e:	3601      	adds	r6, #1
  102a90:	d009      	beq.n	102aa6 <_gpio_init_in+0x24>
  102a92:	4620      	mov	r0, r4
  102a94:	2100      	movs	r1, #0
  102a96:	f002 f949 	bl	104d2c <gpio_dir>
  102a9a:	4629      	mov	r1, r5
  102a9c:	4620      	mov	r0, r4
  102a9e:	e8bd 4070 	ldmia.w	sp!, {r4, r5, r6, lr}
  102aa2:	f002 b93f 	b.w	104d24 <gpio_mode>
  102aa6:	bd70      	pop	{r4, r5, r6, pc}

00102aa8 <gpio_init_in>:
  102aa8:	b538      	push	{r3, r4, r5, lr}
  102aaa:	460c      	mov	r4, r1
  102aac:	2201      	movs	r2, #1
  102aae:	4605      	mov	r5, r0
  102ab0:	f7ff ffe7 	bl	102a82 <_gpio_init_in>
  102ab4:	2c0f      	cmp	r4, #15
  102ab6:	d106      	bne.n	102ac6 <gpio_init_in+0x1e>
  102ab8:	4621      	mov	r1, r4
  102aba:	4628      	mov	r0, r5
  102abc:	e8bd 4038 	ldmia.w	sp!, {r3, r4, r5, lr}
  102ac0:	2201      	movs	r2, #1
  102ac2:	f7ff bfde 	b.w	102a82 <_gpio_init_in>
  102ac6:	bd38      	pop	{r3, r4, r5, pc}

00102ac8 <gpio_init_out_ex>:
  102ac8:	b570      	push	{r4, r5, r6, lr}
  102aca:	460e      	mov	r6, r1
  102acc:	4604      	mov	r4, r0
  102ace:	4615      	mov	r5, r2
  102ad0:	f002 f902 	bl	104cd8 <gpio_init>
  102ad4:	3601      	adds	r6, #1
  102ad6:	d00d      	beq.n	102af4 <gpio_init_out_ex+0x2c>
  102ad8:	4629      	mov	r1, r5
  102ada:	4620      	mov	r0, r4
  102adc:	f002 f938 	bl	104d50 <gpio_write>
  102ae0:	4620      	mov	r0, r4
  102ae2:	2101      	movs	r1, #1
  102ae4:	f002 f922 	bl	104d2c <gpio_dir>
  102ae8:	4620      	mov	r0, r4
  102aea:	e8bd 4070 	ldmia.w	sp!, {r4, r5, r6, lr}
  102aee:	2101      	movs	r1, #1
  102af0:	f002 b918 	b.w	104d24 <gpio_mode>
  102af4:	bd70      	pop	{r4, r5, r6, pc}

00102af6 <gpio_init_out>:
  102af6:	2200      	movs	r2, #0
  102af8:	f7ff bfe6 	b.w	102ac8 <gpio_init_out_ex>

00102afc <lp_ticker_irq_handler>:
  102afc:	4801      	ldr	r0, [pc, #4]	; (102b04 <lp_ticker_irq_handler+0x8>)
  102afe:	f000 b8a4 	b.w	102c4a <ticker_irq_handler>
  102b02:	bf00      	nop
  102b04:	0010daa4 	.word	0x0010daa4

00102b08 <pinmap_pinout>:
  102b08:	b510      	push	{r4, lr}
  102b0a:	4604      	mov	r4, r0
  102b0c:	3001      	adds	r0, #1
  102b0e:	d101      	bne.n	102b14 <pinmap_pinout+0xc>
  102b10:	bd10      	pop	{r4, pc}
  102b12:	310c      	adds	r1, #12
  102b14:	f991 3000 	ldrsb.w	r3, [r1]
  102b18:	1c5a      	adds	r2, r3, #1
  102b1a:	d00b      	beq.n	102b34 <pinmap_pinout+0x2c>
  102b1c:	429c      	cmp	r4, r3
  102b1e:	d1f8      	bne.n	102b12 <pinmap_pinout+0xa>
  102b20:	4620      	mov	r0, r4
  102b22:	6889      	ldr	r1, [r1, #8]
  102b24:	f002 ff68 	bl	1059f8 <pin_function>
  102b28:	4620      	mov	r0, r4
  102b2a:	e8bd 4010 	ldmia.w	sp!, {r4, lr}
  102b2e:	2101      	movs	r1, #1
  102b30:	f002 bf74 	b.w	105a1c <pin_mode>
  102b34:	4802      	ldr	r0, [pc, #8]	; (102b40 <pinmap_pinout+0x38>)
  102b36:	e8bd 4010 	ldmia.w	sp!, {r4, lr}
  102b3a:	f000 b9a1 	b.w	102e80 <error>
  102b3e:	bf00      	nop
  102b40:	0010daac 	.word	0x0010daac

00102b44 <pinmap_merge>:
  102b44:	4288      	cmp	r0, r1
  102b46:	b508      	push	{r3, lr}
  102b48:	d00a      	beq.n	102b60 <pinmap_merge+0x1c>
  102b4a:	1c43      	adds	r3, r0, #1
  102b4c:	d007      	beq.n	102b5e <pinmap_merge+0x1a>
  102b4e:	3101      	adds	r1, #1
  102b50:	d006      	beq.n	102b60 <pinmap_merge+0x1c>
  102b52:	4804      	ldr	r0, [pc, #16]	; (102b64 <pinmap_merge+0x20>)
  102b54:	f000 f994 	bl	102e80 <error>
  102b58:	f04f 30ff 	mov.w	r0, #4294967295
  102b5c:	bd08      	pop	{r3, pc}
  102b5e:	4608      	mov	r0, r1
  102b60:	bd08      	pop	{r3, pc}
  102b62:	bf00      	nop
  102b64:	0010dabd 	.word	0x0010dabd

00102b68 <pinmap_find_peripheral>:
  102b68:	f991 3000 	ldrsb.w	r3, [r1]
  102b6c:	1c5a      	adds	r2, r3, #1
  102b6e:	d005      	beq.n	102b7c <pinmap_find_peripheral+0x14>
  102b70:	4283      	cmp	r3, r0
  102b72:	d101      	bne.n	102b78 <pinmap_find_peripheral+0x10>
  102b74:	6848      	ldr	r0, [r1, #4]
  102b76:	4770      	bx	lr
  102b78:	310c      	adds	r1, #12
  102b7a:	e7f5      	b.n	102b68 <pinmap_find_peripheral>
  102b7c:	4618      	mov	r0, r3
  102b7e:	4770      	bx	lr

00102b80 <pinmap_peripheral>:
  102b80:	1c42      	adds	r2, r0, #1
  102b82:	b510      	push	{r4, lr}
  102b84:	4604      	mov	r4, r0
  102b86:	d007      	beq.n	102b98 <pinmap_peripheral+0x18>
  102b88:	f7ff ffee 	bl	102b68 <pinmap_find_peripheral>
  102b8c:	1c43      	adds	r3, r0, #1
  102b8e:	4604      	mov	r4, r0
  102b90:	d102      	bne.n	102b98 <pinmap_peripheral+0x18>
  102b92:	4802      	ldr	r0, [pc, #8]	; (102b9c <pinmap_peripheral+0x1c>)
  102b94:	f000 f974 	bl	102e80 <error>
  102b98:	4620      	mov	r0, r4
  102b9a:	bd10      	pop	{r4, pc}
  102b9c:	0010dace 	.word	0x0010dace

00102ba0 <update_present_time>:
  102ba0:	6803      	ldr	r3, [r0, #0]
  102ba2:	b5d0      	push	{r4, r6, r7, lr}
  102ba4:	6844      	ldr	r4, [r0, #4]
  102ba6:	685b      	ldr	r3, [r3, #4]
  102ba8:	e9d4 6702 	ldrd	r6, r7, [r4, #8]
  102bac:	4798      	blx	r3
  102bae:	2200      	movs	r2, #0
  102bb0:	42b0      	cmp	r0, r6
  102bb2:	ea42 0200 	orr.w	r2, r2, r0
  102bb6:	463b      	mov	r3, r7
  102bb8:	d202      	bcs.n	102bc0 <update_present_time+0x20>
  102bba:	3200      	adds	r2, #0
  102bbc:	f147 0301 	adc.w	r3, r7, #1
  102bc0:	e9c4 2302 	strd	r2, r3, [r4, #8]
  102bc4:	bdd0      	pop	{r4, r6, r7, pc}

00102bc6 <schedule_interrupt>:
  102bc6:	e92d 4370 	stmdb	sp!, {r4, r5, r6, r8, r9, lr}
  102bca:	4606      	mov	r6, r0
  102bcc:	f7ff ffe8 	bl	102ba0 <update_present_time>
  102bd0:	6871      	ldr	r1, [r6, #4]
  102bd2:	684b      	ldr	r3, [r1, #4]
  102bd4:	b1ab      	cbz	r3, 102c02 <schedule_interrupt+0x3c>
  102bd6:	e9d1 4502 	ldrd	r4, r5, [r1, #8]
  102bda:	e9d3 2300 	ldrd	r2, r3, [r3]
  102bde:	42ab      	cmp	r3, r5
  102be0:	bf08      	it	eq
  102be2:	42a2      	cmpeq	r2, r4
  102be4:	d30b      	bcc.n	102bfe <schedule_interrupt+0x38>
  102be6:	ebb2 0804 	subs.w	r8, r2, r4
  102bea:	eb63 0905 	sbc.w	r9, r3, r5
  102bee:	f1b9 0f00 	cmp.w	r9, #0
  102bf2:	bf08      	it	eq
  102bf4:	f1b8 4fe0 	cmpeq.w	r8, #1879048192	; 0x70000000
  102bf8:	d203      	bcs.n	102c02 <schedule_interrupt+0x3c>
  102bfa:	1b12      	subs	r2, r2, r4
  102bfc:	e003      	b.n	102c06 <schedule_interrupt+0x40>
  102bfe:	2200      	movs	r2, #0
  102c00:	e001      	b.n	102c06 <schedule_interrupt+0x40>
  102c02:	f04f 42e0 	mov.w	r2, #1879048192	; 0x70000000
  102c06:	6833      	ldr	r3, [r6, #0]
  102c08:	6888      	ldr	r0, [r1, #8]
  102c0a:	691b      	ldr	r3, [r3, #16]
  102c0c:	4410      	add	r0, r2
  102c0e:	e8bd 4370 	ldmia.w	sp!, {r4, r5, r6, r8, r9, lr}
  102c12:	4718      	bx	r3

00102c14 <ticker_set_handler>:
  102c14:	6843      	ldr	r3, [r0, #4]
  102c16:	b570      	push	{r4, r5, r6, lr}
  102c18:	7c1d      	ldrb	r5, [r3, #16]
  102c1a:	4604      	mov	r4, r0
  102c1c:	460e      	mov	r6, r1
  102c1e:	b98d      	cbnz	r5, 102c44 <ticker_set_handler+0x30>
  102c20:	6803      	ldr	r3, [r0, #0]
  102c22:	681b      	ldr	r3, [r3, #0]
  102c24:	4798      	blx	r3
  102c26:	6863      	ldr	r3, [r4, #4]
  102c28:	2000      	movs	r0, #0
  102c2a:	2100      	movs	r1, #0
  102c2c:	2201      	movs	r2, #1
  102c2e:	e9c3 0102 	strd	r0, r1, [r3, #8]
  102c32:	601d      	str	r5, [r3, #0]
  102c34:	4620      	mov	r0, r4
  102c36:	605d      	str	r5, [r3, #4]
  102c38:	741a      	strb	r2, [r3, #16]
  102c3a:	f7ff ffb1 	bl	102ba0 <update_present_time>
  102c3e:	4620      	mov	r0, r4
  102c40:	f7ff ffc1 	bl	102bc6 <schedule_interrupt>
  102c44:	6863      	ldr	r3, [r4, #4]
  102c46:	601e      	str	r6, [r3, #0]
  102c48:	bd70      	pop	{r4, r5, r6, pc}

00102c4a <ticker_irq_handler>:
  102c4a:	6803      	ldr	r3, [r0, #0]
  102c4c:	b570      	push	{r4, r5, r6, lr}
  102c4e:	68db      	ldr	r3, [r3, #12]
  102c50:	4604      	mov	r4, r0
  102c52:	4798      	blx	r3
  102c54:	6863      	ldr	r3, [r4, #4]
  102c56:	685b      	ldr	r3, [r3, #4]
  102c58:	b1a3      	cbz	r3, 102c84 <ticker_irq_handler+0x3a>
  102c5a:	4620      	mov	r0, r4
  102c5c:	f7ff ffa0 	bl	102ba0 <update_present_time>
  102c60:	6865      	ldr	r5, [r4, #4]
  102c62:	686e      	ldr	r6, [r5, #4]
  102c64:	e9d5 0102 	ldrd	r0, r1, [r5, #8]
  102c68:	e9d6 2300 	ldrd	r2, r3, [r6]
  102c6c:	4299      	cmp	r1, r3
  102c6e:	bf08      	it	eq
  102c70:	4290      	cmpeq	r0, r2
  102c72:	d307      	bcc.n	102c84 <ticker_irq_handler+0x3a>
  102c74:	68f3      	ldr	r3, [r6, #12]
  102c76:	606b      	str	r3, [r5, #4]
  102c78:	682b      	ldr	r3, [r5, #0]
  102c7a:	2b00      	cmp	r3, #0
  102c7c:	d0ea      	beq.n	102c54 <ticker_irq_handler+0xa>
  102c7e:	68b0      	ldr	r0, [r6, #8]
  102c80:	4798      	blx	r3
  102c82:	e7e7      	b.n	102c54 <ticker_irq_handler+0xa>
  102c84:	4620      	mov	r0, r4
  102c86:	e8bd 4070 	ldmia.w	sp!, {r4, r5, r6, lr}
  102c8a:	f7ff bf9c 	b.w	102bc6 <schedule_interrupt>

00102c8e <ticker_insert_event_us>:
  102c8e:	e92d 43f8 	stmdb	sp!, {r3, r4, r5, r6, r7, r8, r9, lr}
  102c92:	4605      	mov	r5, r0
  102c94:	460c      	mov	r4, r1
  102c96:	4616      	mov	r6, r2
  102c98:	461f      	mov	r7, r3
  102c9a:	f8dd 8020 	ldr.w	r8, [sp, #32]
  102c9e:	f000 f8a5 	bl	102dec <core_util_critical_section_enter>
  102ca2:	4628      	mov	r0, r5
  102ca4:	f7ff ff7c 	bl	102ba0 <update_present_time>
  102ca8:	6869      	ldr	r1, [r5, #4]
  102caa:	e9c4 6700 	strd	r6, r7, [r4]
  102cae:	684b      	ldr	r3, [r1, #4]
  102cb0:	f8c4 8008 	str.w	r8, [r4, #8]
  102cb4:	2200      	movs	r2, #0
  102cb6:	b143      	cbz	r3, 102cca <ticker_insert_event_us+0x3c>
  102cb8:	e9d3 8900 	ldrd	r8, r9, [r3]
  102cbc:	454f      	cmp	r7, r9
  102cbe:	bf08      	it	eq
  102cc0:	4546      	cmpeq	r6, r8
  102cc2:	d302      	bcc.n	102cca <ticker_insert_event_us+0x3c>
  102cc4:	461a      	mov	r2, r3
  102cc6:	68db      	ldr	r3, [r3, #12]
  102cc8:	e7f5      	b.n	102cb6 <ticker_insert_event_us+0x28>
  102cca:	60e3      	str	r3, [r4, #12]
  102ccc:	b90a      	cbnz	r2, 102cd2 <ticker_insert_event_us+0x44>
  102cce:	604c      	str	r4, [r1, #4]
  102cd0:	e000      	b.n	102cd4 <ticker_insert_event_us+0x46>
  102cd2:	60d4      	str	r4, [r2, #12]
  102cd4:	4628      	mov	r0, r5
  102cd6:	f7ff ff76 	bl	102bc6 <schedule_interrupt>
  102cda:	e8bd 43f8 	ldmia.w	sp!, {r3, r4, r5, r6, r7, r8, r9, lr}
  102cde:	f000 b8b1 	b.w	102e44 <core_util_critical_section_exit>

00102ce2 <ticker_remove_event>:
  102ce2:	b538      	push	{r3, r4, r5, lr}
  102ce4:	4605      	mov	r5, r0
  102ce6:	460c      	mov	r4, r1
  102ce8:	f000 f880 	bl	102dec <core_util_critical_section_enter>
  102cec:	686a      	ldr	r2, [r5, #4]
  102cee:	6853      	ldr	r3, [r2, #4]
  102cf0:	42a3      	cmp	r3, r4
  102cf2:	d106      	bne.n	102d02 <ticker_remove_event+0x20>
  102cf4:	68db      	ldr	r3, [r3, #12]
  102cf6:	4628      	mov	r0, r5
  102cf8:	6053      	str	r3, [r2, #4]
  102cfa:	f7ff ff64 	bl	102bc6 <schedule_interrupt>
  102cfe:	e006      	b.n	102d0e <ticker_remove_event+0x2c>
  102d00:	4613      	mov	r3, r2
  102d02:	b123      	cbz	r3, 102d0e <ticker_remove_event+0x2c>
  102d04:	68da      	ldr	r2, [r3, #12]
  102d06:	4294      	cmp	r4, r2
  102d08:	d1fa      	bne.n	102d00 <ticker_remove_event+0x1e>
  102d0a:	68e2      	ldr	r2, [r4, #12]
  102d0c:	60da      	str	r2, [r3, #12]
  102d0e:	e8bd 4038 	ldmia.w	sp!, {r3, r4, r5, lr}
  102d12:	f000 b897 	b.w	102e44 <core_util_critical_section_exit>

00102d16 <ticker_read_us>:
  102d16:	b510      	push	{r4, lr}
  102d18:	4604      	mov	r4, r0
  102d1a:	f7ff ff41 	bl	102ba0 <update_present_time>
  102d1e:	6863      	ldr	r3, [r4, #4]
  102d20:	e9d3 0102 	ldrd	r0, r1, [r3, #8]
  102d24:	bd10      	pop	{r4, pc}
	...

00102d28 <get_us_ticker_data>:
  102d28:	4800      	ldr	r0, [pc, #0]	; (102d2c <get_us_ticker_data+0x4>)
  102d2a:	4770      	bx	lr
  102d2c:	0010db20 	.word	0x0010db20

00102d30 <us_ticker_irq_handler>:
  102d30:	4801      	ldr	r0, [pc, #4]	; (102d38 <us_ticker_irq_handler+0x8>)
  102d32:	f7ff bf8a 	b.w	102c4a <ticker_irq_handler>
  102d36:	bf00      	nop
  102d38:	0010db20 	.word	0x0010db20

00102d3c <mbed_assert_internal>:
  102d3c:	b570      	push	{r4, r5, r6, lr}
  102d3e:	4604      	mov	r4, r0
  102d40:	460d      	mov	r5, r1
  102d42:	4616      	mov	r6, r2
  102d44:	f000 f852 	bl	102dec <core_util_critical_section_enter>
  102d48:	4633      	mov	r3, r6
  102d4a:	462a      	mov	r2, r5
  102d4c:	4621      	mov	r1, r4
  102d4e:	4803      	ldr	r0, [pc, #12]	; (102d5c <mbed_assert_internal+0x20>)
  102d50:	f000 f838 	bl	102dc4 <mbed_error_printf>
  102d54:	e8bd 4070 	ldmia.w	sp!, {r4, r5, r6, lr}
  102d58:	f000 b802 	b.w	102d60 <mbed_die>
  102d5c:	0010db28 	.word	0x0010db28

00102d60 <mbed_die>:
  102d60:	b508      	push	{r3, lr}
  102d62:	f000 f843 	bl	102dec <core_util_critical_section_enter>
  102d66:	2096      	movs	r0, #150	; 0x96
  102d68:	f004 f8b8 	bl	106edc <wait_ms>
  102d6c:	2096      	movs	r0, #150	; 0x96
  102d6e:	f004 f8b5 	bl	106edc <wait_ms>
  102d72:	e7f8      	b.n	102d66 <mbed_die+0x6>

00102d74 <mbed_error_vfprintf>:
  102d74:	b530      	push	{r4, r5, lr}
  102d76:	460d      	mov	r5, r1
  102d78:	4604      	mov	r4, r0
  102d7a:	b0a1      	sub	sp, #132	; 0x84
  102d7c:	f000 f836 	bl	102dec <core_util_critical_section_enter>
  102d80:	462b      	mov	r3, r5
  102d82:	4622      	mov	r2, r4
  102d84:	2180      	movs	r1, #128	; 0x80
  102d86:	4668      	mov	r0, sp
  102d88:	f008 fc2a 	bl	10b5e0 <vsniprintf>
  102d8c:	1e05      	subs	r5, r0, #0
  102d8e:	dc03      	bgt.n	102d98 <mbed_error_vfprintf+0x24>
  102d90:	f000 f858 	bl	102e44 <core_util_critical_section_exit>
  102d94:	b021      	add	sp, #132	; 0x84
  102d96:	bd30      	pop	{r4, r5, pc}
  102d98:	4b08      	ldr	r3, [pc, #32]	; (102dbc <mbed_error_vfprintf+0x48>)
  102d9a:	681b      	ldr	r3, [r3, #0]
  102d9c:	b923      	cbnz	r3, 102da8 <mbed_error_vfprintf+0x34>
  102d9e:	2209      	movs	r2, #9
  102da0:	2108      	movs	r1, #8
  102da2:	4807      	ldr	r0, [pc, #28]	; (102dc0 <mbed_error_vfprintf+0x4c>)
  102da4:	f002 ffc8 	bl	105d38 <serial_init>
  102da8:	2400      	movs	r4, #0
  102daa:	f81d 1004 	ldrb.w	r1, [sp, r4]
  102dae:	4804      	ldr	r0, [pc, #16]	; (102dc0 <mbed_error_vfprintf+0x4c>)
  102db0:	3401      	adds	r4, #1
  102db2:	f003 f8b8 	bl	105f26 <serial_putc>
  102db6:	42a5      	cmp	r5, r4
  102db8:	d1f7      	bne.n	102daa <mbed_error_vfprintf+0x36>
  102dba:	e7e9      	b.n	102d90 <mbed_error_vfprintf+0x1c>
  102dbc:	3fff4d00 	.word	0x3fff4d00
  102dc0:	3fff60e4 	.word	0x3fff60e4

00102dc4 <mbed_error_printf>:
  102dc4:	b40f      	push	{r0, r1, r2, r3}
  102dc6:	b507      	push	{r0, r1, r2, lr}
  102dc8:	a904      	add	r1, sp, #16
  102dca:	f851 0b04 	ldr.w	r0, [r1], #4
  102dce:	9101      	str	r1, [sp, #4]
  102dd0:	f7ff ffd0 	bl	102d74 <mbed_error_vfprintf>
  102dd4:	b003      	add	sp, #12
  102dd6:	f85d eb04 	ldr.w	lr, [sp], #4
  102dda:	b004      	add	sp, #16
  102ddc:	4770      	bx	lr

00102dde <core_util_are_interrupts_enabled>:
  102dde:	f3ef 8010 	mrs	r0, PRIMASK
  102de2:	f000 0001 	and.w	r0, r0, #1
  102de6:	f080 0001 	eor.w	r0, r0, #1
  102dea:	4770      	bx	lr

00102dec <core_util_critical_section_enter>:
  102dec:	b538      	push	{r3, r4, r5, lr}
  102dee:	f7ff fff6 	bl	102dde <core_util_are_interrupts_enabled>
  102df2:	4605      	mov	r5, r0
  102df4:	b672      	cpsid	i
  102df6:	4c0e      	ldr	r4, [pc, #56]	; (102e30 <core_util_critical_section_enter+0x44>)
  102df8:	6823      	ldr	r3, [r4, #0]
  102dfa:	b923      	cbnz	r3, 102e06 <core_util_critical_section_enter+0x1a>
  102dfc:	f080 0301 	eor.w	r3, r0, #1
  102e00:	4a0c      	ldr	r2, [pc, #48]	; (102e34 <core_util_critical_section_enter+0x48>)
  102e02:	b2db      	uxtb	r3, r3
  102e04:	7013      	strb	r3, [r2, #0]
  102e06:	6823      	ldr	r3, [r4, #0]
  102e08:	3301      	adds	r3, #1
  102e0a:	d104      	bne.n	102e16 <core_util_critical_section_enter+0x2a>
  102e0c:	2245      	movs	r2, #69	; 0x45
  102e0e:	490a      	ldr	r1, [pc, #40]	; (102e38 <core_util_critical_section_enter+0x4c>)
  102e10:	480a      	ldr	r0, [pc, #40]	; (102e3c <core_util_critical_section_enter+0x50>)
  102e12:	f7ff ff93 	bl	102d3c <mbed_assert_internal>
  102e16:	6823      	ldr	r3, [r4, #0]
  102e18:	b12b      	cbz	r3, 102e26 <core_util_critical_section_enter+0x3a>
  102e1a:	b125      	cbz	r5, 102e26 <core_util_critical_section_enter+0x3a>
  102e1c:	2249      	movs	r2, #73	; 0x49
  102e1e:	4906      	ldr	r1, [pc, #24]	; (102e38 <core_util_critical_section_enter+0x4c>)
  102e20:	4807      	ldr	r0, [pc, #28]	; (102e40 <core_util_critical_section_enter+0x54>)
  102e22:	f7ff ff8b 	bl	102d3c <mbed_assert_internal>
  102e26:	6823      	ldr	r3, [r4, #0]
  102e28:	3301      	adds	r3, #1
  102e2a:	6023      	str	r3, [r4, #0]
  102e2c:	bd38      	pop	{r3, r4, r5, pc}
  102e2e:	bf00      	nop
  102e30:	3fff4728 	.word	0x3fff4728
  102e34:	3fff472c 	.word	0x3fff472c
  102e38:	0010db59 	.word	0x0010db59
  102e3c:	0010db89 	.word	0x0010db89
  102e40:	0010dbaf 	.word	0x0010dbaf

00102e44 <core_util_critical_section_exit>:
  102e44:	b510      	push	{r4, lr}
  102e46:	4c0a      	ldr	r4, [pc, #40]	; (102e70 <core_util_critical_section_exit+0x2c>)
  102e48:	6823      	ldr	r3, [r4, #0]
  102e4a:	b183      	cbz	r3, 102e6e <core_util_critical_section_exit+0x2a>
  102e4c:	f7ff ffc7 	bl	102dde <core_util_are_interrupts_enabled>
  102e50:	b120      	cbz	r0, 102e5c <core_util_critical_section_exit+0x18>
  102e52:	225a      	movs	r2, #90	; 0x5a
  102e54:	4907      	ldr	r1, [pc, #28]	; (102e74 <core_util_critical_section_exit+0x30>)
  102e56:	4808      	ldr	r0, [pc, #32]	; (102e78 <core_util_critical_section_exit+0x34>)
  102e58:	f7ff ff70 	bl	102d3c <mbed_assert_internal>
  102e5c:	6823      	ldr	r3, [r4, #0]
  102e5e:	3b01      	subs	r3, #1
  102e60:	6023      	str	r3, [r4, #0]
  102e62:	6823      	ldr	r3, [r4, #0]
  102e64:	b91b      	cbnz	r3, 102e6e <core_util_critical_section_exit+0x2a>
  102e66:	4b05      	ldr	r3, [pc, #20]	; (102e7c <core_util_critical_section_exit+0x38>)
  102e68:	781b      	ldrb	r3, [r3, #0]
  102e6a:	b903      	cbnz	r3, 102e6e <core_util_critical_section_exit+0x2a>
  102e6c:	b662      	cpsie	i
  102e6e:	bd10      	pop	{r4, pc}
  102e70:	3fff4728 	.word	0x3fff4728
  102e74:	0010db59 	.word	0x0010db59
  102e78:	0010dbaf 	.word	0x0010dbaf
  102e7c:	3fff472c 	.word	0x3fff472c

00102e80 <error>:
  102e80:	b40f      	push	{r0, r1, r2, r3}
  102e82:	b513      	push	{r0, r1, r4, lr}
  102e84:	4b08      	ldr	r3, [pc, #32]	; (102ea8 <error+0x28>)
  102e86:	781a      	ldrb	r2, [r3, #0]
  102e88:	b94a      	cbnz	r2, 102e9e <error+0x1e>
  102e8a:	2401      	movs	r4, #1
  102e8c:	a905      	add	r1, sp, #20
  102e8e:	9804      	ldr	r0, [sp, #16]
  102e90:	701c      	strb	r4, [r3, #0]
  102e92:	9101      	str	r1, [sp, #4]
  102e94:	f7ff ff6e 	bl	102d74 <mbed_error_vfprintf>
  102e98:	4620      	mov	r0, r4
  102e9a:	f003 ff1a 	bl	106cd2 <__wrap_exit>
  102e9e:	b002      	add	sp, #8
  102ea0:	e8bd 4010 	ldmia.w	sp!, {r4, lr}
  102ea4:	b004      	add	sp, #16
  102ea6:	4770      	bx	lr
  102ea8:	3fff472d 	.word	0x3fff472d

00102eac <pre_main>:
  102eac:	b538      	push	{r3, r4, r5, lr}
  102eae:	4815      	ldr	r0, [pc, #84]	; (102f04 <pre_main+0x58>)
  102eb0:	4b15      	ldr	r3, [pc, #84]	; (102f08 <pre_main+0x5c>)
  102eb2:	250b      	movs	r5, #11
  102eb4:	6003      	str	r3, [r0, #0]
  102eb6:	4b15      	ldr	r3, [pc, #84]	; (102f0c <pre_main+0x60>)
  102eb8:	241c      	movs	r4, #28
  102eba:	6045      	str	r5, [r0, #4]
  102ebc:	60c4      	str	r4, [r0, #12]
  102ebe:	6083      	str	r3, [r0, #8]
  102ec0:	f001 f916 	bl	1040f0 <osMutexNew>
  102ec4:	4b12      	ldr	r3, [pc, #72]	; (102f10 <pre_main+0x64>)
  102ec6:	6018      	str	r0, [r3, #0]
  102ec8:	4812      	ldr	r0, [pc, #72]	; (102f14 <pre_main+0x68>)
  102eca:	4b13      	ldr	r3, [pc, #76]	; (102f18 <pre_main+0x6c>)
  102ecc:	60c4      	str	r4, [r0, #12]
  102ece:	e880 0028 	stmia.w	r0, {r3, r5}
  102ed2:	4b12      	ldr	r3, [pc, #72]	; (102f1c <pre_main+0x70>)
  102ed4:	6083      	str	r3, [r0, #8]
  102ed6:	f001 f90b 	bl	1040f0 <osMutexNew>
  102eda:	4b11      	ldr	r3, [pc, #68]	; (102f20 <pre_main+0x74>)
  102edc:	6018      	str	r0, [r3, #0]
  102ede:	4811      	ldr	r0, [pc, #68]	; (102f24 <pre_main+0x78>)
  102ee0:	4b11      	ldr	r3, [pc, #68]	; (102f28 <pre_main+0x7c>)
  102ee2:	60c4      	str	r4, [r0, #12]
  102ee4:	e880 0028 	stmia.w	r0, {r3, r5}
  102ee8:	4b10      	ldr	r3, [pc, #64]	; (102f2c <pre_main+0x80>)
  102eea:	6083      	str	r3, [r0, #8]
  102eec:	f001 f900 	bl	1040f0 <osMutexNew>
  102ef0:	4b0f      	ldr	r3, [pc, #60]	; (102f30 <pre_main+0x84>)
  102ef2:	6018      	str	r0, [r3, #0]
  102ef4:	f005 fd5a 	bl	1089ac <__libc_init_array>
  102ef8:	e8bd 4038 	ldmia.w	sp!, {r3, r4, r5, lr}
  102efc:	2100      	movs	r1, #0
  102efe:	4608      	mov	r0, r1
  102f00:	f000 b860 	b.w	102fc4 <__wrap_main>
  102f04:	3fff609c 	.word	0x3fff609c
  102f08:	0010dbc3 	.word	0x0010dbc3
  102f0c:	3fff6064 	.word	0x3fff6064
  102f10:	3fff6060 	.word	0x3fff6060
  102f14:	3fff6050 	.word	0x3fff6050
  102f18:	0010dbd3 	.word	0x0010dbd3
  102f1c:	3fff6080 	.word	0x3fff6080
  102f20:	3fff5028 	.word	0x3fff5028
  102f24:	3fff60d0 	.word	0x3fff60d0
  102f28:	0010dbe0 	.word	0x0010dbe0
  102f2c:	3fff6034 	.word	0x3fff6034
  102f30:	3fff6030 	.word	0x3fff6030

00102f34 <mbed_set_stack_heap>:
  102f34:	4a09      	ldr	r2, [pc, #36]	; (102f5c <mbed_set_stack_heap+0x28>)
  102f36:	480a      	ldr	r0, [pc, #40]	; (102f60 <mbed_set_stack_heap+0x2c>)
  102f38:	f1c2 4380 	rsb	r3, r2, #1073741824	; 0x40000000
  102f3c:	4619      	mov	r1, r3
  102f3e:	f5b3 6f80 	cmp.w	r3, #1024	; 0x400
  102f42:	bf28      	it	cs
  102f44:	f44f 6180 	movcs.w	r1, #1024	; 0x400
  102f48:	1a5b      	subs	r3, r3, r1
  102f4a:	6001      	str	r1, [r0, #0]
  102f4c:	4905      	ldr	r1, [pc, #20]	; (102f64 <mbed_set_stack_heap+0x30>)
  102f4e:	1898      	adds	r0, r3, r2
  102f50:	6008      	str	r0, [r1, #0]
  102f52:	4905      	ldr	r1, [pc, #20]	; (102f68 <mbed_set_stack_heap+0x34>)
  102f54:	600b      	str	r3, [r1, #0]
  102f56:	4b05      	ldr	r3, [pc, #20]	; (102f6c <mbed_set_stack_heap+0x38>)
  102f58:	601a      	str	r2, [r3, #0]
  102f5a:	4770      	bx	lr
  102f5c:	3fff60f8 	.word	0x3fff60f8
  102f60:	3fff4734 	.word	0x3fff4734
  102f64:	3fff4730 	.word	0x3fff4730
  102f68:	3fff4e2c 	.word	0x3fff4e2c
  102f6c:	3fff4f30 	.word	0x3fff4f30

00102f70 <mbed_main>:
  102f70:	4770      	bx	lr

00102f72 <mbed_sdk_init>:
  102f72:	4770      	bx	lr

00102f74 <mbed_start_main>:
  102f74:	b508      	push	{r3, lr}
  102f76:	4a0d      	ldr	r2, [pc, #52]	; (102fac <mbed_start_main+0x38>)
  102f78:	4b0d      	ldr	r3, [pc, #52]	; (102fb0 <mbed_start_main+0x3c>)
  102f7a:	2100      	movs	r1, #0
  102f7c:	6113      	str	r3, [r2, #16]
  102f7e:	f44f 5380 	mov.w	r3, #4096	; 0x1000
  102f82:	6153      	str	r3, [r2, #20]
  102f84:	2348      	movs	r3, #72	; 0x48
  102f86:	60d3      	str	r3, [r2, #12]
  102f88:	4b0a      	ldr	r3, [pc, #40]	; (102fb4 <mbed_start_main+0x40>)
  102f8a:	480b      	ldr	r0, [pc, #44]	; (102fb8 <mbed_start_main+0x44>)
  102f8c:	6093      	str	r3, [r2, #8]
  102f8e:	2318      	movs	r3, #24
  102f90:	6193      	str	r3, [r2, #24]
  102f92:	4b0a      	ldr	r3, [pc, #40]	; (102fbc <mbed_start_main+0x48>)
  102f94:	6013      	str	r3, [r2, #0]
  102f96:	f001 fde1 	bl	104b5c <osThreadNew>
  102f9a:	b910      	cbnz	r0, 102fa2 <mbed_start_main+0x2e>
  102f9c:	4808      	ldr	r0, [pc, #32]	; (102fc0 <mbed_start_main+0x4c>)
  102f9e:	f7ff ff6f 	bl	102e80 <error>
  102fa2:	e8bd 4008 	ldmia.w	sp!, {r3, lr}
  102fa6:	f000 ba63 	b.w	103470 <osKernelStart>
  102faa:	bf00      	nop
  102fac:	3fff60ac 	.word	0x3fff60ac
  102fb0:	3fff5030 	.word	0x3fff5030
  102fb4:	3fff4fe0 	.word	0x3fff4fe0
  102fb8:	00102ead 	.word	0x00102ead
  102fbc:	0010dbea 	.word	0x0010dbea
  102fc0:	0010dbf6 	.word	0x0010dbf6

00102fc4 <__wrap_main>:
  102fc4:	b508      	push	{r3, lr}
  102fc6:	f7ff ffd3 	bl	102f70 <mbed_main>
  102fca:	e8bd 4008 	ldmia.w	sp!, {r3, lr}
  102fce:	f7ff b9ed 	b.w	1023ac <main>
	...

00102fd4 <software_init_hook>:
  102fd4:	b510      	push	{r4, lr}
  102fd6:	f7ff ffad 	bl	102f34 <mbed_set_stack_heap>
  102fda:	4b0a      	ldr	r3, [pc, #40]	; (103004 <software_init_hook+0x30>)
  102fdc:	490a      	ldr	r1, [pc, #40]	; (103008 <software_init_hook+0x34>)
  102fde:	689a      	ldr	r2, [r3, #8]
  102fe0:	480a      	ldr	r0, [pc, #40]	; (10300c <software_init_hook+0x38>)
  102fe2:	3a04      	subs	r2, #4
  102fe4:	f852 4f04 	ldr.w	r4, [r2, #4]!
  102fe8:	f841 4f04 	str.w	r4, [r1, #4]!
  102fec:	4281      	cmp	r1, r0
  102fee:	d1f9      	bne.n	102fe4 <software_init_hook+0x10>
  102ff0:	4a07      	ldr	r2, [pc, #28]	; (103010 <software_init_hook+0x3c>)
  102ff2:	609a      	str	r2, [r3, #8]
  102ff4:	f7ff ffbd 	bl	102f72 <mbed_sdk_init>
  102ff8:	f000 f9f4 	bl	1033e4 <osKernelInitialize>
  102ffc:	e8bd 4010 	ldmia.w	sp!, {r4, lr}
  103000:	f7ff bfb8 	b.w	102f74 <mbed_start_main>
  103004:	e000ed00 	.word	0xe000ed00
  103008:	3fff3ffc 	.word	0x3fff3ffc
  10300c:	3fff408c 	.word	0x3fff408c
  103010:	3fff4000 	.word	0x3fff4000

00103014 <default_idle_hook>:
  103014:	f002 bfa4 	b.w	105f60 <hal_sleep>

00103018 <rtos_idle_loop>:
  103018:	b508      	push	{r3, lr}
  10301a:	4c02      	ldr	r4, [pc, #8]	; (103024 <rtos_idle_loop+0xc>)
  10301c:	6823      	ldr	r3, [r4, #0]
  10301e:	4798      	blx	r3
  103020:	e7fc      	b.n	10301c <rtos_idle_loop+0x4>
  103022:	bf00      	nop
  103024:	3fff40a4 	.word	0x3fff40a4

00103028 <osRtxIdleThread>:
  103028:	b508      	push	{r3, lr}
  10302a:	f7ff fff5 	bl	103018 <rtos_idle_loop>
  10302e:	e7fc      	b.n	10302a <osRtxIdleThread+0x2>

00103030 <osRtxErrorNotify>:
  103030:	b508      	push	{r3, lr}
  103032:	4605      	mov	r5, r0
  103034:	460c      	mov	r4, r1
  103036:	f001 fdad 	bl	104b94 <osThreadGetId>
  10303a:	1e6b      	subs	r3, r5, #1
  10303c:	4602      	mov	r2, r0
  10303e:	2b04      	cmp	r3, #4
  103040:	d824      	bhi.n	10308c <osRtxErrorNotify+0x5c>
  103042:	e8df f003 	tbb	[pc, r3]
  103046:	0d03      	.short	0x0d03
  103048:	1913      	.short	0x1913
  10304a:	1e          	.byte	0x1e
  10304b:	00          	.byte	0x00
  10304c:	4620      	mov	r0, r4
  10304e:	f001 fd89 	bl	104b64 <osThreadGetName>
  103052:	4622      	mov	r2, r4
  103054:	4603      	mov	r3, r0
  103056:	2101      	movs	r1, #1
  103058:	480f      	ldr	r0, [pc, #60]	; (103098 <osRtxErrorNotify+0x68>)
  10305a:	f7ff ff11 	bl	102e80 <error>
  10305e:	e019      	b.n	103094 <osRtxErrorNotify+0x64>
  103060:	4623      	mov	r3, r4
  103062:	2102      	movs	r1, #2
  103064:	480d      	ldr	r0, [pc, #52]	; (10309c <osRtxErrorNotify+0x6c>)
  103066:	f7ff ff0b 	bl	102e80 <error>
  10306a:	e013      	b.n	103094 <osRtxErrorNotify+0x64>
  10306c:	4623      	mov	r3, r4
  10306e:	2103      	movs	r1, #3
  103070:	480b      	ldr	r0, [pc, #44]	; (1030a0 <osRtxErrorNotify+0x70>)
  103072:	f7ff ff05 	bl	102e80 <error>
  103076:	e00d      	b.n	103094 <osRtxErrorNotify+0x64>
  103078:	2104      	movs	r1, #4
  10307a:	480a      	ldr	r0, [pc, #40]	; (1030a4 <osRtxErrorNotify+0x74>)
  10307c:	f7ff ff00 	bl	102e80 <error>
  103080:	e008      	b.n	103094 <osRtxErrorNotify+0x64>
  103082:	2105      	movs	r1, #5
  103084:	4808      	ldr	r0, [pc, #32]	; (1030a8 <osRtxErrorNotify+0x78>)
  103086:	f7ff fefb 	bl	102e80 <error>
  10308a:	e003      	b.n	103094 <osRtxErrorNotify+0x64>
  10308c:	4629      	mov	r1, r5
  10308e:	4807      	ldr	r0, [pc, #28]	; (1030ac <osRtxErrorNotify+0x7c>)
  103090:	f7ff fef6 	bl	102e80 <error>
  103094:	e7fe      	b.n	103094 <osRtxErrorNotify+0x64>
  103096:	bf00      	nop
  103098:	0010dc12 	.word	0x0010dc12
  10309c:	0010dc63 	.word	0x0010dc63
  1030a0:	0010dcb9 	.word	0x0010dcb9
  1030a4:	0010dd1e 	.word	0x0010dd1e
  1030a8:	0010dd79 	.word	0x0010dd79
  1030ac:	0010ddd9 	.word	0x0010ddd9

001030b0 <svcRtxDelay>:
  1030b0:	b508      	push	{r3, lr}
  1030b2:	4601      	mov	r1, r0
  1030b4:	b110      	cbz	r0, 1030bc <svcRtxDelay+0xc>
  1030b6:	2013      	movs	r0, #19
  1030b8:	f001 fcc2 	bl	104a40 <osRtxThreadWaitEnter>
  1030bc:	2000      	movs	r0, #0
  1030be:	bd08      	pop	{r3, pc}

001030c0 <osDelay>:
  1030c0:	b510      	push	{r4, lr}
  1030c2:	4604      	mov	r4, r0
  1030c4:	f000 f831 	bl	10312a <EvrRtxThreadDelay>
  1030c8:	f3ef 8305 	mrs	r3, IPSR
  1030cc:	b92b      	cbnz	r3, 1030da <osDelay+0x1a>
  1030ce:	f3ef 8310 	mrs	r3, PRIMASK
  1030d2:	b913      	cbnz	r3, 1030da <osDelay+0x1a>
  1030d4:	f3ef 8311 	mrs	r3, BASEPRI
  1030d8:	b13b      	cbz	r3, 1030ea <osDelay+0x2a>
  1030da:	f06f 0105 	mvn.w	r1, #5
  1030de:	2000      	movs	r0, #0
  1030e0:	f000 f816 	bl	103110 <EvrRtxThreadError>
  1030e4:	f06f 0005 	mvn.w	r0, #5
  1030e8:	bd10      	pop	{r4, pc}
  1030ea:	4620      	mov	r0, r4
  1030ec:	f8df c004 	ldr.w	r12, [pc, #4]	; 1030f4 <osDelay+0x34>
  1030f0:	df00      	svc	0
  1030f2:	bd10      	pop	{r4, pc}
  1030f4:	001030b1 	.word	0x001030b1

001030f8 <EvrRtxMemoryInit>:
  1030f8:	4770      	bx	lr

001030fa <EvrRtxMemoryAlloc>:
  1030fa:	4770      	bx	lr

001030fc <EvrRtxMemoryFree>:
  1030fc:	4770      	bx	lr

001030fe <EvrRtxMemoryBlockInit>:
  1030fe:	4770      	bx	lr

00103100 <EvrRtxMemoryBlockAlloc>:
  103100:	4770      	bx	lr

00103102 <EvrRtxMemoryBlockFree>:
  103102:	4770      	bx	lr

00103104 <EvrRtxKernelError>:
  103104:	4770      	bx	lr

00103106 <EvrRtxKernelInitialize>:
  103106:	4770      	bx	lr

00103108 <EvrRtxKernelInitializeCompleted>:
  103108:	4770      	bx	lr

0010310a <EvrRtxKernelGetState>:
  10310a:	4770      	bx	lr

0010310c <EvrRtxKernelStart>:
  10310c:	4770      	bx	lr

0010310e <EvrRtxKernelStarted>:
  10310e:	4770      	bx	lr

00103110 <EvrRtxThreadError>:
  103110:	4770      	bx	lr

00103112 <EvrRtxThreadNew>:
  103112:	4770      	bx	lr

00103114 <EvrRtxThreadCreated>:
  103114:	4770      	bx	lr

00103116 <EvrRtxThreadGetName>:
  103116:	4770      	bx	lr

00103118 <EvrRtxThreadGetId>:
  103118:	4770      	bx	lr

0010311a <EvrRtxThreadJoined>:
  10311a:	4770      	bx	lr

0010311c <EvrRtxThreadBlocked>:
  10311c:	4770      	bx	lr

0010311e <EvrRtxThreadUnblocked>:
  10311e:	4770      	bx	lr

00103120 <EvrRtxThreadSwitch>:
  103120:	4770      	bx	lr

00103122 <EvrRtxThreadExit>:
  103122:	4770      	bx	lr

00103124 <EvrRtxThreadDestroyed>:
  103124:	4770      	bx	lr

00103126 <EvrRtxThreadFlagsWaitTimeout>:
  103126:	4770      	bx	lr

00103128 <EvrRtxThreadFlagsWaitCompleted>:
  103128:	4770      	bx	lr

0010312a <EvrRtxThreadDelay>:
  10312a:	4770      	bx	lr

0010312c <EvrRtxThreadDelayCompleted>:
  10312c:	4770      	bx	lr

0010312e <EvrRtxTimerCallback>:
  10312e:	4770      	bx	lr

00103130 <EvrRtxEventFlagsWaitTimeout>:
  103130:	4770      	bx	lr

00103132 <EvrRtxMutexError>:
  103132:	4770      	bx	lr

00103134 <EvrRtxMutexNew>:
  103134:	4770      	bx	lr

00103136 <EvrRtxMutexCreated>:
  103136:	4770      	bx	lr

00103138 <EvrRtxMutexAcquire>:
  103138:	4770      	bx	lr

0010313a <EvrRtxMutexAcquirePending>:
  10313a:	4770      	bx	lr

0010313c <EvrRtxMutexAcquireTimeout>:
  10313c:	4770      	bx	lr

0010313e <EvrRtxMutexAcquired>:
  10313e:	4770      	bx	lr

00103140 <EvrRtxMutexNotAcquired>:
  103140:	4770      	bx	lr

00103142 <EvrRtxMutexRelease>:
  103142:	4770      	bx	lr

00103144 <EvrRtxMutexReleased>:
  103144:	4770      	bx	lr

00103146 <EvrRtxMutexDelete>:
  103146:	4770      	bx	lr

00103148 <EvrRtxMutexDestroyed>:
  103148:	4770      	bx	lr

0010314a <EvrRtxSemaphoreAcquireTimeout>:
  10314a:	4770      	bx	lr

0010314c <EvrRtxMemoryPoolAllocTimeout>:
  10314c:	4770      	bx	lr

0010314e <EvrRtxMessageQueueError>:
  10314e:	4770      	bx	lr

00103150 <EvrRtxMessageQueueNew>:
  103150:	4770      	bx	lr

00103152 <EvrRtxMessageQueueCreated>:
  103152:	4770      	bx	lr

00103154 <EvrRtxMessageQueuePut>:
  103154:	4770      	bx	lr

00103156 <EvrRtxMessageQueuePutPending>:
  103156:	4770      	bx	lr

00103158 <EvrRtxMessageQueuePutTimeout>:
  103158:	4770      	bx	lr

0010315a <EvrRtxMessageQueueInsertPending>:
  10315a:	4770      	bx	lr

0010315c <EvrRtxMessageQueueInserted>:
  10315c:	4770      	bx	lr

0010315e <EvrRtxMessageQueueNotInserted>:
  10315e:	4770      	bx	lr

00103160 <EvrRtxMessageQueueGet>:
  103160:	4770      	bx	lr

00103162 <EvrRtxMessageQueueGetPending>:
  103162:	4770      	bx	lr

00103164 <EvrRtxMessageQueueGetTimeout>:
  103164:	4770      	bx	lr

00103166 <EvrRtxMessageQueueRetrieved>:
  103166:	4770      	bx	lr

00103168 <EvrRtxMessageQueueNotRetrieved>:
  103168:	4770      	bx	lr
	...

0010316c <svcRtxKernelInitialize>:
  10316c:	b570      	push	{r4, r5, r6, lr}
  10316e:	4863      	ldr	r0, [pc, #396]	; (1032fc <svcRtxKernelInitialize+0x190>)
  103170:	7a01      	ldrb	r1, [r0, #8]
  103172:	4604      	mov	r4, r0
  103174:	2901      	cmp	r1, #1
  103176:	f000 80bd 	beq.w	1032f4 <svcRtxKernelInitialize+0x188>
  10317a:	b111      	cbz	r1, 103182 <svcRtxKernelInitialize+0x16>
  10317c:	f04f 30ff 	mov.w	r0, #4294967295
  103180:	e009      	b.n	103196 <svcRtxKernelInitialize+0x2a>
  103182:	4d5f      	ldr	r5, [pc, #380]	; (103300 <svcRtxKernelInitialize+0x194>)
  103184:	22a8      	movs	r2, #168	; 0xa8
  103186:	3008      	adds	r0, #8
  103188:	f005 fcca 	bl	108b20 <memset>
  10318c:	6d6b      	ldr	r3, [r5, #84]	; 0x54
  10318e:	2b47      	cmp	r3, #71	; 0x47
  103190:	d806      	bhi.n	1031a0 <svcRtxKernelInitialize+0x34>
  103192:	f06f 000a 	mvn.w	r0, #10
  103196:	f7ff ffb5 	bl	103104 <EvrRtxKernelError>
  10319a:	f04f 30ff 	mov.w	r0, #4294967295
  10319e:	bd70      	pop	{r4, r5, r6, pc}
  1031a0:	68ea      	ldr	r2, [r5, #12]
  1031a2:	2a00      	cmp	r2, #0
  1031a4:	d0ea      	beq.n	10317c <svcRtxKernelInitialize+0x10>
  1031a6:	8a2b      	ldrh	r3, [r5, #16]
  1031a8:	2b00      	cmp	r3, #0
  1031aa:	d0e7      	beq.n	10317c <svcRtxKernelInitialize+0x10>
  1031ac:	6aee      	ldr	r6, [r5, #44]	; 0x2c
  1031ae:	f8a4 305c 	strh.w	r3, [r4, #92]	; 0x5c
  1031b2:	68ab      	ldr	r3, [r5, #8]
  1031b4:	6b29      	ldr	r1, [r5, #48]	; 0x30
  1031b6:	4630      	mov	r0, r6
  1031b8:	6662      	str	r2, [r4, #100]	; 0x64
  1031ba:	64a3      	str	r3, [r4, #72]	; 0x48
  1031bc:	f000 f98a 	bl	1034d4 <osRtxMemoryInit>
  1031c0:	b108      	cbz	r0, 1031c6 <svcRtxKernelInitialize+0x5a>
  1031c2:	f8c4 6088 	str.w	r6, [r4, #136]	; 0x88
  1031c6:	696e      	ldr	r6, [r5, #20]
  1031c8:	69a9      	ldr	r1, [r5, #24]
  1031ca:	4630      	mov	r0, r6
  1031cc:	f000 f982 	bl	1034d4 <osRtxMemoryInit>
  1031d0:	b108      	cbz	r0, 1031d6 <svcRtxKernelInitialize+0x6a>
  1031d2:	67e6      	str	r6, [r4, #124]	; 0x7c
  1031d4:	e002      	b.n	1031dc <svcRtxKernelInitialize+0x70>
  1031d6:	f8d4 3088 	ldr.w	r3, [r4, #136]	; 0x88
  1031da:	67e3      	str	r3, [r4, #124]	; 0x7c
  1031dc:	69ee      	ldr	r6, [r5, #28]
  1031de:	6a29      	ldr	r1, [r5, #32]
  1031e0:	4630      	mov	r0, r6
  1031e2:	f000 f977 	bl	1034d4 <osRtxMemoryInit>
  1031e6:	b110      	cbz	r0, 1031ee <svcRtxKernelInitialize+0x82>
  1031e8:	f8c4 6080 	str.w	r6, [r4, #128]	; 0x80
  1031ec:	e003      	b.n	1031f6 <svcRtxKernelInitialize+0x8a>
  1031ee:	f8d4 3088 	ldr.w	r3, [r4, #136]	; 0x88
  1031f2:	f8c4 3080 	str.w	r3, [r4, #128]	; 0x80
  1031f6:	6a6e      	ldr	r6, [r5, #36]	; 0x24
  1031f8:	6aa9      	ldr	r1, [r5, #40]	; 0x28
  1031fa:	4630      	mov	r0, r6
  1031fc:	f000 f96a 	bl	1034d4 <osRtxMemoryInit>
  103200:	b110      	cbz	r0, 103208 <svcRtxKernelInitialize+0x9c>
  103202:	f8c4 6084 	str.w	r6, [r4, #132]	; 0x84
  103206:	e003      	b.n	103210 <svcRtxKernelInitialize+0xa4>
  103208:	f8d4 3088 	ldr.w	r3, [r4, #136]	; 0x88
  10320c:	f8c4 3084 	str.w	r3, [r4, #132]	; 0x84
  103210:	6b6e      	ldr	r6, [r5, #52]	; 0x34
  103212:	b146      	cbz	r6, 103226 <svcRtxKernelInitialize+0xba>
  103214:	68f3      	ldr	r3, [r6, #12]
  103216:	68b2      	ldr	r2, [r6, #8]
  103218:	6831      	ldr	r1, [r6, #0]
  10321a:	4630      	mov	r0, r6
  10321c:	f000 f9d5 	bl	1035ca <osRtxMemoryPoolInit>
  103220:	b108      	cbz	r0, 103226 <svcRtxKernelInitialize+0xba>
  103222:	f8c4 608c 	str.w	r6, [r4, #140]	; 0x8c
  103226:	6bae      	ldr	r6, [r5, #56]	; 0x38
  103228:	b146      	cbz	r6, 10323c <svcRtxKernelInitialize+0xd0>
  10322a:	68f3      	ldr	r3, [r6, #12]
  10322c:	68b2      	ldr	r2, [r6, #8]
  10322e:	6831      	ldr	r1, [r6, #0]
  103230:	4630      	mov	r0, r6
  103232:	f000 f9ca 	bl	1035ca <osRtxMemoryPoolInit>
  103236:	b108      	cbz	r0, 10323c <svcRtxKernelInitialize+0xd0>
  103238:	f8c4 6090 	str.w	r6, [r4, #144]	; 0x90
  10323c:	6bee      	ldr	r6, [r5, #60]	; 0x3c
  10323e:	b146      	cbz	r6, 103252 <svcRtxKernelInitialize+0xe6>
  103240:	68f3      	ldr	r3, [r6, #12]
  103242:	68b2      	ldr	r2, [r6, #8]
  103244:	6831      	ldr	r1, [r6, #0]
  103246:	4630      	mov	r0, r6
  103248:	f000 f9bf 	bl	1035ca <osRtxMemoryPoolInit>
  10324c:	b108      	cbz	r0, 103252 <svcRtxKernelInitialize+0xe6>
  10324e:	f8c4 6094 	str.w	r6, [r4, #148]	; 0x94
  103252:	6c2e      	ldr	r6, [r5, #64]	; 0x40
  103254:	b146      	cbz	r6, 103268 <svcRtxKernelInitialize+0xfc>
  103256:	68f3      	ldr	r3, [r6, #12]
  103258:	68b2      	ldr	r2, [r6, #8]
  10325a:	6831      	ldr	r1, [r6, #0]
  10325c:	4630      	mov	r0, r6
  10325e:	f000 f9b4 	bl	1035ca <osRtxMemoryPoolInit>
  103262:	b108      	cbz	r0, 103268 <svcRtxKernelInitialize+0xfc>
  103264:	f8c4 6098 	str.w	r6, [r4, #152]	; 0x98
  103268:	6c6e      	ldr	r6, [r5, #68]	; 0x44
  10326a:	b146      	cbz	r6, 10327e <svcRtxKernelInitialize+0x112>
  10326c:	68f3      	ldr	r3, [r6, #12]
  10326e:	68b2      	ldr	r2, [r6, #8]
  103270:	6831      	ldr	r1, [r6, #0]
  103272:	4630      	mov	r0, r6
  103274:	f000 f9a9 	bl	1035ca <osRtxMemoryPoolInit>
  103278:	b108      	cbz	r0, 10327e <svcRtxKernelInitialize+0x112>
  10327a:	f8c4 609c 	str.w	r6, [r4, #156]	; 0x9c
  10327e:	6cae      	ldr	r6, [r5, #72]	; 0x48
  103280:	b146      	cbz	r6, 103294 <svcRtxKernelInitialize+0x128>
  103282:	68f3      	ldr	r3, [r6, #12]
  103284:	68b2      	ldr	r2, [r6, #8]
  103286:	6831      	ldr	r1, [r6, #0]
  103288:	4630      	mov	r0, r6
  10328a:	f000 f99e 	bl	1035ca <osRtxMemoryPoolInit>
  10328e:	b108      	cbz	r0, 103294 <svcRtxKernelInitialize+0x128>
  103290:	f8c4 60a0 	str.w	r6, [r4, #160]	; 0xa0
  103294:	6cee      	ldr	r6, [r5, #76]	; 0x4c
  103296:	b146      	cbz	r6, 1032aa <svcRtxKernelInitialize+0x13e>
  103298:	68f3      	ldr	r3, [r6, #12]
  10329a:	68b2      	ldr	r2, [r6, #8]
  10329c:	6831      	ldr	r1, [r6, #0]
  10329e:	4630      	mov	r0, r6
  1032a0:	f000 f993 	bl	1035ca <osRtxMemoryPoolInit>
  1032a4:	b108      	cbz	r0, 1032aa <svcRtxKernelInitialize+0x13e>
  1032a6:	f8c4 60a4 	str.w	r6, [r4, #164]	; 0xa4
  1032aa:	6d2d      	ldr	r5, [r5, #80]	; 0x50
  1032ac:	b145      	cbz	r5, 1032c0 <svcRtxKernelInitialize+0x154>
  1032ae:	68eb      	ldr	r3, [r5, #12]
  1032b0:	68aa      	ldr	r2, [r5, #8]
  1032b2:	6829      	ldr	r1, [r5, #0]
  1032b4:	4628      	mov	r0, r5
  1032b6:	f000 f988 	bl	1035ca <osRtxMemoryPoolInit>
  1032ba:	b108      	cbz	r0, 1032c0 <svcRtxKernelInitialize+0x154>
  1032bc:	f8c4 50a8 	str.w	r5, [r4, #168]	; 0xa8
  1032c0:	4a10      	ldr	r2, [pc, #64]	; (103304 <svcRtxKernelInitialize+0x198>)
  1032c2:	23ff      	movs	r3, #255	; 0xff
  1032c4:	f882 3022 	strb.w	r3, [r2, #34]	; 0x22
  1032c8:	f892 3022 	ldrb.w	r3, [r2, #34]	; 0x22
  1032cc:	68d1      	ldr	r1, [r2, #12]
  1032ce:	f063 03ff 	orn	r3, r3, #255	; 0xff
  1032d2:	43db      	mvns	r3, r3
  1032d4:	fab3 f383 	clz	r3, r3
  1032d8:	f3c1 2102 	ubfx	r1, r1, #8, #3
  1032dc:	f1c3 0320 	rsb	r3, r3, #32
  1032e0:	428b      	cmp	r3, r1
  1032e2:	bf98      	it	ls
  1032e4:	1c4b      	addls	r3, r1, #1
  1032e6:	21fe      	movs	r1, #254	; 0xfe
  1032e8:	fa01 f303 	lsl.w	r3, r1, r3
  1032ec:	b2db      	uxtb	r3, r3
  1032ee:	77d3      	strb	r3, [r2, #31]
  1032f0:	2301      	movs	r3, #1
  1032f2:	7223      	strb	r3, [r4, #8]
  1032f4:	f7ff ff08 	bl	103108 <EvrRtxKernelInitializeCompleted>
  1032f8:	2000      	movs	r0, #0
  1032fa:	bd70      	pop	{r4, r5, r6, pc}
  1032fc:	3fff40a8 	.word	0x3fff40a8
  103300:	0010de58 	.word	0x0010de58
  103304:	e000ed00 	.word	0xe000ed00

00103308 <svcRtxKernelGetState>:
  103308:	b510      	push	{r4, lr}
  10330a:	4c03      	ldr	r4, [pc, #12]	; (103318 <svcRtxKernelGetState+0x10>)
  10330c:	7a20      	ldrb	r0, [r4, #8]
  10330e:	f7ff fefc 	bl	10310a <EvrRtxKernelGetState>
  103312:	7a20      	ldrb	r0, [r4, #8]
  103314:	bd10      	pop	{r4, pc}
  103316:	bf00      	nop
  103318:	3fff40a8 	.word	0x3fff40a8

0010331c <svcRtxKernelStart>:
  10331c:	b538      	push	{r3, r4, r5, lr}
  10331e:	4c2a      	ldr	r4, [pc, #168]	; (1033c8 <svcRtxKernelStart+0xac>)
  103320:	7a23      	ldrb	r3, [r4, #8]
  103322:	2b01      	cmp	r3, #1
  103324:	d002      	beq.n	10332c <svcRtxKernelStart+0x10>
  103326:	f06f 0006 	mvn.w	r0, #6
  10332a:	e00b      	b.n	103344 <svcRtxKernelStart+0x28>
  10332c:	6b23      	ldr	r3, [r4, #48]	; 0x30
  10332e:	4d27      	ldr	r5, [pc, #156]	; (1033cc <svcRtxKernelStart+0xb0>)
  103330:	b96b      	cbnz	r3, 10334e <svcRtxKernelStart+0x32>
  103332:	6daa      	ldr	r2, [r5, #88]	; 0x58
  103334:	4619      	mov	r1, r3
  103336:	4826      	ldr	r0, [pc, #152]	; (1033d0 <svcRtxKernelStart+0xb4>)
  103338:	f001 fa80 	bl	10483c <svcRtxThreadNew>
  10333c:	6320      	str	r0, [r4, #48]	; 0x30
  10333e:	b930      	cbnz	r0, 10334e <svcRtxKernelStart+0x32>
  103340:	f04f 30ff 	mov.w	r0, #4294967295
  103344:	f7ff fede 	bl	103104 <EvrRtxKernelError>
  103348:	f04f 30ff 	mov.w	r0, #4294967295
  10334c:	bd38      	pop	{r3, r4, r5, pc}
  10334e:	6e6b      	ldr	r3, [r5, #100]	; 0x64
  103350:	b15b      	cbz	r3, 10336a <svcRtxKernelStart+0x4e>
  103352:	6d23      	ldr	r3, [r4, #80]	; 0x50
  103354:	b94b      	cbnz	r3, 10336a <svcRtxKernelStart+0x4e>
  103356:	4a1d      	ldr	r2, [pc, #116]	; (1033cc <svcRtxKernelStart+0xb0>)
  103358:	4619      	mov	r1, r3
  10335a:	6dd2      	ldr	r2, [r2, #92]	; 0x5c
  10335c:	481d      	ldr	r0, [pc, #116]	; (1033d4 <svcRtxKernelStart+0xb8>)
  10335e:	f001 fa6d 	bl	10483c <svcRtxThreadNew>
  103362:	4b19      	ldr	r3, [pc, #100]	; (1033c8 <svcRtxKernelStart+0xac>)
  103364:	6518      	str	r0, [r3, #80]	; 0x50
  103366:	2800      	cmp	r0, #0
  103368:	d0ea      	beq.n	103340 <svcRtxKernelStart+0x24>
  10336a:	481b      	ldr	r0, [pc, #108]	; (1033d8 <svcRtxKernelStart+0xbc>)
  10336c:	f001 f8db 	bl	104526 <osRtxThreadListGet>
  103370:	2800      	cmp	r0, #0
  103372:	d0e5      	beq.n	103340 <svcRtxKernelStart+0x24>
  103374:	f001 f9f4 	bl	104760 <osRtxThreadSwitch>
  103378:	682b      	ldr	r3, [r5, #0]
  10337a:	07db      	lsls	r3, r3, #31
  10337c:	bf4c      	ite	mi
  10337e:	2302      	movmi	r3, #2
  103380:	2303      	movpl	r3, #3
  103382:	f383 8814 	msr	CONTROL, r3
  103386:	4b15      	ldr	r3, [pc, #84]	; (1033dc <svcRtxKernelStart+0xc0>)
  103388:	681b      	ldr	r3, [r3, #0]
  10338a:	60e3      	str	r3, [r4, #12]
  10338c:	f000 ffb4 	bl	1042f8 <osRtxSysTimerSetup>
  103390:	2800      	cmp	r0, #0
  103392:	61a0      	str	r0, [r4, #24]
  103394:	db0f      	blt.n	1033b6 <svcRtxKernelStart+0x9a>
  103396:	f100 4360 	add.w	r3, r0, #3758096384	; 0xe0000000
  10339a:	f503 4361 	add.w	r3, r3, #57600	; 0xe100
  10339e:	22ff      	movs	r2, #255	; 0xff
  1033a0:	f883 2300 	strb.w	r2, [r3, #768]	; 0x300
  1033a4:	1142      	asrs	r2, r0, #5
  1033a6:	2301      	movs	r3, #1
  1033a8:	f000 001f 	and.w	r0, r0, #31
  1033ac:	fa03 f000 	lsl.w	r0, r3, r0
  1033b0:	4b0b      	ldr	r3, [pc, #44]	; (1033e0 <svcRtxKernelStart+0xc4>)
  1033b2:	f843 0022 	str.w	r0, [r3, r2, lsl #2]
  1033b6:	f000 ffb9 	bl	10432c <osRtxSysTimerEnable>
  1033ba:	2302      	movs	r3, #2
  1033bc:	7223      	strb	r3, [r4, #8]
  1033be:	f7ff fea6 	bl	10310e <EvrRtxKernelStarted>
  1033c2:	2000      	movs	r0, #0
  1033c4:	bd38      	pop	{r3, r4, r5, pc}
  1033c6:	bf00      	nop
  1033c8:	3fff40a8 	.word	0x3fff40a8
  1033cc:	0010de58 	.word	0x0010de58
  1033d0:	00103029 	.word	0x00103029
  1033d4:	00104c4d 	.word	0x00104c4d
  1033d8:	3fff40cc 	.word	0x3fff40cc
  1033dc:	3fff4158 	.word	0x3fff4158
  1033e0:	e000e100 	.word	0xe000e100

001033e4 <osKernelInitialize>:
  1033e4:	b508      	push	{r3, lr}
  1033e6:	f7ff fe8e 	bl	103106 <EvrRtxKernelInitialize>
  1033ea:	f3ef 8305 	mrs	r3, IPSR
  1033ee:	b92b      	cbnz	r3, 1033fc <osKernelInitialize+0x18>
  1033f0:	f3ef 8310 	mrs	r3, PRIMASK
  1033f4:	b913      	cbnz	r3, 1033fc <osKernelInitialize+0x18>
  1033f6:	f3ef 8311 	mrs	r3, BASEPRI
  1033fa:	b133      	cbz	r3, 10340a <osKernelInitialize+0x26>
  1033fc:	f06f 0005 	mvn.w	r0, #5
  103400:	f7ff fe80 	bl	103104 <EvrRtxKernelError>
  103404:	f06f 0005 	mvn.w	r0, #5
  103408:	bd08      	pop	{r3, pc}
  10340a:	f8df c020 	ldr.w	r12, [pc, #32]	; 10342c <osKernelInitialize+0x48>
  10340e:	f3ef 8314 	mrs	r3, CONTROL
  103412:	f013 0f02 	tst.w	r3, #2
  103416:	d106      	bne.n	103426 <osKernelInitialize+0x42>
  103418:	f3ef 8308 	mrs	r3, MSP
  10341c:	3b20      	subs	r3, #32
  10341e:	f023 0307 	bic.w	r3, r3, #7
  103422:	f383 8809 	msr	PSP, r3
  103426:	df00      	svc	0
  103428:	bd08      	pop	{r3, pc}
  10342a:	bf00      	nop
  10342c:	0010316d 	.word	0x0010316d

00103430 <osKernelGetState>:
  103430:	b508      	push	{r3, lr}
  103432:	f3ef 8305 	mrs	r3, IPSR
  103436:	b92b      	cbnz	r3, 103444 <osKernelGetState+0x14>
  103438:	f3ef 8310 	mrs	r3, PRIMASK
  10343c:	b913      	cbnz	r3, 103444 <osKernelGetState+0x14>
  10343e:	f3ef 8311 	mrs	r3, BASEPRI
  103442:	b133      	cbz	r3, 103452 <osKernelGetState+0x22>
  103444:	f04f 30ff 	mov.w	r0, #4294967295
  103448:	f7ff fe5f 	bl	10310a <EvrRtxKernelGetState>
  10344c:	f04f 30ff 	mov.w	r0, #4294967295
  103450:	bd08      	pop	{r3, pc}
  103452:	f3ef 8314 	mrs	r3, CONTROL
  103456:	07db      	lsls	r3, r3, #31
  103458:	d403      	bmi.n	103462 <osKernelGetState+0x32>
  10345a:	e8bd 4008 	ldmia.w	sp!, {r3, lr}
  10345e:	f7ff bf53 	b.w	103308 <svcRtxKernelGetState>
  103462:	f8df c008 	ldr.w	r12, [pc, #8]	; 10346c <osKernelGetState+0x3c>
  103466:	df00      	svc	0
  103468:	bd08      	pop	{r3, pc}
  10346a:	bf00      	nop
  10346c:	00103309 	.word	0x00103309

00103470 <osKernelStart>:
  103470:	b508      	push	{r3, lr}
  103472:	f7ff fe4b 	bl	10310c <EvrRtxKernelStart>
  103476:	f3ef 8305 	mrs	r3, IPSR
  10347a:	b92b      	cbnz	r3, 103488 <osKernelStart+0x18>
  10347c:	f3ef 8310 	mrs	r3, PRIMASK
  103480:	b913      	cbnz	r3, 103488 <osKernelStart+0x18>
  103482:	f3ef 8311 	mrs	r3, BASEPRI
  103486:	b133      	cbz	r3, 103496 <osKernelStart+0x26>
  103488:	f06f 0005 	mvn.w	r0, #5
  10348c:	f7ff fe3a 	bl	103104 <EvrRtxKernelError>
  103490:	f06f 0005 	mvn.w	r0, #5
  103494:	bd08      	pop	{r3, pc}
  103496:	f7ff ffcb 	bl	103430 <osKernelGetState>
  10349a:	2802      	cmp	r0, #2
  10349c:	d005      	beq.n	1034aa <osKernelStart+0x3a>
  10349e:	4b0b      	ldr	r3, [pc, #44]	; (1034cc <osKernelStart+0x5c>)
  1034a0:	681b      	ldr	r3, [r3, #0]
  1034a2:	b113      	cbz	r3, 1034aa <osKernelStart+0x3a>
  1034a4:	685b      	ldr	r3, [r3, #4]
  1034a6:	b103      	cbz	r3, 1034aa <osKernelStart+0x3a>
  1034a8:	4798      	blx	r3
  1034aa:	f8df c024 	ldr.w	r12, [pc, #36]	; 1034d0 <osKernelStart+0x60>
  1034ae:	f3ef 8314 	mrs	r3, CONTROL
  1034b2:	f013 0f02 	tst.w	r3, #2
  1034b6:	d106      	bne.n	1034c6 <osKernelStart+0x56>
  1034b8:	f3ef 8308 	mrs	r3, MSP
  1034bc:	3b20      	subs	r3, #32
  1034be:	f023 0307 	bic.w	r3, r3, #7
  1034c2:	f383 8809 	msr	PSP, r3
  1034c6:	df00      	svc	0
  1034c8:	bd08      	pop	{r3, pc}
  1034ca:	bf00      	nop
  1034cc:	3fff60e0 	.word	0x3fff60e0
  1034d0:	0010331d 	.word	0x0010331d

001034d4 <osRtxMemoryInit>:
  1034d4:	b538      	push	{r3, r4, r5, lr}
  1034d6:	460c      	mov	r4, r1
  1034d8:	4603      	mov	r3, r0
  1034da:	b130      	cbz	r0, 1034ea <osRtxMemoryInit+0x16>
  1034dc:	ea40 0201 	orr.w	r2, r0, r1
  1034e0:	f012 0207 	ands.w	r2, r2, #7
  1034e4:	d101      	bne.n	1034ea <osRtxMemoryInit+0x16>
  1034e6:	2917      	cmp	r1, #23
  1034e8:	d806      	bhi.n	1034f8 <osRtxMemoryInit+0x24>
  1034ea:	4618      	mov	r0, r3
  1034ec:	2200      	movs	r2, #0
  1034ee:	4621      	mov	r1, r4
  1034f0:	f7ff fe02 	bl	1030f8 <EvrRtxMemoryInit>
  1034f4:	2000      	movs	r0, #0
  1034f6:	bd38      	pop	{r3, r4, r5, pc}
  1034f8:	f1a1 0408 	sub.w	r4, r1, #8
  1034fc:	2510      	movs	r5, #16
  1034fe:	6019      	str	r1, [r3, #0]
  103500:	6045      	str	r5, [r0, #4]
  103502:	1825      	adds	r5, r4, r0
  103504:	6085      	str	r5, [r0, #8]
  103506:	5022      	str	r2, [r4, r0]
  103508:	60c2      	str	r2, [r0, #12]
  10350a:	2201      	movs	r2, #1
  10350c:	f7ff fdf4 	bl	1030f8 <EvrRtxMemoryInit>
  103510:	2001      	movs	r0, #1
  103512:	bd38      	pop	{r3, r4, r5, pc}

00103514 <osRtxMemoryAlloc>:
  103514:	b5f8      	push	{r3, r4, r5, r6, r7, lr}
  103516:	b118      	cbz	r0, 103520 <osRtxMemoryAlloc+0xc>
  103518:	b111      	cbz	r1, 103520 <osRtxMemoryAlloc+0xc>
  10351a:	f032 0303 	bics.w	r3, r2, #3
  10351e:	d004      	beq.n	10352a <osRtxMemoryAlloc+0x16>
  103520:	2300      	movs	r3, #0
  103522:	f7ff fdea 	bl	1030fa <EvrRtxMemoryAlloc>
  103526:	2000      	movs	r0, #0
  103528:	bdf8      	pop	{r3, r4, r5, r6, r7, pc}
  10352a:	310f      	adds	r1, #15
  10352c:	f021 0107 	bic.w	r1, r1, #7
  103530:	f100 0508 	add.w	r5, r0, #8
  103534:	682e      	ldr	r6, [r5, #0]
  103536:	f8d5 e004 	ldr.w	lr, [r5, #4]
  10353a:	1b73      	subs	r3, r6, r5
  10353c:	f02e 0403 	bic.w	r4, lr, #3
  103540:	1b1b      	subs	r3, r3, r4
  103542:	4299      	cmp	r1, r3
  103544:	d905      	bls.n	103552 <osRtxMemoryAlloc+0x3e>
  103546:	6834      	ldr	r4, [r6, #0]
  103548:	4635      	mov	r5, r6
  10354a:	2c00      	cmp	r4, #0
  10354c:	d1f2      	bne.n	103534 <osRtxMemoryAlloc+0x20>
  10354e:	4623      	mov	r3, r4
  103550:	e7e7      	b.n	103522 <osRtxMemoryAlloc+0xe>
  103552:	6843      	ldr	r3, [r0, #4]
  103554:	ea42 0701 	orr.w	r7, r2, r1
  103558:	440b      	add	r3, r1
  10355a:	6043      	str	r3, [r0, #4]
  10355c:	f1be 0f00 	cmp.w	lr, #0
  103560:	d103      	bne.n	10356a <osRtxMemoryAlloc+0x56>
  103562:	606f      	str	r7, [r5, #4]
  103564:	f105 0408 	add.w	r4, r5, #8
  103568:	e005      	b.n	103576 <osRtxMemoryAlloc+0x62>
  10356a:	192b      	adds	r3, r5, r4
  10356c:	512e      	str	r6, [r5, r4]
  10356e:	605f      	str	r7, [r3, #4]
  103570:	f103 0408 	add.w	r4, r3, #8
  103574:	602b      	str	r3, [r5, #0]
  103576:	4623      	mov	r3, r4
  103578:	f7ff fdbf 	bl	1030fa <EvrRtxMemoryAlloc>
  10357c:	4620      	mov	r0, r4
  10357e:	bdf8      	pop	{r3, r4, r5, r6, r7, pc}

00103580 <osRtxMemoryFree>:
  103580:	b538      	push	{r3, r4, r5, lr}
  103582:	b100      	cbz	r0, 103586 <osRtxMemoryFree+0x6>
  103584:	b921      	cbnz	r1, 103590 <osRtxMemoryFree+0x10>
  103586:	2200      	movs	r2, #0
  103588:	f7ff fdb8 	bl	1030fc <EvrRtxMemoryFree>
  10358c:	2000      	movs	r0, #0
  10358e:	bd38      	pop	{r3, r4, r5, pc}
  103590:	f1a1 0508 	sub.w	r5, r1, #8
  103594:	f100 0308 	add.w	r3, r0, #8
  103598:	2200      	movs	r2, #0
  10359a:	42ab      	cmp	r3, r5
  10359c:	d005      	beq.n	1035aa <osRtxMemoryFree+0x2a>
  10359e:	681c      	ldr	r4, [r3, #0]
  1035a0:	461a      	mov	r2, r3
  1035a2:	2c00      	cmp	r4, #0
  1035a4:	d0ef      	beq.n	103586 <osRtxMemoryFree+0x6>
  1035a6:	4623      	mov	r3, r4
  1035a8:	e7f7      	b.n	10359a <osRtxMemoryFree+0x1a>
  1035aa:	685c      	ldr	r4, [r3, #4]
  1035ac:	f024 0503 	bic.w	r5, r4, #3
  1035b0:	6844      	ldr	r4, [r0, #4]
  1035b2:	1b64      	subs	r4, r4, r5
  1035b4:	6044      	str	r4, [r0, #4]
  1035b6:	b90a      	cbnz	r2, 1035bc <osRtxMemoryFree+0x3c>
  1035b8:	605a      	str	r2, [r3, #4]
  1035ba:	e001      	b.n	1035c0 <osRtxMemoryFree+0x40>
  1035bc:	681b      	ldr	r3, [r3, #0]
  1035be:	6013      	str	r3, [r2, #0]
  1035c0:	2201      	movs	r2, #1
  1035c2:	f7ff fd9b 	bl	1030fc <EvrRtxMemoryFree>
  1035c6:	2001      	movs	r0, #1
  1035c8:	bd38      	pop	{r3, r4, r5, pc}

001035ca <osRtxMemoryPoolInit>:
  1035ca:	e92d 41f0 	stmdb	sp!, {r4, r5, r6, r7, r8, lr}
  1035ce:	460d      	mov	r5, r1
  1035d0:	4617      	mov	r7, r2
  1035d2:	461c      	mov	r4, r3
  1035d4:	4606      	mov	r6, r0
  1035d6:	b1f8      	cbz	r0, 103618 <osRtxMemoryPoolInit+0x4e>
  1035d8:	b301      	cbz	r1, 10361c <osRtxMemoryPoolInit+0x52>
  1035da:	b312      	cbz	r2, 103622 <osRtxMemoryPoolInit+0x58>
  1035dc:	b323      	cbz	r3, 103628 <osRtxMemoryPoolInit+0x5e>
  1035de:	fb02 f801 	mul.w	r8, r2, r1
  1035e2:	f04f 0e00 	mov.w	lr, #0
  1035e6:	6031      	str	r1, [r6, #0]
  1035e8:	f8c0 e004 	str.w	lr, [r0, #4]
  1035ec:	eb03 0e08 	add.w	lr, r3, r8
  1035f0:	60f3      	str	r3, [r6, #12]
  1035f2:	6173      	str	r3, [r6, #20]
  1035f4:	60b2      	str	r2, [r6, #8]
  1035f6:	f8c0 e010 	str.w	lr, [r0, #16]
  1035fa:	f7ff fd80 	bl	1030fe <EvrRtxMemoryBlockInit>
  1035fe:	4623      	mov	r3, r4
  103600:	3d01      	subs	r5, #1
  103602:	d003      	beq.n	10360c <osRtxMemoryPoolInit+0x42>
  103604:	19da      	adds	r2, r3, r7
  103606:	601a      	str	r2, [r3, #0]
  103608:	4613      	mov	r3, r2
  10360a:	e7f9      	b.n	103600 <osRtxMemoryPoolInit+0x36>
  10360c:	ebc7 0008 	rsb	r0, r7, r8
  103610:	5025      	str	r5, [r4, r0]
  103612:	2001      	movs	r0, #1
  103614:	e8bd 81f0 	ldmia.w	sp!, {r4, r5, r6, r7, r8, pc}
  103618:	e8bd 81f0 	ldmia.w	sp!, {r4, r5, r6, r7, r8, pc}
  10361c:	4608      	mov	r0, r1
  10361e:	e8bd 81f0 	ldmia.w	sp!, {r4, r5, r6, r7, r8, pc}
  103622:	4610      	mov	r0, r2
  103624:	e8bd 81f0 	ldmia.w	sp!, {r4, r5, r6, r7, r8, pc}
  103628:	4618      	mov	r0, r3
  10362a:	e8bd 81f0 	ldmia.w	sp!, {r4, r5, r6, r7, r8, pc}

0010362e <osRtxMemoryPoolAlloc>:
  10362e:	b538      	push	{r3, r4, r5, lr}
  103630:	4605      	mov	r5, r0
  103632:	b920      	cbnz	r0, 10363e <osRtxMemoryPoolAlloc+0x10>
  103634:	4601      	mov	r1, r0
  103636:	f7ff fd63 	bl	103100 <EvrRtxMemoryBlockAlloc>
  10363a:	4628      	mov	r0, r5
  10363c:	bd38      	pop	{r3, r4, r5, pc}
  10363e:	1d03      	adds	r3, r0, #4
  103640:	6802      	ldr	r2, [r0, #0]
  103642:	e853 1f00 	ldrex	r1, [r3]
  103646:	428a      	cmp	r2, r1
  103648:	d802      	bhi.n	103650 <osRtxMemoryPoolAlloc+0x22>
  10364a:	f3bf 8f2f 	clrex
  10364e:	e004      	b.n	10365a <osRtxMemoryPoolAlloc+0x2c>
  103650:	1c48      	adds	r0, r1, #1
  103652:	e843 0400 	strex	r4, r0, [r3]
  103656:	b104      	cbz	r4, 10365a <osRtxMemoryPoolAlloc+0x2c>
  103658:	e7f3      	b.n	103642 <osRtxMemoryPoolAlloc+0x14>
  10365a:	682b      	ldr	r3, [r5, #0]
  10365c:	428b      	cmp	r3, r1
  10365e:	d90e      	bls.n	10367e <osRtxMemoryPoolAlloc+0x50>
  103660:	f105 0314 	add.w	r3, r5, #20
  103664:	e853 0f00 	ldrex	r0, [r3]
  103668:	b910      	cbnz	r0, 103670 <osRtxMemoryPoolAlloc+0x42>
  10366a:	f3bf 8f2f 	clrex
  10366e:	e004      	b.n	10367a <osRtxMemoryPoolAlloc+0x4c>
  103670:	6802      	ldr	r2, [r0, #0]
  103672:	e843 2100 	strex	r1, r2, [r3]
  103676:	b101      	cbz	r1, 10367a <osRtxMemoryPoolAlloc+0x4c>
  103678:	e7f4      	b.n	103664 <osRtxMemoryPoolAlloc+0x36>
  10367a:	4604      	mov	r4, r0
  10367c:	e000      	b.n	103680 <osRtxMemoryPoolAlloc+0x52>
  10367e:	2400      	movs	r4, #0
  103680:	4628      	mov	r0, r5
  103682:	4621      	mov	r1, r4
  103684:	f7ff fd3c 	bl	103100 <EvrRtxMemoryBlockAlloc>
  103688:	4620      	mov	r0, r4
  10368a:	bd38      	pop	{r3, r4, r5, pc}

0010368c <osRtxMemoryPoolFree>:
  10368c:	b538      	push	{r3, r4, r5, lr}
  10368e:	b128      	cbz	r0, 10369c <osRtxMemoryPoolFree+0x10>
  103690:	68c3      	ldr	r3, [r0, #12]
  103692:	428b      	cmp	r3, r1
  103694:	d802      	bhi.n	10369c <osRtxMemoryPoolFree+0x10>
  103696:	6903      	ldr	r3, [r0, #16]
  103698:	4299      	cmp	r1, r3
  10369a:	d306      	bcc.n	1036aa <osRtxMemoryPoolFree+0x1e>
  10369c:	f06f 0203 	mvn.w	r2, #3
  1036a0:	f7ff fd2f 	bl	103102 <EvrRtxMemoryBlockFree>
  1036a4:	f06f 0003 	mvn.w	r0, #3
  1036a8:	bd38      	pop	{r3, r4, r5, pc}
  1036aa:	1d03      	adds	r3, r0, #4
  1036ac:	e853 2f00 	ldrex	r2, [r3]
  1036b0:	b912      	cbnz	r2, 1036b8 <osRtxMemoryPoolFree+0x2c>
  1036b2:	f3bf 8f2f 	clrex
  1036b6:	e004      	b.n	1036c2 <osRtxMemoryPoolFree+0x36>
  1036b8:	1e54      	subs	r4, r2, #1
  1036ba:	e843 4500 	strex	r5, r4, [r3]
  1036be:	b105      	cbz	r5, 1036c2 <osRtxMemoryPoolFree+0x36>
  1036c0:	e7f4      	b.n	1036ac <osRtxMemoryPoolFree+0x20>
  1036c2:	b182      	cbz	r2, 1036e6 <osRtxMemoryPoolFree+0x5a>
  1036c4:	f100 0314 	add.w	r3, r0, #20
  1036c8:	681a      	ldr	r2, [r3, #0]
  1036ca:	600a      	str	r2, [r1, #0]
  1036cc:	f3bf 8f5f 	dmb	sy
  1036d0:	e853 2f00 	ldrex	r2, [r3]
  1036d4:	680c      	ldr	r4, [r1, #0]
  1036d6:	4294      	cmp	r4, r2
  1036d8:	d1f6      	bne.n	1036c8 <osRtxMemoryPoolFree+0x3c>
  1036da:	e843 1500 	strex	r5, r1, [r3]
  1036de:	b105      	cbz	r5, 1036e2 <osRtxMemoryPoolFree+0x56>
  1036e0:	e7f2      	b.n	1036c8 <osRtxMemoryPoolFree+0x3c>
  1036e2:	2400      	movs	r4, #0
  1036e4:	e001      	b.n	1036ea <osRtxMemoryPoolFree+0x5e>
  1036e6:	f06f 0402 	mvn.w	r4, #2
  1036ea:	4622      	mov	r2, r4
  1036ec:	f7ff fd09 	bl	103102 <EvrRtxMemoryBlockFree>
  1036f0:	4620      	mov	r0, r4
  1036f2:	bd38      	pop	{r3, r4, r5, pc}

001036f4 <MessageQueuePut>:
  1036f4:	6b03      	ldr	r3, [r0, #48]	; 0x30
  1036f6:	b530      	push	{r4, r5, lr}
  1036f8:	b1a3      	cbz	r3, 103724 <MessageQueuePut+0x30>
  1036fa:	78cd      	ldrb	r5, [r1, #3]
  1036fc:	2400      	movs	r4, #0
  1036fe:	78da      	ldrb	r2, [r3, #3]
  103700:	42aa      	cmp	r2, r5
  103702:	d204      	bcs.n	10370e <MessageQueuePut+0x1a>
  103704:	685a      	ldr	r2, [r3, #4]
  103706:	461c      	mov	r4, r3
  103708:	b11a      	cbz	r2, 103712 <MessageQueuePut+0x1e>
  10370a:	4613      	mov	r3, r2
  10370c:	e7f7      	b.n	1036fe <MessageQueuePut+0xa>
  10370e:	461a      	mov	r2, r3
  103710:	4623      	mov	r3, r4
  103712:	604a      	str	r2, [r1, #4]
  103714:	608b      	str	r3, [r1, #8]
  103716:	b10a      	cbz	r2, 10371c <MessageQueuePut+0x28>
  103718:	6091      	str	r1, [r2, #8]
  10371a:	e000      	b.n	10371e <MessageQueuePut+0x2a>
  10371c:	62c1      	str	r1, [r0, #44]	; 0x2c
  10371e:	b123      	cbz	r3, 10372a <MessageQueuePut+0x36>
  103720:	6059      	str	r1, [r3, #4]
  103722:	e003      	b.n	10372c <MessageQueuePut+0x38>
  103724:	604b      	str	r3, [r1, #4]
  103726:	608b      	str	r3, [r1, #8]
  103728:	62c1      	str	r1, [r0, #44]	; 0x2c
  10372a:	6301      	str	r1, [r0, #48]	; 0x30
  10372c:	3028      	adds	r0, #40	; 0x28
  10372e:	e850 3f00 	ldrex	r3, [r0]
  103732:	1c5a      	adds	r2, r3, #1
  103734:	e840 2100 	strex	r1, r2, [r0]
  103738:	b101      	cbz	r1, 10373c <MessageQueuePut+0x48>
  10373a:	e7f8      	b.n	10372e <MessageQueuePut+0x3a>
  10373c:	bd30      	pop	{r4, r5, pc}

0010373e <MessageQueueRemove>:
  10373e:	684b      	ldr	r3, [r1, #4]
  103740:	688a      	ldr	r2, [r1, #8]
  103742:	b10b      	cbz	r3, 103748 <MessageQueueRemove+0xa>
  103744:	609a      	str	r2, [r3, #8]
  103746:	e000      	b.n	10374a <MessageQueueRemove+0xc>
  103748:	62c2      	str	r2, [r0, #44]	; 0x2c
  10374a:	688a      	ldr	r2, [r1, #8]
  10374c:	b10a      	cbz	r2, 103752 <MessageQueueRemove+0x14>
  10374e:	6053      	str	r3, [r2, #4]
  103750:	4770      	bx	lr
  103752:	6303      	str	r3, [r0, #48]	; 0x30
  103754:	4770      	bx	lr
	...

00103758 <svcRtxMessageQueueNew>:
  103758:	e92d 4ff7 	stmdb	sp!, {r0, r1, r2, r4, r5, r6, r7, r8, r9, r10, r11, lr}
  10375c:	4680      	mov	r8, r0
  10375e:	b100      	cbz	r0, 103762 <svcRtxMessageQueueNew+0xa>
  103760:	b931      	cbnz	r1, 103770 <svcRtxMessageQueueNew+0x18>
  103762:	f06f 0103 	mvn.w	r1, #3
  103766:	2000      	movs	r0, #0
  103768:	f7ff fcf1 	bl	10314e <EvrRtxMessageQueueError>
  10376c:	2000      	movs	r0, #0
  10376e:	e08e      	b.n	10388e <svcRtxMessageQueueNew+0x136>
  103770:	3103      	adds	r1, #3
  103772:	f021 0303 	bic.w	r3, r1, #3
  103776:	f103 090c 	add.w	r9, r3, #12
  10377a:	9301      	str	r3, [sp, #4]
  10377c:	fab9 f189 	clz	r1, r9
  103780:	fab0 f380 	clz	r3, r0
  103784:	440b      	add	r3, r1
  103786:	2b1f      	cmp	r3, #31
  103788:	ddeb      	ble.n	103762 <svcRtxMessageQueueNew+0xa>
  10378a:	fb09 fa00 	mul.w	r10, r9, r0
  10378e:	b1e2      	cbz	r2, 1037ca <svcRtxMessageQueueNew+0x72>
  103790:	6894      	ldr	r4, [r2, #8]
  103792:	f8d2 b000 	ldr.w	r11, [r2]
  103796:	6916      	ldr	r6, [r2, #16]
  103798:	6950      	ldr	r0, [r2, #20]
  10379a:	b13c      	cbz	r4, 1037ac <svcRtxMessageQueueNew+0x54>
  10379c:	07a3      	lsls	r3, r4, #30
  10379e:	d102      	bne.n	1037a6 <svcRtxMessageQueueNew+0x4e>
  1037a0:	68d3      	ldr	r3, [r2, #12]
  1037a2:	2b33      	cmp	r3, #51	; 0x33
  1037a4:	d805      	bhi.n	1037b2 <svcRtxMessageQueueNew+0x5a>
  1037a6:	f06f 0108 	mvn.w	r1, #8
  1037aa:	e7dc      	b.n	103766 <svcRtxMessageQueueNew+0xe>
  1037ac:	68d3      	ldr	r3, [r2, #12]
  1037ae:	2b00      	cmp	r3, #0
  1037b0:	d1f9      	bne.n	1037a6 <svcRtxMessageQueueNew+0x4e>
  1037b2:	b13e      	cbz	r6, 1037c4 <svcRtxMessageQueueNew+0x6c>
  1037b4:	f016 0303 	ands.w	r3, r6, #3
  1037b8:	d101      	bne.n	1037be <svcRtxMessageQueueNew+0x66>
  1037ba:	4582      	cmp	r10, r0
  1037bc:	d95f      	bls.n	10387e <svcRtxMessageQueueNew+0x126>
  1037be:	f06f 0109 	mvn.w	r1, #9
  1037c2:	e7d0      	b.n	103766 <svcRtxMessageQueueNew+0xe>
  1037c4:	2800      	cmp	r0, #0
  1037c6:	d05e      	beq.n	103886 <svcRtxMessageQueueNew+0x12e>
  1037c8:	e7f9      	b.n	1037be <svcRtxMessageQueueNew+0x66>
  1037ca:	4693      	mov	r11, r2
  1037cc:	4616      	mov	r6, r2
  1037ce:	4b31      	ldr	r3, [pc, #196]	; (103894 <svcRtxMessageQueueNew+0x13c>)
  1037d0:	f8d3 00a8 	ldr.w	r0, [r3, #168]	; 0xa8
  1037d4:	b110      	cbz	r0, 1037dc <svcRtxMessageQueueNew+0x84>
  1037d6:	f7ff ff2a 	bl	10362e <osRtxMemoryPoolAlloc>
  1037da:	e005      	b.n	1037e8 <svcRtxMessageQueueNew+0x90>
  1037dc:	2201      	movs	r2, #1
  1037de:	2134      	movs	r1, #52	; 0x34
  1037e0:	f8d3 0088 	ldr.w	r0, [r3, #136]	; 0x88
  1037e4:	f7ff fe96 	bl	103514 <osRtxMemoryAlloc>
  1037e8:	4604      	mov	r4, r0
  1037ea:	b920      	cbnz	r0, 1037f6 <svcRtxMessageQueueNew+0x9e>
  1037ec:	f06f 0104 	mvn.w	r1, #4
  1037f0:	f7ff fcad 	bl	10314e <EvrRtxMessageQueueError>
  1037f4:	e041      	b.n	10387a <svcRtxMessageQueueNew+0x122>
  1037f6:	bb26      	cbnz	r6, 103842 <svcRtxMessageQueueNew+0xea>
  1037f8:	2501      	movs	r5, #1
  1037fa:	4f26      	ldr	r7, [pc, #152]	; (103894 <svcRtxMessageQueueNew+0x13c>)
  1037fc:	2200      	movs	r2, #0
  1037fe:	4651      	mov	r1, r10
  103800:	f8d7 0084 	ldr.w	r0, [r7, #132]	; 0x84
  103804:	f7ff fe86 	bl	103514 <osRtxMemoryAlloc>
  103808:	4606      	mov	r6, r0
  10380a:	b990      	cbnz	r0, 103832 <svcRtxMessageQueueNew+0xda>
  10380c:	f06f 0104 	mvn.w	r1, #4
  103810:	f7ff fc9d 	bl	10314e <EvrRtxMessageQueueError>
  103814:	2d00      	cmp	r5, #0
  103816:	d0a9      	beq.n	10376c <svcRtxMessageQueueNew+0x14>
  103818:	f8d7 50a8 	ldr.w	r5, [r7, #168]	; 0xa8
  10381c:	4621      	mov	r1, r4
  10381e:	b11d      	cbz	r5, 103828 <svcRtxMessageQueueNew+0xd0>
  103820:	4628      	mov	r0, r5
  103822:	f7ff ff33 	bl	10368c <osRtxMemoryPoolFree>
  103826:	e7a1      	b.n	10376c <svcRtxMessageQueueNew+0x14>
  103828:	f8d7 0088 	ldr.w	r0, [r7, #136]	; 0x88
  10382c:	f7ff fea8 	bl	103580 <osRtxMemoryFree>
  103830:	e79c      	b.n	10376c <svcRtxMessageQueueNew+0x14>
  103832:	4652      	mov	r2, r10
  103834:	2100      	movs	r1, #0
  103836:	f005 f973 	bl	108b20 <memset>
  10383a:	f045 0002 	orr.w	r0, r5, #2
  10383e:	b2c0      	uxtb	r0, r0
  103840:	e000      	b.n	103844 <svcRtxMessageQueueNew+0xec>
  103842:	2001      	movs	r0, #1
  103844:	2308      	movs	r3, #8
  103846:	9a01      	ldr	r2, [sp, #4]
  103848:	7023      	strb	r3, [r4, #0]
  10384a:	2301      	movs	r3, #1
  10384c:	7063      	strb	r3, [r4, #1]
  10384e:	2300      	movs	r3, #0
  103850:	70a0      	strb	r0, [r4, #2]
  103852:	60a3      	str	r3, [r4, #8]
  103854:	6262      	str	r2, [r4, #36]	; 0x24
  103856:	62a3      	str	r3, [r4, #40]	; 0x28
  103858:	62e3      	str	r3, [r4, #44]	; 0x2c
  10385a:	6323      	str	r3, [r4, #48]	; 0x30
  10385c:	464a      	mov	r2, r9
  10385e:	4633      	mov	r3, r6
  103860:	f8c4 b004 	str.w	r11, [r4, #4]
  103864:	4641      	mov	r1, r8
  103866:	f104 000c 	add.w	r0, r4, #12
  10386a:	f7ff feae 	bl	1035ca <osRtxMemoryPoolInit>
  10386e:	4a0a      	ldr	r2, [pc, #40]	; (103898 <svcRtxMessageQueueNew+0x140>)
  103870:	4b08      	ldr	r3, [pc, #32]	; (103894 <svcRtxMessageQueueNew+0x13c>)
  103872:	4620      	mov	r0, r4
  103874:	679a      	str	r2, [r3, #120]	; 0x78
  103876:	f7ff fc6c 	bl	103152 <EvrRtxMessageQueueCreated>
  10387a:	4620      	mov	r0, r4
  10387c:	e007      	b.n	10388e <svcRtxMessageQueueNew+0x136>
  10387e:	2c00      	cmp	r4, #0
  103880:	d0a5      	beq.n	1037ce <svcRtxMessageQueueNew+0x76>
  103882:	4618      	mov	r0, r3
  103884:	e7de      	b.n	103844 <svcRtxMessageQueueNew+0xec>
  103886:	2c00      	cmp	r4, #0
  103888:	d0a1      	beq.n	1037ce <svcRtxMessageQueueNew+0x76>
  10388a:	4605      	mov	r5, r0
  10388c:	e7b5      	b.n	1037fa <svcRtxMessageQueueNew+0xa2>
  10388e:	b003      	add	sp, #12
  103890:	e8bd 8ff0 	ldmia.w	sp!, {r4, r5, r6, r7, r8, r9, r10, r11, pc}
  103894:	3fff40a8 	.word	0x3fff40a8
  103898:	00103999 	.word	0x00103999

0010389c <svcRtxMessageQueuePut>:
  10389c:	e92d 41f0 	stmdb	sp!, {r4, r5, r6, r7, r8, lr}
  1038a0:	460e      	mov	r6, r1
  1038a2:	4690      	mov	r8, r2
  1038a4:	461d      	mov	r5, r3
  1038a6:	4604      	mov	r4, r0
  1038a8:	b118      	cbz	r0, 1038b2 <svcRtxMessageQueuePut+0x16>
  1038aa:	7803      	ldrb	r3, [r0, #0]
  1038ac:	2b08      	cmp	r3, #8
  1038ae:	d100      	bne.n	1038b2 <svcRtxMessageQueuePut+0x16>
  1038b0:	b941      	cbnz	r1, 1038c4 <svcRtxMessageQueuePut+0x28>
  1038b2:	4620      	mov	r0, r4
  1038b4:	f06f 0103 	mvn.w	r1, #3
  1038b8:	f7ff fc49 	bl	10314e <EvrRtxMessageQueueError>
  1038bc:	f06f 0003 	mvn.w	r0, #3
  1038c0:	e8bd 81f0 	ldmia.w	sp!, {r4, r5, r6, r7, r8, pc}
  1038c4:	7843      	ldrb	r3, [r0, #1]
  1038c6:	b923      	cbnz	r3, 1038d2 <svcRtxMessageQueuePut+0x36>
  1038c8:	f06f 0102 	mvn.w	r1, #2
  1038cc:	f7ff fc3f 	bl	10314e <EvrRtxMessageQueueError>
  1038d0:	e05c      	b.n	10398c <svcRtxMessageQueuePut+0xf0>
  1038d2:	6883      	ldr	r3, [r0, #8]
  1038d4:	b303      	cbz	r3, 103918 <svcRtxMessageQueuePut+0x7c>
  1038d6:	785b      	ldrb	r3, [r3, #1]
  1038d8:	2b83      	cmp	r3, #131	; 0x83
  1038da:	d11d      	bne.n	103918 <svcRtxMessageQueuePut+0x7c>
  1038dc:	f7ff fc3e 	bl	10315c <EvrRtxMessageQueueInserted>
  1038e0:	4620      	mov	r0, r4
  1038e2:	f000 fe20 	bl	104526 <osRtxThreadListGet>
  1038e6:	4605      	mov	r5, r0
  1038e8:	2201      	movs	r2, #1
  1038ea:	2100      	movs	r1, #0
  1038ec:	f000 ff76 	bl	1047dc <osRtxThreadWaitExit>
  1038f0:	4628      	mov	r0, r5
  1038f2:	f000 fef7 	bl	1046e4 <osRtxThreadRegPtr>
  1038f6:	4605      	mov	r5, r0
  1038f8:	6a62      	ldr	r2, [r4, #36]	; 0x24
  1038fa:	4631      	mov	r1, r6
  1038fc:	6880      	ldr	r0, [r0, #8]
  1038fe:	f005 f8e9 	bl	108ad4 <memcpy>
  103902:	68eb      	ldr	r3, [r5, #12]
  103904:	b10b      	cbz	r3, 10390a <svcRtxMessageQueuePut+0x6e>
  103906:	f883 8000 	strb.w	r8, [r3]
  10390a:	4620      	mov	r0, r4
  10390c:	68a9      	ldr	r1, [r5, #8]
  10390e:	f7ff fc2a 	bl	103166 <EvrRtxMessageQueueRetrieved>
  103912:	2000      	movs	r0, #0
  103914:	e8bd 81f0 	ldmia.w	sp!, {r4, r5, r6, r7, r8, pc}
  103918:	f104 000c 	add.w	r0, r4, #12
  10391c:	f7ff fe87 	bl	10362e <osRtxMemoryPoolAlloc>
  103920:	4607      	mov	r7, r0
  103922:	b1b8      	cbz	r0, 103954 <svcRtxMessageQueuePut+0xb8>
  103924:	6a62      	ldr	r2, [r4, #36]	; 0x24
  103926:	4631      	mov	r1, r6
  103928:	300c      	adds	r0, #12
  10392a:	f005 f8d3 	bl	108ad4 <memcpy>
  10392e:	2307      	movs	r3, #7
  103930:	703b      	strb	r3, [r7, #0]
  103932:	2500      	movs	r5, #0
  103934:	2301      	movs	r3, #1
  103936:	707b      	strb	r3, [r7, #1]
  103938:	4639      	mov	r1, r7
  10393a:	4620      	mov	r0, r4
  10393c:	70bd      	strb	r5, [r7, #2]
  10393e:	f887 8003 	strb.w	r8, [r7, #3]
  103942:	f7ff fed7 	bl	1036f4 <MessageQueuePut>
  103946:	4620      	mov	r0, r4
  103948:	4631      	mov	r1, r6
  10394a:	f7ff fc07 	bl	10315c <EvrRtxMessageQueueInserted>
  10394e:	4628      	mov	r0, r5
  103950:	e8bd 81f0 	ldmia.w	sp!, {r4, r5, r6, r7, r8, pc}
  103954:	b1b5      	cbz	r5, 103984 <svcRtxMessageQueuePut+0xe8>
  103956:	462a      	mov	r2, r5
  103958:	4631      	mov	r1, r6
  10395a:	4620      	mov	r0, r4
  10395c:	f7ff fbfb 	bl	103156 <EvrRtxMessageQueuePutPending>
  103960:	4b0c      	ldr	r3, [pc, #48]	; (103994 <svcRtxMessageQueuePut+0xf8>)
  103962:	4620      	mov	r0, r4
  103964:	69d9      	ldr	r1, [r3, #28]
  103966:	f000 fdcb 	bl	104500 <osRtxThreadListPut>
  10396a:	4629      	mov	r1, r5
  10396c:	2093      	movs	r0, #147	; 0x93
  10396e:	f001 f867 	bl	104a40 <osRtxThreadWaitEnter>
  103972:	f3ef 8309 	mrs	r3, PSP
  103976:	f06f 0001 	mvn.w	r0, #1
  10397a:	609e      	str	r6, [r3, #8]
  10397c:	f8c3 800c 	str.w	r8, [r3, #12]
  103980:	e8bd 81f0 	ldmia.w	sp!, {r4, r5, r6, r7, r8, pc}
  103984:	4631      	mov	r1, r6
  103986:	4620      	mov	r0, r4
  103988:	f7ff fbe9 	bl	10315e <EvrRtxMessageQueueNotInserted>
  10398c:	f06f 0002 	mvn.w	r0, #2
  103990:	e8bd 81f0 	ldmia.w	sp!, {r4, r5, r6, r7, r8, pc}
  103994:	3fff40a8 	.word	0x3fff40a8

00103998 <osRtxMessageQueuePostProcess>:
  103998:	b5f8      	push	{r3, r4, r5, r6, r7, lr}
  10399a:	7843      	ldrb	r3, [r0, #1]
  10399c:	4604      	mov	r4, r0
  10399e:	2b00      	cmp	r3, #0
  1039a0:	d07a      	beq.n	103a98 <osRtxMessageQueuePostProcess+0x100>
  1039a2:	7886      	ldrb	r6, [r0, #2]
  1039a4:	2e00      	cmp	r6, #0
  1039a6:	d03e      	beq.n	103a26 <osRtxMessageQueuePostProcess+0x8e>
  1039a8:	68c5      	ldr	r5, [r0, #12]
  1039aa:	786b      	ldrb	r3, [r5, #1]
  1039ac:	2b00      	cmp	r3, #0
  1039ae:	d073      	beq.n	103a98 <osRtxMessageQueuePostProcess+0x100>
  1039b0:	4601      	mov	r1, r0
  1039b2:	2600      	movs	r6, #0
  1039b4:	4628      	mov	r0, r5
  1039b6:	f105 070c 	add.w	r7, r5, #12
  1039ba:	f7ff fec0 	bl	10373e <MessageQueueRemove>
  1039be:	7066      	strb	r6, [r4, #1]
  1039c0:	4621      	mov	r1, r4
  1039c2:	4638      	mov	r0, r7
  1039c4:	f7ff fe62 	bl	10368c <osRtxMemoryPoolFree>
  1039c8:	68ab      	ldr	r3, [r5, #8]
  1039ca:	2b00      	cmp	r3, #0
  1039cc:	d064      	beq.n	103a98 <osRtxMessageQueuePostProcess+0x100>
  1039ce:	785b      	ldrb	r3, [r3, #1]
  1039d0:	2b93      	cmp	r3, #147	; 0x93
  1039d2:	d161      	bne.n	103a98 <osRtxMessageQueuePostProcess+0x100>
  1039d4:	4638      	mov	r0, r7
  1039d6:	f7ff fe2a 	bl	10362e <osRtxMemoryPoolAlloc>
  1039da:	4604      	mov	r4, r0
  1039dc:	2800      	cmp	r0, #0
  1039de:	d05b      	beq.n	103a98 <osRtxMessageQueuePostProcess+0x100>
  1039e0:	4628      	mov	r0, r5
  1039e2:	f000 fda0 	bl	104526 <osRtxThreadListGet>
  1039e6:	4607      	mov	r7, r0
  1039e8:	4632      	mov	r2, r6
  1039ea:	4631      	mov	r1, r6
  1039ec:	f000 fef6 	bl	1047dc <osRtxThreadWaitExit>
  1039f0:	4638      	mov	r0, r7
  1039f2:	f000 fe77 	bl	1046e4 <osRtxThreadRegPtr>
  1039f6:	4607      	mov	r7, r0
  1039f8:	6a6a      	ldr	r2, [r5, #36]	; 0x24
  1039fa:	6881      	ldr	r1, [r0, #8]
  1039fc:	f104 000c 	add.w	r0, r4, #12
  103a00:	f005 f868 	bl	108ad4 <memcpy>
  103a04:	2307      	movs	r3, #7
  103a06:	7023      	strb	r3, [r4, #0]
  103a08:	2301      	movs	r3, #1
  103a0a:	7063      	strb	r3, [r4, #1]
  103a0c:	70a6      	strb	r6, [r4, #2]
  103a0e:	68fb      	ldr	r3, [r7, #12]
  103a10:	4621      	mov	r1, r4
  103a12:	4628      	mov	r0, r5
  103a14:	70e3      	strb	r3, [r4, #3]
  103a16:	f7ff fe6d 	bl	1036f4 <MessageQueuePut>
  103a1a:	68b9      	ldr	r1, [r7, #8]
  103a1c:	4628      	mov	r0, r5
  103a1e:	e8bd 40f8 	ldmia.w	sp!, {r3, r4, r5, r6, r7, lr}
  103a22:	f7ff bb9b 	b.w	10315c <EvrRtxMessageQueueInserted>
  103a26:	6885      	ldr	r5, [r0, #8]
  103a28:	786b      	ldrb	r3, [r5, #1]
  103a2a:	b3ab      	cbz	r3, 103a98 <osRtxMessageQueuePostProcess+0x100>
  103a2c:	68ab      	ldr	r3, [r5, #8]
  103a2e:	b34b      	cbz	r3, 103a84 <osRtxMessageQueuePostProcess+0xec>
  103a30:	785b      	ldrb	r3, [r3, #1]
  103a32:	2b83      	cmp	r3, #131	; 0x83
  103a34:	d126      	bne.n	103a84 <osRtxMessageQueuePostProcess+0xec>
  103a36:	6841      	ldr	r1, [r0, #4]
  103a38:	4628      	mov	r0, r5
  103a3a:	f7ff fb8f 	bl	10315c <EvrRtxMessageQueueInserted>
  103a3e:	4628      	mov	r0, r5
  103a40:	f000 fd71 	bl	104526 <osRtxThreadListGet>
  103a44:	4607      	mov	r7, r0
  103a46:	4632      	mov	r2, r6
  103a48:	4631      	mov	r1, r6
  103a4a:	f000 fec7 	bl	1047dc <osRtxThreadWaitExit>
  103a4e:	4638      	mov	r0, r7
  103a50:	f000 fe48 	bl	1046e4 <osRtxThreadRegPtr>
  103a54:	4606      	mov	r6, r0
  103a56:	6a6a      	ldr	r2, [r5, #36]	; 0x24
  103a58:	f104 010c 	add.w	r1, r4, #12
  103a5c:	6880      	ldr	r0, [r0, #8]
  103a5e:	f005 f839 	bl	108ad4 <memcpy>
  103a62:	68f3      	ldr	r3, [r6, #12]
  103a64:	b10b      	cbz	r3, 103a6a <osRtxMessageQueuePostProcess+0xd2>
  103a66:	78e2      	ldrb	r2, [r4, #3]
  103a68:	701a      	strb	r2, [r3, #0]
  103a6a:	68b1      	ldr	r1, [r6, #8]
  103a6c:	4628      	mov	r0, r5
  103a6e:	f7ff fb7a 	bl	103166 <EvrRtxMessageQueueRetrieved>
  103a72:	2300      	movs	r3, #0
  103a74:	7063      	strb	r3, [r4, #1]
  103a76:	4621      	mov	r1, r4
  103a78:	f105 000c 	add.w	r0, r5, #12
  103a7c:	e8bd 40f8 	ldmia.w	sp!, {r3, r4, r5, r6, r7, lr}
  103a80:	f7ff be04 	b.w	10368c <osRtxMemoryPoolFree>
  103a84:	6861      	ldr	r1, [r4, #4]
  103a86:	4628      	mov	r0, r5
  103a88:	f7ff fb68 	bl	10315c <EvrRtxMessageQueueInserted>
  103a8c:	4621      	mov	r1, r4
  103a8e:	4628      	mov	r0, r5
  103a90:	e8bd 40f8 	ldmia.w	sp!, {r3, r4, r5, r6, r7, lr}
  103a94:	f7ff be2e 	b.w	1036f4 <MessageQueuePut>
  103a98:	bdf8      	pop	{r3, r4, r5, r6, r7, pc}

00103a9a <MessageQueueGet>:
  103a9a:	b510      	push	{r4, lr}
  103a9c:	f100 0328 	add.w	r3, r0, #40	; 0x28
  103aa0:	e853 2f00 	ldrex	r2, [r3]
  103aa4:	b912      	cbnz	r2, 103aac <MessageQueueGet+0x12>
  103aa6:	f3bf 8f2f 	clrex
  103aaa:	e004      	b.n	103ab6 <MessageQueueGet+0x1c>
  103aac:	1e51      	subs	r1, r2, #1
  103aae:	e843 1400 	strex	r4, r1, [r3]
  103ab2:	b104      	cbz	r4, 103ab6 <MessageQueueGet+0x1c>
  103ab4:	e7f4      	b.n	103aa0 <MessageQueueGet+0x6>
  103ab6:	b90a      	cbnz	r2, 103abc <MessageQueueGet+0x22>
  103ab8:	2000      	movs	r0, #0
  103aba:	bd10      	pop	{r4, pc}
  103abc:	6ac0      	ldr	r0, [r0, #44]	; 0x2c
  103abe:	2301      	movs	r3, #1
  103ac0:	2800      	cmp	r0, #0
  103ac2:	d0f9      	beq.n	103ab8 <MessageQueueGet+0x1e>
  103ac4:	1c82      	adds	r2, r0, #2
  103ac6:	e8d2 1f4f 	ldrexb	r1, [r2]
  103aca:	e8c2 3f44 	strexb	r4, r3, [r2]
  103ace:	b104      	cbz	r4, 103ad2 <MessageQueueGet+0x38>
  103ad0:	e7f9      	b.n	103ac6 <MessageQueueGet+0x2c>
  103ad2:	f011 0fff 	tst.w	r1, #255	; 0xff
  103ad6:	d001      	beq.n	103adc <MessageQueueGet+0x42>
  103ad8:	6880      	ldr	r0, [r0, #8]
  103ada:	e7f1      	b.n	103ac0 <MessageQueueGet+0x26>
  103adc:	bd10      	pop	{r4, pc}
	...

00103ae0 <svcRtxMessageQueueGet>:
  103ae0:	e92d 41f0 	stmdb	sp!, {r4, r5, r6, r7, r8, lr}
  103ae4:	460d      	mov	r5, r1
  103ae6:	4617      	mov	r7, r2
  103ae8:	4698      	mov	r8, r3
  103aea:	4604      	mov	r4, r0
  103aec:	b118      	cbz	r0, 103af6 <svcRtxMessageQueueGet+0x16>
  103aee:	7803      	ldrb	r3, [r0, #0]
  103af0:	2b08      	cmp	r3, #8
  103af2:	d100      	bne.n	103af6 <svcRtxMessageQueueGet+0x16>
  103af4:	b941      	cbnz	r1, 103b08 <svcRtxMessageQueueGet+0x28>
  103af6:	4620      	mov	r0, r4
  103af8:	f06f 0103 	mvn.w	r1, #3
  103afc:	f7ff fb27 	bl	10314e <EvrRtxMessageQueueError>
  103b00:	f06f 0003 	mvn.w	r0, #3
  103b04:	e8bd 81f0 	ldmia.w	sp!, {r4, r5, r6, r7, r8, pc}
  103b08:	7843      	ldrb	r3, [r0, #1]
  103b0a:	b923      	cbnz	r3, 103b16 <svcRtxMessageQueueGet+0x36>
  103b0c:	f06f 0102 	mvn.w	r1, #2
  103b10:	f7ff fb1d 	bl	10314e <EvrRtxMessageQueueError>
  103b14:	e03e      	b.n	103b94 <svcRtxMessageQueueGet+0xb4>
  103b16:	f7ff ffc0 	bl	103a9a <MessageQueueGet>
  103b1a:	4606      	mov	r6, r0
  103b1c:	b1e8      	cbz	r0, 103b5a <svcRtxMessageQueueGet+0x7a>
  103b1e:	4601      	mov	r1, r0
  103b20:	4620      	mov	r0, r4
  103b22:	f7ff fe0c 	bl	10373e <MessageQueueRemove>
  103b26:	6a62      	ldr	r2, [r4, #36]	; 0x24
  103b28:	f106 010c 	add.w	r1, r6, #12
  103b2c:	4628      	mov	r0, r5
  103b2e:	f004 ffd1 	bl	108ad4 <memcpy>
  103b32:	b10f      	cbz	r7, 103b38 <svcRtxMessageQueueGet+0x58>
  103b34:	78f3      	ldrb	r3, [r6, #3]
  103b36:	703b      	strb	r3, [r7, #0]
  103b38:	4629      	mov	r1, r5
  103b3a:	4620      	mov	r0, r4
  103b3c:	2500      	movs	r5, #0
  103b3e:	f104 070c 	add.w	r7, r4, #12
  103b42:	f7ff fb10 	bl	103166 <EvrRtxMessageQueueRetrieved>
  103b46:	7075      	strb	r5, [r6, #1]
  103b48:	4631      	mov	r1, r6
  103b4a:	4638      	mov	r0, r7
  103b4c:	f7ff fd9e 	bl	10368c <osRtxMemoryPoolFree>
  103b50:	68a3      	ldr	r3, [r4, #8]
  103b52:	bb1b      	cbnz	r3, 103b9c <svcRtxMessageQueueGet+0xbc>
  103b54:	2000      	movs	r0, #0
  103b56:	e8bd 81f0 	ldmia.w	sp!, {r4, r5, r6, r7, r8, pc}
  103b5a:	f1b8 0f00 	cmp.w	r8, #0
  103b5e:	d015      	beq.n	103b8c <svcRtxMessageQueueGet+0xac>
  103b60:	4642      	mov	r2, r8
  103b62:	4629      	mov	r1, r5
  103b64:	4620      	mov	r0, r4
  103b66:	f7ff fafc 	bl	103162 <EvrRtxMessageQueueGetPending>
  103b6a:	4b23      	ldr	r3, [pc, #140]	; (103bf8 <svcRtxMessageQueueGet+0x118>)
  103b6c:	4620      	mov	r0, r4
  103b6e:	69d9      	ldr	r1, [r3, #28]
  103b70:	f000 fcc6 	bl	104500 <osRtxThreadListPut>
  103b74:	4641      	mov	r1, r8
  103b76:	2083      	movs	r0, #131	; 0x83
  103b78:	f000 ff62 	bl	104a40 <osRtxThreadWaitEnter>
  103b7c:	f3ef 8309 	mrs	r3, PSP
  103b80:	f06f 0001 	mvn.w	r0, #1
  103b84:	609d      	str	r5, [r3, #8]
  103b86:	60df      	str	r7, [r3, #12]
  103b88:	e8bd 81f0 	ldmia.w	sp!, {r4, r5, r6, r7, r8, pc}
  103b8c:	4629      	mov	r1, r5
  103b8e:	4620      	mov	r0, r4
  103b90:	f7ff faea 	bl	103168 <EvrRtxMessageQueueNotRetrieved>
  103b94:	f06f 0002 	mvn.w	r0, #2
  103b98:	e8bd 81f0 	ldmia.w	sp!, {r4, r5, r6, r7, r8, pc}
  103b9c:	785b      	ldrb	r3, [r3, #1]
  103b9e:	2b93      	cmp	r3, #147	; 0x93
  103ba0:	d1d8      	bne.n	103b54 <svcRtxMessageQueueGet+0x74>
  103ba2:	4638      	mov	r0, r7
  103ba4:	f7ff fd43 	bl	10362e <osRtxMemoryPoolAlloc>
  103ba8:	4606      	mov	r6, r0
  103baa:	2800      	cmp	r0, #0
  103bac:	d0d2      	beq.n	103b54 <svcRtxMessageQueueGet+0x74>
  103bae:	4620      	mov	r0, r4
  103bb0:	f000 fcb9 	bl	104526 <osRtxThreadListGet>
  103bb4:	4607      	mov	r7, r0
  103bb6:	4629      	mov	r1, r5
  103bb8:	2201      	movs	r2, #1
  103bba:	f000 fe0f 	bl	1047dc <osRtxThreadWaitExit>
  103bbe:	4638      	mov	r0, r7
  103bc0:	f000 fd90 	bl	1046e4 <osRtxThreadRegPtr>
  103bc4:	4607      	mov	r7, r0
  103bc6:	6a62      	ldr	r2, [r4, #36]	; 0x24
  103bc8:	6881      	ldr	r1, [r0, #8]
  103bca:	f106 000c 	add.w	r0, r6, #12
  103bce:	f004 ff81 	bl	108ad4 <memcpy>
  103bd2:	2307      	movs	r3, #7
  103bd4:	7033      	strb	r3, [r6, #0]
  103bd6:	2301      	movs	r3, #1
  103bd8:	7073      	strb	r3, [r6, #1]
  103bda:	70b5      	strb	r5, [r6, #2]
  103bdc:	68fb      	ldr	r3, [r7, #12]
  103bde:	4631      	mov	r1, r6
  103be0:	70f3      	strb	r3, [r6, #3]
  103be2:	4620      	mov	r0, r4
  103be4:	f7ff fd86 	bl	1036f4 <MessageQueuePut>
  103be8:	4620      	mov	r0, r4
  103bea:	68b9      	ldr	r1, [r7, #8]
  103bec:	f7ff fab6 	bl	10315c <EvrRtxMessageQueueInserted>
  103bf0:	4628      	mov	r0, r5
  103bf2:	e8bd 81f0 	ldmia.w	sp!, {r4, r5, r6, r7, r8, pc}
  103bf6:	bf00      	nop
  103bf8:	3fff40a8 	.word	0x3fff40a8

00103bfc <osMessageQueueNew>:
  103bfc:	b570      	push	{r4, r5, r6, lr}
  103bfe:	4606      	mov	r6, r0
  103c00:	460d      	mov	r5, r1
  103c02:	4614      	mov	r4, r2
  103c04:	f7ff faa4 	bl	103150 <EvrRtxMessageQueueNew>
  103c08:	f3ef 8305 	mrs	r3, IPSR
  103c0c:	b92b      	cbnz	r3, 103c1a <osMessageQueueNew+0x1e>
  103c0e:	f3ef 8310 	mrs	r3, PRIMASK
  103c12:	b913      	cbnz	r3, 103c1a <osMessageQueueNew+0x1e>
  103c14:	f3ef 8311 	mrs	r3, BASEPRI
  103c18:	b133      	cbz	r3, 103c28 <osMessageQueueNew+0x2c>
  103c1a:	f06f 0105 	mvn.w	r1, #5
  103c1e:	2000      	movs	r0, #0
  103c20:	f7ff fa95 	bl	10314e <EvrRtxMessageQueueError>
  103c24:	2000      	movs	r0, #0
  103c26:	bd70      	pop	{r4, r5, r6, pc}
  103c28:	4630      	mov	r0, r6
  103c2a:	4629      	mov	r1, r5
  103c2c:	4622      	mov	r2, r4
  103c2e:	f8df c020 	ldr.w	r12, [pc, #32]	; 103c50 <osMessageQueueNew+0x54>
  103c32:	f3ef 8314 	mrs	r3, CONTROL
  103c36:	f013 0f02 	tst.w	r3, #2
  103c3a:	d106      	bne.n	103c4a <osMessageQueueNew+0x4e>
  103c3c:	f3ef 8308 	mrs	r3, MSP
  103c40:	3b20      	subs	r3, #32
  103c42:	f023 0307 	bic.w	r3, r3, #7
  103c46:	f383 8809 	msr	PSP, r3
  103c4a:	df00      	svc	0
  103c4c:	bd70      	pop	{r4, r5, r6, pc}
  103c4e:	bf00      	nop
  103c50:	00103759 	.word	0x00103759

00103c54 <osMessageQueuePut>:
  103c54:	e92d 41f0 	stmdb	sp!, {r4, r5, r6, r7, r8, lr}
  103c58:	4604      	mov	r4, r0
  103c5a:	460f      	mov	r7, r1
  103c5c:	4690      	mov	r8, r2
  103c5e:	461d      	mov	r5, r3
  103c60:	f7ff fa78 	bl	103154 <EvrRtxMessageQueuePut>
  103c64:	f3ef 8305 	mrs	r3, IPSR
  103c68:	b933      	cbnz	r3, 103c78 <osMessageQueuePut+0x24>
  103c6a:	f3ef 8310 	mrs	r3, PRIMASK
  103c6e:	b91b      	cbnz	r3, 103c78 <osMessageQueuePut+0x24>
  103c70:	f3ef 8311 	mrs	r3, BASEPRI
  103c74:	2b00      	cmp	r3, #0
  103c76:	d03c      	beq.n	103cf2 <osMessageQueuePut+0x9e>
  103c78:	b124      	cbz	r4, 103c84 <osMessageQueuePut+0x30>
  103c7a:	7823      	ldrb	r3, [r4, #0]
  103c7c:	2b08      	cmp	r3, #8
  103c7e:	d101      	bne.n	103c84 <osMessageQueuePut+0x30>
  103c80:	b107      	cbz	r7, 103c84 <osMessageQueuePut+0x30>
  103c82:	b145      	cbz	r5, 103c96 <osMessageQueuePut+0x42>
  103c84:	4620      	mov	r0, r4
  103c86:	f06f 0103 	mvn.w	r1, #3
  103c8a:	f7ff fa60 	bl	10314e <EvrRtxMessageQueueError>
  103c8e:	f06f 0003 	mvn.w	r0, #3
  103c92:	e8bd 81f0 	ldmia.w	sp!, {r4, r5, r6, r7, r8, pc}
  103c96:	7863      	ldrb	r3, [r4, #1]
  103c98:	b92b      	cbnz	r3, 103ca6 <osMessageQueuePut+0x52>
  103c9a:	f06f 0102 	mvn.w	r1, #2
  103c9e:	4620      	mov	r0, r4
  103ca0:	f7ff fa55 	bl	10314e <EvrRtxMessageQueueError>
  103ca4:	e021      	b.n	103cea <osMessageQueuePut+0x96>
  103ca6:	f104 000c 	add.w	r0, r4, #12
  103caa:	f7ff fcc0 	bl	10362e <osRtxMemoryPoolAlloc>
  103cae:	4606      	mov	r6, r0
  103cb0:	b1b8      	cbz	r0, 103ce2 <osMessageQueuePut+0x8e>
  103cb2:	6a62      	ldr	r2, [r4, #36]	; 0x24
  103cb4:	4639      	mov	r1, r7
  103cb6:	300c      	adds	r0, #12
  103cb8:	f004 ff0c 	bl	108ad4 <memcpy>
  103cbc:	2307      	movs	r3, #7
  103cbe:	7033      	strb	r3, [r6, #0]
  103cc0:	2301      	movs	r3, #1
  103cc2:	7073      	strb	r3, [r6, #1]
  103cc4:	4630      	mov	r0, r6
  103cc6:	70b5      	strb	r5, [r6, #2]
  103cc8:	f886 8003 	strb.w	r8, [r6, #3]
  103ccc:	6077      	str	r7, [r6, #4]
  103cce:	60b4      	str	r4, [r6, #8]
  103cd0:	f000 fae0 	bl	104294 <osRtxPostProcess>
  103cd4:	4620      	mov	r0, r4
  103cd6:	4639      	mov	r1, r7
  103cd8:	f7ff fa3f 	bl	10315a <EvrRtxMessageQueueInsertPending>
  103cdc:	4628      	mov	r0, r5
  103cde:	e8bd 81f0 	ldmia.w	sp!, {r4, r5, r6, r7, r8, pc}
  103ce2:	4639      	mov	r1, r7
  103ce4:	4620      	mov	r0, r4
  103ce6:	f7ff fa3a 	bl	10315e <EvrRtxMessageQueueNotInserted>
  103cea:	f06f 0002 	mvn.w	r0, #2
  103cee:	e8bd 81f0 	ldmia.w	sp!, {r4, r5, r6, r7, r8, pc}
  103cf2:	4620      	mov	r0, r4
  103cf4:	4639      	mov	r1, r7
  103cf6:	4642      	mov	r2, r8
  103cf8:	462b      	mov	r3, r5
  103cfa:	f8df c008 	ldr.w	r12, [pc, #8]	; 103d04 <osMessageQueuePut+0xb0>
  103cfe:	df00      	svc	0
  103d00:	e8bd 81f0 	ldmia.w	sp!, {r4, r5, r6, r7, r8, pc}
  103d04:	0010389d 	.word	0x0010389d

00103d08 <osMessageQueueGet>:
  103d08:	b5f8      	push	{r3, r4, r5, r6, r7, lr}
  103d0a:	4604      	mov	r4, r0
  103d0c:	460d      	mov	r5, r1
  103d0e:	4617      	mov	r7, r2
  103d10:	461e      	mov	r6, r3
  103d12:	f7ff fa25 	bl	103160 <EvrRtxMessageQueueGet>
  103d16:	f3ef 8305 	mrs	r3, IPSR
  103d1a:	b92b      	cbnz	r3, 103d28 <osMessageQueueGet+0x20>
  103d1c:	f3ef 8310 	mrs	r3, PRIMASK
  103d20:	b913      	cbnz	r3, 103d28 <osMessageQueueGet+0x20>
  103d22:	f3ef 8311 	mrs	r3, BASEPRI
  103d26:	b3a3      	cbz	r3, 103d92 <osMessageQueueGet+0x8a>
  103d28:	b124      	cbz	r4, 103d34 <osMessageQueueGet+0x2c>
  103d2a:	7823      	ldrb	r3, [r4, #0]
  103d2c:	2b08      	cmp	r3, #8
  103d2e:	d101      	bne.n	103d34 <osMessageQueueGet+0x2c>
  103d30:	b105      	cbz	r5, 103d34 <osMessageQueueGet+0x2c>
  103d32:	b13e      	cbz	r6, 103d44 <osMessageQueueGet+0x3c>
  103d34:	4620      	mov	r0, r4
  103d36:	f06f 0103 	mvn.w	r1, #3
  103d3a:	f7ff fa08 	bl	10314e <EvrRtxMessageQueueError>
  103d3e:	f06f 0003 	mvn.w	r0, #3
  103d42:	bdf8      	pop	{r3, r4, r5, r6, r7, pc}
  103d44:	7863      	ldrb	r3, [r4, #1]
  103d46:	b92b      	cbnz	r3, 103d54 <osMessageQueueGet+0x4c>
  103d48:	f06f 0102 	mvn.w	r1, #2
  103d4c:	4620      	mov	r0, r4
  103d4e:	f7ff f9fe 	bl	10314e <EvrRtxMessageQueueError>
  103d52:	e01b      	b.n	103d8c <osMessageQueueGet+0x84>
  103d54:	4620      	mov	r0, r4
  103d56:	f7ff fea0 	bl	103a9a <MessageQueueGet>
  103d5a:	4606      	mov	r6, r0
  103d5c:	b190      	cbz	r0, 103d84 <osMessageQueueGet+0x7c>
  103d5e:	f100 010c 	add.w	r1, r0, #12
  103d62:	6a62      	ldr	r2, [r4, #36]	; 0x24
  103d64:	4628      	mov	r0, r5
  103d66:	f004 feb5 	bl	108ad4 <memcpy>
  103d6a:	b10f      	cbz	r7, 103d70 <osMessageQueueGet+0x68>
  103d6c:	78f3      	ldrb	r3, [r6, #3]
  103d6e:	703b      	strb	r3, [r7, #0]
  103d70:	4629      	mov	r1, r5
  103d72:	4620      	mov	r0, r4
  103d74:	f7ff f9f7 	bl	103166 <EvrRtxMessageQueueRetrieved>
  103d78:	4630      	mov	r0, r6
  103d7a:	60f4      	str	r4, [r6, #12]
  103d7c:	f000 fa8a 	bl	104294 <osRtxPostProcess>
  103d80:	2000      	movs	r0, #0
  103d82:	bdf8      	pop	{r3, r4, r5, r6, r7, pc}
  103d84:	4629      	mov	r1, r5
  103d86:	4620      	mov	r0, r4
  103d88:	f7ff f9ee 	bl	103168 <EvrRtxMessageQueueNotRetrieved>
  103d8c:	f06f 0002 	mvn.w	r0, #2
  103d90:	bdf8      	pop	{r3, r4, r5, r6, r7, pc}
  103d92:	4620      	mov	r0, r4
  103d94:	4629      	mov	r1, r5
  103d96:	463a      	mov	r2, r7
  103d98:	4633      	mov	r3, r6
  103d9a:	f8df c008 	ldr.w	r12, [pc, #8]	; 103da4 <osMessageQueueGet+0x9c>
  103d9e:	df00      	svc	0
  103da0:	bdf8      	pop	{r3, r4, r5, r6, r7, pc}
  103da2:	bf00      	nop
  103da4:	00103ae1 	.word	0x00103ae1

00103da8 <svcRtxMutexNew>:
  103da8:	b570      	push	{r4, r5, r6, lr}
  103daa:	b330      	cbz	r0, 103dfa <svcRtxMutexNew+0x52>
  103dac:	e890 0060 	ldmia.w	r0, {r5, r6}
  103db0:	6884      	ldr	r4, [r0, #8]
  103db2:	b164      	cbz	r4, 103dce <svcRtxMutexNew+0x26>
  103db4:	f014 0303 	ands.w	r3, r4, #3
  103db8:	d102      	bne.n	103dc0 <svcRtxMutexNew+0x18>
  103dba:	68c2      	ldr	r2, [r0, #12]
  103dbc:	2a1b      	cmp	r2, #27
  103dbe:	d80a      	bhi.n	103dd6 <svcRtxMutexNew+0x2e>
  103dc0:	f06f 0108 	mvn.w	r1, #8
  103dc4:	2000      	movs	r0, #0
  103dc6:	f7ff f9b4 	bl	103132 <EvrRtxMutexError>
  103dca:	2000      	movs	r0, #0
  103dcc:	bd70      	pop	{r4, r5, r6, pc}
  103dce:	68c3      	ldr	r3, [r0, #12]
  103dd0:	b1ab      	cbz	r3, 103dfe <svcRtxMutexNew+0x56>
  103dd2:	e7f5      	b.n	103dc0 <svcRtxMutexNew+0x18>
  103dd4:	2301      	movs	r3, #1
  103dd6:	2204      	movs	r2, #4
  103dd8:	7022      	strb	r2, [r4, #0]
  103dda:	70a3      	strb	r3, [r4, #2]
  103ddc:	2201      	movs	r2, #1
  103dde:	2300      	movs	r3, #0
  103de0:	7062      	strb	r2, [r4, #1]
  103de2:	70e6      	strb	r6, [r4, #3]
  103de4:	6065      	str	r5, [r4, #4]
  103de6:	60a3      	str	r3, [r4, #8]
  103de8:	60e3      	str	r3, [r4, #12]
  103dea:	6123      	str	r3, [r4, #16]
  103dec:	6163      	str	r3, [r4, #20]
  103dee:	7623      	strb	r3, [r4, #24]
  103df0:	4620      	mov	r0, r4
  103df2:	f7ff f9a0 	bl	103136 <EvrRtxMutexCreated>
  103df6:	4620      	mov	r0, r4
  103df8:	bd70      	pop	{r4, r5, r6, pc}
  103dfa:	4605      	mov	r5, r0
  103dfc:	4606      	mov	r6, r0
  103dfe:	4b0a      	ldr	r3, [pc, #40]	; (103e28 <svcRtxMutexNew+0x80>)
  103e00:	f8d3 009c 	ldr.w	r0, [r3, #156]	; 0x9c
  103e04:	b110      	cbz	r0, 103e0c <svcRtxMutexNew+0x64>
  103e06:	f7ff fc12 	bl	10362e <osRtxMemoryPoolAlloc>
  103e0a:	e005      	b.n	103e18 <svcRtxMutexNew+0x70>
  103e0c:	2201      	movs	r2, #1
  103e0e:	211c      	movs	r1, #28
  103e10:	f8d3 0088 	ldr.w	r0, [r3, #136]	; 0x88
  103e14:	f7ff fb7e 	bl	103514 <osRtxMemoryAlloc>
  103e18:	4604      	mov	r4, r0
  103e1a:	2800      	cmp	r0, #0
  103e1c:	d1da      	bne.n	103dd4 <svcRtxMutexNew+0x2c>
  103e1e:	f06f 0104 	mvn.w	r1, #4
  103e22:	f7ff f986 	bl	103132 <EvrRtxMutexError>
  103e26:	e7e6      	b.n	103df6 <svcRtxMutexNew+0x4e>
  103e28:	3fff40a8 	.word	0x3fff40a8

00103e2c <svcRtxMutexAcquire>:
  103e2c:	b5f8      	push	{r3, r4, r5, r6, r7, lr}
  103e2e:	4b31      	ldr	r3, [pc, #196]	; (103ef4 <svcRtxMutexAcquire+0xc8>)
  103e30:	4605      	mov	r5, r0
  103e32:	69de      	ldr	r6, [r3, #28]
  103e34:	460f      	mov	r7, r1
  103e36:	b936      	cbnz	r6, 103e46 <svcRtxMutexAcquire+0x1a>
  103e38:	f06f 0107 	mvn.w	r1, #7
  103e3c:	f7ff f979 	bl	103132 <EvrRtxMutexError>
  103e40:	f04f 30ff 	mov.w	r0, #4294967295
  103e44:	bdf8      	pop	{r3, r4, r5, r6, r7, pc}
  103e46:	b110      	cbz	r0, 103e4e <svcRtxMutexAcquire+0x22>
  103e48:	7803      	ldrb	r3, [r0, #0]
  103e4a:	2b04      	cmp	r3, #4
  103e4c:	d007      	beq.n	103e5e <svcRtxMutexAcquire+0x32>
  103e4e:	4628      	mov	r0, r5
  103e50:	f06f 0103 	mvn.w	r1, #3
  103e54:	f7ff f96d 	bl	103132 <EvrRtxMutexError>
  103e58:	f06f 0003 	mvn.w	r0, #3
  103e5c:	bdf8      	pop	{r3, r4, r5, r6, r7, pc}
  103e5e:	7843      	ldrb	r3, [r0, #1]
  103e60:	b913      	cbnz	r3, 103e68 <svcRtxMutexAcquire+0x3c>
  103e62:	f06f 0102 	mvn.w	r1, #2
  103e66:	e016      	b.n	103e96 <svcRtxMutexAcquire+0x6a>
  103e68:	7e04      	ldrb	r4, [r0, #24]
  103e6a:	b954      	cbnz	r4, 103e82 <svcRtxMutexAcquire+0x56>
  103e6c:	6af3      	ldr	r3, [r6, #44]	; 0x2c
  103e6e:	2101      	movs	r1, #1
  103e70:	60c6      	str	r6, [r0, #12]
  103e72:	6143      	str	r3, [r0, #20]
  103e74:	6104      	str	r4, [r0, #16]
  103e76:	62f0      	str	r0, [r6, #44]	; 0x2c
  103e78:	7601      	strb	r1, [r0, #24]
  103e7a:	f7ff f960 	bl	10313e <EvrRtxMutexAcquired>
  103e7e:	4620      	mov	r0, r4
  103e80:	bdf8      	pop	{r3, r4, r5, r6, r7, pc}
  103e82:	78c3      	ldrb	r3, [r0, #3]
  103e84:	07da      	lsls	r2, r3, #31
  103e86:	d510      	bpl.n	103eaa <svcRtxMutexAcquire+0x7e>
  103e88:	68c2      	ldr	r2, [r0, #12]
  103e8a:	4296      	cmp	r6, r2
  103e8c:	d10d      	bne.n	103eaa <svcRtxMutexAcquire+0x7e>
  103e8e:	2cff      	cmp	r4, #255	; 0xff
  103e90:	d104      	bne.n	103e9c <svcRtxMutexAcquire+0x70>
  103e92:	f06f 010f 	mvn.w	r1, #15
  103e96:	f7ff f94c 	bl	103132 <EvrRtxMutexError>
  103e9a:	e028      	b.n	103eee <svcRtxMutexAcquire+0xc2>
  103e9c:	1c61      	adds	r1, r4, #1
  103e9e:	b2c9      	uxtb	r1, r1
  103ea0:	7601      	strb	r1, [r0, #24]
  103ea2:	f7ff f94c 	bl	10313e <EvrRtxMutexAcquired>
  103ea6:	2000      	movs	r0, #0
  103ea8:	bdf8      	pop	{r3, r4, r5, r6, r7, pc}
  103eaa:	b1ef      	cbz	r7, 103ee8 <svcRtxMutexAcquire+0xbc>
  103eac:	079b      	lsls	r3, r3, #30
  103eae:	d50c      	bpl.n	103eca <svcRtxMutexAcquire+0x9e>
  103eb0:	68eb      	ldr	r3, [r5, #12]
  103eb2:	f896 2020 	ldrb.w	r2, [r6, #32]
  103eb6:	f993 0020 	ldrsb.w	r0, [r3, #32]
  103eba:	b251      	sxtb	r1, r2
  103ebc:	4288      	cmp	r0, r1
  103ebe:	da04      	bge.n	103eca <svcRtxMutexAcquire+0x9e>
  103ec0:	f883 2020 	strb.w	r2, [r3, #32]
  103ec4:	68e8      	ldr	r0, [r5, #12]
  103ec6:	f000 fb49 	bl	10455c <osRtxThreadListSort>
  103eca:	4639      	mov	r1, r7
  103ecc:	4628      	mov	r0, r5
  103ece:	f7ff f934 	bl	10313a <EvrRtxMutexAcquirePending>
  103ed2:	4631      	mov	r1, r6
  103ed4:	4628      	mov	r0, r5
  103ed6:	f000 fb13 	bl	104500 <osRtxThreadListPut>
  103eda:	4639      	mov	r1, r7
  103edc:	2053      	movs	r0, #83	; 0x53
  103ede:	f000 fdaf 	bl	104a40 <osRtxThreadWaitEnter>
  103ee2:	f06f 0001 	mvn.w	r0, #1
  103ee6:	bdf8      	pop	{r3, r4, r5, r6, r7, pc}
  103ee8:	4628      	mov	r0, r5
  103eea:	f7ff f929 	bl	103140 <EvrRtxMutexNotAcquired>
  103eee:	f06f 0002 	mvn.w	r0, #2
  103ef2:	bdf8      	pop	{r3, r4, r5, r6, r7, pc}
  103ef4:	3fff40a8 	.word	0x3fff40a8

00103ef8 <svcRtxMutexRelease>:
  103ef8:	b538      	push	{r3, r4, r5, lr}
  103efa:	4b35      	ldr	r3, [pc, #212]	; (103fd0 <svcRtxMutexRelease+0xd8>)
  103efc:	4604      	mov	r4, r0
  103efe:	69dd      	ldr	r5, [r3, #28]
  103f00:	b935      	cbnz	r5, 103f10 <svcRtxMutexRelease+0x18>
  103f02:	f06f 0107 	mvn.w	r1, #7
  103f06:	f7ff f914 	bl	103132 <EvrRtxMutexError>
  103f0a:	f04f 30ff 	mov.w	r0, #4294967295
  103f0e:	bd38      	pop	{r3, r4, r5, pc}
  103f10:	b110      	cbz	r0, 103f18 <svcRtxMutexRelease+0x20>
  103f12:	7803      	ldrb	r3, [r0, #0]
  103f14:	2b04      	cmp	r3, #4
  103f16:	d007      	beq.n	103f28 <svcRtxMutexRelease+0x30>
  103f18:	4620      	mov	r0, r4
  103f1a:	f06f 0103 	mvn.w	r1, #3
  103f1e:	f7ff f908 	bl	103132 <EvrRtxMutexError>
  103f22:	f06f 0003 	mvn.w	r0, #3
  103f26:	bd38      	pop	{r3, r4, r5, pc}
  103f28:	7843      	ldrb	r3, [r0, #1]
  103f2a:	b913      	cbnz	r3, 103f32 <svcRtxMutexRelease+0x3a>
  103f2c:	f06f 0102 	mvn.w	r1, #2
  103f30:	e009      	b.n	103f46 <svcRtxMutexRelease+0x4e>
  103f32:	68c3      	ldr	r3, [r0, #12]
  103f34:	429d      	cmp	r5, r3
  103f36:	d002      	beq.n	103f3e <svcRtxMutexRelease+0x46>
  103f38:	f06f 010d 	mvn.w	r1, #13
  103f3c:	e003      	b.n	103f46 <svcRtxMutexRelease+0x4e>
  103f3e:	7e01      	ldrb	r1, [r0, #24]
  103f40:	b931      	cbnz	r1, 103f50 <svcRtxMutexRelease+0x58>
  103f42:	f06f 010e 	mvn.w	r1, #14
  103f46:	f7ff f8f4 	bl	103132 <EvrRtxMutexError>
  103f4a:	f06f 0002 	mvn.w	r0, #2
  103f4e:	bd38      	pop	{r3, r4, r5, pc}
  103f50:	3901      	subs	r1, #1
  103f52:	b2c9      	uxtb	r1, r1
  103f54:	7601      	strb	r1, [r0, #24]
  103f56:	f7ff f8f5 	bl	103144 <EvrRtxMutexReleased>
  103f5a:	7e23      	ldrb	r3, [r4, #24]
  103f5c:	2b00      	cmp	r3, #0
  103f5e:	d134      	bne.n	103fca <svcRtxMutexRelease+0xd2>
  103f60:	6963      	ldr	r3, [r4, #20]
  103f62:	b10b      	cbz	r3, 103f68 <svcRtxMutexRelease+0x70>
  103f64:	6922      	ldr	r2, [r4, #16]
  103f66:	611a      	str	r2, [r3, #16]
  103f68:	6922      	ldr	r2, [r4, #16]
  103f6a:	b10a      	cbz	r2, 103f70 <svcRtxMutexRelease+0x78>
  103f6c:	6153      	str	r3, [r2, #20]
  103f6e:	e000      	b.n	103f72 <svcRtxMutexRelease+0x7a>
  103f70:	62eb      	str	r3, [r5, #44]	; 0x2c
  103f72:	78e3      	ldrb	r3, [r4, #3]
  103f74:	079b      	lsls	r3, r3, #30
  103f76:	d510      	bpl.n	103f9a <svcRtxMutexRelease+0xa2>
  103f78:	f895 3021 	ldrb.w	r3, [r5, #33]	; 0x21
  103f7c:	6aea      	ldr	r2, [r5, #44]	; 0x2c
  103f7e:	b152      	cbz	r2, 103f96 <svcRtxMutexRelease+0x9e>
  103f80:	6891      	ldr	r1, [r2, #8]
  103f82:	b131      	cbz	r1, 103f92 <svcRtxMutexRelease+0x9a>
  103f84:	f991 1020 	ldrsb.w	r1, [r1, #32]
  103f88:	b25b      	sxtb	r3, r3
  103f8a:	428b      	cmp	r3, r1
  103f8c:	bfb8      	it	lt
  103f8e:	460b      	movlt	r3, r1
  103f90:	b2db      	uxtb	r3, r3
  103f92:	6952      	ldr	r2, [r2, #20]
  103f94:	e7f3      	b.n	103f7e <svcRtxMutexRelease+0x86>
  103f96:	f885 3020 	strb.w	r3, [r5, #32]
  103f9a:	68a3      	ldr	r3, [r4, #8]
  103f9c:	b193      	cbz	r3, 103fc4 <svcRtxMutexRelease+0xcc>
  103f9e:	4620      	mov	r0, r4
  103fa0:	f000 fac1 	bl	104526 <osRtxThreadListGet>
  103fa4:	4605      	mov	r5, r0
  103fa6:	2200      	movs	r2, #0
  103fa8:	4611      	mov	r1, r2
  103faa:	f000 fc17 	bl	1047dc <osRtxThreadWaitExit>
  103fae:	6aeb      	ldr	r3, [r5, #44]	; 0x2c
  103fb0:	2101      	movs	r1, #1
  103fb2:	6163      	str	r3, [r4, #20]
  103fb4:	2300      	movs	r3, #0
  103fb6:	60e5      	str	r5, [r4, #12]
  103fb8:	6123      	str	r3, [r4, #16]
  103fba:	4620      	mov	r0, r4
  103fbc:	62ec      	str	r4, [r5, #44]	; 0x2c
  103fbe:	7621      	strb	r1, [r4, #24]
  103fc0:	f7ff f8bd 	bl	10313e <EvrRtxMutexAcquired>
  103fc4:	2000      	movs	r0, #0
  103fc6:	f000 fbdb 	bl	104780 <osRtxThreadDispatch>
  103fca:	2000      	movs	r0, #0
  103fcc:	bd38      	pop	{r3, r4, r5, pc}
  103fce:	bf00      	nop
  103fd0:	3fff40a8 	.word	0x3fff40a8

00103fd4 <svcRtxMutexDelete>:
  103fd4:	b510      	push	{r4, lr}
  103fd6:	4604      	mov	r4, r0
  103fd8:	b110      	cbz	r0, 103fe0 <svcRtxMutexDelete+0xc>
  103fda:	7803      	ldrb	r3, [r0, #0]
  103fdc:	2b04      	cmp	r3, #4
  103fde:	d007      	beq.n	103ff0 <svcRtxMutexDelete+0x1c>
  103fe0:	4620      	mov	r0, r4
  103fe2:	f06f 0103 	mvn.w	r1, #3
  103fe6:	f7ff f8a4 	bl	103132 <EvrRtxMutexError>
  103fea:	f06f 0003 	mvn.w	r0, #3
  103fee:	bd10      	pop	{r4, pc}
  103ff0:	7843      	ldrb	r3, [r0, #1]
  103ff2:	b933      	cbnz	r3, 104002 <svcRtxMutexDelete+0x2e>
  103ff4:	f06f 0102 	mvn.w	r1, #2
  103ff8:	f7ff f89b 	bl	103132 <EvrRtxMutexError>
  103ffc:	f06f 0002 	mvn.w	r0, #2
  104000:	bd10      	pop	{r4, pc}
  104002:	2300      	movs	r3, #0
  104004:	7043      	strb	r3, [r0, #1]
  104006:	7e03      	ldrb	r3, [r0, #24]
  104008:	2b00      	cmp	r3, #0
  10400a:	d032      	beq.n	104072 <svcRtxMutexDelete+0x9e>
  10400c:	6963      	ldr	r3, [r4, #20]
  10400e:	68c0      	ldr	r0, [r0, #12]
  104010:	b10b      	cbz	r3, 104016 <svcRtxMutexDelete+0x42>
  104012:	6922      	ldr	r2, [r4, #16]
  104014:	611a      	str	r2, [r3, #16]
  104016:	6922      	ldr	r2, [r4, #16]
  104018:	b10a      	cbz	r2, 10401e <svcRtxMutexDelete+0x4a>
  10401a:	6153      	str	r3, [r2, #20]
  10401c:	e000      	b.n	104020 <svcRtxMutexDelete+0x4c>
  10401e:	62c3      	str	r3, [r0, #44]	; 0x2c
  104020:	78e3      	ldrb	r3, [r4, #3]
  104022:	079a      	lsls	r2, r3, #30
  104024:	d516      	bpl.n	104054 <svcRtxMutexDelete+0x80>
  104026:	f890 3021 	ldrb.w	r3, [r0, #33]	; 0x21
  10402a:	6ac2      	ldr	r2, [r0, #44]	; 0x2c
  10402c:	b152      	cbz	r2, 104044 <svcRtxMutexDelete+0x70>
  10402e:	6891      	ldr	r1, [r2, #8]
  104030:	b131      	cbz	r1, 104040 <svcRtxMutexDelete+0x6c>
  104032:	f991 1020 	ldrsb.w	r1, [r1, #32]
  104036:	b25b      	sxtb	r3, r3
  104038:	428b      	cmp	r3, r1
  10403a:	bfb8      	it	lt
  10403c:	460b      	movlt	r3, r1
  10403e:	b2db      	uxtb	r3, r3
  104040:	6952      	ldr	r2, [r2, #20]
  104042:	e7f3      	b.n	10402c <svcRtxMutexDelete+0x58>
  104044:	f890 2020 	ldrb.w	r2, [r0, #32]
  104048:	4293      	cmp	r3, r2
  10404a:	d003      	beq.n	104054 <svcRtxMutexDelete+0x80>
  10404c:	f880 3020 	strb.w	r3, [r0, #32]
  104050:	f000 fa84 	bl	10455c <osRtxThreadListSort>
  104054:	68a3      	ldr	r3, [r4, #8]
  104056:	b91b      	cbnz	r3, 104060 <svcRtxMutexDelete+0x8c>
  104058:	2000      	movs	r0, #0
  10405a:	f000 fb91 	bl	104780 <osRtxThreadDispatch>
  10405e:	e008      	b.n	104072 <svcRtxMutexDelete+0x9e>
  104060:	4620      	mov	r0, r4
  104062:	f000 fa60 	bl	104526 <osRtxThreadListGet>
  104066:	2200      	movs	r2, #0
  104068:	f06f 0102 	mvn.w	r1, #2
  10406c:	f000 fbb6 	bl	1047dc <osRtxThreadWaitExit>
  104070:	e7f0      	b.n	104054 <svcRtxMutexDelete+0x80>
  104072:	78a3      	ldrb	r3, [r4, #2]
  104074:	07db      	lsls	r3, r3, #31
  104076:	d50b      	bpl.n	104090 <svcRtxMutexDelete+0xbc>
  104078:	4b08      	ldr	r3, [pc, #32]	; (10409c <svcRtxMutexDelete+0xc8>)
  10407a:	4621      	mov	r1, r4
  10407c:	f8d3 009c 	ldr.w	r0, [r3, #156]	; 0x9c
  104080:	b110      	cbz	r0, 104088 <svcRtxMutexDelete+0xb4>
  104082:	f7ff fb03 	bl	10368c <osRtxMemoryPoolFree>
  104086:	e003      	b.n	104090 <svcRtxMutexDelete+0xbc>
  104088:	f8d3 0088 	ldr.w	r0, [r3, #136]	; 0x88
  10408c:	f7ff fa78 	bl	103580 <osRtxMemoryFree>
  104090:	4620      	mov	r0, r4
  104092:	f7ff f859 	bl	103148 <EvrRtxMutexDestroyed>
  104096:	2000      	movs	r0, #0
  104098:	bd10      	pop	{r4, pc}
  10409a:	bf00      	nop
  10409c:	3fff40a8 	.word	0x3fff40a8

001040a0 <osRtxMutexOwnerRelease>:
  1040a0:	e92d 41f0 	stmdb	sp!, {r4, r5, r6, r7, r8, lr}
  1040a4:	4604      	mov	r4, r0
  1040a6:	2600      	movs	r6, #0
  1040a8:	2701      	movs	r7, #1
  1040aa:	b1fc      	cbz	r4, 1040ec <osRtxMutexOwnerRelease+0x4c>
  1040ac:	78e3      	ldrb	r3, [r4, #3]
  1040ae:	f8d4 8014 	ldr.w	r8, [r4, #20]
  1040b2:	071b      	lsls	r3, r3, #28
  1040b4:	d518      	bpl.n	1040e8 <osRtxMutexOwnerRelease+0x48>
  1040b6:	7626      	strb	r6, [r4, #24]
  1040b8:	2100      	movs	r1, #0
  1040ba:	4620      	mov	r0, r4
  1040bc:	f7ff f842 	bl	103144 <EvrRtxMutexReleased>
  1040c0:	68a3      	ldr	r3, [r4, #8]
  1040c2:	b18b      	cbz	r3, 1040e8 <osRtxMutexOwnerRelease+0x48>
  1040c4:	4620      	mov	r0, r4
  1040c6:	f000 fa2e 	bl	104526 <osRtxThreadListGet>
  1040ca:	4605      	mov	r5, r0
  1040cc:	2200      	movs	r2, #0
  1040ce:	4611      	mov	r1, r2
  1040d0:	f000 fb84 	bl	1047dc <osRtxThreadWaitExit>
  1040d4:	6aeb      	ldr	r3, [r5, #44]	; 0x2c
  1040d6:	60e5      	str	r5, [r4, #12]
  1040d8:	6163      	str	r3, [r4, #20]
  1040da:	6126      	str	r6, [r4, #16]
  1040dc:	2101      	movs	r1, #1
  1040de:	62ec      	str	r4, [r5, #44]	; 0x2c
  1040e0:	4620      	mov	r0, r4
  1040e2:	7627      	strb	r7, [r4, #24]
  1040e4:	f7ff f82b 	bl	10313e <EvrRtxMutexAcquired>
  1040e8:	4644      	mov	r4, r8
  1040ea:	e7de      	b.n	1040aa <osRtxMutexOwnerRelease+0xa>
  1040ec:	e8bd 81f0 	ldmia.w	sp!, {r4, r5, r6, r7, r8, pc}

001040f0 <osMutexNew>:
  1040f0:	b510      	push	{r4, lr}
  1040f2:	4604      	mov	r4, r0
  1040f4:	f7ff f81e 	bl	103134 <EvrRtxMutexNew>
  1040f8:	f3ef 8305 	mrs	r3, IPSR
  1040fc:	b92b      	cbnz	r3, 10410a <osMutexNew+0x1a>
  1040fe:	f3ef 8310 	mrs	r3, PRIMASK
  104102:	b913      	cbnz	r3, 10410a <osMutexNew+0x1a>
  104104:	f3ef 8311 	mrs	r3, BASEPRI
  104108:	b133      	cbz	r3, 104118 <osMutexNew+0x28>
  10410a:	f06f 0105 	mvn.w	r1, #5
  10410e:	2000      	movs	r0, #0
  104110:	f7ff f80f 	bl	103132 <EvrRtxMutexError>
  104114:	2000      	movs	r0, #0
  104116:	bd10      	pop	{r4, pc}
  104118:	4620      	mov	r0, r4
  10411a:	f8df c020 	ldr.w	r12, [pc, #32]	; 10413c <osMutexNew+0x4c>
  10411e:	f3ef 8314 	mrs	r3, CONTROL
  104122:	f013 0f02 	tst.w	r3, #2
  104126:	d106      	bne.n	104136 <osMutexNew+0x46>
  104128:	f3ef 8308 	mrs	r3, MSP
  10412c:	3b20      	subs	r3, #32
  10412e:	f023 0307 	bic.w	r3, r3, #7
  104132:	f383 8809 	msr	PSP, r3
  104136:	df00      	svc	0
  104138:	bd10      	pop	{r4, pc}
  10413a:	bf00      	nop
  10413c:	00103da9 	.word	0x00103da9

00104140 <osMutexAcquire>:
  104140:	b538      	push	{r3, r4, r5, lr}
  104142:	4604      	mov	r4, r0
  104144:	460d      	mov	r5, r1
  104146:	f7fe fff7 	bl	103138 <EvrRtxMutexAcquire>
  10414a:	f3ef 8305 	mrs	r3, IPSR
  10414e:	b92b      	cbnz	r3, 10415c <osMutexAcquire+0x1c>
  104150:	f3ef 8310 	mrs	r3, PRIMASK
  104154:	b913      	cbnz	r3, 10415c <osMutexAcquire+0x1c>
  104156:	f3ef 8311 	mrs	r3, BASEPRI
  10415a:	b13b      	cbz	r3, 10416c <osMutexAcquire+0x2c>
  10415c:	4620      	mov	r0, r4
  10415e:	f06f 0105 	mvn.w	r1, #5
  104162:	f7fe ffe6 	bl	103132 <EvrRtxMutexError>
  104166:	f06f 0005 	mvn.w	r0, #5
  10416a:	bd38      	pop	{r3, r4, r5, pc}
  10416c:	4620      	mov	r0, r4
  10416e:	4629      	mov	r1, r5
  104170:	f8df c004 	ldr.w	r12, [pc, #4]	; 104178 <osMutexAcquire+0x38>
  104174:	df00      	svc	0
  104176:	bd38      	pop	{r3, r4, r5, pc}
  104178:	00103e2d 	.word	0x00103e2d

0010417c <osMutexRelease>:
  10417c:	b510      	push	{r4, lr}
  10417e:	4604      	mov	r4, r0
  104180:	f7fe ffdf 	bl	103142 <EvrRtxMutexRelease>
  104184:	f3ef 8305 	mrs	r3, IPSR
  104188:	b92b      	cbnz	r3, 104196 <osMutexRelease+0x1a>
  10418a:	f3ef 8310 	mrs	r3, PRIMASK
  10418e:	b913      	cbnz	r3, 104196 <osMutexRelease+0x1a>
  104190:	f3ef 8311 	mrs	r3, BASEPRI
  104194:	b13b      	cbz	r3, 1041a6 <osMutexRelease+0x2a>
  104196:	4620      	mov	r0, r4
  104198:	f06f 0105 	mvn.w	r1, #5
  10419c:	f7fe ffc9 	bl	103132 <EvrRtxMutexError>
  1041a0:	f06f 0005 	mvn.w	r0, #5
  1041a4:	bd10      	pop	{r4, pc}
  1041a6:	4620      	mov	r0, r4
  1041a8:	f8df c004 	ldr.w	r12, [pc, #4]	; 1041b0 <osMutexRelease+0x34>
  1041ac:	df00      	svc	0
  1041ae:	bd10      	pop	{r4, pc}
  1041b0:	00103ef9 	.word	0x00103ef9

001041b4 <osMutexDelete>:
  1041b4:	b510      	push	{r4, lr}
  1041b6:	4604      	mov	r4, r0
  1041b8:	f7fe ffc5 	bl	103146 <EvrRtxMutexDelete>
  1041bc:	f3ef 8305 	mrs	r3, IPSR
  1041c0:	b92b      	cbnz	r3, 1041ce <osMutexDelete+0x1a>
  1041c2:	f3ef 8310 	mrs	r3, PRIMASK
  1041c6:	b913      	cbnz	r3, 1041ce <osMutexDelete+0x1a>
  1041c8:	f3ef 8311 	mrs	r3, BASEPRI
  1041cc:	b13b      	cbz	r3, 1041de <osMutexDelete+0x2a>
  1041ce:	4620      	mov	r0, r4
  1041d0:	f06f 0105 	mvn.w	r1, #5
  1041d4:	f7fe ffad 	bl	103132 <EvrRtxMutexError>
  1041d8:	f06f 0005 	mvn.w	r0, #5
  1041dc:	bd10      	pop	{r4, pc}
  1041de:	4620      	mov	r0, r4
  1041e0:	f8df c004 	ldr.w	r12, [pc, #4]	; 1041e8 <osMutexDelete+0x34>
  1041e4:	df00      	svc	0
  1041e6:	bd10      	pop	{r4, pc}
  1041e8:	00103fd5 	.word	0x00103fd5

001041ec <atomic_inc16_lim>:
  1041ec:	b510      	push	{r4, lr}
  1041ee:	e8d0 3f5f 	ldrexh	r3, [r0]
  1041f2:	1c5a      	adds	r2, r3, #1
  1041f4:	4291      	cmp	r1, r2
  1041f6:	d800      	bhi.n	1041fa <atomic_inc16_lim+0xe>
  1041f8:	2200      	movs	r2, #0
  1041fa:	e8c0 2f54 	strexh	r4, r2, [r0]
  1041fe:	b104      	cbz	r4, 104202 <atomic_inc16_lim+0x16>
  104200:	e7f5      	b.n	1041ee <atomic_inc16_lim+0x2>
  104202:	b298      	uxth	r0, r3
  104204:	bd10      	pop	{r4, pc}
	...

00104208 <osRtxPendSV_Handler>:
  104208:	b570      	push	{r4, r5, r6, lr}
  10420a:	4d1f      	ldr	r5, [pc, #124]	; (104288 <osRtxPendSV_Handler+0x80>)
  10420c:	462c      	mov	r4, r5
  10420e:	4e1f      	ldr	r6, [pc, #124]	; (10428c <osRtxPendSV_Handler+0x84>)
  104210:	f8b5 105c 	ldrh.w	r1, [r5, #92]	; 0x5c
  104214:	e8d6 3f5f 	ldrexh	r3, [r6]
  104218:	b913      	cbnz	r3, 104220 <osRtxPendSV_Handler+0x18>
  10421a:	f3bf 8f2f 	clrex
  10421e:	e004      	b.n	10422a <osRtxPendSV_Handler+0x22>
  104220:	1e5a      	subs	r2, r3, #1
  104222:	e8c6 2f50 	strexh	r0, r2, [r6]
  104226:	b100      	cbz	r0, 10422a <osRtxPendSV_Handler+0x22>
  104228:	e7f4      	b.n	104214 <osRtxPendSV_Handler+0xc>
  10422a:	b29b      	uxth	r3, r3
  10422c:	b33b      	cbz	r3, 10427e <osRtxPendSV_Handler+0x76>
  10422e:	4818      	ldr	r0, [pc, #96]	; (104290 <osRtxPendSV_Handler+0x88>)
  104230:	f7ff ffdc 	bl	1041ec <atomic_inc16_lim>
  104234:	6e6b      	ldr	r3, [r5, #100]	; 0x64
  104236:	f853 0020 	ldr.w	r0, [r3, r0, lsl #2]
  10423a:	b300      	cbz	r0, 10427e <osRtxPendSV_Handler+0x76>
  10423c:	7803      	ldrb	r3, [r0, #0]
  10423e:	3b01      	subs	r3, #1
  104240:	2b06      	cmp	r3, #6
  104242:	d8e5      	bhi.n	104210 <osRtxPendSV_Handler+0x8>
  104244:	a201      	add	r2, pc, #4	; (adr r2, 10424c <osRtxPendSV_Handler+0x44>)
  104246:	f852 f023 	ldr.w	pc, [r2, r3, lsl #2]
  10424a:	bf00      	nop
  10424c:	00104269 	.word	0x00104269
  104250:	00104211 	.word	0x00104211
  104254:	0010426d 	.word	0x0010426d
  104258:	00104211 	.word	0x00104211
  10425c:	00104271 	.word	0x00104271
  104260:	00104275 	.word	0x00104275
  104264:	00104279 	.word	0x00104279
  104268:	6ea3      	ldr	r3, [r4, #104]	; 0x68
  10426a:	e006      	b.n	10427a <osRtxPendSV_Handler+0x72>
  10426c:	6ee3      	ldr	r3, [r4, #108]	; 0x6c
  10426e:	e004      	b.n	10427a <osRtxPendSV_Handler+0x72>
  104270:	6f23      	ldr	r3, [r4, #112]	; 0x70
  104272:	e002      	b.n	10427a <osRtxPendSV_Handler+0x72>
  104274:	6f63      	ldr	r3, [r4, #116]	; 0x74
  104276:	e000      	b.n	10427a <osRtxPendSV_Handler+0x72>
  104278:	6fa3      	ldr	r3, [r4, #120]	; 0x78
  10427a:	4798      	blx	r3
  10427c:	e7c7      	b.n	10420e <osRtxPendSV_Handler+0x6>
  10427e:	2000      	movs	r0, #0
  104280:	e8bd 4070 	ldmia.w	sp!, {r4, r5, r6, lr}
  104284:	f000 ba7c 	b.w	104780 <osRtxThreadDispatch>
  104288:	3fff40a8 	.word	0x3fff40a8
  10428c:	3fff4106 	.word	0x3fff4106
  104290:	3fff410a 	.word	0x3fff410a

00104294 <osRtxPostProcess>:
  104294:	b570      	push	{r4, r5, r6, lr}
  104296:	4c16      	ldr	r4, [pc, #88]	; (1042f0 <osRtxPostProcess+0x5c>)
  104298:	4605      	mov	r5, r0
  10429a:	f8b4 105c 	ldrh.w	r1, [r4, #92]	; 0x5c
  10429e:	f104 025e 	add.w	r2, r4, #94	; 0x5e
  1042a2:	e8d2 3f5f 	ldrexh	r3, [r2]
  1042a6:	4299      	cmp	r1, r3
  1042a8:	d802      	bhi.n	1042b0 <osRtxPostProcess+0x1c>
  1042aa:	f3bf 8f2f 	clrex
  1042ae:	e004      	b.n	1042ba <osRtxPostProcess+0x26>
  1042b0:	1c58      	adds	r0, r3, #1
  1042b2:	e8c2 0f56 	strexh	r6, r0, [r2]
  1042b6:	b106      	cbz	r6, 1042ba <osRtxPostProcess+0x26>
  1042b8:	e7f3      	b.n	1042a2 <osRtxPostProcess+0xe>
  1042ba:	b29b      	uxth	r3, r3
  1042bc:	428b      	cmp	r3, r1
  1042be:	d210      	bcs.n	1042e2 <osRtxPostProcess+0x4e>
  1042c0:	f104 0060 	add.w	r0, r4, #96	; 0x60
  1042c4:	f7ff ff92 	bl	1041ec <atomic_inc16_lim>
  1042c8:	6e63      	ldr	r3, [r4, #100]	; 0x64
  1042ca:	f843 5020 	str.w	r5, [r3, r0, lsl #2]
  1042ce:	7a63      	ldrb	r3, [r4, #9]
  1042d0:	b923      	cbnz	r3, 1042dc <osRtxPostProcess+0x48>
  1042d2:	4b08      	ldr	r3, [pc, #32]	; (1042f4 <osRtxPostProcess+0x60>)
  1042d4:	f04f 5280 	mov.w	r2, #268435456	; 0x10000000
  1042d8:	605a      	str	r2, [r3, #4]
  1042da:	bd70      	pop	{r4, r5, r6, pc}
  1042dc:	2301      	movs	r3, #1
  1042de:	72e3      	strb	r3, [r4, #11]
  1042e0:	bd70      	pop	{r4, r5, r6, pc}
  1042e2:	4629      	mov	r1, r5
  1042e4:	e8bd 4070 	ldmia.w	sp!, {r4, r5, r6, lr}
  1042e8:	2002      	movs	r0, #2
  1042ea:	f7fe bea1 	b.w	103030 <osRtxErrorNotify>
  1042ee:	bf00      	nop
  1042f0:	3fff40a8 	.word	0x3fff40a8
  1042f4:	e000ed00 	.word	0xe000ed00

001042f8 <osRtxSysTimerSetup>:
  1042f8:	4b08      	ldr	r3, [pc, #32]	; (10431c <osRtxSysTimerSetup+0x24>)
  1042fa:	4a09      	ldr	r2, [pc, #36]	; (104320 <osRtxSysTimerSetup+0x28>)
  1042fc:	68db      	ldr	r3, [r3, #12]
  1042fe:	6852      	ldr	r2, [r2, #4]
  104300:	f04f 30ff 	mov.w	r0, #4294967295
  104304:	fbb3 f3f2 	udiv	r3, r3, r2
  104308:	4a06      	ldr	r2, [pc, #24]	; (104324 <osRtxSysTimerSetup+0x2c>)
  10430a:	3b01      	subs	r3, #1
  10430c:	6053      	str	r3, [r2, #4]
  10430e:	2300      	movs	r3, #0
  104310:	6093      	str	r3, [r2, #8]
  104312:	4b05      	ldr	r3, [pc, #20]	; (104328 <osRtxSysTimerSetup+0x30>)
  104314:	22ff      	movs	r2, #255	; 0xff
  104316:	f883 2023 	strb.w	r2, [r3, #35]	; 0x23
  10431a:	4770      	bx	lr
  10431c:	3fff40a8 	.word	0x3fff40a8
  104320:	0010de58 	.word	0x0010de58
  104324:	e000e010 	.word	0xe000e010
  104328:	e000ed00 	.word	0xe000ed00

0010432c <osRtxSysTimerEnable>:
  10432c:	4b01      	ldr	r3, [pc, #4]	; (104334 <osRtxSysTimerEnable+0x8>)
  10432e:	2207      	movs	r2, #7
  104330:	601a      	str	r2, [r3, #0]
  104332:	4770      	bx	lr
  104334:	e000e010 	.word	0xe000e010

00104338 <osRtxSysTimerAckIRQ>:
  104338:	4b01      	ldr	r3, [pc, #4]	; (104340 <osRtxSysTimerAckIRQ+0x8>)
  10433a:	681b      	ldr	r3, [r3, #0]
  10433c:	4770      	bx	lr
  10433e:	bf00      	nop
  104340:	e000e010 	.word	0xe000e010

00104344 <osRtxTick_Handler>:
  104344:	b538      	push	{r3, r4, r5, lr}
  104346:	f7ff fff7 	bl	104338 <osRtxSysTimerAckIRQ>
  10434a:	4b1d      	ldr	r3, [pc, #116]	; (1043c0 <osRtxTick_Handler+0x7c>)
  10434c:	e9d3 0104 	ldrd	r0, r1, [r3, #16]
  104350:	6d9a      	ldr	r2, [r3, #88]	; 0x58
  104352:	3001      	adds	r0, #1
  104354:	f141 0100 	adc.w	r1, r1, #0
  104358:	e9c3 0104 	strd	r0, r1, [r3, #16]
  10435c:	461d      	mov	r5, r3
  10435e:	b102      	cbz	r2, 104362 <osRtxTick_Handler+0x1e>
  104360:	4790      	blx	r2
  104362:	f000 f961 	bl	104628 <osRtxThreadDelayTick>
  104366:	2000      	movs	r0, #0
  104368:	f000 fa0a 	bl	104780 <osRtxThreadDispatch>
  10436c:	6caa      	ldr	r2, [r5, #72]	; 0x48
  10436e:	4b14      	ldr	r3, [pc, #80]	; (1043c0 <osRtxTick_Handler+0x7c>)
  104370:	b322      	cbz	r2, 1043bc <osRtxTick_Handler+0x78>
  104372:	6c19      	ldr	r1, [r3, #64]	; 0x40
  104374:	6a18      	ldr	r0, [r3, #32]
  104376:	4281      	cmp	r1, r0
  104378:	d002      	beq.n	104380 <osRtxTick_Handler+0x3c>
  10437a:	6418      	str	r0, [r3, #64]	; 0x40
  10437c:	645a      	str	r2, [r3, #68]	; 0x44
  10437e:	bd38      	pop	{r3, r4, r5, pc}
  104380:	6c5a      	ldr	r2, [r3, #68]	; 0x44
  104382:	b10a      	cbz	r2, 104388 <osRtxTick_Handler+0x44>
  104384:	3a01      	subs	r2, #1
  104386:	645a      	str	r2, [r3, #68]	; 0x44
  104388:	6c6b      	ldr	r3, [r5, #68]	; 0x44
  10438a:	4c0d      	ldr	r4, [pc, #52]	; (1043c0 <osRtxTick_Handler+0x7c>)
  10438c:	b9b3      	cbnz	r3, 1043bc <osRtxTick_Handler+0x78>
  10438e:	7a23      	ldrb	r3, [r4, #8]
  104390:	2b02      	cmp	r3, #2
  104392:	d113      	bne.n	1043bc <osRtxTick_Handler+0x78>
  104394:	6ae5      	ldr	r5, [r4, #44]	; 0x2c
  104396:	b18d      	cbz	r5, 1043bc <osRtxTick_Handler+0x78>
  104398:	f995 2020 	ldrsb.w	r2, [r5, #32]
  10439c:	f991 3020 	ldrsb.w	r3, [r1, #32]
  1043a0:	429a      	cmp	r2, r3
  1043a2:	d10b      	bne.n	1043bc <osRtxTick_Handler+0x78>
  1043a4:	4628      	mov	r0, r5
  1043a6:	f000 f8cf 	bl	104548 <osRtxThreadListRemove>
  1043aa:	6c20      	ldr	r0, [r4, #64]	; 0x40
  1043ac:	f000 f8e8 	bl	104580 <osRtxThreadReadyPut>
  1043b0:	4628      	mov	r0, r5
  1043b2:	f000 f9d5 	bl	104760 <osRtxThreadSwitch>
  1043b6:	6ca3      	ldr	r3, [r4, #72]	; 0x48
  1043b8:	6425      	str	r5, [r4, #64]	; 0x40
  1043ba:	6463      	str	r3, [r4, #68]	; 0x44
  1043bc:	bd38      	pop	{r3, r4, r5, pc}
  1043be:	bf00      	nop
  1043c0:	3fff40a8 	.word	0x3fff40a8

001043c4 <svcRtxThreadGetId>:
  1043c4:	b510      	push	{r4, lr}
  1043c6:	4b03      	ldr	r3, [pc, #12]	; (1043d4 <svcRtxThreadGetId+0x10>)
  1043c8:	69dc      	ldr	r4, [r3, #28]
  1043ca:	4620      	mov	r0, r4
  1043cc:	f7fe fea4 	bl	103118 <EvrRtxThreadGetId>
  1043d0:	4620      	mov	r0, r4
  1043d2:	bd10      	pop	{r4, pc}
  1043d4:	3fff40a8 	.word	0x3fff40a8

001043d8 <osThreadExit>:
  1043d8:	b508      	push	{r3, lr}
  1043da:	f7fe fea2 	bl	103122 <EvrRtxThreadExit>
  1043de:	f8df c010 	ldr.w	r12, [pc, #16]	; 1043f0 <osThreadExit+0x18>
  1043e2:	df00      	svc	0
  1043e4:	f04f 31ff 	mov.w	r1, #4294967295
  1043e8:	2000      	movs	r0, #0
  1043ea:	f7fe fe91 	bl	103110 <EvrRtxThreadError>
  1043ee:	e7fe      	b.n	1043ee <osThreadExit+0x16>
  1043f0:	00104a89 	.word	0x00104a89

001043f4 <ThreadFlagsCheck>:
  1043f4:	f012 0f02 	tst.w	r2, #2
  1043f8:	b510      	push	{r4, lr}
  1043fa:	f002 0201 	and.w	r2, r2, #1
  1043fe:	d122      	bne.n	104446 <ThreadFlagsCheck+0x52>
  104400:	f100 0328 	add.w	r3, r0, #40	; 0x28
  104404:	b182      	cbz	r2, 104428 <ThreadFlagsCheck+0x34>
  104406:	e853 0f00 	ldrex	r0, [r3]
  10440a:	ea00 0201 	and.w	r2, r0, r1
  10440e:	428a      	cmp	r2, r1
  104410:	d003      	beq.n	10441a <ThreadFlagsCheck+0x26>
  104412:	f3bf 8f2f 	clrex
  104416:	2000      	movs	r0, #0
  104418:	e005      	b.n	104426 <ThreadFlagsCheck+0x32>
  10441a:	ea20 0201 	bic.w	r2, r0, r1
  10441e:	e843 2400 	strex	r4, r2, [r3]
  104422:	b104      	cbz	r4, 104426 <ThreadFlagsCheck+0x32>
  104424:	e7ef      	b.n	104406 <ThreadFlagsCheck+0x12>
  104426:	bd10      	pop	{r4, pc}
  104428:	e853 0f00 	ldrex	r0, [r3]
  10442c:	4208      	tst	r0, r1
  10442e:	d103      	bne.n	104438 <ThreadFlagsCheck+0x44>
  104430:	f3bf 8f2f 	clrex
  104434:	2000      	movs	r0, #0
  104436:	e005      	b.n	104444 <ThreadFlagsCheck+0x50>
  104438:	ea20 0201 	bic.w	r2, r0, r1
  10443c:	e843 2400 	strex	r4, r2, [r3]
  104440:	b104      	cbz	r4, 104444 <ThreadFlagsCheck+0x50>
  104442:	e7f1      	b.n	104428 <ThreadFlagsCheck+0x34>
  104444:	bd10      	pop	{r4, pc}
  104446:	6a80      	ldr	r0, [r0, #40]	; 0x28
  104448:	ea01 0300 	and.w	r3, r1, r0
  10444c:	b11a      	cbz	r2, 104456 <ThreadFlagsCheck+0x62>
  10444e:	4299      	cmp	r1, r3
  104450:	bf18      	it	ne
  104452:	2000      	movne	r0, #0
  104454:	bd10      	pop	{r4, pc}
  104456:	2b00      	cmp	r3, #0
  104458:	bf08      	it	eq
  10445a:	2000      	moveq	r0, #0
  10445c:	bd10      	pop	{r4, pc}
	...

00104460 <osRtxThreadFree>:
  104460:	b510      	push	{r4, lr}
  104462:	2300      	movs	r3, #0
  104464:	7043      	strb	r3, [r0, #1]
  104466:	7883      	ldrb	r3, [r0, #2]
  104468:	4604      	mov	r4, r0
  10446a:	079a      	lsls	r2, r3, #30
  10446c:	d50c      	bpl.n	104488 <osRtxThreadFree+0x28>
  10446e:	f013 0f10 	tst.w	r3, #16
  104472:	6b01      	ldr	r1, [r0, #48]	; 0x30
  104474:	4b0e      	ldr	r3, [pc, #56]	; (1044b0 <osRtxThreadFree+0x50>)
  104476:	d004      	beq.n	104482 <osRtxThreadFree+0x22>
  104478:	f8d3 008c 	ldr.w	r0, [r3, #140]	; 0x8c
  10447c:	f7ff f906 	bl	10368c <osRtxMemoryPoolFree>
  104480:	e002      	b.n	104488 <osRtxThreadFree+0x28>
  104482:	6fd8      	ldr	r0, [r3, #124]	; 0x7c
  104484:	f7ff f87c 	bl	103580 <osRtxMemoryFree>
  104488:	78a3      	ldrb	r3, [r4, #2]
  10448a:	07db      	lsls	r3, r3, #31
  10448c:	d50e      	bpl.n	1044ac <osRtxThreadFree+0x4c>
  10448e:	4b08      	ldr	r3, [pc, #32]	; (1044b0 <osRtxThreadFree+0x50>)
  104490:	4621      	mov	r1, r4
  104492:	f8d3 0090 	ldr.w	r0, [r3, #144]	; 0x90
  104496:	b118      	cbz	r0, 1044a0 <osRtxThreadFree+0x40>
  104498:	e8bd 4010 	ldmia.w	sp!, {r4, lr}
  10449c:	f7ff b8f6 	b.w	10368c <osRtxMemoryPoolFree>
  1044a0:	f8d3 0088 	ldr.w	r0, [r3, #136]	; 0x88
  1044a4:	e8bd 4010 	ldmia.w	sp!, {r4, lr}
  1044a8:	f7ff b86a 	b.w	103580 <osRtxMemoryFree>
  1044ac:	bd10      	pop	{r4, pc}
  1044ae:	bf00      	nop
  1044b0:	3fff40a8 	.word	0x3fff40a8

001044b4 <svcRtxThreadGetName>:
  1044b4:	b510      	push	{r4, lr}
  1044b6:	4604      	mov	r4, r0
  1044b8:	b110      	cbz	r0, 1044c0 <svcRtxThreadGetName+0xc>
  1044ba:	7803      	ldrb	r3, [r0, #0]
  1044bc:	2b01      	cmp	r3, #1
  1044be:	d005      	beq.n	1044cc <svcRtxThreadGetName+0x18>
  1044c0:	4620      	mov	r0, r4
  1044c2:	2100      	movs	r1, #0
  1044c4:	f7fe fe27 	bl	103116 <EvrRtxThreadGetName>
  1044c8:	2000      	movs	r0, #0
  1044ca:	bd10      	pop	{r4, pc}
  1044cc:	7843      	ldrb	r3, [r0, #1]
  1044ce:	2b00      	cmp	r3, #0
  1044d0:	d0f6      	beq.n	1044c0 <svcRtxThreadGetName+0xc>
  1044d2:	6841      	ldr	r1, [r0, #4]
  1044d4:	f7fe fe1f 	bl	103116 <EvrRtxThreadGetName>
  1044d8:	6860      	ldr	r0, [r4, #4]
  1044da:	bd10      	pop	{r4, pc}

001044dc <osRtxThreadDelayInsert.part.7>:
  1044dc:	4a07      	ldr	r2, [pc, #28]	; (1044fc <osRtxThreadDelayInsert.part.7+0x20>)
  1044de:	b510      	push	{r4, lr}
  1044e0:	6b93      	ldr	r3, [r2, #56]	; 0x38
  1044e2:	2400      	movs	r4, #0
  1044e4:	b113      	cbz	r3, 1044ec <osRtxThreadDelayInsert.part.7+0x10>
  1044e6:	461c      	mov	r4, r3
  1044e8:	691b      	ldr	r3, [r3, #16]
  1044ea:	e7fb      	b.n	1044e4 <osRtxThreadDelayInsert.part.7+0x8>
  1044ec:	61c1      	str	r1, [r0, #28]
  1044ee:	6144      	str	r4, [r0, #20]
  1044f0:	6103      	str	r3, [r0, #16]
  1044f2:	b10c      	cbz	r4, 1044f8 <osRtxThreadDelayInsert.part.7+0x1c>
  1044f4:	6120      	str	r0, [r4, #16]
  1044f6:	bd10      	pop	{r4, pc}
  1044f8:	6390      	str	r0, [r2, #56]	; 0x38
  1044fa:	bd10      	pop	{r4, pc}
  1044fc:	3fff40a8 	.word	0x3fff40a8

00104500 <osRtxThreadListPut>:
  104500:	b510      	push	{r4, lr}
  104502:	b179      	cbz	r1, 104524 <osRtxThreadListPut+0x24>
  104504:	6883      	ldr	r3, [r0, #8]
  104506:	f991 2020 	ldrsb.w	r2, [r1, #32]
  10450a:	b133      	cbz	r3, 10451a <osRtxThreadListPut+0x1a>
  10450c:	f993 4020 	ldrsb.w	r4, [r3, #32]
  104510:	4294      	cmp	r4, r2
  104512:	db02      	blt.n	10451a <osRtxThreadListPut+0x1a>
  104514:	4618      	mov	r0, r3
  104516:	689b      	ldr	r3, [r3, #8]
  104518:	e7f7      	b.n	10450a <osRtxThreadListPut+0xa>
  10451a:	60c8      	str	r0, [r1, #12]
  10451c:	608b      	str	r3, [r1, #8]
  10451e:	6081      	str	r1, [r0, #8]
  104520:	b103      	cbz	r3, 104524 <osRtxThreadListPut+0x24>
  104522:	60d9      	str	r1, [r3, #12]
  104524:	bd10      	pop	{r4, pc}

00104526 <osRtxThreadListGet>:
  104526:	6883      	ldr	r3, [r0, #8]
  104528:	b12b      	cbz	r3, 104536 <osRtxThreadListGet+0x10>
  10452a:	689a      	ldr	r2, [r3, #8]
  10452c:	6082      	str	r2, [r0, #8]
  10452e:	b102      	cbz	r2, 104532 <osRtxThreadListGet+0xc>
  104530:	60d0      	str	r0, [r2, #12]
  104532:	2200      	movs	r2, #0
  104534:	60da      	str	r2, [r3, #12]
  104536:	4618      	mov	r0, r3
  104538:	4770      	bx	lr

0010453a <osRtxThreadListRoot>:
  10453a:	b120      	cbz	r0, 104546 <osRtxThreadListRoot+0xc>
  10453c:	7803      	ldrb	r3, [r0, #0]
  10453e:	2b01      	cmp	r3, #1
  104540:	d101      	bne.n	104546 <osRtxThreadListRoot+0xc>
  104542:	68c0      	ldr	r0, [r0, #12]
  104544:	e7f9      	b.n	10453a <osRtxThreadListRoot>
  104546:	4770      	bx	lr

00104548 <osRtxThreadListRemove>:
  104548:	68c3      	ldr	r3, [r0, #12]
  10454a:	b133      	cbz	r3, 10455a <osRtxThreadListRemove+0x12>
  10454c:	6882      	ldr	r2, [r0, #8]
  10454e:	609a      	str	r2, [r3, #8]
  104550:	6882      	ldr	r2, [r0, #8]
  104552:	b102      	cbz	r2, 104556 <osRtxThreadListRemove+0xe>
  104554:	60d3      	str	r3, [r2, #12]
  104556:	2300      	movs	r3, #0
  104558:	60c3      	str	r3, [r0, #12]
  10455a:	4770      	bx	lr

0010455c <osRtxThreadListSort>:
  10455c:	b510      	push	{r4, lr}
  10455e:	4601      	mov	r1, r0
  104560:	4604      	mov	r4, r0
  104562:	7823      	ldrb	r3, [r4, #0]
  104564:	2b01      	cmp	r3, #1
  104566:	d103      	bne.n	104570 <osRtxThreadListSort+0x14>
  104568:	68e4      	ldr	r4, [r4, #12]
  10456a:	2c00      	cmp	r4, #0
  10456c:	d1f9      	bne.n	104562 <osRtxThreadListSort+0x6>
  10456e:	bd10      	pop	{r4, pc}
  104570:	4608      	mov	r0, r1
  104572:	f7ff ffe9 	bl	104548 <osRtxThreadListRemove>
  104576:	4620      	mov	r0, r4
  104578:	e8bd 4010 	ldmia.w	sp!, {r4, lr}
  10457c:	f7ff bfc0 	b.w	104500 <osRtxThreadListPut>

00104580 <osRtxThreadReadyPut>:
  104580:	2301      	movs	r3, #1
  104582:	4601      	mov	r1, r0
  104584:	7043      	strb	r3, [r0, #1]
  104586:	4801      	ldr	r0, [pc, #4]	; (10458c <osRtxThreadReadyPut+0xc>)
  104588:	f7ff bfba 	b.w	104500 <osRtxThreadListPut>
  10458c:	3fff40cc 	.word	0x3fff40cc

00104590 <osRtxThreadDelayInsert>:
  104590:	1c4b      	adds	r3, r1, #1
  104592:	b430      	push	{r4, r5}
  104594:	4602      	mov	r2, r0
  104596:	460c      	mov	r4, r1
  104598:	d102      	bne.n	1045a0 <osRtxThreadDelayInsert+0x10>
  10459a:	bc30      	pop	{r4, r5}
  10459c:	f7ff bf9e 	b.w	1044dc <osRtxThreadDelayInsert.part.7>
  1045a0:	490c      	ldr	r1, [pc, #48]	; (1045d4 <osRtxThreadDelayInsert+0x44>)
  1045a2:	2000      	movs	r0, #0
  1045a4:	6b4b      	ldr	r3, [r1, #52]	; 0x34
  1045a6:	b133      	cbz	r3, 1045b6 <osRtxThreadDelayInsert+0x26>
  1045a8:	69dd      	ldr	r5, [r3, #28]
  1045aa:	42ac      	cmp	r4, r5
  1045ac:	d303      	bcc.n	1045b6 <osRtxThreadDelayInsert+0x26>
  1045ae:	4618      	mov	r0, r3
  1045b0:	1b64      	subs	r4, r4, r5
  1045b2:	691b      	ldr	r3, [r3, #16]
  1045b4:	e7f7      	b.n	1045a6 <osRtxThreadDelayInsert+0x16>
  1045b6:	61d4      	str	r4, [r2, #28]
  1045b8:	6150      	str	r0, [r2, #20]
  1045ba:	6113      	str	r3, [r2, #16]
  1045bc:	b108      	cbz	r0, 1045c2 <osRtxThreadDelayInsert+0x32>
  1045be:	6102      	str	r2, [r0, #16]
  1045c0:	e000      	b.n	1045c4 <osRtxThreadDelayInsert+0x34>
  1045c2:	634a      	str	r2, [r1, #52]	; 0x34
  1045c4:	b11b      	cbz	r3, 1045ce <osRtxThreadDelayInsert+0x3e>
  1045c6:	69d9      	ldr	r1, [r3, #28]
  1045c8:	615a      	str	r2, [r3, #20]
  1045ca:	1b0c      	subs	r4, r1, r4
  1045cc:	61dc      	str	r4, [r3, #28]
  1045ce:	bc30      	pop	{r4, r5}
  1045d0:	4770      	bx	lr
  1045d2:	bf00      	nop
  1045d4:	3fff40a8 	.word	0x3fff40a8

001045d8 <osRtxThreadDelayRemove>:
  1045d8:	69c1      	ldr	r1, [r0, #28]
  1045da:	b510      	push	{r4, lr}
  1045dc:	1c4b      	adds	r3, r1, #1
  1045de:	6942      	ldr	r2, [r0, #20]
  1045e0:	d10c      	bne.n	1045fc <osRtxThreadDelayRemove+0x24>
  1045e2:	b91a      	cbnz	r2, 1045ec <osRtxThreadDelayRemove+0x14>
  1045e4:	4b0f      	ldr	r3, [pc, #60]	; (104624 <osRtxThreadDelayRemove+0x4c>)
  1045e6:	6b9b      	ldr	r3, [r3, #56]	; 0x38
  1045e8:	4298      	cmp	r0, r3
  1045ea:	d11a      	bne.n	104622 <osRtxThreadDelayRemove+0x4a>
  1045ec:	6903      	ldr	r3, [r0, #16]
  1045ee:	b103      	cbz	r3, 1045f2 <osRtxThreadDelayRemove+0x1a>
  1045f0:	615a      	str	r2, [r3, #20]
  1045f2:	6942      	ldr	r2, [r0, #20]
  1045f4:	b97a      	cbnz	r2, 104616 <osRtxThreadDelayRemove+0x3e>
  1045f6:	4a0b      	ldr	r2, [pc, #44]	; (104624 <osRtxThreadDelayRemove+0x4c>)
  1045f8:	6393      	str	r3, [r2, #56]	; 0x38
  1045fa:	bd10      	pop	{r4, pc}
  1045fc:	b91a      	cbnz	r2, 104606 <osRtxThreadDelayRemove+0x2e>
  1045fe:	4b09      	ldr	r3, [pc, #36]	; (104624 <osRtxThreadDelayRemove+0x4c>)
  104600:	6b5b      	ldr	r3, [r3, #52]	; 0x34
  104602:	4298      	cmp	r0, r3
  104604:	d10d      	bne.n	104622 <osRtxThreadDelayRemove+0x4a>
  104606:	6903      	ldr	r3, [r0, #16]
  104608:	b11b      	cbz	r3, 104612 <osRtxThreadDelayRemove+0x3a>
  10460a:	69dc      	ldr	r4, [r3, #28]
  10460c:	615a      	str	r2, [r3, #20]
  10460e:	4421      	add	r1, r4
  104610:	61d9      	str	r1, [r3, #28]
  104612:	6942      	ldr	r2, [r0, #20]
  104614:	b11a      	cbz	r2, 10461e <osRtxThreadDelayRemove+0x46>
  104616:	6113      	str	r3, [r2, #16]
  104618:	2300      	movs	r3, #0
  10461a:	6143      	str	r3, [r0, #20]
  10461c:	bd10      	pop	{r4, pc}
  10461e:	4a01      	ldr	r2, [pc, #4]	; (104624 <osRtxThreadDelayRemove+0x4c>)
  104620:	6353      	str	r3, [r2, #52]	; 0x34
  104622:	bd10      	pop	{r4, pc}
  104624:	3fff40a8 	.word	0x3fff40a8

00104628 <osRtxThreadDelayTick>:
  104628:	b538      	push	{r3, r4, r5, lr}
  10462a:	4b2d      	ldr	r3, [pc, #180]	; (1046e0 <osRtxThreadDelayTick+0xb8>)
  10462c:	6b5c      	ldr	r4, [r3, #52]	; 0x34
  10462e:	461d      	mov	r5, r3
  104630:	2c00      	cmp	r4, #0
  104632:	d054      	beq.n	1046de <osRtxThreadDelayTick+0xb6>
  104634:	69e3      	ldr	r3, [r4, #28]
  104636:	3b01      	subs	r3, #1
  104638:	61e3      	str	r3, [r4, #28]
  10463a:	2b00      	cmp	r3, #0
  10463c:	d14f      	bne.n	1046de <osRtxThreadDelayTick+0xb6>
  10463e:	7863      	ldrb	r3, [r4, #1]
  104640:	2b53      	cmp	r3, #83	; 0x53
  104642:	d027      	beq.n	104694 <osRtxThreadDelayTick+0x6c>
  104644:	d808      	bhi.n	104658 <osRtxThreadDelayTick+0x30>
  104646:	2b33      	cmp	r3, #51	; 0x33
  104648:	d01b      	beq.n	104682 <osRtxThreadDelayTick+0x5a>
  10464a:	2b43      	cmp	r3, #67	; 0x43
  10464c:	d01c      	beq.n	104688 <osRtxThreadDelayTick+0x60>
  10464e:	2b13      	cmp	r3, #19
  104650:	d131      	bne.n	1046b6 <osRtxThreadDelayTick+0x8e>
  104652:	f7fe fd6b 	bl	10312c <EvrRtxThreadDelayCompleted>
  104656:	e02e      	b.n	1046b6 <osRtxThreadDelayTick+0x8e>
  104658:	2b73      	cmp	r3, #115	; 0x73
  10465a:	d021      	beq.n	1046a0 <osRtxThreadDelayTick+0x78>
  10465c:	d807      	bhi.n	10466e <osRtxThreadDelayTick+0x46>
  10465e:	2b63      	cmp	r3, #99	; 0x63
  104660:	d129      	bne.n	1046b6 <osRtxThreadDelayTick+0x8e>
  104662:	4620      	mov	r0, r4
  104664:	f7ff ff69 	bl	10453a <osRtxThreadListRoot>
  104668:	f7fe fd6f 	bl	10314a <EvrRtxSemaphoreAcquireTimeout>
  10466c:	e023      	b.n	1046b6 <osRtxThreadDelayTick+0x8e>
  10466e:	2b83      	cmp	r3, #131	; 0x83
  104670:	d01c      	beq.n	1046ac <osRtxThreadDelayTick+0x84>
  104672:	2b93      	cmp	r3, #147	; 0x93
  104674:	d11f      	bne.n	1046b6 <osRtxThreadDelayTick+0x8e>
  104676:	4620      	mov	r0, r4
  104678:	f7ff ff5f 	bl	10453a <osRtxThreadListRoot>
  10467c:	f7fe fd6c 	bl	103158 <EvrRtxMessageQueuePutTimeout>
  104680:	e019      	b.n	1046b6 <osRtxThreadDelayTick+0x8e>
  104682:	f7fe fd50 	bl	103126 <EvrRtxThreadFlagsWaitTimeout>
  104686:	e016      	b.n	1046b6 <osRtxThreadDelayTick+0x8e>
  104688:	4620      	mov	r0, r4
  10468a:	f7ff ff56 	bl	10453a <osRtxThreadListRoot>
  10468e:	f7fe fd4f 	bl	103130 <EvrRtxEventFlagsWaitTimeout>
  104692:	e010      	b.n	1046b6 <osRtxThreadDelayTick+0x8e>
  104694:	4620      	mov	r0, r4
  104696:	f7ff ff50 	bl	10453a <osRtxThreadListRoot>
  10469a:	f7fe fd4f 	bl	10313c <EvrRtxMutexAcquireTimeout>
  10469e:	e00a      	b.n	1046b6 <osRtxThreadDelayTick+0x8e>
  1046a0:	4620      	mov	r0, r4
  1046a2:	f7ff ff4a 	bl	10453a <osRtxThreadListRoot>
  1046a6:	f7fe fd51 	bl	10314c <EvrRtxMemoryPoolAllocTimeout>
  1046aa:	e004      	b.n	1046b6 <osRtxThreadDelayTick+0x8e>
  1046ac:	4620      	mov	r0, r4
  1046ae:	f7ff ff44 	bl	10453a <osRtxThreadListRoot>
  1046b2:	f7fe fd57 	bl	103164 <EvrRtxMessageQueueGetTimeout>
  1046b6:	6ba3      	ldr	r3, [r4, #56]	; 0x38
  1046b8:	4620      	mov	r0, r4
  1046ba:	6a19      	ldr	r1, [r3, #32]
  1046bc:	f7fe fd2f 	bl	10311e <EvrRtxThreadUnblocked>
  1046c0:	4620      	mov	r0, r4
  1046c2:	f7ff ff41 	bl	104548 <osRtxThreadListRemove>
  1046c6:	4620      	mov	r0, r4
  1046c8:	f7ff ff5a 	bl	104580 <osRtxThreadReadyPut>
  1046cc:	6924      	ldr	r4, [r4, #16]
  1046ce:	b124      	cbz	r4, 1046da <osRtxThreadDelayTick+0xb2>
  1046d0:	69e3      	ldr	r3, [r4, #28]
  1046d2:	2b00      	cmp	r3, #0
  1046d4:	d0b3      	beq.n	10463e <osRtxThreadDelayTick+0x16>
  1046d6:	2300      	movs	r3, #0
  1046d8:	6163      	str	r3, [r4, #20]
  1046da:	636c      	str	r4, [r5, #52]	; 0x34
  1046dc:	bd38      	pop	{r3, r4, r5, pc}
  1046de:	bd38      	pop	{r3, r4, r5, pc}
  1046e0:	3fff40a8 	.word	0x3fff40a8

001046e4 <osRtxThreadRegPtr>:
  1046e4:	6b80      	ldr	r0, [r0, #56]	; 0x38
  1046e6:	3020      	adds	r0, #32
  1046e8:	4770      	bx	lr
	...

001046ec <osRtxThreadBlock>:
  1046ec:	b510      	push	{r4, lr}
  1046ee:	2301      	movs	r3, #1
  1046f0:	4a09      	ldr	r2, [pc, #36]	; (104718 <osRtxThreadBlock+0x2c>)
  1046f2:	7043      	strb	r3, [r0, #1]
  1046f4:	f990 1020 	ldrsb.w	r1, [r0, #32]
  1046f8:	6ad3      	ldr	r3, [r2, #44]	; 0x2c
  1046fa:	3224      	adds	r2, #36	; 0x24
  1046fc:	b133      	cbz	r3, 10470c <osRtxThreadBlock+0x20>
  1046fe:	f993 4020 	ldrsb.w	r4, [r3, #32]
  104702:	428c      	cmp	r4, r1
  104704:	dd02      	ble.n	10470c <osRtxThreadBlock+0x20>
  104706:	461a      	mov	r2, r3
  104708:	689b      	ldr	r3, [r3, #8]
  10470a:	e7f7      	b.n	1046fc <osRtxThreadBlock+0x10>
  10470c:	60c2      	str	r2, [r0, #12]
  10470e:	6083      	str	r3, [r0, #8]
  104710:	6090      	str	r0, [r2, #8]
  104712:	b103      	cbz	r3, 104716 <osRtxThreadBlock+0x2a>
  104714:	60d8      	str	r0, [r3, #12]
  104716:	bd10      	pop	{r4, pc}
  104718:	3fff40a8 	.word	0x3fff40a8

0010471c <thread_switch_helper>:
  10471c:	4b04      	ldr	r3, [pc, #16]	; (104730 <thread_switch_helper+0x14>)
  10471e:	681b      	ldr	r3, [r3, #0]
  104720:	b12b      	cbz	r3, 10472e <thread_switch_helper+0x12>
  104722:	691b      	ldr	r3, [r3, #16]
  104724:	b11b      	cbz	r3, 10472e <thread_switch_helper+0x12>
  104726:	4a03      	ldr	r2, [pc, #12]	; (104734 <thread_switch_helper+0x18>)
  104728:	6a12      	ldr	r2, [r2, #32]
  10472a:	6c50      	ldr	r0, [r2, #68]	; 0x44
  10472c:	4718      	bx	r3
  10472e:	4770      	bx	lr
  104730:	3fff60e0 	.word	0x3fff60e0
  104734:	3fff40a8 	.word	0x3fff40a8

00104738 <osRtxThreadStackCheck>:
  104738:	4b07      	ldr	r3, [pc, #28]	; (104758 <osRtxThreadStackCheck+0x20>)
  10473a:	69d9      	ldr	r1, [r3, #28]
  10473c:	b151      	cbz	r1, 104754 <osRtxThreadStackCheck+0x1c>
  10473e:	6b0b      	ldr	r3, [r1, #48]	; 0x30
  104740:	6b8a      	ldr	r2, [r1, #56]	; 0x38
  104742:	4293      	cmp	r3, r2
  104744:	d203      	bcs.n	10474e <osRtxThreadStackCheck+0x16>
  104746:	681a      	ldr	r2, [r3, #0]
  104748:	4b04      	ldr	r3, [pc, #16]	; (10475c <osRtxThreadStackCheck+0x24>)
  10474a:	429a      	cmp	r2, r3
  10474c:	d002      	beq.n	104754 <osRtxThreadStackCheck+0x1c>
  10474e:	2001      	movs	r0, #1
  104750:	f7fe bc6e 	b.w	103030 <osRtxErrorNotify>
  104754:	4770      	bx	lr
  104756:	bf00      	nop
  104758:	3fff40a8 	.word	0x3fff40a8
  10475c:	e25a2ea5 	.word	0xe25a2ea5

00104760 <osRtxThreadSwitch>:
  104760:	b510      	push	{r4, lr}
  104762:	4604      	mov	r4, r0
  104764:	2302      	movs	r3, #2
  104766:	7043      	strb	r3, [r0, #1]
  104768:	4b04      	ldr	r3, [pc, #16]	; (10477c <osRtxThreadSwitch+0x1c>)
  10476a:	6218      	str	r0, [r3, #32]
  10476c:	f7ff ffe4 	bl	104738 <osRtxThreadStackCheck>
  104770:	4620      	mov	r0, r4
  104772:	e8bd 4010 	ldmia.w	sp!, {r4, lr}
  104776:	f7fe bcd3 	b.w	103120 <EvrRtxThreadSwitch>
  10477a:	bf00      	nop
  10477c:	3fff40a8 	.word	0x3fff40a8

00104780 <osRtxThreadDispatch>:
  104780:	b510      	push	{r4, lr}
  104782:	4b15      	ldr	r3, [pc, #84]	; (1047d8 <osRtxThreadDispatch+0x58>)
  104784:	4604      	mov	r4, r0
  104786:	7a1a      	ldrb	r2, [r3, #8]
  104788:	69d9      	ldr	r1, [r3, #28]
  10478a:	b970      	cbnz	r0, 1047aa <osRtxThreadDispatch+0x2a>
  10478c:	2a02      	cmp	r2, #2
  10478e:	6adc      	ldr	r4, [r3, #44]	; 0x2c
  104790:	d121      	bne.n	1047d6 <osRtxThreadDispatch+0x56>
  104792:	b301      	cbz	r1, 1047d6 <osRtxThreadDispatch+0x56>
  104794:	b1fc      	cbz	r4, 1047d6 <osRtxThreadDispatch+0x56>
  104796:	f994 2020 	ldrsb.w	r2, [r4, #32]
  10479a:	f991 3020 	ldrsb.w	r3, [r1, #32]
  10479e:	429a      	cmp	r2, r3
  1047a0:	dd19      	ble.n	1047d6 <osRtxThreadDispatch+0x56>
  1047a2:	4620      	mov	r0, r4
  1047a4:	f7ff fed0 	bl	104548 <osRtxThreadListRemove>
  1047a8:	e008      	b.n	1047bc <osRtxThreadDispatch+0x3c>
  1047aa:	2a02      	cmp	r2, #2
  1047ac:	d10e      	bne.n	1047cc <osRtxThreadDispatch+0x4c>
  1047ae:	b169      	cbz	r1, 1047cc <osRtxThreadDispatch+0x4c>
  1047b0:	f990 2020 	ldrsb.w	r2, [r0, #32]
  1047b4:	f991 3020 	ldrsb.w	r3, [r1, #32]
  1047b8:	429a      	cmp	r2, r3
  1047ba:	dd07      	ble.n	1047cc <osRtxThreadDispatch+0x4c>
  1047bc:	4608      	mov	r0, r1
  1047be:	f7ff ff95 	bl	1046ec <osRtxThreadBlock>
  1047c2:	4620      	mov	r0, r4
  1047c4:	e8bd 4010 	ldmia.w	sp!, {r4, lr}
  1047c8:	f7ff bfca 	b.w	104760 <osRtxThreadSwitch>
  1047cc:	4620      	mov	r0, r4
  1047ce:	e8bd 4010 	ldmia.w	sp!, {r4, lr}
  1047d2:	f7ff bed5 	b.w	104580 <osRtxThreadReadyPut>
  1047d6:	bd10      	pop	{r4, pc}
  1047d8:	3fff40a8 	.word	0x3fff40a8

001047dc <osRtxThreadWaitExit>:
  1047dc:	b570      	push	{r4, r5, r6, lr}
  1047de:	4604      	mov	r4, r0
  1047e0:	460e      	mov	r6, r1
  1047e2:	4615      	mov	r5, r2
  1047e4:	f7fe fc9b 	bl	10311e <EvrRtxThreadUnblocked>
  1047e8:	6ba3      	ldr	r3, [r4, #56]	; 0x38
  1047ea:	4620      	mov	r0, r4
  1047ec:	621e      	str	r6, [r3, #32]
  1047ee:	f7ff fef3 	bl	1045d8 <osRtxThreadDelayRemove>
  1047f2:	4620      	mov	r0, r4
  1047f4:	b11d      	cbz	r5, 1047fe <osRtxThreadWaitExit+0x22>
  1047f6:	e8bd 4070 	ldmia.w	sp!, {r4, r5, r6, lr}
  1047fa:	f7ff bfc1 	b.w	104780 <osRtxThreadDispatch>
  1047fe:	e8bd 4070 	ldmia.w	sp!, {r4, r5, r6, lr}
  104802:	f7ff bebd 	b.w	104580 <osRtxThreadReadyPut>

00104806 <osRtxThreadPostProcess>:
  104806:	b538      	push	{r3, r4, r5, lr}
  104808:	7843      	ldrb	r3, [r0, #1]
  10480a:	4604      	mov	r4, r0
  10480c:	2b33      	cmp	r3, #51	; 0x33
  10480e:	d113      	bne.n	104838 <osRtxThreadPostProcess+0x32>
  104810:	f890 2023 	ldrb.w	r2, [r0, #35]	; 0x23
  104814:	6a41      	ldr	r1, [r0, #36]	; 0x24
  104816:	f7ff fded 	bl	1043f4 <ThreadFlagsCheck>
  10481a:	4605      	mov	r5, r0
  10481c:	b160      	cbz	r0, 104838 <osRtxThreadPostProcess+0x32>
  10481e:	4601      	mov	r1, r0
  104820:	2200      	movs	r2, #0
  104822:	4620      	mov	r0, r4
  104824:	f7ff ffda 	bl	1047dc <osRtxThreadWaitExit>
  104828:	462a      	mov	r2, r5
  10482a:	f894 1023 	ldrb.w	r1, [r4, #35]	; 0x23
  10482e:	6a60      	ldr	r0, [r4, #36]	; 0x24
  104830:	e8bd 4038 	ldmia.w	sp!, {r3, r4, r5, lr}
  104834:	f7fe bc78 	b.w	103128 <EvrRtxThreadFlagsWaitCompleted>
  104838:	bd38      	pop	{r3, r4, r5, pc}
	...

0010483c <svcRtxThreadNew>:
  10483c:	e92d 4ff0 	stmdb	sp!, {r4, r5, r6, r7, r8, r9, r10, r11, lr}
  104840:	b085      	sub	sp, #20
  104842:	9103      	str	r1, [sp, #12]
  104844:	9302      	str	r3, [sp, #8]
  104846:	4681      	mov	r9, r0
  104848:	b910      	cbnz	r0, 104850 <svcRtxThreadNew+0x14>
  10484a:	f06f 0103 	mvn.w	r1, #3
  10484e:	e01e      	b.n	10488e <svcRtxThreadNew+0x52>
  104850:	b382      	cbz	r2, 1048b4 <svcRtxThreadNew+0x78>
  104852:	6894      	ldr	r4, [r2, #8]
  104854:	f102 0510 	add.w	r5, r2, #16
  104858:	cde0      	ldmia	r5, {r5, r6, r7}
  10485a:	b13c      	cbz	r4, 10486c <svcRtxThreadNew+0x30>
  10485c:	07a3      	lsls	r3, r4, #30
  10485e:	d102      	bne.n	104866 <svcRtxThreadNew+0x2a>
  104860:	68d3      	ldr	r3, [r2, #12]
  104862:	2b47      	cmp	r3, #71	; 0x47
  104864:	d805      	bhi.n	104872 <svcRtxThreadNew+0x36>
  104866:	f06f 0108 	mvn.w	r1, #8
  10486a:	e00f      	b.n	10488c <svcRtxThreadNew+0x50>
  10486c:	68d3      	ldr	r3, [r2, #12]
  10486e:	2b00      	cmp	r3, #0
  104870:	d1f9      	bne.n	104866 <svcRtxThreadNew+0x2a>
  104872:	b12d      	cbz	r5, 104880 <svcRtxThreadNew+0x44>
  104874:	0768      	lsls	r0, r5, #29
  104876:	d100      	bne.n	10487a <svcRtxThreadNew+0x3e>
  104878:	b97e      	cbnz	r6, 10489a <svcRtxThreadNew+0x5e>
  10487a:	f06f 010a 	mvn.w	r1, #10
  10487e:	e005      	b.n	10488c <svcRtxThreadNew+0x50>
  104880:	b147      	cbz	r7, 104894 <svcRtxThreadNew+0x58>
  104882:	1e7b      	subs	r3, r7, #1
  104884:	2b37      	cmp	r3, #55	; 0x37
  104886:	d906      	bls.n	104896 <svcRtxThreadNew+0x5a>
  104888:	f06f 010b 	mvn.w	r1, #11
  10488c:	2000      	movs	r0, #0
  10488e:	f7fe fc3f 	bl	103110 <EvrRtxThreadError>
  104892:	e056      	b.n	104942 <svcRtxThreadNew+0x106>
  104894:	2718      	movs	r7, #24
  104896:	b13e      	cbz	r6, 1048a8 <svcRtxThreadNew+0x6c>
  104898:	e002      	b.n	1048a0 <svcRtxThreadNew+0x64>
  10489a:	2f00      	cmp	r7, #0
  10489c:	d1f1      	bne.n	104882 <svcRtxThreadNew+0x46>
  10489e:	2718      	movs	r7, #24
  1048a0:	0771      	lsls	r1, r6, #29
  1048a2:	d1ea      	bne.n	10487a <svcRtxThreadNew+0x3e>
  1048a4:	2e47      	cmp	r6, #71	; 0x47
  1048a6:	d9e8      	bls.n	10487a <svcRtxThreadNew+0x3e>
  1048a8:	6813      	ldr	r3, [r2, #0]
  1048aa:	f8d2 b004 	ldr.w	r11, [r2, #4]
  1048ae:	9301      	str	r3, [sp, #4]
  1048b0:	b9cc      	cbnz	r4, 1048e6 <svcRtxThreadNew+0xaa>
  1048b2:	e004      	b.n	1048be <svcRtxThreadNew+0x82>
  1048b4:	4616      	mov	r6, r2
  1048b6:	4615      	mov	r5, r2
  1048b8:	4693      	mov	r11, r2
  1048ba:	2718      	movs	r7, #24
  1048bc:	9201      	str	r2, [sp, #4]
  1048be:	4b5a      	ldr	r3, [pc, #360]	; (104a28 <svcRtxThreadNew+0x1ec>)
  1048c0:	f8d3 0090 	ldr.w	r0, [r3, #144]	; 0x90
  1048c4:	b110      	cbz	r0, 1048cc <svcRtxThreadNew+0x90>
  1048c6:	f7fe feb2 	bl	10362e <osRtxMemoryPoolAlloc>
  1048ca:	e005      	b.n	1048d8 <svcRtxThreadNew+0x9c>
  1048cc:	2201      	movs	r2, #1
  1048ce:	2148      	movs	r1, #72	; 0x48
  1048d0:	f8d3 0088 	ldr.w	r0, [r3, #136]	; 0x88
  1048d4:	f7fe fe1e 	bl	103514 <osRtxMemoryAlloc>
  1048d8:	4604      	mov	r4, r0
  1048da:	b938      	cbnz	r0, 1048ec <svcRtxThreadNew+0xb0>
  1048dc:	f06f 0104 	mvn.w	r1, #4
  1048e0:	f7fe fc16 	bl	103110 <EvrRtxThreadError>
  1048e4:	e09b      	b.n	104a1e <svcRtxThreadNew+0x1e2>
  1048e6:	f04f 0a00 	mov.w	r10, #0
  1048ea:	e001      	b.n	1048f0 <svcRtxThreadNew+0xb4>
  1048ec:	f04f 0a01 	mov.w	r10, #1
  1048f0:	bb8d      	cbnz	r5, 104956 <svcRtxThreadNew+0x11a>
  1048f2:	f8df 8134 	ldr.w	r8, [pc, #308]	; 104a28 <svcRtxThreadNew+0x1ec>
  1048f6:	b9a6      	cbnz	r6, 104922 <svcRtxThreadNew+0xe6>
  1048f8:	4a4c      	ldr	r2, [pc, #304]	; (104a2c <svcRtxThreadNew+0x1f0>)
  1048fa:	f8d8 008c 	ldr.w	r0, [r8, #140]	; 0x8c
  1048fe:	6d56      	ldr	r6, [r2, #84]	; 0x54
  104900:	b178      	cbz	r0, 104922 <svcRtxThreadNew+0xe6>
  104902:	f7fe fe94 	bl	10362e <osRtxMemoryPoolAlloc>
  104906:	4605      	mov	r5, r0
  104908:	b940      	cbnz	r0, 10491c <svcRtxThreadNew+0xe0>
  10490a:	f06f 0104 	mvn.w	r1, #4
  10490e:	2000      	movs	r0, #0
  104910:	f7fe fbfe 	bl	103110 <EvrRtxThreadError>
  104914:	f1ba 0f00 	cmp.w	r10, #0
  104918:	d10c      	bne.n	104934 <svcRtxThreadNew+0xf8>
  10491a:	e012      	b.n	104942 <svcRtxThreadNew+0x106>
  10491c:	f04a 0a10 	orr.w	r10, r10, #16
  104920:	e017      	b.n	104952 <svcRtxThreadNew+0x116>
  104922:	462a      	mov	r2, r5
  104924:	4631      	mov	r1, r6
  104926:	f8d8 007c 	ldr.w	r0, [r8, #124]	; 0x7c
  10492a:	f7fe fdf3 	bl	103514 <osRtxMemoryAlloc>
  10492e:	4605      	mov	r5, r0
  104930:	b978      	cbnz	r0, 104952 <svcRtxThreadNew+0x116>
  104932:	e7ea      	b.n	10490a <svcRtxThreadNew+0xce>
  104934:	f8d8 5090 	ldr.w	r5, [r8, #144]	; 0x90
  104938:	4621      	mov	r1, r4
  10493a:	b125      	cbz	r5, 104946 <svcRtxThreadNew+0x10a>
  10493c:	4628      	mov	r0, r5
  10493e:	f7fe fea5 	bl	10368c <osRtxMemoryPoolFree>
  104942:	2000      	movs	r0, #0
  104944:	e06c      	b.n	104a20 <svcRtxThreadNew+0x1e4>
  104946:	4b38      	ldr	r3, [pc, #224]	; (104a28 <svcRtxThreadNew+0x1ec>)
  104948:	f8d3 0088 	ldr.w	r0, [r3, #136]	; 0x88
  10494c:	f7fe fe18 	bl	103580 <osRtxMemoryFree>
  104950:	e7f7      	b.n	104942 <svcRtxThreadNew+0x106>
  104952:	f04a 0a02 	orr.w	r10, r10, #2
  104956:	9b01      	ldr	r3, [sp, #4]
  104958:	2201      	movs	r2, #1
  10495a:	6063      	str	r3, [r4, #4]
  10495c:	2300      	movs	r3, #0
  10495e:	60a3      	str	r3, [r4, #8]
  104960:	60e3      	str	r3, [r4, #12]
  104962:	6123      	str	r3, [r4, #16]
  104964:	6163      	str	r3, [r4, #20]
  104966:	61a3      	str	r3, [r4, #24]
  104968:	61e3      	str	r3, [r4, #28]
  10496a:	f884 3023 	strb.w	r3, [r4, #35]	; 0x23
  10496e:	6263      	str	r3, [r4, #36]	; 0x24
  104970:	62a3      	str	r3, [r4, #40]	; 0x28
  104972:	62e3      	str	r3, [r4, #44]	; 0x2c
  104974:	f1a6 0340 	sub.w	r3, r6, #64	; 0x40
  104978:	442b      	add	r3, r5
  10497a:	63a3      	str	r3, [r4, #56]	; 0x38
  10497c:	4b2c      	ldr	r3, [pc, #176]	; (104a30 <svcRtxThreadNew+0x1f4>)
  10497e:	7022      	strb	r2, [r4, #0]
  104980:	7062      	strb	r2, [r4, #1]
  104982:	b2ff      	uxtb	r7, r7
  104984:	22fd      	movs	r2, #253	; 0xfd
  104986:	f884 a002 	strb.w	r10, [r4, #2]
  10498a:	f884 b003 	strb.w	r11, [r4, #3]
  10498e:	f884 7020 	strb.w	r7, [r4, #32]
  104992:	f884 7021 	strb.w	r7, [r4, #33]	; 0x21
  104996:	f884 2022 	strb.w	r2, [r4, #34]	; 0x22
  10499a:	6325      	str	r5, [r4, #48]	; 0x30
  10499c:	6366      	str	r6, [r4, #52]	; 0x34
  10499e:	f8c4 903c 	str.w	r9, [r4, #60]	; 0x3c
  1049a2:	602b      	str	r3, [r5, #0]
  1049a4:	4b21      	ldr	r3, [pc, #132]	; (104a2c <svcRtxThreadNew+0x1f0>)
  1049a6:	681b      	ldr	r3, [r3, #0]
  1049a8:	075b      	lsls	r3, r3, #29
  1049aa:	d511      	bpl.n	1049d0 <svcRtxThreadNew+0x194>
  1049ac:	3504      	adds	r5, #4
  1049ae:	462a      	mov	r2, r5
  1049b0:	08b6      	lsrs	r6, r6, #2
  1049b2:	f1a6 0311 	sub.w	r3, r6, #17
  1049b6:	f04f 31cc 	mov.w	r1, #3435973836	; 0xcccccccc
  1049ba:	b11b      	cbz	r3, 1049c4 <svcRtxThreadNew+0x188>
  1049bc:	f842 1b04 	str.w	r1, [r2], #4
  1049c0:	3b01      	subs	r3, #1
  1049c2:	e7fa      	b.n	1049ba <svcRtxThreadNew+0x17e>
  1049c4:	f106 4680 	add.w	r6, r6, #1073741824	; 0x40000000
  1049c8:	3e11      	subs	r6, #17
  1049ca:	eb05 0586 	add.w	r5, r5, r6, lsl #2
  1049ce:	e000      	b.n	1049d2 <svcRtxThreadNew+0x196>
  1049d0:	6ba5      	ldr	r5, [r4, #56]	; 0x38
  1049d2:	462b      	mov	r3, r5
  1049d4:	f105 0234 	add.w	r2, r5, #52	; 0x34
  1049d8:	2100      	movs	r1, #0
  1049da:	f843 1b04 	str.w	r1, [r3], #4
  1049de:	4293      	cmp	r3, r2
  1049e0:	d1fb      	bne.n	1049da <svcRtxThreadNew+0x19e>
  1049e2:	4b14      	ldr	r3, [pc, #80]	; (104a34 <svcRtxThreadNew+0x1f8>)
  1049e4:	4a14      	ldr	r2, [pc, #80]	; (104a38 <svcRtxThreadNew+0x1fc>)
  1049e6:	636b      	str	r3, [r5, #52]	; 0x34
  1049e8:	f04f 7380 	mov.w	r3, #16777216	; 0x1000000
  1049ec:	63eb      	str	r3, [r5, #60]	; 0x3c
  1049ee:	9b03      	ldr	r3, [sp, #12]
  1049f0:	f8c5 9038 	str.w	r9, [r5, #56]	; 0x38
  1049f4:	622b      	str	r3, [r5, #32]
  1049f6:	4b0c      	ldr	r3, [pc, #48]	; (104a28 <svcRtxThreadNew+0x1ec>)
  1049f8:	4620      	mov	r0, r4
  1049fa:	669a      	str	r2, [r3, #104]	; 0x68
  1049fc:	f7fe fb8a 	bl	103114 <EvrRtxThreadCreated>
  104a00:	4b0e      	ldr	r3, [pc, #56]	; (104a3c <svcRtxThreadNew+0x200>)
  104a02:	681b      	ldr	r3, [r3, #0]
  104a04:	b133      	cbz	r3, 104a14 <svcRtxThreadNew+0x1d8>
  104a06:	689b      	ldr	r3, [r3, #8]
  104a08:	b123      	cbz	r3, 104a14 <svcRtxThreadNew+0x1d8>
  104a0a:	9902      	ldr	r1, [sp, #8]
  104a0c:	4620      	mov	r0, r4
  104a0e:	4798      	blx	r3
  104a10:	6460      	str	r0, [r4, #68]	; 0x44
  104a12:	e001      	b.n	104a18 <svcRtxThreadNew+0x1dc>
  104a14:	9b02      	ldr	r3, [sp, #8]
  104a16:	6463      	str	r3, [r4, #68]	; 0x44
  104a18:	4620      	mov	r0, r4
  104a1a:	f7ff feb1 	bl	104780 <osRtxThreadDispatch>
  104a1e:	4620      	mov	r0, r4
  104a20:	b005      	add	sp, #20
  104a22:	e8bd 8ff0 	ldmia.w	sp!, {r4, r5, r6, r7, r8, r9, r10, r11, pc}
  104a26:	bf00      	nop
  104a28:	3fff40a8 	.word	0x3fff40a8
  104a2c:	0010de58 	.word	0x0010de58
  104a30:	e25a2ea5 	.word	0xe25a2ea5
  104a34:	001043d9 	.word	0x001043d9
  104a38:	00104807 	.word	0x00104807
  104a3c:	3fff60e0 	.word	0x3fff60e0

00104a40 <osRtxThreadWaitEnter>:
  104a40:	b5f8      	push	{r3, r4, r5, r6, r7, lr}
  104a42:	4d10      	ldr	r5, [pc, #64]	; (104a84 <osRtxThreadWaitEnter+0x44>)
  104a44:	4607      	mov	r7, r0
  104a46:	69ec      	ldr	r4, [r5, #28]
  104a48:	460e      	mov	r6, r1
  104a4a:	b1cc      	cbz	r4, 104a80 <osRtxThreadWaitEnter+0x40>
  104a4c:	7a2b      	ldrb	r3, [r5, #8]
  104a4e:	2b02      	cmp	r3, #2
  104a50:	d004      	beq.n	104a5c <osRtxThreadWaitEnter+0x1c>
  104a52:	4620      	mov	r0, r4
  104a54:	f7ff fd78 	bl	104548 <osRtxThreadListRemove>
  104a58:	2000      	movs	r0, #0
  104a5a:	bdf8      	pop	{r3, r4, r5, r6, r7, pc}
  104a5c:	6ae8      	ldr	r0, [r5, #44]	; 0x2c
  104a5e:	b180      	cbz	r0, 104a82 <osRtxThreadWaitEnter+0x42>
  104a60:	4620      	mov	r0, r4
  104a62:	f7fe fb5b 	bl	10311c <EvrRtxThreadBlocked>
  104a66:	4631      	mov	r1, r6
  104a68:	4620      	mov	r0, r4
  104a6a:	7067      	strb	r7, [r4, #1]
  104a6c:	f7ff fd90 	bl	104590 <osRtxThreadDelayInsert>
  104a70:	f105 0024 	add.w	r0, r5, #36	; 0x24
  104a74:	f7ff fd57 	bl	104526 <osRtxThreadListGet>
  104a78:	f7ff fe72 	bl	104760 <osRtxThreadSwitch>
  104a7c:	2001      	movs	r0, #1
  104a7e:	bdf8      	pop	{r3, r4, r5, r6, r7, pc}
  104a80:	4620      	mov	r0, r4
  104a82:	bdf8      	pop	{r3, r4, r5, r6, r7, pc}
  104a84:	3fff40a8 	.word	0x3fff40a8

00104a88 <svcRtxThreadExit>:
  104a88:	b570      	push	{r4, r5, r6, lr}
  104a8a:	4d1c      	ldr	r5, [pc, #112]	; (104afc <svcRtxThreadExit+0x74>)
  104a8c:	69ec      	ldr	r4, [r5, #28]
  104a8e:	2c00      	cmp	r4, #0
  104a90:	d032      	beq.n	104af8 <svcRtxThreadExit+0x70>
  104a92:	6ae0      	ldr	r0, [r4, #44]	; 0x2c
  104a94:	f7ff fb04 	bl	1040a0 <osRtxMutexOwnerRelease>
  104a98:	69a0      	ldr	r0, [r4, #24]
  104a9a:	b130      	cbz	r0, 104aaa <svcRtxThreadExit+0x22>
  104a9c:	2200      	movs	r2, #0
  104a9e:	4611      	mov	r1, r2
  104aa0:	f7ff fe9c 	bl	1047dc <osRtxThreadWaitExit>
  104aa4:	69a0      	ldr	r0, [r4, #24]
  104aa6:	f7fe fb38 	bl	10311a <EvrRtxThreadJoined>
  104aaa:	7a2b      	ldrb	r3, [r5, #8]
  104aac:	4e13      	ldr	r6, [pc, #76]	; (104afc <svcRtxThreadExit+0x74>)
  104aae:	2b02      	cmp	r3, #2
  104ab0:	d122      	bne.n	104af8 <svcRtxThreadExit+0x70>
  104ab2:	6af3      	ldr	r3, [r6, #44]	; 0x2c
  104ab4:	b303      	cbz	r3, 104af8 <svcRtxThreadExit+0x70>
  104ab6:	f3ef 8309 	mrs	r3, PSP
  104aba:	63a3      	str	r3, [r4, #56]	; 0x38
  104abc:	f106 0024 	add.w	r0, r6, #36	; 0x24
  104ac0:	f7ff fd31 	bl	104526 <osRtxThreadListGet>
  104ac4:	f7ff fe4c 	bl	104760 <osRtxThreadSwitch>
  104ac8:	2300      	movs	r3, #0
  104aca:	61f3      	str	r3, [r6, #28]
  104acc:	78e3      	ldrb	r3, [r4, #3]
  104ace:	07db      	lsls	r3, r3, #31
  104ad0:	d501      	bpl.n	104ad6 <svcRtxThreadExit+0x4e>
  104ad2:	69a3      	ldr	r3, [r4, #24]
  104ad4:	b11b      	cbz	r3, 104ade <svcRtxThreadExit+0x56>
  104ad6:	4620      	mov	r0, r4
  104ad8:	f7ff fcc2 	bl	104460 <osRtxThreadFree>
  104adc:	e007      	b.n	104aee <svcRtxThreadExit+0x66>
  104ade:	2204      	movs	r2, #4
  104ae0:	7062      	strb	r2, [r4, #1]
  104ae2:	60e3      	str	r3, [r4, #12]
  104ae4:	6bf3      	ldr	r3, [r6, #60]	; 0x3c
  104ae6:	60a3      	str	r3, [r4, #8]
  104ae8:	b103      	cbz	r3, 104aec <svcRtxThreadExit+0x64>
  104aea:	60dc      	str	r4, [r3, #12]
  104aec:	63ec      	str	r4, [r5, #60]	; 0x3c
  104aee:	4620      	mov	r0, r4
  104af0:	e8bd 4070 	ldmia.w	sp!, {r4, r5, r6, lr}
  104af4:	f7fe bb16 	b.w	103124 <EvrRtxThreadDestroyed>
  104af8:	bd70      	pop	{r4, r5, r6, pc}
  104afa:	bf00      	nop
  104afc:	3fff40a8 	.word	0x3fff40a8

00104b00 <osThreadContextNew>:
  104b00:	b5f8      	push	{r3, r4, r5, r6, r7, lr}
  104b02:	4607      	mov	r7, r0
  104b04:	460e      	mov	r6, r1
  104b06:	4615      	mov	r5, r2
  104b08:	461c      	mov	r4, r3
  104b0a:	f7fe fb02 	bl	103112 <EvrRtxThreadNew>
  104b0e:	f3ef 8305 	mrs	r3, IPSR
  104b12:	b92b      	cbnz	r3, 104b20 <osThreadContextNew+0x20>
  104b14:	f3ef 8310 	mrs	r3, PRIMASK
  104b18:	b913      	cbnz	r3, 104b20 <osThreadContextNew+0x20>
  104b1a:	f3ef 8311 	mrs	r3, BASEPRI
  104b1e:	b133      	cbz	r3, 104b2e <osThreadContextNew+0x2e>
  104b20:	f06f 0105 	mvn.w	r1, #5
  104b24:	2000      	movs	r0, #0
  104b26:	f7fe faf3 	bl	103110 <EvrRtxThreadError>
  104b2a:	2000      	movs	r0, #0
  104b2c:	bdf8      	pop	{r3, r4, r5, r6, r7, pc}
  104b2e:	4638      	mov	r0, r7
  104b30:	4631      	mov	r1, r6
  104b32:	462a      	mov	r2, r5
  104b34:	4623      	mov	r3, r4
  104b36:	f8df c020 	ldr.w	r12, [pc, #32]	; 104b58 <osThreadContextNew+0x58>
  104b3a:	f3ef 8414 	mrs	r4, CONTROL
  104b3e:	f014 0f02 	tst.w	r4, #2
  104b42:	d106      	bne.n	104b52 <osThreadContextNew+0x52>
  104b44:	f3ef 8408 	mrs	r4, MSP
  104b48:	3c20      	subs	r4, #32
  104b4a:	f024 0407 	bic.w	r4, r4, #7
  104b4e:	f384 8809 	msr	PSP, r4
  104b52:	df00      	svc	0
  104b54:	bdf8      	pop	{r3, r4, r5, r6, r7, pc}
  104b56:	bf00      	nop
  104b58:	0010483d 	.word	0x0010483d

00104b5c <osThreadNew>:
  104b5c:	2300      	movs	r3, #0
  104b5e:	f7ff bfcf 	b.w	104b00 <osThreadContextNew>
	...

00104b64 <osThreadGetName>:
  104b64:	b508      	push	{r3, lr}
  104b66:	4603      	mov	r3, r0
  104b68:	f3ef 8205 	mrs	r2, IPSR
  104b6c:	b92a      	cbnz	r2, 104b7a <osThreadGetName+0x16>
  104b6e:	f3ef 8210 	mrs	r2, PRIMASK
  104b72:	b912      	cbnz	r2, 104b7a <osThreadGetName+0x16>
  104b74:	f3ef 8211 	mrs	r2, BASEPRI
  104b78:	b12a      	cbz	r2, 104b86 <osThreadGetName+0x22>
  104b7a:	4618      	mov	r0, r3
  104b7c:	2100      	movs	r1, #0
  104b7e:	f7fe faca 	bl	103116 <EvrRtxThreadGetName>
  104b82:	2000      	movs	r0, #0
  104b84:	bd08      	pop	{r3, pc}
  104b86:	f8df c008 	ldr.w	r12, [pc, #8]	; 104b90 <osThreadGetName+0x2c>
  104b8a:	df00      	svc	0
  104b8c:	bd08      	pop	{r3, pc}
  104b8e:	bf00      	nop
  104b90:	001044b5 	.word	0x001044b5

00104b94 <osThreadGetId>:
  104b94:	b508      	push	{r3, lr}
  104b96:	f3ef 8305 	mrs	r3, IPSR
  104b9a:	b92b      	cbnz	r3, 104ba8 <osThreadGetId+0x14>
  104b9c:	f3ef 8310 	mrs	r3, PRIMASK
  104ba0:	b913      	cbnz	r3, 104ba8 <osThreadGetId+0x14>
  104ba2:	f3ef 8311 	mrs	r3, BASEPRI
  104ba6:	b123      	cbz	r3, 104bb2 <osThreadGetId+0x1e>
  104ba8:	2000      	movs	r0, #0
  104baa:	f7fe fab5 	bl	103118 <EvrRtxThreadGetId>
  104bae:	2000      	movs	r0, #0
  104bb0:	bd08      	pop	{r3, pc}
  104bb2:	f8df c008 	ldr.w	r12, [pc, #8]	; 104bbc <osThreadGetId+0x28>
  104bb6:	df00      	svc	0
  104bb8:	bd08      	pop	{r3, pc}
  104bba:	bf00      	nop
  104bbc:	001043c5 	.word	0x001043c5

00104bc0 <TimerInsert>:
  104bc0:	4a0c      	ldr	r2, [pc, #48]	; (104bf4 <TimerInsert+0x34>)
  104bc2:	b530      	push	{r4, r5, lr}
  104bc4:	6cd3      	ldr	r3, [r2, #76]	; 0x4c
  104bc6:	2400      	movs	r4, #0
  104bc8:	b133      	cbz	r3, 104bd8 <TimerInsert+0x18>
  104bca:	691d      	ldr	r5, [r3, #16]
  104bcc:	42a9      	cmp	r1, r5
  104bce:	d303      	bcc.n	104bd8 <TimerInsert+0x18>
  104bd0:	461c      	mov	r4, r3
  104bd2:	1b49      	subs	r1, r1, r5
  104bd4:	68db      	ldr	r3, [r3, #12]
  104bd6:	e7f7      	b.n	104bc8 <TimerInsert+0x8>
  104bd8:	6101      	str	r1, [r0, #16]
  104bda:	6084      	str	r4, [r0, #8]
  104bdc:	60c3      	str	r3, [r0, #12]
  104bde:	b11b      	cbz	r3, 104be8 <TimerInsert+0x28>
  104be0:	691d      	ldr	r5, [r3, #16]
  104be2:	6098      	str	r0, [r3, #8]
  104be4:	1a69      	subs	r1, r5, r1
  104be6:	6119      	str	r1, [r3, #16]
  104be8:	b10c      	cbz	r4, 104bee <TimerInsert+0x2e>
  104bea:	60e0      	str	r0, [r4, #12]
  104bec:	bd30      	pop	{r4, r5, pc}
  104bee:	64d0      	str	r0, [r2, #76]	; 0x4c
  104bf0:	bd30      	pop	{r4, r5, pc}
  104bf2:	bf00      	nop
  104bf4:	3fff40a8 	.word	0x3fff40a8

00104bf8 <osRtxTimerTick>:
  104bf8:	b570      	push	{r4, r5, r6, lr}
  104bfa:	4d13      	ldr	r5, [pc, #76]	; (104c48 <osRtxTimerTick+0x50>)
  104bfc:	6cec      	ldr	r4, [r5, #76]	; 0x4c
  104bfe:	b314      	cbz	r4, 104c46 <osRtxTimerTick+0x4e>
  104c00:	6923      	ldr	r3, [r4, #16]
  104c02:	2601      	movs	r6, #1
  104c04:	3b01      	subs	r3, #1
  104c06:	6123      	str	r3, [r4, #16]
  104c08:	6923      	ldr	r3, [r4, #16]
  104c0a:	b9e3      	cbnz	r3, 104c46 <osRtxTimerTick+0x4e>
  104c0c:	68e3      	ldr	r3, [r4, #12]
  104c0e:	b10b      	cbz	r3, 104c14 <osRtxTimerTick+0x1c>
  104c10:	68a2      	ldr	r2, [r4, #8]
  104c12:	609a      	str	r2, [r3, #8]
  104c14:	64eb      	str	r3, [r5, #76]	; 0x4c
  104c16:	2300      	movs	r3, #0
  104c18:	461a      	mov	r2, r3
  104c1a:	f104 0118 	add.w	r1, r4, #24
  104c1e:	6d68      	ldr	r0, [r5, #84]	; 0x54
  104c20:	f7ff f818 	bl	103c54 <osMessageQueuePut>
  104c24:	b118      	cbz	r0, 104c2e <osRtxTimerTick+0x36>
  104c26:	4621      	mov	r1, r4
  104c28:	2003      	movs	r0, #3
  104c2a:	f7fe fa01 	bl	103030 <osRtxErrorNotify>
  104c2e:	78e3      	ldrb	r3, [r4, #3]
  104c30:	2b01      	cmp	r3, #1
  104c32:	d104      	bne.n	104c3e <osRtxTimerTick+0x46>
  104c34:	6961      	ldr	r1, [r4, #20]
  104c36:	4620      	mov	r0, r4
  104c38:	f7ff ffc2 	bl	104bc0 <TimerInsert>
  104c3c:	e000      	b.n	104c40 <osRtxTimerTick+0x48>
  104c3e:	7066      	strb	r6, [r4, #1]
  104c40:	6cec      	ldr	r4, [r5, #76]	; 0x4c
  104c42:	2c00      	cmp	r4, #0
  104c44:	d1e0      	bne.n	104c08 <osRtxTimerTick+0x10>
  104c46:	bd70      	pop	{r4, r5, r6, pc}
  104c48:	3fff40a8 	.word	0x3fff40a8

00104c4c <osRtxTimerThread>:
  104c4c:	4b0f      	ldr	r3, [pc, #60]	; (104c8c <osRtxTimerThread+0x40>)
  104c4e:	b513      	push	{r0, r1, r4, lr}
  104c50:	6e1a      	ldr	r2, [r3, #96]	; 0x60
  104c52:	2108      	movs	r1, #8
  104c54:	6e58      	ldr	r0, [r3, #100]	; 0x64
  104c56:	f7fe ffd1 	bl	103bfc <osMessageQueueNew>
  104c5a:	4c0d      	ldr	r4, [pc, #52]	; (104c90 <osRtxTimerThread+0x44>)
  104c5c:	6560      	str	r0, [r4, #84]	; 0x54
  104c5e:	b190      	cbz	r0, 104c86 <osRtxTimerThread+0x3a>
  104c60:	4b0c      	ldr	r3, [pc, #48]	; (104c94 <osRtxTimerThread+0x48>)
  104c62:	65a3      	str	r3, [r4, #88]	; 0x58
  104c64:	f04f 33ff 	mov.w	r3, #4294967295
  104c68:	2200      	movs	r2, #0
  104c6a:	4669      	mov	r1, sp
  104c6c:	6d60      	ldr	r0, [r4, #84]	; 0x54
  104c6e:	f7ff f84b 	bl	103d08 <osMessageQueueGet>
  104c72:	2800      	cmp	r0, #0
  104c74:	d1f6      	bne.n	104c64 <osRtxTimerThread+0x18>
  104c76:	e89d 0003 	ldmia.w	sp, {r0, r1}
  104c7a:	f7fe fa58 	bl	10312e <EvrRtxTimerCallback>
  104c7e:	9801      	ldr	r0, [sp, #4]
  104c80:	9b00      	ldr	r3, [sp, #0]
  104c82:	4798      	blx	r3
  104c84:	e7ee      	b.n	104c64 <osRtxTimerThread+0x18>
  104c86:	b002      	add	sp, #8
  104c88:	bd10      	pop	{r4, pc}
  104c8a:	bf00      	nop
  104c8c:	0010de58 	.word	0x0010de58
  104c90:	3fff40a8 	.word	0x3fff40a8
  104c94:	00104bf9 	.word	0x00104bf9

00104c98 <HardFault_Handler>:
  104c98:	e7fe      	b.n	104c98 <HardFault_Handler>

00104c9a <fIrqTim0Handler>:
  104c9a:	f000 bc69 	b.w	105570 <us_timer_isr>

00104c9e <fIrqTim1Handler>:
  104c9e:	f000 bce3 	b.w	105668 <us_ticker_isr>

00104ca2 <fIrqGpioHandler>:
  104ca2:	f000 b863 	b.w	104d6c <fGpioHandler>

00104ca6 <fIrqSpiHandler>:
  104ca6:	e7fe      	b.n	104ca6 <fIrqSpiHandler>

00104ca8 <fIrqUart1Handler>:
  104ca8:	f001 b816 	b.w	105cd8 <Uart1_Irq>

00104cac <fIrqUart2Handler>:
  104cac:	f001 b82c 	b.w	105d08 <Uart2_Irq>

00104cb0 <fIrqRtcHandler>:
  104cb0:	f000 bef2 	b.w	105a98 <fRtcHandler>

00104cb4 <fIrqI2CHandler>:
  104cb4:	e7fe      	b.n	104cb4 <fIrqI2CHandler>

00104cb6 <fIrqI2C2Handler>:
  104cb6:	e7fe      	b.n	104cb6 <fIrqI2C2Handler>

00104cb8 <fIrqSpi2Handler>:
  104cb8:	e7fe      	b.n	104cb8 <fIrqSpi2Handler>

00104cba <fIrqUviHandler>:
  104cba:	e7fe      	b.n	104cba <fIrqUviHandler>

00104cbc <fIrqAdcHandler>:
  104cbc:	e7fe      	b.n	104cbc <fIrqAdcHandler>

00104cbe <gpio_set>:
  104cbe:	1c43      	adds	r3, r0, #1
  104cc0:	b510      	push	{r4, lr}
  104cc2:	4604      	mov	r4, r0
  104cc4:	d005      	beq.n	104cd2 <gpio_set+0x14>
  104cc6:	2100      	movs	r1, #0
  104cc8:	f000 fe96 	bl	1059f8 <pin_function>
  104ccc:	2001      	movs	r0, #1
  104cce:	40a0      	lsls	r0, r4
  104cd0:	bd10      	pop	{r4, pc}
  104cd2:	2000      	movs	r0, #0
  104cd4:	bd10      	pop	{r4, pc}
	...

00104cd8 <gpio_init>:
  104cd8:	b538      	push	{r3, r4, r5, lr}
  104cda:	4605      	mov	r5, r0
  104cdc:	4b0f      	ldr	r3, [pc, #60]	; (104d1c <gpio_init+0x44>)
  104cde:	460c      	mov	r4, r1
  104ce0:	6003      	str	r3, [r0, #0]
  104ce2:	7129      	strb	r1, [r5, #4]
  104ce4:	4608      	mov	r0, r1
  104ce6:	f7ff ffea 	bl	104cbe <gpio_set>
  104cea:	4b0d      	ldr	r3, [pc, #52]	; (104d20 <gpio_init+0x48>)
  104cec:	60a8      	str	r0, [r5, #8]
  104cee:	691a      	ldr	r2, [r3, #16]
  104cf0:	00a1      	lsls	r1, r4, #2
  104cf2:	f422 5280 	bic.w	r2, r2, #4096	; 0x1000
  104cf6:	611a      	str	r2, [r3, #16]
  104cf8:	691a      	ldr	r2, [r3, #16]
  104cfa:	f101 4180 	add.w	r1, r1, #1073741824	; 0x40000000
  104cfe:	f022 5280 	bic.w	r2, r2, #268435456	; 0x10000000
  104d02:	611a      	str	r2, [r3, #16]
  104d04:	f501 31e0 	add.w	r1, r1, #114688	; 0x1c000
  104d08:	780a      	ldrb	r2, [r1, #0]
  104d0a:	2001      	movs	r0, #1
  104d0c:	f360 0284 	bfi	r2, r0, #2, #3
  104d10:	700a      	strb	r2, [r1, #0]
  104d12:	691a      	ldr	r2, [r3, #16]
  104d14:	f042 5280 	orr.w	r2, r2, #268435456	; 0x10000000
  104d18:	611a      	str	r2, [r3, #16]
  104d1a:	bd38      	pop	{r3, r4, r5, pc}
  104d1c:	4000c000 	.word	0x4000c000
  104d20:	4001b000 	.word	0x4001b000

00104d24 <gpio_mode>:
  104d24:	f990 0004 	ldrsb.w	r0, [r0, #4]
  104d28:	f000 be78 	b.w	105a1c <pin_mode>

00104d2c <gpio_dir>:
  104d2c:	4a07      	ldr	r2, [pc, #28]	; (104d4c <gpio_dir+0x20>)
  104d2e:	6913      	ldr	r3, [r2, #16]
  104d30:	f423 5380 	bic.w	r3, r3, #4096	; 0x1000
  104d34:	6113      	str	r3, [r2, #16]
  104d36:	b919      	cbnz	r1, 104d40 <gpio_dir+0x14>
  104d38:	6803      	ldr	r3, [r0, #0]
  104d3a:	6882      	ldr	r2, [r0, #8]
  104d3c:	60da      	str	r2, [r3, #12]
  104d3e:	4770      	bx	lr
  104d40:	2901      	cmp	r1, #1
  104d42:	bf02      	ittt	eq
  104d44:	6803      	ldreq	r3, [r0, #0]
  104d46:	6882      	ldreq	r2, [r0, #8]
  104d48:	609a      	streq	r2, [r3, #8]
  104d4a:	4770      	bx	lr
  104d4c:	4001b000 	.word	0x4001b000

00104d50 <gpio_write>:
  104d50:	4a05      	ldr	r2, [pc, #20]	; (104d68 <gpio_write+0x18>)
  104d52:	6913      	ldr	r3, [r2, #16]
  104d54:	f423 5380 	bic.w	r3, r3, #4096	; 0x1000
  104d58:	6113      	str	r3, [r2, #16]
  104d5a:	6803      	ldr	r3, [r0, #0]
  104d5c:	6882      	ldr	r2, [r0, #8]
  104d5e:	b109      	cbz	r1, 104d64 <gpio_write+0x14>
  104d60:	601a      	str	r2, [r3, #0]
  104d62:	4770      	bx	lr
  104d64:	605a      	str	r2, [r3, #4]
  104d66:	4770      	bx	lr
  104d68:	4001b000 	.word	0x4001b000

00104d6c <fGpioHandler>:
  104d6c:	e92d 47f0 	stmdb	sp!, {r4, r5, r6, r7, r8, r9, r10, lr}
  104d70:	4a2c      	ldr	r2, [pc, #176]	; (104e24 <fGpioHandler+0xb8>)
  104d72:	f8df 80c0 	ldr.w	r8, [pc, #192]	; 104e34 <fGpioHandler+0xc8>
  104d76:	6913      	ldr	r3, [r2, #16]
  104d78:	4e2b      	ldr	r6, [pc, #172]	; (104e28 <fGpioHandler+0xbc>)
  104d7a:	f423 5380 	bic.w	r3, r3, #4096	; 0x1000
  104d7e:	6113      	str	r3, [r2, #16]
  104d80:	2300      	movs	r3, #0
  104d82:	461c      	mov	r4, r3
  104d84:	f8d8 2004 	ldr.w	r2, [r8, #4]
  104d88:	2a00      	cmp	r2, #0
  104d8a:	d046      	beq.n	104e1a <fGpioHandler+0xae>
  104d8c:	f8d8 7004 	ldr.w	r7, [r8, #4]
  104d90:	220a      	movs	r2, #10
  104d92:	2101      	movs	r1, #1
  104d94:	f8d8 0004 	ldr.w	r0, [r8, #4]
  104d98:	fa01 f502 	lsl.w	r5, r1, r2
  104d9c:	4205      	tst	r5, r0
  104d9e:	d024      	beq.n	104dea <fGpioHandler+0x7e>
  104da0:	3a0a      	subs	r2, #10
  104da2:	2a07      	cmp	r2, #7
  104da4:	d825      	bhi.n	104df2 <fGpioHandler+0x86>
  104da6:	e8df f002 	tbb	[pc, r2]
  104daa:	2404      	.short	0x2404
  104dac:	063a2424 	.word	0x063a2424
  104db0:	0a08      	.short	0x0a08
  104db2:	2400      	movs	r4, #0
  104db4:	e01d      	b.n	104df2 <fGpioHandler+0x86>
  104db6:	2402      	movs	r4, #2
  104db8:	e01b      	b.n	104df2 <fGpioHandler+0x86>
  104dba:	2403      	movs	r4, #3
  104dbc:	e019      	b.n	104df2 <fGpioHandler+0x86>
  104dbe:	4d1b      	ldr	r5, [pc, #108]	; (104e2c <fGpioHandler+0xc0>)
  104dc0:	f8df 906c 	ldr.w	r9, [pc, #108]	; 104e30 <fGpioHandler+0xc4>
  104dc4:	f105 0a20 	add.w	r10, r5, #32
  104dc8:	2300      	movs	r3, #0
  104dca:	f855 0f04 	ldr.w	r0, [r5, #4]!
  104dce:	b148      	cbz	r0, 104de4 <fGpioHandler+0x78>
  104dd0:	f8d9 3000 	ldr.w	r3, [r9]
  104dd4:	2101      	movs	r1, #1
  104dd6:	4798      	blx	r3
  104dd8:	f8d9 3000 	ldr.w	r3, [r9]
  104ddc:	2102      	movs	r1, #2
  104dde:	6828      	ldr	r0, [r5, #0]
  104de0:	4798      	blx	r3
  104de2:	2301      	movs	r3, #1
  104de4:	4555      	cmp	r5, r10
  104de6:	d1f0      	bne.n	104dca <fGpioHandler+0x5e>
  104de8:	e002      	b.n	104df0 <fGpioHandler+0x84>
  104dea:	3201      	adds	r2, #1
  104dec:	2a12      	cmp	r2, #18
  104dee:	d1d1      	bne.n	104d94 <fGpioHandler+0x28>
  104df0:	b96b      	cbnz	r3, 104e0e <fGpioHandler+0xa2>
  104df2:	f856 0024 	ldr.w	r0, [r6, r4, lsl #2]
  104df6:	b160      	cbz	r0, 104e12 <fGpioHandler+0xa6>
  104df8:	4d0d      	ldr	r5, [pc, #52]	; (104e30 <fGpioHandler+0xc4>)
  104dfa:	2101      	movs	r1, #1
  104dfc:	682b      	ldr	r3, [r5, #0]
  104dfe:	4798      	blx	r3
  104e00:	682b      	ldr	r3, [r5, #0]
  104e02:	2102      	movs	r1, #2
  104e04:	f856 0024 	ldr.w	r0, [r6, r4, lsl #2]
  104e08:	4798      	blx	r3
  104e0a:	2300      	movs	r3, #0
  104e0c:	e002      	b.n	104e14 <fGpioHandler+0xa8>
  104e0e:	2301      	movs	r3, #1
  104e10:	e000      	b.n	104e14 <fGpioHandler+0xa8>
  104e12:	4603      	mov	r3, r0
  104e14:	f8c8 7030 	str.w	r7, [r8, #48]	; 0x30
  104e18:	e7b4      	b.n	104d84 <fGpioHandler+0x18>
  104e1a:	e8bd 87f0 	ldmia.w	sp!, {r4, r5, r6, r7, r8, r9, r10, pc}
  104e1e:	2401      	movs	r4, #1
  104e20:	e7e7      	b.n	104df2 <fGpioHandler+0x86>
  104e22:	bf00      	nop
  104e24:	4001b000 	.word	0x4001b000
  104e28:	3fff4c90 	.word	0x3fff4c90
  104e2c:	3fff4c9c 	.word	0x3fff4c9c
  104e30:	3fff4cd8 	.word	0x3fff4cd8
  104e34:	4000c000 	.word	0x4000c000

00104e38 <gpio_irq_init>:
  104e38:	b510      	push	{r4, lr}
  104e3a:	1c4c      	adds	r4, r1, #1
  104e3c:	d102      	bne.n	104e44 <gpio_irq_init+0xc>
  104e3e:	f04f 30ff 	mov.w	r0, #4294967295
  104e42:	bd10      	pop	{r4, pc}
  104e44:	2401      	movs	r4, #1
  104e46:	408c      	lsls	r4, r1
  104e48:	6001      	str	r1, [r0, #0]
  104e4a:	390a      	subs	r1, #10
  104e4c:	6044      	str	r4, [r0, #4]
  104e4e:	2907      	cmp	r1, #7
  104e50:	d832      	bhi.n	104eb8 <gpio_irq_init+0x80>
  104e52:	e8df f001 	tbb	[pc, r1]
  104e56:	3104      	.short	0x3104
  104e58:	0a073131 	.word	0x0a073131
  104e5c:	100d      	.short	0x100d
  104e5e:	4923      	ldr	r1, [pc, #140]	; (104eec <gpio_irq_init+0xb4>)
  104e60:	600b      	str	r3, [r1, #0]
  104e62:	e029      	b.n	104eb8 <gpio_irq_init+0x80>
  104e64:	4921      	ldr	r1, [pc, #132]	; (104eec <gpio_irq_init+0xb4>)
  104e66:	604b      	str	r3, [r1, #4]
  104e68:	e026      	b.n	104eb8 <gpio_irq_init+0x80>
  104e6a:	4920      	ldr	r1, [pc, #128]	; (104eec <gpio_irq_init+0xb4>)
  104e6c:	608b      	str	r3, [r1, #8]
  104e6e:	e023      	b.n	104eb8 <gpio_irq_init+0x80>
  104e70:	491e      	ldr	r1, [pc, #120]	; (104eec <gpio_irq_init+0xb4>)
  104e72:	60cb      	str	r3, [r1, #12]
  104e74:	e020      	b.n	104eb8 <gpio_irq_init+0x80>
  104e76:	491d      	ldr	r1, [pc, #116]	; (104eec <gpio_irq_init+0xb4>)
  104e78:	690c      	ldr	r4, [r1, #16]
  104e7a:	b90c      	cbnz	r4, 104e80 <gpio_irq_init+0x48>
  104e7c:	610b      	str	r3, [r1, #16]
  104e7e:	e01b      	b.n	104eb8 <gpio_irq_init+0x80>
  104e80:	694c      	ldr	r4, [r1, #20]
  104e82:	b90c      	cbnz	r4, 104e88 <gpio_irq_init+0x50>
  104e84:	614b      	str	r3, [r1, #20]
  104e86:	e017      	b.n	104eb8 <gpio_irq_init+0x80>
  104e88:	698c      	ldr	r4, [r1, #24]
  104e8a:	b90c      	cbnz	r4, 104e90 <gpio_irq_init+0x58>
  104e8c:	618b      	str	r3, [r1, #24]
  104e8e:	e013      	b.n	104eb8 <gpio_irq_init+0x80>
  104e90:	69cc      	ldr	r4, [r1, #28]
  104e92:	b90c      	cbnz	r4, 104e98 <gpio_irq_init+0x60>
  104e94:	61cb      	str	r3, [r1, #28]
  104e96:	e00f      	b.n	104eb8 <gpio_irq_init+0x80>
  104e98:	6a0c      	ldr	r4, [r1, #32]
  104e9a:	b90c      	cbnz	r4, 104ea0 <gpio_irq_init+0x68>
  104e9c:	620b      	str	r3, [r1, #32]
  104e9e:	e00b      	b.n	104eb8 <gpio_irq_init+0x80>
  104ea0:	6a4c      	ldr	r4, [r1, #36]	; 0x24
  104ea2:	b90c      	cbnz	r4, 104ea8 <gpio_irq_init+0x70>
  104ea4:	624b      	str	r3, [r1, #36]	; 0x24
  104ea6:	e007      	b.n	104eb8 <gpio_irq_init+0x80>
  104ea8:	6a8c      	ldr	r4, [r1, #40]	; 0x28
  104eaa:	b90c      	cbnz	r4, 104eb0 <gpio_irq_init+0x78>
  104eac:	628b      	str	r3, [r1, #40]	; 0x28
  104eae:	e003      	b.n	104eb8 <gpio_irq_init+0x80>
  104eb0:	6acc      	ldr	r4, [r1, #44]	; 0x2c
  104eb2:	2c00      	cmp	r4, #0
  104eb4:	d1c3      	bne.n	104e3e <gpio_irq_init+0x6>
  104eb6:	62cb      	str	r3, [r1, #44]	; 0x2c
  104eb8:	490d      	ldr	r1, [pc, #52]	; (104ef0 <gpio_irq_init+0xb8>)
  104eba:	690b      	ldr	r3, [r1, #16]
  104ebc:	f423 5380 	bic.w	r3, r3, #4096	; 0x1000
  104ec0:	610b      	str	r3, [r1, #16]
  104ec2:	6841      	ldr	r1, [r0, #4]
  104ec4:	4b0b      	ldr	r3, [pc, #44]	; (104ef4 <gpio_irq_init+0xbc>)
  104ec6:	6083      	str	r3, [r0, #8]
  104ec8:	60d9      	str	r1, [r3, #12]
  104eca:	6319      	str	r1, [r3, #48]	; 0x30
  104ecc:	6199      	str	r1, [r3, #24]
  104ece:	6219      	str	r1, [r3, #32]
  104ed0:	6119      	str	r1, [r3, #16]
  104ed2:	4b09      	ldr	r3, [pc, #36]	; (104ef8 <gpio_irq_init+0xc0>)
  104ed4:	2000      	movs	r0, #0
  104ed6:	601a      	str	r2, [r3, #0]
  104ed8:	4b08      	ldr	r3, [pc, #32]	; (104efc <gpio_irq_init+0xc4>)
  104eda:	2220      	movs	r2, #32
  104edc:	f883 2306 	strb.w	r2, [r3, #774]	; 0x306
  104ee0:	2240      	movs	r2, #64	; 0x40
  104ee2:	f8c3 2180 	str.w	r2, [r3, #384]	; 0x180
  104ee6:	601a      	str	r2, [r3, #0]
  104ee8:	bd10      	pop	{r4, pc}
  104eea:	bf00      	nop
  104eec:	3fff4c90 	.word	0x3fff4c90
  104ef0:	4001b000 	.word	0x4001b000
  104ef4:	4000c000 	.word	0x4000c000
  104ef8:	3fff4cd8 	.word	0x3fff4cd8
  104efc:	e000e100 	.word	0xe000e100

00104f00 <gpio_irq_free>:
  104f00:	4a06      	ldr	r2, [pc, #24]	; (104f1c <gpio_irq_free+0x1c>)
  104f02:	2100      	movs	r1, #0
  104f04:	6913      	ldr	r3, [r2, #16]
  104f06:	f423 5380 	bic.w	r3, r3, #4096	; 0x1000
  104f0a:	6113      	str	r3, [r2, #16]
  104f0c:	6883      	ldr	r3, [r0, #8]
  104f0e:	6842      	ldr	r2, [r0, #4]
  104f10:	615a      	str	r2, [r3, #20]
  104f12:	6802      	ldr	r2, [r0, #0]
  104f14:	4b02      	ldr	r3, [pc, #8]	; (104f20 <gpio_irq_free+0x20>)
  104f16:	f843 1022 	str.w	r1, [r3, r2, lsl #2]
  104f1a:	4770      	bx	lr
  104f1c:	4001b000 	.word	0x4001b000
  104f20:	3fff4c90 	.word	0x3fff4c90

00104f24 <i2c_wait>:
  104f24:	b082      	sub	sp, #8
  104f26:	2300      	movs	r3, #0
  104f28:	9301      	str	r3, [sp, #4]
  104f2a:	9001      	str	r0, [sp, #4]
  104f2c:	9b01      	ldr	r3, [sp, #4]
  104f2e:	b123      	cbz	r3, 104f3a <i2c_wait+0x16>
  104f30:	bf00      	nop
  104f32:	9b01      	ldr	r3, [sp, #4]
  104f34:	3b01      	subs	r3, #1
  104f36:	9301      	str	r3, [sp, #4]
  104f38:	e7f8      	b.n	104f2c <i2c_wait+0x8>
  104f3a:	b002      	add	sp, #8
  104f3c:	4770      	bx	lr
	...

00104f40 <i2c_do_Write.isra.0>:
  104f40:	b5f8      	push	{r3, r4, r5, r6, r7, lr}
  104f42:	4606      	mov	r6, r0
  104f44:	4c17      	ldr	r4, [pc, #92]	; (104fa4 <i2c_do_Write.isra.0+0x64>)
  104f46:	2500      	movs	r5, #0
  104f48:	2712      	movs	r7, #18
  104f4a:	4295      	cmp	r5, r2
  104f4c:	d228      	bcs.n	104fa0 <i2c_do_Write.isra.0+0x60>
  104f4e:	60a7      	str	r7, [r4, #8]
  104f50:	20c8      	movs	r0, #200	; 0xc8
  104f52:	f7ff ffe7 	bl	104f24 <i2c_wait>
  104f56:	5d4b      	ldrb	r3, [r1, r5]
  104f58:	2b13      	cmp	r3, #19
  104f5a:	d10a      	bne.n	104f72 <i2c_do_Write.isra.0+0x32>
  104f5c:	2310      	movs	r3, #16
  104f5e:	2011      	movs	r0, #17
  104f60:	60a3      	str	r3, [r4, #8]
  104f62:	60a3      	str	r3, [r4, #8]
  104f64:	60a3      	str	r3, [r4, #8]
  104f66:	60a0      	str	r0, [r4, #8]
  104f68:	60a3      	str	r3, [r4, #8]
  104f6a:	60a3      	str	r3, [r4, #8]
  104f6c:	60a0      	str	r0, [r4, #8]
  104f6e:	60a0      	str	r0, [r4, #8]
  104f70:	e001      	b.n	104f76 <i2c_do_Write.isra.0+0x36>
  104f72:	3501      	adds	r5, #1
  104f74:	60a3      	str	r3, [r4, #8]
  104f76:	20c8      	movs	r0, #200	; 0xc8
  104f78:	f7ff ffd4 	bl	104f24 <i2c_wait>
  104f7c:	2316      	movs	r3, #22
  104f7e:	20c8      	movs	r0, #200	; 0xc8
  104f80:	60a3      	str	r3, [r4, #8]
  104f82:	f7ff ffcf 	bl	104f24 <i2c_wait>
  104f86:	6830      	ldr	r0, [r6, #0]
  104f88:	6803      	ldr	r3, [r0, #0]
  104f8a:	06db      	lsls	r3, r3, #27
  104f8c:	d4fc      	bmi.n	104f88 <i2c_do_Write.isra.0+0x48>
  104f8e:	20c8      	movs	r0, #200	; 0xc8
  104f90:	f7ff ffc8 	bl	104f24 <i2c_wait>
  104f94:	6833      	ldr	r3, [r6, #0]
  104f96:	681b      	ldr	r3, [r3, #0]
  104f98:	075b      	lsls	r3, r3, #29
  104f9a:	d5d6      	bpl.n	104f4a <i2c_do_Write.isra.0+0xa>
  104f9c:	2002      	movs	r0, #2
  104f9e:	bdf8      	pop	{r3, r4, r5, r6, r7, pc}
  104fa0:	2000      	movs	r0, #0
  104fa2:	bdf8      	pop	{r3, r4, r5, r6, r7, pc}
  104fa4:	40007000 	.word	0x40007000

00104fa8 <i2c_init>:
  104fa8:	f000 b928 	b.w	1051fc <fI2cInit>

00104fac <i2c_frequency>:
  104fac:	f000 b9c6 	b.w	10533c <fI2cFrequency>

00104fb0 <i2c_start>:
  104fb0:	f000 b9d7 	b.w	105362 <fI2cStart>

00104fb4 <i2c_stop>:
  104fb4:	f000 b9e3 	b.w	10537e <fI2cStop>

00104fb8 <i2c_read>:
  104fb8:	e92d 41f3 	stmdb	sp!, {r0, r1, r4, r5, r6, r7, r8, lr}
  104fbc:	4606      	mov	r6, r0
  104fbe:	9101      	str	r1, [sp, #4]
  104fc0:	4617      	mov	r7, r2
  104fc2:	461c      	mov	r4, r3
  104fc4:	f7ff fff4 	bl	104fb0 <i2c_start>
  104fc8:	9b01      	ldr	r3, [sp, #4]
  104fca:	a902      	add	r1, sp, #8
  104fcc:	f043 0301 	orr.w	r3, r3, #1
  104fd0:	f841 3d04 	str.w	r3, [r1, #-4]!
  104fd4:	2201      	movs	r2, #1
  104fd6:	f106 000c 	add.w	r0, r6, #12
  104fda:	f7ff ffb1 	bl	104f40 <i2c_do_Write.isra.0>
  104fde:	4605      	mov	r5, r0
  104fe0:	bb28      	cbnz	r0, 10502e <i2c_read+0x76>
  104fe2:	4601      	mov	r1, r0
  104fe4:	1e7a      	subs	r2, r7, #1
  104fe6:	4f1a      	ldr	r7, [pc, #104]	; (105050 <i2c_read+0x98>)
  104fe8:	f04f 0813 	mov.w	r8, #19
  104fec:	428c      	cmp	r4, r1
  104fee:	d91d      	bls.n	10502c <i2c_read+0x74>
  104ff0:	f8c7 8008 	str.w	r8, [r7, #8]
  104ff4:	20c8      	movs	r0, #200	; 0xc8
  104ff6:	f7ff ff95 	bl	104f24 <i2c_wait>
  104ffa:	68f3      	ldr	r3, [r6, #12]
  104ffc:	6818      	ldr	r0, [r3, #0]
  104ffe:	0780      	lsls	r0, r0, #30
  105000:	d403      	bmi.n	10500a <i2c_read+0x52>
  105002:	6818      	ldr	r0, [r3, #0]
  105004:	0740      	lsls	r0, r0, #29
  105006:	d5f9      	bpl.n	104ffc <i2c_read+0x44>
  105008:	2502      	movs	r5, #2
  10500a:	687b      	ldr	r3, [r7, #4]
  10500c:	3101      	adds	r1, #1
  10500e:	428c      	cmp	r4, r1
  105010:	f802 3f01 	strb.w	r3, [r2, #1]!
  105014:	bf84      	itt	hi
  105016:	2310      	movhi	r3, #16
  105018:	60bb      	strhi	r3, [r7, #8]
  10501a:	68f3      	ldr	r3, [r6, #12]
  10501c:	6818      	ldr	r0, [r3, #0]
  10501e:	0600      	lsls	r0, r0, #24
  105020:	d411      	bmi.n	105046 <i2c_read+0x8e>
  105022:	681b      	ldr	r3, [r3, #0]
  105024:	075b      	lsls	r3, r3, #29
  105026:	d5e1      	bpl.n	104fec <i2c_read+0x34>
  105028:	2502      	movs	r5, #2
  10502a:	e000      	b.n	10502e <i2c_read+0x76>
  10502c:	b125      	cbz	r5, 105038 <i2c_read+0x80>
  10502e:	4630      	mov	r0, r6
  105030:	f7ff ffc0 	bl	104fb4 <i2c_stop>
  105034:	4628      	mov	r0, r5
  105036:	e008      	b.n	10504a <i2c_read+0x92>
  105038:	9b08      	ldr	r3, [sp, #32]
  10503a:	b113      	cbz	r3, 105042 <i2c_read+0x8a>
  10503c:	4630      	mov	r0, r6
  10503e:	f7ff ffb9 	bl	104fb4 <i2c_stop>
  105042:	4620      	mov	r0, r4
  105044:	e001      	b.n	10504a <i2c_read+0x92>
  105046:	2503      	movs	r5, #3
  105048:	e7f1      	b.n	10502e <i2c_read+0x76>
  10504a:	b002      	add	sp, #8
  10504c:	e8bd 81f0 	ldmia.w	sp!, {r4, r5, r6, r7, r8, pc}
  105050:	40007000 	.word	0x40007000

00105054 <i2c_write>:
  105054:	e92d 41f3 	stmdb	sp!, {r0, r1, r4, r5, r6, r7, r8, lr}
  105058:	4605      	mov	r5, r0
  10505a:	ae02      	add	r6, sp, #8
  10505c:	f846 1d04 	str.w	r1, [r6, #-4]!
  105060:	f105 070c 	add.w	r7, r5, #12
  105064:	4690      	mov	r8, r2
  105066:	461c      	mov	r4, r3
  105068:	f7ff ffa2 	bl	104fb0 <i2c_start>
  10506c:	4631      	mov	r1, r6
  10506e:	2201      	movs	r2, #1
  105070:	4638      	mov	r0, r7
  105072:	f7ff ff65 	bl	104f40 <i2c_do_Write.isra.0>
  105076:	4606      	mov	r6, r0
  105078:	b930      	cbnz	r0, 105088 <i2c_write+0x34>
  10507a:	4622      	mov	r2, r4
  10507c:	4641      	mov	r1, r8
  10507e:	4638      	mov	r0, r7
  105080:	f7ff ff5e 	bl	104f40 <i2c_do_Write.isra.0>
  105084:	4606      	mov	r6, r0
  105086:	b120      	cbz	r0, 105092 <i2c_write+0x3e>
  105088:	4628      	mov	r0, r5
  10508a:	f7ff ff93 	bl	104fb4 <i2c_stop>
  10508e:	4630      	mov	r0, r6
  105090:	e005      	b.n	10509e <i2c_write+0x4a>
  105092:	9b08      	ldr	r3, [sp, #32]
  105094:	b113      	cbz	r3, 10509c <i2c_write+0x48>
  105096:	4628      	mov	r0, r5
  105098:	f7ff ff8c 	bl	104fb4 <i2c_stop>
  10509c:	4620      	mov	r0, r4
  10509e:	b002      	add	sp, #8
  1050a0:	e8bd 81f0 	ldmia.w	sp!, {r4, r5, r6, r7, r8, pc}

001050a4 <expReset_AppLedON>:
  1050a4:	b57f      	push	{r0, r1, r2, r3, r4, r5, r6, lr}
  1050a6:	2400      	movs	r4, #0
  1050a8:	4b4e      	ldr	r3, [pc, #312]	; (1051e4 <expReset_AppLedON+0x140>)
  1050aa:	f8ad 4000 	strh.w	r4, [sp]
  1050ae:	f88d 4002 	strb.w	r4, [sp, #2]
  1050b2:	691a      	ldr	r2, [r3, #16]
  1050b4:	494c      	ldr	r1, [pc, #304]	; (1051e8 <expReset_AppLedON+0x144>)
  1050b6:	f422 5280 	bic.w	r2, r2, #4096	; 0x1000
  1050ba:	611a      	str	r2, [r3, #16]
  1050bc:	688a      	ldr	r2, [r1, #8]
  1050be:	4620      	mov	r0, r4
  1050c0:	f042 020c 	orr.w	r2, r2, #12
  1050c4:	608a      	str	r2, [r1, #8]
  1050c6:	691a      	ldr	r2, [r3, #16]
  1050c8:	212f      	movs	r1, #47	; 0x2f
  1050ca:	f022 5280 	bic.w	r2, r2, #268435456	; 0x10000000
  1050ce:	611a      	str	r2, [r3, #16]
  1050d0:	4a46      	ldr	r2, [pc, #280]	; (1051ec <expReset_AppLedON+0x148>)
  1050d2:	2620      	movs	r6, #32
  1050d4:	6091      	str	r1, [r2, #8]
  1050d6:	60d1      	str	r1, [r2, #12]
  1050d8:	691a      	ldr	r2, [r3, #16]
  1050da:	2105      	movs	r1, #5
  1050dc:	f422 3280 	bic.w	r2, r2, #65536	; 0x10000
  1050e0:	611a      	str	r2, [r3, #16]
  1050e2:	4a43      	ldr	r2, [pc, #268]	; (1051f0 <expReset_AppLedON+0x14c>)
  1050e4:	2503      	movs	r5, #3
  1050e6:	6091      	str	r1, [r2, #8]
  1050e8:	60d1      	str	r1, [r2, #12]
  1050ea:	691a      	ldr	r2, [r3, #16]
  1050ec:	4941      	ldr	r1, [pc, #260]	; (1051f4 <expReset_AppLedON+0x150>)
  1050ee:	f442 3280 	orr.w	r2, r2, #65536	; 0x10000
  1050f2:	611a      	str	r2, [r3, #16]
  1050f4:	691a      	ldr	r2, [r3, #16]
  1050f6:	f022 0280 	bic.w	r2, r2, #128	; 0x80
  1050fa:	611a      	str	r2, [r3, #16]
  1050fc:	f5a3 33a0 	sub.w	r3, r3, #81920	; 0x14000
  105100:	7c1a      	ldrb	r2, [r3, #16]
  105102:	f042 0280 	orr.w	r2, r2, #128	; 0x80
  105106:	741a      	strb	r2, [r3, #16]
  105108:	7c1a      	ldrb	r2, [r3, #16]
  10510a:	f042 0240 	orr.w	r2, r2, #64	; 0x40
  10510e:	741a      	strb	r2, [r3, #16]
  105110:	7c1a      	ldrb	r2, [r3, #16]
  105112:	f042 0220 	orr.w	r2, r2, #32
  105116:	741a      	strb	r2, [r3, #16]
  105118:	f000 f910 	bl	10533c <fI2cFrequency>
  10511c:	2307      	movs	r3, #7
  10511e:	4620      	mov	r0, r4
  105120:	f88d 3001 	strb.w	r3, [sp, #1]
  105124:	f88d 6000 	strb.w	r6, [sp]
  105128:	f88d 4002 	strb.w	r4, [sp, #2]
  10512c:	f7ff ff40 	bl	104fb0 <i2c_start>
  105130:	2203      	movs	r2, #3
  105132:	4669      	mov	r1, sp
  105134:	200c      	movs	r0, #12
  105136:	f7ff ff03 	bl	104f40 <i2c_do_Write.isra.0>
  10513a:	4620      	mov	r0, r4
  10513c:	f7ff ff3a 	bl	104fb4 <i2c_stop>
  105140:	4620      	mov	r0, r4
  105142:	f88d 6000 	strb.w	r6, [sp]
  105146:	f88d 5001 	strb.w	r5, [sp, #1]
  10514a:	f88d 4002 	strb.w	r4, [sp, #2]
  10514e:	f7ff ff2f 	bl	104fb0 <i2c_start>
  105152:	462a      	mov	r2, r5
  105154:	4669      	mov	r1, sp
  105156:	200c      	movs	r0, #12
  105158:	f7ff fef2 	bl	104f40 <i2c_do_Write.isra.0>
  10515c:	4620      	mov	r0, r4
  10515e:	f7ff ff29 	bl	104fb4 <i2c_stop>
  105162:	f64f 70ff 	movw	r0, #65535	; 0xffff
  105166:	f7ff fedd 	bl	104f24 <i2c_wait>
  10516a:	f88d 6000 	strb.w	r6, [sp]
  10516e:	4620      	mov	r0, r4
  105170:	26ff      	movs	r6, #255	; 0xff
  105172:	f88d 5001 	strb.w	r5, [sp, #1]
  105176:	f88d 6002 	strb.w	r6, [sp, #2]
  10517a:	f7ff ff19 	bl	104fb0 <i2c_start>
  10517e:	462a      	mov	r2, r5
  105180:	4669      	mov	r1, sp
  105182:	200c      	movs	r0, #12
  105184:	f7ff fedc 	bl	104f40 <i2c_do_Write.isra.0>
  105188:	4620      	mov	r0, r4
  10518a:	f7ff ff13 	bl	104fb4 <i2c_stop>
  10518e:	4a1a      	ldr	r2, [pc, #104]	; (1051f8 <expReset_AppLedON+0x154>)
  105190:	ab01      	add	r3, sp, #4
  105192:	6851      	ldr	r1, [r2, #4]
  105194:	6810      	ldr	r0, [r2, #0]
  105196:	f88d 6001 	strb.w	r6, [sp, #1]
  10519a:	c303      	stmia	r3!, {r0, r1}
  10519c:	8911      	ldrh	r1, [r2, #8]
  10519e:	7a92      	ldrb	r2, [r2, #10]
  1051a0:	8019      	strh	r1, [r3, #0]
  1051a2:	709a      	strb	r2, [r3, #2]
  1051a4:	2306      	movs	r3, #6
  1051a6:	f88d 3000 	strb.w	r3, [sp]
  1051aa:	f88d 6002 	strb.w	r6, [sp, #2]
  1051ae:	2000      	movs	r0, #0
  1051b0:	f7ff fefe 	bl	104fb0 <i2c_start>
  1051b4:	ab01      	add	r3, sp, #4
  1051b6:	1919      	adds	r1, r3, r4
  1051b8:	2201      	movs	r2, #1
  1051ba:	200c      	movs	r0, #12
  1051bc:	f7ff fec0 	bl	104f40 <i2c_do_Write.isra.0>
  1051c0:	2203      	movs	r2, #3
  1051c2:	4669      	mov	r1, sp
  1051c4:	200c      	movs	r0, #12
  1051c6:	f7ff febb 	bl	104f40 <i2c_do_Write.isra.0>
  1051ca:	2000      	movs	r0, #0
  1051cc:	f7ff fef2 	bl	104fb4 <i2c_stop>
  1051d0:	3401      	adds	r4, #1
  1051d2:	f64f 70ff 	movw	r0, #65535	; 0xffff
  1051d6:	f7ff fea5 	bl	104f24 <i2c_wait>
  1051da:	2c0c      	cmp	r4, #12
  1051dc:	d1e7      	bne.n	1051ae <expReset_AppLedON+0x10a>
  1051de:	b004      	add	sp, #16
  1051e0:	bd70      	pop	{r4, r5, r6, pc}
  1051e2:	bf00      	nop
  1051e4:	4001b000 	.word	0x4001b000
  1051e8:	4000c000 	.word	0x4000c000
  1051ec:	4001c000 	.word	0x4001c000
  1051f0:	40010000 	.word	0x40010000
  1051f4:	000f4240 	.word	0x000f4240
  1051f8:	0010df24 	.word	0x0010df24

001051fc <fI2cInit>:
  1051fc:	b5f8      	push	{r3, r4, r5, r6, r7, lr}
  1051fe:	460d      	mov	r5, r1
  105200:	4604      	mov	r4, r0
  105202:	4945      	ldr	r1, [pc, #276]	; (105318 <fI2cInit+0x11c>)
  105204:	4628      	mov	r0, r5
  105206:	4616      	mov	r6, r2
  105208:	f7fd fcba 	bl	102b80 <pinmap_peripheral>
  10520c:	4943      	ldr	r1, [pc, #268]	; (10531c <fI2cInit+0x120>)
  10520e:	4607      	mov	r7, r0
  105210:	4630      	mov	r0, r6
  105212:	f7fd fcb5 	bl	102b80 <pinmap_peripheral>
  105216:	4601      	mov	r1, r0
  105218:	4638      	mov	r0, r7
  10521a:	f7fd fc93 	bl	102b44 <pinmap_merge>
  10521e:	60e0      	str	r0, [r4, #12]
  105220:	3001      	adds	r0, #1
  105222:	d104      	bne.n	10522e <fI2cInit+0x32>
  105224:	2249      	movs	r2, #73	; 0x49
  105226:	493e      	ldr	r1, [pc, #248]	; (105320 <fI2cInit+0x124>)
  105228:	483e      	ldr	r0, [pc, #248]	; (105324 <fI2cInit+0x128>)
  10522a:	f7fd fd87 	bl	102d3c <mbed_assert_internal>
  10522e:	68e3      	ldr	r3, [r4, #12]
  105230:	2200      	movs	r2, #0
  105232:	60da      	str	r2, [r3, #12]
  105234:	68e2      	ldr	r2, [r4, #12]
  105236:	4b3c      	ldr	r3, [pc, #240]	; (105328 <fI2cInit+0x12c>)
  105238:	429a      	cmp	r2, r3
  10523a:	4a3c      	ldr	r2, [pc, #240]	; (10532c <fI2cInit+0x130>)
  10523c:	4b3c      	ldr	r3, [pc, #240]	; (105330 <fI2cInit+0x134>)
  10523e:	6911      	ldr	r1, [r2, #16]
  105240:	bf0b      	itete	eq
  105242:	f021 0180 	biceq.w	r1, r1, #128	; 0x80
  105246:	f421 5100 	bicne.w	r1, r1, #8192	; 0x2000
  10524a:	6111      	streq	r1, [r2, #16]
  10524c:	6111      	strne	r1, [r2, #16]
  10524e:	bf0c      	ite	eq
  105250:	2220      	moveq	r2, #32
  105252:	f44f 2280 	movne.w	r2, #262144	; 0x40000
  105256:	f8c3 2180 	str.w	r2, [r3, #384]	; 0x180
  10525a:	601a      	str	r2, [r3, #0]
  10525c:	68e2      	ldr	r2, [r4, #12]
  10525e:	7c13      	ldrb	r3, [r2, #16]
  105260:	f043 0340 	orr.w	r3, r3, #64	; 0x40
  105264:	7413      	strb	r3, [r2, #16]
  105266:	68e2      	ldr	r2, [r4, #12]
  105268:	7c13      	ldrb	r3, [r2, #16]
  10526a:	f043 0320 	orr.w	r3, r3, #32
  10526e:	7413      	strb	r3, [r2, #16]
  105270:	f000 fb7e 	bl	105970 <fClockGetPeriphClockfrequency>
  105274:	4b2f      	ldr	r3, [pc, #188]	; (105334 <fI2cInit+0x138>)
  105276:	68e2      	ldr	r2, [r4, #12]
  105278:	fbb0 f0f3 	udiv	r0, r0, r3
  10527c:	7c13      	ldrb	r3, [r2, #16]
  10527e:	0880      	lsrs	r0, r0, #2
  105280:	3802      	subs	r0, #2
  105282:	f360 0304 	bfi	r3, r0, #0, #5
  105286:	7413      	strb	r3, [r2, #16]
  105288:	68e3      	ldr	r3, [r4, #12]
  10528a:	f3c0 1047 	ubfx	r0, r0, #5, #8
  10528e:	6158      	str	r0, [r3, #20]
  105290:	4921      	ldr	r1, [pc, #132]	; (105318 <fI2cInit+0x11c>)
  105292:	4628      	mov	r0, r5
  105294:	f7fd fc38 	bl	102b08 <pinmap_pinout>
  105298:	4630      	mov	r0, r6
  10529a:	4920      	ldr	r1, [pc, #128]	; (10531c <fI2cInit+0x120>)
  10529c:	f7fd fc34 	bl	102b08 <pinmap_pinout>
  1052a0:	4628      	mov	r0, r5
  1052a2:	2105      	movs	r1, #5
  1052a4:	f000 fbba 	bl	105a1c <pin_mode>
  1052a8:	4630      	mov	r0, r6
  1052aa:	2105      	movs	r1, #5
  1052ac:	f000 fbb6 	bl	105a1c <pin_mode>
  1052b0:	4b1e      	ldr	r3, [pc, #120]	; (10532c <fI2cInit+0x130>)
  1052b2:	00a8      	lsls	r0, r5, #2
  1052b4:	691a      	ldr	r2, [r3, #16]
  1052b6:	f100 4080 	add.w	r0, r0, #1073741824	; 0x40000000
  1052ba:	f022 5280 	bic.w	r2, r2, #268435456	; 0x10000000
  1052be:	611a      	str	r2, [r3, #16]
  1052c0:	f500 30e0 	add.w	r0, r0, #114688	; 0x1c000
  1052c4:	7807      	ldrb	r7, [r0, #0]
  1052c6:	2201      	movs	r2, #1
  1052c8:	00b1      	lsls	r1, r6, #2
  1052ca:	f362 0784 	bfi	r7, r2, #2, #3
  1052ce:	f101 4180 	add.w	r1, r1, #1073741824	; 0x40000000
  1052d2:	7007      	strb	r7, [r0, #0]
  1052d4:	f501 31e0 	add.w	r1, r1, #114688	; 0x1c000
  1052d8:	7808      	ldrb	r0, [r1, #0]
  1052da:	fa02 f505 	lsl.w	r5, r2, r5
  1052de:	f362 0084 	bfi	r0, r2, #2, #3
  1052e2:	7008      	strb	r0, [r1, #0]
  1052e4:	6919      	ldr	r1, [r3, #16]
  1052e6:	4814      	ldr	r0, [pc, #80]	; (105338 <fI2cInit+0x13c>)
  1052e8:	f041 5180 	orr.w	r1, r1, #268435456	; 0x10000000
  1052ec:	6119      	str	r1, [r3, #16]
  1052ee:	6919      	ldr	r1, [r3, #16]
  1052f0:	fa02 f606 	lsl.w	r6, r2, r6
  1052f4:	f421 5180 	bic.w	r1, r1, #4096	; 0x1000
  1052f8:	6119      	str	r1, [r3, #16]
  1052fa:	6881      	ldr	r1, [r0, #8]
  1052fc:	432e      	orrs	r6, r5
  1052fe:	430e      	orrs	r6, r1
  105300:	6086      	str	r6, [r0, #8]
  105302:	691a      	ldr	r2, [r3, #16]
  105304:	f442 5280 	orr.w	r2, r2, #4096	; 0x1000
  105308:	611a      	str	r2, [r3, #16]
  10530a:	68e2      	ldr	r2, [r4, #12]
  10530c:	7c13      	ldrb	r3, [r2, #16]
  10530e:	f043 0380 	orr.w	r3, r3, #128	; 0x80
  105312:	7413      	strb	r3, [r2, #16]
  105314:	bdf8      	pop	{r3, r4, r5, r6, r7, pc}
  105316:	bf00      	nop
  105318:	0010e040 	.word	0x0010e040
  10531c:	0010e0b8 	.word	0x0010e0b8
  105320:	0010df2f 	.word	0x0010df2f
  105324:	0010df7b 	.word	0x0010df7b
  105328:	40007000 	.word	0x40007000
  10532c:	4001b000 	.word	0x4001b000
  105330:	e000e100 	.word	0xe000e100
  105334:	000186a0 	.word	0x000186a0
  105338:	4000c000 	.word	0x4000c000

0010533c <fI2cFrequency>:
  10533c:	b538      	push	{r3, r4, r5, lr}
  10533e:	4605      	mov	r5, r0
  105340:	460c      	mov	r4, r1
  105342:	f000 fb15 	bl	105970 <fClockGetPeriphClockfrequency>
  105346:	fbb0 f0f4 	udiv	r0, r0, r4
  10534a:	68ea      	ldr	r2, [r5, #12]
  10534c:	0880      	lsrs	r0, r0, #2
  10534e:	7c13      	ldrb	r3, [r2, #16]
  105350:	3802      	subs	r0, #2
  105352:	f360 0304 	bfi	r3, r0, #0, #5
  105356:	7413      	strb	r3, [r2, #16]
  105358:	68eb      	ldr	r3, [r5, #12]
  10535a:	f3c0 1047 	ubfx	r0, r0, #5, #8
  10535e:	6158      	str	r0, [r3, #20]
  105360:	bd38      	pop	{r3, r4, r5, pc}

00105362 <fI2cStart>:
  105362:	b510      	push	{r4, lr}
  105364:	4604      	mov	r4, r0
  105366:	68c2      	ldr	r2, [r0, #12]
  105368:	6813      	ldr	r3, [r2, #0]
  10536a:	07db      	lsls	r3, r3, #31
  10536c:	d5fc      	bpl.n	105368 <fI2cStart+0x6>
  10536e:	2001      	movs	r0, #1
  105370:	f001 fd90 	bl	106e94 <wait_us>
  105374:	68e3      	ldr	r3, [r4, #12]
  105376:	2215      	movs	r2, #21
  105378:	609a      	str	r2, [r3, #8]
  10537a:	2000      	movs	r0, #0
  10537c:	bd10      	pop	{r4, pc}

0010537e <fI2cStop>:
  10537e:	b510      	push	{r4, lr}
  105380:	4604      	mov	r4, r0
  105382:	68c2      	ldr	r2, [r0, #12]
  105384:	6813      	ldr	r3, [r2, #0]
  105386:	07db      	lsls	r3, r3, #31
  105388:	d5fc      	bpl.n	105384 <fI2cStop+0x6>
  10538a:	2001      	movs	r0, #1
  10538c:	f001 fd82 	bl	106e94 <wait_us>
  105390:	68e3      	ldr	r3, [r4, #12]
  105392:	2214      	movs	r2, #20
  105394:	609a      	str	r2, [r3, #8]
  105396:	681b      	ldr	r3, [r3, #0]
  105398:	f013 0f34 	tst.w	r3, #52	; 0x34
  10539c:	bf14      	ite	ne
  10539e:	f06f 0001 	mvnne.w	r0, #1
  1053a2:	2000      	moveq	r0, #0
  1053a4:	bd10      	pop	{r4, pc}

001053a6 <lp_ticker_init>:
  1053a6:	f000 bb91 	b.w	105acc <fRtcInit>

001053aa <lp_ticker_read>:
  1053aa:	b508      	push	{r3, lr}
  1053ac:	f000 fbe0 	bl	105b70 <fRtcRead>
  1053b0:	bd08      	pop	{r3, pc}

001053b2 <lp_ticker_set_interrupt>:
  1053b2:	f000 bc0f 	b.w	105bd4 <fRtcSetInterrupt>

001053b6 <lp_ticker_disable_interrupt>:
  1053b6:	f000 bbc5 	b.w	105b44 <fRtcDisableInterrupt>

001053ba <lp_ticker_clear_interrupt>:
  1053ba:	f000 bbcf 	b.w	105b5c <fRtcClearInterrupt>
	...

001053c0 <fSpiInit>:
  1053c0:	e92d 4ff7 	stmdb	sp!, {r0, r1, r2, r4, r5, r6, r7, r8, r9, r10, r11, lr}
  1053c4:	468a      	mov	r10, r1
  1053c6:	4606      	mov	r6, r0
  1053c8:	495f      	ldr	r1, [pc, #380]	; (105548 <fSpiInit+0x188>)
  1053ca:	4650      	mov	r0, r10
  1053cc:	4691      	mov	r9, r2
  1053ce:	461c      	mov	r4, r3
  1053d0:	f99d 8030 	ldrsb.w	r8, [sp, #48]	; 0x30
  1053d4:	f7fd fbd4 	bl	102b80 <pinmap_peripheral>
  1053d8:	495c      	ldr	r1, [pc, #368]	; (10554c <fSpiInit+0x18c>)
  1053da:	4605      	mov	r5, r0
  1053dc:	4648      	mov	r0, r9
  1053de:	f7fd fbcf 	bl	102b80 <pinmap_peripheral>
  1053e2:	495b      	ldr	r1, [pc, #364]	; (105550 <fSpiInit+0x190>)
  1053e4:	9001      	str	r0, [sp, #4]
  1053e6:	4620      	mov	r0, r4
  1053e8:	f7fd fbca 	bl	102b80 <pinmap_peripheral>
  1053ec:	4959      	ldr	r1, [pc, #356]	; (105554 <fSpiInit+0x194>)
  1053ee:	4607      	mov	r7, r0
  1053f0:	4640      	mov	r0, r8
  1053f2:	f7fd fbc5 	bl	102b80 <pinmap_peripheral>
  1053f6:	9b01      	ldr	r3, [sp, #4]
  1053f8:	4683      	mov	r11, r0
  1053fa:	4619      	mov	r1, r3
  1053fc:	4628      	mov	r0, r5
  1053fe:	f7fd fba1 	bl	102b44 <pinmap_merge>
  105402:	4659      	mov	r1, r11
  105404:	4605      	mov	r5, r0
  105406:	4638      	mov	r0, r7
  105408:	f7fd fb9c 	bl	102b44 <pinmap_merge>
  10540c:	4601      	mov	r1, r0
  10540e:	4628      	mov	r0, r5
  105410:	f7fd fb98 	bl	102b44 <pinmap_merge>
  105414:	6030      	str	r0, [r6, #0]
  105416:	3001      	adds	r0, #1
  105418:	d104      	bne.n	105424 <fSpiInit+0x64>
  10541a:	2243      	movs	r2, #67	; 0x43
  10541c:	494e      	ldr	r1, [pc, #312]	; (105558 <fSpiInit+0x198>)
  10541e:	484f      	ldr	r0, [pc, #316]	; (10555c <fSpiInit+0x19c>)
  105420:	f7fd fc8c 	bl	102d3c <mbed_assert_internal>
  105424:	4d4e      	ldr	r5, [pc, #312]	; (105560 <fSpiInit+0x1a0>)
  105426:	6832      	ldr	r2, [r6, #0]
  105428:	4b4e      	ldr	r3, [pc, #312]	; (105564 <fSpiInit+0x1a4>)
  10542a:	4620      	mov	r0, r4
  10542c:	429a      	cmp	r2, r3
  10542e:	692b      	ldr	r3, [r5, #16]
  105430:	4947      	ldr	r1, [pc, #284]	; (105550 <fSpiInit+0x190>)
  105432:	bf0c      	ite	eq
  105434:	f023 0340 	biceq.w	r3, r3, #64	; 0x40
  105438:	f423 7300 	bicne.w	r3, r3, #512	; 0x200
  10543c:	612b      	str	r3, [r5, #16]
  10543e:	692b      	ldr	r3, [r5, #16]
  105440:	2701      	movs	r7, #1
  105442:	f423 3380 	bic.w	r3, r3, #65536	; 0x10000
  105446:	612b      	str	r3, [r5, #16]
  105448:	f7fd fb5e 	bl	102b08 <pinmap_pinout>
  10544c:	493e      	ldr	r1, [pc, #248]	; (105548 <fSpiInit+0x188>)
  10544e:	4650      	mov	r0, r10
  105450:	f7fd fb5a 	bl	102b08 <pinmap_pinout>
  105454:	692b      	ldr	r3, [r5, #16]
  105456:	fa07 f004 	lsl.w	r0, r7, r4
  10545a:	f423 5380 	bic.w	r3, r3, #4096	; 0x1000
  10545e:	612b      	str	r3, [r5, #16]
  105460:	4b41      	ldr	r3, [pc, #260]	; (105568 <fSpiInit+0x1a8>)
  105462:	fa07 f208 	lsl.w	r2, r7, r8
  105466:	6899      	ldr	r1, [r3, #8]
  105468:	4302      	orrs	r2, r0
  10546a:	fa07 f00a 	lsl.w	r0, r7, r10
  10546e:	4302      	orrs	r2, r0
  105470:	430a      	orrs	r2, r1
  105472:	609a      	str	r2, [r3, #8]
  105474:	68da      	ldr	r2, [r3, #12]
  105476:	fa07 f109 	lsl.w	r1, r7, r9
  10547a:	430a      	orrs	r2, r1
  10547c:	60da      	str	r2, [r3, #12]
  10547e:	692b      	ldr	r3, [r5, #16]
  105480:	4620      	mov	r0, r4
  105482:	f023 5380 	bic.w	r3, r3, #268435456	; 0x10000000
  105486:	00a4      	lsls	r4, r4, #2
  105488:	612b      	str	r3, [r5, #16]
  10548a:	2100      	movs	r1, #0
  10548c:	f104 4480 	add.w	r4, r4, #1073741824	; 0x40000000
  105490:	f000 fac4 	bl	105a1c <pin_mode>
  105494:	f504 34e0 	add.w	r4, r4, #114688	; 0x1c000
  105498:	2102      	movs	r1, #2
  10549a:	4650      	mov	r0, r10
  10549c:	f000 fabe 	bl	105a1c <pin_mode>
  1054a0:	7823      	ldrb	r3, [r4, #0]
  1054a2:	f1b9 3fff 	cmp.w	r9, #4294967295
  1054a6:	f367 0384 	bfi	r3, r7, #2, #3
  1054aa:	7023      	strb	r3, [r4, #0]
  1054ac:	7923      	ldrb	r3, [r4, #4]
  1054ae:	f367 0384 	bfi	r3, r7, #2, #3
  1054b2:	7123      	strb	r3, [r4, #4]
  1054b4:	d00b      	beq.n	1054ce <fSpiInit+0x10e>
  1054b6:	4925      	ldr	r1, [pc, #148]	; (10554c <fSpiInit+0x18c>)
  1054b8:	4648      	mov	r0, r9
  1054ba:	f7fd fb25 	bl	102b08 <pinmap_pinout>
  1054be:	2105      	movs	r1, #5
  1054c0:	4648      	mov	r0, r9
  1054c2:	f000 faab 	bl	105a1c <pin_mode>
  1054c6:	7a23      	ldrb	r3, [r4, #8]
  1054c8:	f367 0384 	bfi	r3, r7, #2, #3
  1054cc:	7223      	strb	r3, [r4, #8]
  1054ce:	f1b8 3fff 	cmp.w	r8, #4294967295
  1054d2:	d011      	beq.n	1054f8 <fSpiInit+0x138>
  1054d4:	491f      	ldr	r1, [pc, #124]	; (105554 <fSpiInit+0x194>)
  1054d6:	4640      	mov	r0, r8
  1054d8:	f7fd fb16 	bl	102b08 <pinmap_pinout>
  1054dc:	2102      	movs	r1, #2
  1054de:	4640      	mov	r0, r8
  1054e0:	f000 fa9c 	bl	105a1c <pin_mode>
  1054e4:	7b23      	ldrb	r3, [r4, #12]
  1054e6:	2201      	movs	r2, #1
  1054e8:	f362 0384 	bfi	r3, r2, #2, #3
  1054ec:	4a1d      	ldr	r2, [pc, #116]	; (105564 <fSpiInit+0x1a4>)
  1054ee:	7323      	strb	r3, [r4, #12]
  1054f0:	7d13      	ldrb	r3, [r2, #20]
  1054f2:	f36f 0303 	bfc	r3, #0, #4
  1054f6:	7513      	strb	r3, [r2, #20]
  1054f8:	4b19      	ldr	r3, [pc, #100]	; (105560 <fSpiInit+0x1a0>)
  1054fa:	2400      	movs	r4, #0
  1054fc:	691a      	ldr	r2, [r3, #16]
  1054fe:	f042 5280 	orr.w	r2, r2, #268435456	; 0x10000000
  105502:	611a      	str	r2, [r3, #16]
  105504:	691a      	ldr	r2, [r3, #16]
  105506:	f442 5280 	orr.w	r2, r2, #4096	; 0x1000
  10550a:	611a      	str	r2, [r3, #16]
  10550c:	691a      	ldr	r2, [r3, #16]
  10550e:	f442 3280 	orr.w	r2, r2, #65536	; 0x10000
  105512:	611a      	str	r2, [r3, #16]
  105514:	6833      	ldr	r3, [r6, #0]
  105516:	60dc      	str	r4, [r3, #12]
  105518:	f000 fa2a 	bl	105970 <fClockGetPeriphClockfrequency>
  10551c:	4b13      	ldr	r3, [pc, #76]	; (10556c <fSpiInit+0x1ac>)
  10551e:	2201      	movs	r2, #1
  105520:	fbb0 f0f3 	udiv	r0, r0, r3
  105524:	6833      	ldr	r3, [r6, #0]
  105526:	0840      	lsrs	r0, r0, #1
  105528:	3801      	subs	r0, #1
  10552a:	6098      	str	r0, [r3, #8]
  10552c:	629a      	str	r2, [r3, #40]	; 0x28
  10552e:	62da      	str	r2, [r3, #44]	; 0x2c
  105530:	22ff      	movs	r2, #255	; 0xff
  105532:	61dc      	str	r4, [r3, #28]
  105534:	625a      	str	r2, [r3, #36]	; 0x24
  105536:	2210      	movs	r2, #16
  105538:	615a      	str	r2, [r3, #20]
  10553a:	6833      	ldr	r3, [r6, #0]
  10553c:	2225      	movs	r2, #37	; 0x25
  10553e:	619c      	str	r4, [r3, #24]
  105540:	60da      	str	r2, [r3, #12]
  105542:	b003      	add	sp, #12
  105544:	e8bd 8ff0 	ldmia.w	sp!, {r4, r5, r6, r7, r8, r9, r10, r11, pc}
  105548:	0010e130 	.word	0x0010e130
  10554c:	0010dfe0 	.word	0x0010dfe0
  105550:	0010e010 	.word	0x0010e010
  105554:	0010e160 	.word	0x0010e160
  105558:	0010df93 	.word	0x0010df93
  10555c:	0010df7b 	.word	0x0010df7b
  105560:	4001b000 	.word	0x4001b000
  105564:	40006000 	.word	0x40006000
  105568:	4000c000 	.word	0x4000c000
  10556c:	000f4240 	.word	0x000f4240

00105570 <us_timer_isr>:
  105570:	2200      	movs	r2, #0
  105572:	f04f 4380 	mov.w	r3, #1073741824	; 0x40000000
  105576:	60da      	str	r2, [r3, #12]
  105578:	4a02      	ldr	r2, [pc, #8]	; (105584 <us_timer_isr+0x14>)
  10557a:	6813      	ldr	r3, [r2, #0]
  10557c:	3301      	adds	r3, #1
  10557e:	6013      	str	r3, [r2, #0]
  105580:	4770      	bx	lr
  105582:	bf00      	nop
  105584:	3fff4cdc 	.word	0x3fff4cdc

00105588 <us_timer_init>:
  105588:	4b16      	ldr	r3, [pc, #88]	; (1055e4 <us_timer_init+0x5c>)
  10558a:	21d4      	movs	r1, #212	; 0xd4
  10558c:	691a      	ldr	r2, [r3, #16]
  10558e:	f022 0201 	bic.w	r2, r2, #1
  105592:	611a      	str	r2, [r3, #16]
  105594:	691a      	ldr	r2, [r3, #16]
  105596:	f022 0202 	bic.w	r2, r2, #2
  10559a:	611a      	str	r2, [r3, #16]
  10559c:	f64f 72ff 	movw	r2, #65535	; 0xffff
  1055a0:	f04f 4380 	mov.w	r3, #1073741824	; 0x40000000
  1055a4:	601a      	str	r2, [r3, #0]
  1055a6:	6099      	str	r1, [r3, #8]
  1055a8:	f503 5380 	add.w	r3, r3, #4096	; 0x1000
  1055ac:	601a      	str	r2, [r3, #0]
  1055ae:	2254      	movs	r2, #84	; 0x54
  1055b0:	609a      	str	r2, [r3, #8]
  1055b2:	4b0d      	ldr	r3, [pc, #52]	; (1055e8 <us_timer_init+0x60>)
  1055b4:	490d      	ldr	r1, [pc, #52]	; (1055ec <us_timer_init+0x64>)
  1055b6:	689a      	ldr	r2, [r3, #8]
  1055b8:	6411      	str	r1, [r2, #64]	; 0x40
  1055ba:	689b      	ldr	r3, [r3, #8]
  1055bc:	4a0c      	ldr	r2, [pc, #48]	; (1055f0 <us_timer_init+0x68>)
  1055be:	2102      	movs	r1, #2
  1055c0:	645a      	str	r2, [r3, #68]	; 0x44
  1055c2:	4b0c      	ldr	r3, [pc, #48]	; (1055f4 <us_timer_init+0x6c>)
  1055c4:	2210      	movs	r2, #16
  1055c6:	f883 2300 	strb.w	r2, [r3, #768]	; 0x300
  1055ca:	2220      	movs	r2, #32
  1055cc:	f883 2301 	strb.w	r2, [r3, #769]	; 0x301
  1055d0:	2201      	movs	r2, #1
  1055d2:	f8c3 2180 	str.w	r2, [r3, #384]	; 0x180
  1055d6:	f8c3 1180 	str.w	r1, [r3, #384]	; 0x180
  1055da:	601a      	str	r2, [r3, #0]
  1055dc:	6019      	str	r1, [r3, #0]
  1055de:	4b06      	ldr	r3, [pc, #24]	; (1055f8 <us_timer_init+0x70>)
  1055e0:	601a      	str	r2, [r3, #0]
  1055e2:	4770      	bx	lr
  1055e4:	4001b000 	.word	0x4001b000
  1055e8:	e000ed00 	.word	0xe000ed00
  1055ec:	00105571 	.word	0x00105571
  1055f0:	00105669 	.word	0x00105669
  1055f4:	e000e100 	.word	0xe000e100
  1055f8:	3fff4ce4 	.word	0x3fff4ce4

001055fc <us_ticker_init>:
  1055fc:	4b02      	ldr	r3, [pc, #8]	; (105608 <us_ticker_init+0xc>)
  1055fe:	681b      	ldr	r3, [r3, #0]
  105600:	b90b      	cbnz	r3, 105606 <us_ticker_init+0xa>
  105602:	f7ff bfc1 	b.w	105588 <us_timer_init>
  105606:	4770      	bx	lr
  105608:	3fff4ce4 	.word	0x3fff4ce4

0010560c <us_ticker_read>:
  10560c:	b508      	push	{r3, lr}
  10560e:	4b13      	ldr	r3, [pc, #76]	; (10565c <us_ticker_read+0x50>)
  105610:	681b      	ldr	r3, [r3, #0]
  105612:	b90b      	cbnz	r3, 105618 <us_ticker_read+0xc>
  105614:	f7ff ffb8 	bl	105588 <us_timer_init>
  105618:	4911      	ldr	r1, [pc, #68]	; (105660 <us_ticker_read+0x54>)
  10561a:	f04f 4280 	mov.w	r2, #1073741824	; 0x40000000
  10561e:	2001      	movs	r0, #1
  105620:	6853      	ldr	r3, [r2, #4]
  105622:	f8c1 0080 	str.w	r0, [r1, #128]	; 0x80
  105626:	f3bf 8f4f 	dsb	sy
  10562a:	f3bf 8f6f 	isb	sy
  10562e:	6891      	ldr	r1, [r2, #8]
  105630:	f411 7f80 	tst.w	r1, #256	; 0x100
  105634:	bf18      	it	ne
  105636:	2300      	movne	r3, #0
  105638:	490a      	ldr	r1, [pc, #40]	; (105664 <us_ticker_read+0x58>)
  10563a:	bf1f      	itttt	ne
  10563c:	60d3      	strne	r3, [r2, #12]
  10563e:	680b      	ldrne	r3, [r1, #0]
  105640:	3301      	addne	r3, #1
  105642:	600b      	strne	r3, [r1, #0]
  105644:	bf18      	it	ne
  105646:	6853      	ldrne	r3, [r2, #4]
  105648:	6808      	ldr	r0, [r1, #0]
  10564a:	4a05      	ldr	r2, [pc, #20]	; (105660 <us_ticker_read+0x54>)
  10564c:	f5c3 437f 	rsb	r3, r3, #65280	; 0xff00
  105650:	33ff      	adds	r3, #255	; 0xff
  105652:	2101      	movs	r1, #1
  105654:	6011      	str	r1, [r2, #0]
  105656:	ea43 4000 	orr.w	r0, r3, r0, lsl #16
  10565a:	bd08      	pop	{r3, pc}
  10565c:	3fff4ce4 	.word	0x3fff4ce4
  105660:	e000e100 	.word	0xe000e100
  105664:	3fff4cdc 	.word	0x3fff4cdc

00105668 <us_ticker_isr>:
  105668:	b570      	push	{r4, r5, r6, lr}
  10566a:	4c10      	ldr	r4, [pc, #64]	; (1056ac <us_ticker_isr+0x44>)
  10566c:	2600      	movs	r6, #0
  10566e:	4b10      	ldr	r3, [pc, #64]	; (1056b0 <us_ticker_isr+0x48>)
  105670:	60e6      	str	r6, [r4, #12]
  105672:	681d      	ldr	r5, [r3, #0]
  105674:	f7ff ffca 	bl	10560c <us_ticker_read>
  105678:	1a28      	subs	r0, r5, r0
  10567a:	42b0      	cmp	r0, r6
  10567c:	dc07      	bgt.n	10568e <us_ticker_isr+0x26>
  10567e:	8923      	ldrh	r3, [r4, #8]
  105680:	f366 13c7 	bfi	r3, r6, #7, #1
  105684:	8123      	strh	r3, [r4, #8]
  105686:	e8bd 4070 	ldmia.w	sp!, {r4, r5, r6, lr}
  10568a:	f7fd bb51 	b.w	102d30 <us_ticker_irq_handler>
  10568e:	f64f 73ff 	movw	r3, #65535	; 0xffff
  105692:	4298      	cmp	r0, r3
  105694:	bfa8      	it	ge
  105696:	4618      	movge	r0, r3
  105698:	8923      	ldrh	r3, [r4, #8]
  10569a:	f366 13c7 	bfi	r3, r6, #7, #1
  10569e:	8123      	strh	r3, [r4, #8]
  1056a0:	6020      	str	r0, [r4, #0]
  1056a2:	8923      	ldrh	r3, [r4, #8]
  1056a4:	f043 0380 	orr.w	r3, r3, #128	; 0x80
  1056a8:	8123      	strh	r3, [r4, #8]
  1056aa:	bd70      	pop	{r4, r5, r6, pc}
  1056ac:	40001000 	.word	0x40001000
  1056b0:	3fff4ce0 	.word	0x3fff4ce0

001056b4 <us_ticker_disable_interrupt>:
  1056b4:	4b02      	ldr	r3, [pc, #8]	; (1056c0 <us_ticker_disable_interrupt+0xc>)
  1056b6:	891a      	ldrh	r2, [r3, #8]
  1056b8:	f36f 12c7 	bfc	r2, #7, #1
  1056bc:	811a      	strh	r2, [r3, #8]
  1056be:	4770      	bx	lr
  1056c0:	40001000 	.word	0x40001000

001056c4 <us_ticker_clear_interrupt>:
  1056c4:	4b01      	ldr	r3, [pc, #4]	; (1056cc <us_ticker_clear_interrupt+0x8>)
  1056c6:	2200      	movs	r2, #0
  1056c8:	60da      	str	r2, [r3, #12]
  1056ca:	4770      	bx	lr
  1056cc:	40001000 	.word	0x40001000

001056d0 <us_ticker_set_interrupt>:
  1056d0:	4b0e      	ldr	r3, [pc, #56]	; (10570c <us_ticker_set_interrupt+0x3c>)
  1056d2:	b510      	push	{r4, lr}
  1056d4:	4604      	mov	r4, r0
  1056d6:	6018      	str	r0, [r3, #0]
  1056d8:	f7ff ff98 	bl	10560c <us_ticker_read>
  1056dc:	1a20      	subs	r0, r4, r0
  1056de:	2800      	cmp	r0, #0
  1056e0:	dc04      	bgt.n	1056ec <us_ticker_set_interrupt+0x1c>
  1056e2:	4b0b      	ldr	r3, [pc, #44]	; (105710 <us_ticker_set_interrupt+0x40>)
  1056e4:	2202      	movs	r2, #2
  1056e6:	f8c3 2100 	str.w	r2, [r3, #256]	; 0x100
  1056ea:	bd10      	pop	{r4, pc}
  1056ec:	f64f 74ff 	movw	r4, #65535	; 0xffff
  1056f0:	42a0      	cmp	r0, r4
  1056f2:	bfa8      	it	ge
  1056f4:	4620      	movge	r0, r4
  1056f6:	4b07      	ldr	r3, [pc, #28]	; (105714 <us_ticker_set_interrupt+0x44>)
  1056f8:	891a      	ldrh	r2, [r3, #8]
  1056fa:	f36f 12c7 	bfc	r2, #7, #1
  1056fe:	811a      	strh	r2, [r3, #8]
  105700:	6018      	str	r0, [r3, #0]
  105702:	891a      	ldrh	r2, [r3, #8]
  105704:	f042 0280 	orr.w	r2, r2, #128	; 0x80
  105708:	811a      	strh	r2, [r3, #8]
  10570a:	bd10      	pop	{r4, pc}
  10570c:	3fff4ce0 	.word	0x3fff4ce0
  105710:	e000e100 	.word	0xe000e100
  105714:	40001000 	.word	0x40001000

00105718 <fTrim>:
  105718:	f44f 53fd 	mov.w	r3, #8096	; 0x1fa0
  10571c:	6dda      	ldr	r2, [r3, #92]	; 0x5c
  10571e:	3201      	adds	r2, #1
  105720:	f000 8092 	beq.w	105848 <fTrim+0x130>
  105724:	685a      	ldr	r2, [r3, #4]
  105726:	3201      	adds	r2, #1
  105728:	bf1e      	ittt	ne
  10572a:	6859      	ldrne	r1, [r3, #4]
  10572c:	4a48      	ldrne	r2, [pc, #288]	; (105850 <fTrim+0x138>)
  10572e:	6251      	strne	r1, [r2, #36]	; 0x24
  105730:	689b      	ldr	r3, [r3, #8]
  105732:	3301      	adds	r3, #1
  105734:	bf1f      	itttt	ne
  105736:	f44f 53fd 	movne.w	r3, #8096	; 0x1fa0
  10573a:	689a      	ldrne	r2, [r3, #8]
  10573c:	4b44      	ldrne	r3, [pc, #272]	; (105850 <fTrim+0x138>)
  10573e:	621a      	strne	r2, [r3, #32]
  105740:	f44f 53fd 	mov.w	r3, #8096	; 0x1fa0
  105744:	68da      	ldr	r2, [r3, #12]
  105746:	0c12      	lsrs	r2, r2, #16
  105748:	0412      	lsls	r2, r2, #16
  10574a:	f512 3f80 	cmn.w	r2, #65536	; 0x10000
  10574e:	bf1e      	ittt	ne
  105750:	68d9      	ldrne	r1, [r3, #12]
  105752:	4a40      	ldrne	r2, [pc, #256]	; (105854 <fTrim+0x13c>)
  105754:	62d1      	strne	r1, [r2, #44]	; 0x2c
  105756:	691b      	ldr	r3, [r3, #16]
  105758:	0c1b      	lsrs	r3, r3, #16
  10575a:	041b      	lsls	r3, r3, #16
  10575c:	f513 3f80 	cmn.w	r3, #65536	; 0x10000
  105760:	bf1f      	itttt	ne
  105762:	f44f 53fd 	movne.w	r3, #8096	; 0x1fa0
  105766:	691a      	ldrne	r2, [r3, #16]
  105768:	4b3a      	ldrne	r3, [pc, #232]	; (105854 <fTrim+0x13c>)
  10576a:	629a      	strne	r2, [r3, #40]	; 0x28
  10576c:	4b38      	ldr	r3, [pc, #224]	; (105850 <fTrim+0x138>)
  10576e:	f44f 52fd 	mov.w	r2, #8096	; 0x1fa0
  105772:	6b50      	ldr	r0, [r2, #52]	; 0x34
  105774:	f8b3 108c 	ldrh.w	r1, [r3, #140]	; 0x8c
  105778:	f360 210b 	bfi	r1, r0, #8, #4
  10577c:	f8a3 108c 	strh.w	r1, [r3, #140]	; 0x8c
  105780:	6b93      	ldr	r3, [r2, #56]	; 0x38
  105782:	0c1b      	lsrs	r3, r3, #16
  105784:	041b      	lsls	r3, r3, #16
  105786:	f513 3f80 	cmn.w	r3, #65536	; 0x10000
  10578a:	bf18      	it	ne
  10578c:	6b91      	ldrne	r1, [r2, #56]	; 0x38
  10578e:	4b32      	ldr	r3, [pc, #200]	; (105858 <fTrim+0x140>)
  105790:	bf18      	it	ne
  105792:	6159      	strne	r1, [r3, #20]
  105794:	6bd1      	ldr	r1, [r2, #60]	; 0x3c
  105796:	6119      	str	r1, [r3, #16]
  105798:	6c11      	ldr	r1, [r2, #64]	; 0x40
  10579a:	60d9      	str	r1, [r3, #12]
  10579c:	6c52      	ldr	r2, [r2, #68]	; 0x44
  10579e:	0c12      	lsrs	r2, r2, #16
  1057a0:	0412      	lsls	r2, r2, #16
  1057a2:	f512 3f80 	cmn.w	r2, #65536	; 0x10000
  1057a6:	d007      	beq.n	1057b8 <fTrim+0xa0>
  1057a8:	f44f 52fd 	mov.w	r2, #8096	; 0x1fa0
  1057ac:	6c50      	ldr	r0, [r2, #68]	; 0x44
  1057ae:	4a2b      	ldr	r2, [pc, #172]	; (10585c <fTrim+0x144>)
  1057b0:	8911      	ldrh	r1, [r2, #8]
  1057b2:	f360 210d 	bfi	r1, r0, #8, #6
  1057b6:	8111      	strh	r1, [r2, #8]
  1057b8:	f44f 52fd 	mov.w	r2, #8096	; 0x1fa0
  1057bc:	6c91      	ldr	r1, [r2, #72]	; 0x48
  1057be:	6099      	str	r1, [r3, #8]
  1057c0:	6cd1      	ldr	r1, [r2, #76]	; 0x4c
  1057c2:	6019      	str	r1, [r3, #0]
  1057c4:	6d10      	ldr	r0, [r2, #80]	; 0x50
  1057c6:	4926      	ldr	r1, [pc, #152]	; (105860 <fTrim+0x148>)
  1057c8:	6008      	str	r0, [r1, #0]
  1057ca:	6a11      	ldr	r1, [r2, #32]
  1057cc:	61d9      	str	r1, [r3, #28]
  1057ce:	6a51      	ldr	r1, [r2, #36]	; 0x24
  1057d0:	6199      	str	r1, [r3, #24]
  1057d2:	6991      	ldr	r1, [r2, #24]
  1057d4:	6259      	str	r1, [r3, #36]	; 0x24
  1057d6:	69d2      	ldr	r2, [r2, #28]
  1057d8:	621a      	str	r2, [r3, #32]
  1057da:	f44f 5220 	mov.w	r2, #10240	; 0x2800
  1057de:	6811      	ldr	r1, [r2, #0]
  1057e0:	3101      	adds	r1, #1
  1057e2:	d007      	beq.n	1057f4 <fTrim+0xdc>
  1057e4:	6851      	ldr	r1, [r2, #4]
  1057e6:	3101      	adds	r1, #1
  1057e8:	d004      	beq.n	1057f4 <fTrim+0xdc>
  1057ea:	6810      	ldr	r0, [r2, #0]
  1057ec:	4918      	ldr	r1, [pc, #96]	; (105850 <fTrim+0x138>)
  1057ee:	6248      	str	r0, [r1, #36]	; 0x24
  1057f0:	6852      	ldr	r2, [r2, #4]
  1057f2:	620a      	str	r2, [r1, #32]
  1057f4:	f44f 5220 	mov.w	r2, #10240	; 0x2800
  1057f8:	6891      	ldr	r1, [r2, #8]
  1057fa:	3101      	adds	r1, #1
  1057fc:	bf1f      	itttt	ne
  1057fe:	6892      	ldrne	r2, [r2, #8]
  105800:	4914      	ldrne	r1, [pc, #80]	; (105854 <fTrim+0x13c>)
  105802:	f3c2 020b 	ubfxne	r2, r2, #0, #12
  105806:	62ca      	strne	r2, [r1, #44]	; 0x2c
  105808:	f44f 5220 	mov.w	r2, #10240	; 0x2800
  10580c:	6891      	ldr	r1, [r2, #8]
  10580e:	3101      	adds	r1, #1
  105810:	bf1f      	itttt	ne
  105812:	6892      	ldrne	r2, [r2, #8]
  105814:	490f      	ldrne	r1, [pc, #60]	; (105854 <fTrim+0x13c>)
  105816:	f3c2 020b 	ubfxne	r2, r2, #0, #12
  10581a:	62ca      	strne	r2, [r1, #44]	; 0x2c
  10581c:	f44f 5220 	mov.w	r2, #10240	; 0x2800
  105820:	6911      	ldr	r1, [r2, #16]
  105822:	3101      	adds	r1, #1
  105824:	d005      	beq.n	105832 <fTrim+0x11a>
  105826:	6910      	ldr	r0, [r2, #16]
  105828:	4a0c      	ldr	r2, [pc, #48]	; (10585c <fTrim+0x144>)
  10582a:	8911      	ldrh	r1, [r2, #8]
  10582c:	f360 210d 	bfi	r1, r0, #8, #6
  105830:	8111      	strh	r1, [r2, #8]
  105832:	f44f 5220 	mov.w	r2, #10240	; 0x2800
  105836:	6951      	ldr	r1, [r2, #20]
  105838:	3101      	adds	r1, #1
  10583a:	d007      	beq.n	10584c <fTrim+0x134>
  10583c:	6951      	ldr	r1, [r2, #20]
  10583e:	8a9a      	ldrh	r2, [r3, #20]
  105840:	f361 0203 	bfi	r2, r1, #0, #4
  105844:	829a      	strh	r2, [r3, #20]
  105846:	e001      	b.n	10584c <fTrim+0x134>
  105848:	2000      	movs	r0, #0
  10584a:	4770      	bx	lr
  10584c:	2001      	movs	r0, #1
  10584e:	4770      	bx	lr
  105850:	40014000 	.word	0x40014000
  105854:	4001b000 	.word	0x4001b000
  105858:	40019080 	.word	0x40019080
  10585c:	40014100 	.word	0x40014100
  105860:	40011000 	.word	0x40011000

00105864 <fClockInit>:
  105864:	4b28      	ldr	r3, [pc, #160]	; (105908 <fClockInit+0xa4>)
  105866:	b082      	sub	sp, #8
  105868:	781a      	ldrb	r2, [r3, #0]
  10586a:	f042 0201 	orr.w	r2, r2, #1
  10586e:	701a      	strb	r2, [r3, #0]
  105870:	685a      	ldr	r2, [r3, #4]
  105872:	07d0      	lsls	r0, r2, #31
  105874:	d5fc      	bpl.n	105870 <fClockInit+0xc>
  105876:	4b25      	ldr	r3, [pc, #148]	; (10590c <fClockInit+0xa8>)
  105878:	881a      	ldrh	r2, [r3, #0]
  10587a:	f36f 1245 	bfc	r2, #5, #1
  10587e:	801a      	strh	r2, [r3, #0]
  105880:	2300      	movs	r3, #0
  105882:	f88d 3007 	strb.w	r3, [sp, #7]
  105886:	f89d 3007 	ldrb.w	r3, [sp, #7]
  10588a:	2b09      	cmp	r3, #9
  10588c:	d804      	bhi.n	105898 <fClockInit+0x34>
  10588e:	f89d 3007 	ldrb.w	r3, [sp, #7]
  105892:	3301      	adds	r3, #1
  105894:	b2db      	uxtb	r3, r3
  105896:	e7f4      	b.n	105882 <fClockInit+0x1e>
  105898:	4b1b      	ldr	r3, [pc, #108]	; (105908 <fClockInit+0xa4>)
  10589a:	781a      	ldrb	r2, [r3, #0]
  10589c:	f042 0208 	orr.w	r2, r2, #8
  1058a0:	701a      	strb	r2, [r3, #0]
  1058a2:	685a      	ldr	r2, [r3, #4]
  1058a4:	0691      	lsls	r1, r2, #26
  1058a6:	d5fc      	bpl.n	1058a2 <fClockInit+0x3e>
  1058a8:	685a      	ldr	r2, [r3, #4]
  1058aa:	06d2      	lsls	r2, r2, #27
  1058ac:	d4fc      	bmi.n	1058a8 <fClockInit+0x44>
  1058ae:	4b17      	ldr	r3, [pc, #92]	; (10590c <fClockInit+0xa8>)
  1058b0:	881a      	ldrh	r2, [r3, #0]
  1058b2:	f042 0220 	orr.w	r2, r2, #32
  1058b6:	801a      	strh	r2, [r3, #0]
  1058b8:	881a      	ldrh	r2, [r3, #0]
  1058ba:	f36f 1204 	bfc	r2, #4, #1
  1058be:	801a      	strh	r2, [r3, #0]
  1058c0:	2300      	movs	r3, #0
  1058c2:	f88d 3007 	strb.w	r3, [sp, #7]
  1058c6:	f89d 3007 	ldrb.w	r3, [sp, #7]
  1058ca:	2b09      	cmp	r3, #9
  1058cc:	d804      	bhi.n	1058d8 <fClockInit+0x74>
  1058ce:	f89d 3007 	ldrb.w	r3, [sp, #7]
  1058d2:	3301      	adds	r3, #1
  1058d4:	b2db      	uxtb	r3, r3
  1058d6:	e7f4      	b.n	1058c2 <fClockInit+0x5e>
  1058d8:	4b0b      	ldr	r3, [pc, #44]	; (105908 <fClockInit+0xa4>)
  1058da:	781a      	ldrb	r2, [r3, #0]
  1058dc:	f042 0204 	orr.w	r2, r2, #4
  1058e0:	701a      	strb	r2, [r3, #0]
  1058e2:	685a      	ldr	r2, [r3, #4]
  1058e4:	0710      	lsls	r0, r2, #28
  1058e6:	d5fc      	bpl.n	1058e2 <fClockInit+0x7e>
  1058e8:	6859      	ldr	r1, [r3, #4]
  1058ea:	4a07      	ldr	r2, [pc, #28]	; (105908 <fClockInit+0xa4>)
  1058ec:	0749      	lsls	r1, r1, #29
  1058ee:	d4fb      	bmi.n	1058e8 <fClockInit+0x84>
  1058f0:	4906      	ldr	r1, [pc, #24]	; (10590c <fClockInit+0xa8>)
  1058f2:	880b      	ldrh	r3, [r1, #0]
  1058f4:	f043 0308 	orr.w	r3, r3, #8
  1058f8:	800b      	strh	r3, [r1, #0]
  1058fa:	f04f 33ff 	mov.w	r3, #4294967295
  1058fe:	6113      	str	r3, [r2, #16]
  105900:	2300      	movs	r3, #0
  105902:	6153      	str	r3, [r2, #20]
  105904:	b002      	add	sp, #8
  105906:	4770      	bx	lr
  105908:	4001b000 	.word	0x4001b000
  10590c:	4001d000 	.word	0x4001d000

00105910 <fPmuInit>:
  105910:	4a14      	ldr	r2, [pc, #80]	; (105964 <fPmuInit+0x54>)
  105912:	6913      	ldr	r3, [r2, #16]
  105914:	f023 5300 	bic.w	r3, r3, #536870912	; 0x20000000
  105918:	6113      	str	r3, [r2, #16]
  10591a:	4b13      	ldr	r3, [pc, #76]	; (105968 <fPmuInit+0x58>)
  10591c:	6919      	ldr	r1, [r3, #16]
  10591e:	f021 0110 	bic.w	r1, r1, #16
  105922:	6119      	str	r1, [r3, #16]
  105924:	6919      	ldr	r1, [r3, #16]
  105926:	f021 0102 	bic.w	r1, r1, #2
  10592a:	6119      	str	r1, [r3, #16]
  10592c:	4b0f      	ldr	r3, [pc, #60]	; (10596c <fPmuInit+0x5c>)
  10592e:	21a0      	movs	r1, #160	; 0xa0
  105930:	6159      	str	r1, [r3, #20]
  105932:	f44f 71c8 	mov.w	r1, #400	; 0x190
  105936:	60d9      	str	r1, [r3, #12]
  105938:	8819      	ldrh	r1, [r3, #0]
  10593a:	f36f 0141 	bfc	r1, #1, #1
  10593e:	8019      	strh	r1, [r3, #0]
  105940:	8819      	ldrh	r1, [r3, #0]
  105942:	f36f 0182 	bfc	r1, #2, #1
  105946:	8019      	strh	r1, [r3, #0]
  105948:	8819      	ldrh	r1, [r3, #0]
  10594a:	f041 0180 	orr.w	r1, r1, #128	; 0x80
  10594e:	8019      	strh	r1, [r3, #0]
  105950:	8819      	ldrh	r1, [r3, #0]
  105952:	f041 0140 	orr.w	r1, r1, #64	; 0x40
  105956:	8019      	strh	r1, [r3, #0]
  105958:	6913      	ldr	r3, [r2, #16]
  10595a:	f043 5300 	orr.w	r3, r3, #536870912	; 0x20000000
  10595e:	6113      	str	r3, [r2, #16]
  105960:	4770      	bx	lr
  105962:	bf00      	nop
  105964:	4001b000 	.word	0x4001b000
  105968:	e000ed00 	.word	0xe000ed00
  10596c:	4001d000 	.word	0x4001d000

00105970 <fClockGetPeriphClockfrequency>:
  105970:	4800      	ldr	r0, [pc, #0]	; (105974 <fClockGetPeriphClockfrequency+0x4>)
  105972:	4770      	bx	lr
  105974:	01e84800 	.word	0x01e84800

00105978 <fNcs36510Init>:
  105978:	b538      	push	{r3, r4, r5, lr}
  10597a:	4c1c      	ldr	r4, [pc, #112]	; (1059ec <fNcs36510Init+0x74>)
  10597c:	4d1c      	ldr	r5, [pc, #112]	; (1059f0 <fNcs36510Init+0x78>)
  10597e:	231f      	movs	r3, #31
  105980:	f8c4 3080 	str.w	r3, [r4, #128]	; 0x80
  105984:	f8c4 3180 	str.w	r3, [r4, #384]	; 0x180
  105988:	f04f 6320 	mov.w	r3, #167772160	; 0xa000000
  10598c:	606b      	str	r3, [r5, #4]
  10598e:	4b19      	ldr	r3, [pc, #100]	; (1059f4 <fNcs36510Init+0x7c>)
  105990:	60ab      	str	r3, [r5, #8]
  105992:	f7ff fec1 	bl	105718 <fTrim>
  105996:	f7ff ff65 	bl	105864 <fClockInit>
  10599a:	f7ff ffb9 	bl	105910 <fPmuInit>
  10599e:	2320      	movs	r3, #32
  1059a0:	77eb      	strb	r3, [r5, #31]
  1059a2:	22d0      	movs	r2, #208	; 0xd0
  1059a4:	f885 3022 	strb.w	r3, [r5, #34]	; 0x22
  1059a8:	f885 3023 	strb.w	r3, [r5, #35]	; 0x23
  1059ac:	23e0      	movs	r3, #224	; 0xe0
  1059ae:	f884 3303 	strb.w	r3, [r4, #771]	; 0x303
  1059b2:	f884 3304 	strb.w	r3, [r4, #772]	; 0x304
  1059b6:	f884 3305 	strb.w	r3, [r4, #773]	; 0x305
  1059ba:	f884 3306 	strb.w	r3, [r4, #774]	; 0x306
  1059be:	f884 3307 	strb.w	r3, [r4, #775]	; 0x307
  1059c2:	f884 2309 	strb.w	r2, [r4, #777]	; 0x309
  1059c6:	f884 230a 	strb.w	r2, [r4, #778]	; 0x30a
  1059ca:	f884 330b 	strb.w	r3, [r4, #779]	; 0x30b
  1059ce:	f884 330c 	strb.w	r3, [r4, #780]	; 0x30c
  1059d2:	f884 330d 	strb.w	r3, [r4, #781]	; 0x30d
  1059d6:	f884 330f 	strb.w	r3, [r4, #783]	; 0x30f
  1059da:	f884 330e 	strb.w	r3, [r4, #782]	; 0x30e
  1059de:	f884 3310 	strb.w	r3, [r4, #784]	; 0x310
  1059e2:	f884 3311 	strb.w	r3, [r4, #785]	; 0x311
  1059e6:	f884 3312 	strb.w	r3, [r4, #786]	; 0x312
  1059ea:	bd38      	pop	{r3, r4, r5, pc}
  1059ec:	e000e100 	.word	0xe000e100
  1059f0:	e000ed00 	.word	0xe000ed00
  1059f4:	00102000 	.word	0x00102000

001059f8 <pin_function>:
  1059f8:	4b07      	ldr	r3, [pc, #28]	; (105a18 <pin_function+0x20>)
  1059fa:	0080      	lsls	r0, r0, #2
  1059fc:	691a      	ldr	r2, [r3, #16]
  1059fe:	f100 4080 	add.w	r0, r0, #1073741824	; 0x40000000
  105a02:	f422 3280 	bic.w	r2, r2, #65536	; 0x10000
  105a06:	f500 3080 	add.w	r0, r0, #65536	; 0x10000
  105a0a:	611a      	str	r2, [r3, #16]
  105a0c:	6001      	str	r1, [r0, #0]
  105a0e:	691a      	ldr	r2, [r3, #16]
  105a10:	f442 3280 	orr.w	r2, r2, #65536	; 0x10000
  105a14:	611a      	str	r2, [r3, #16]
  105a16:	4770      	bx	lr
  105a18:	4001b000 	.word	0x4001b000

00105a1c <pin_mode>:
  105a1c:	4a1d      	ldr	r2, [pc, #116]	; (105a94 <pin_mode+0x78>)
  105a1e:	0080      	lsls	r0, r0, #2
  105a20:	6913      	ldr	r3, [r2, #16]
  105a22:	f100 4080 	add.w	r0, r0, #1073741824	; 0x40000000
  105a26:	f023 5380 	bic.w	r3, r3, #268435456	; 0x10000000
  105a2a:	f500 30e0 	add.w	r0, r0, #114688	; 0x1c000
  105a2e:	6113      	str	r3, [r2, #16]
  105a30:	2905      	cmp	r1, #5
  105a32:	d829      	bhi.n	105a88 <pin_mode+0x6c>
  105a34:	e8df f001 	tbb	[pc, r1]
  105a38:	0f0b0703 	.word	0x0f0b0703
  105a3c:	2017      	.short	0x2017
  105a3e:	7803      	ldrb	r3, [r0, #0]
  105a40:	f36f 1345 	bfc	r3, #5, #1
  105a44:	e00a      	b.n	105a5c <pin_mode+0x40>
  105a46:	7803      	ldrb	r3, [r0, #0]
  105a48:	f36f 1345 	bfc	r3, #5, #1
  105a4c:	e00e      	b.n	105a6c <pin_mode+0x50>
  105a4e:	7803      	ldrb	r3, [r0, #0]
  105a50:	f36f 1345 	bfc	r3, #5, #1
  105a54:	e013      	b.n	105a7e <pin_mode+0x62>
  105a56:	7803      	ldrb	r3, [r0, #0]
  105a58:	f043 0320 	orr.w	r3, r3, #32
  105a5c:	7003      	strb	r3, [r0, #0]
  105a5e:	7803      	ldrb	r3, [r0, #0]
  105a60:	f36f 0301 	bfc	r3, #0, #2
  105a64:	e00f      	b.n	105a86 <pin_mode+0x6a>
  105a66:	7803      	ldrb	r3, [r0, #0]
  105a68:	f043 0320 	orr.w	r3, r3, #32
  105a6c:	7003      	strb	r3, [r0, #0]
  105a6e:	7803      	ldrb	r3, [r0, #0]
  105a70:	2201      	movs	r2, #1
  105a72:	f362 0301 	bfi	r3, r2, #0, #2
  105a76:	e006      	b.n	105a86 <pin_mode+0x6a>
  105a78:	7803      	ldrb	r3, [r0, #0]
  105a7a:	f043 0320 	orr.w	r3, r3, #32
  105a7e:	7003      	strb	r3, [r0, #0]
  105a80:	7803      	ldrb	r3, [r0, #0]
  105a82:	f043 0303 	orr.w	r3, r3, #3
  105a86:	7003      	strb	r3, [r0, #0]
  105a88:	4a02      	ldr	r2, [pc, #8]	; (105a94 <pin_mode+0x78>)
  105a8a:	6913      	ldr	r3, [r2, #16]
  105a8c:	f043 5380 	orr.w	r3, r3, #268435456	; 0x10000000
  105a90:	6113      	str	r3, [r2, #16]
  105a92:	4770      	bx	lr
  105a94:	4001b000 	.word	0x4001b000

00105a98 <fRtcHandler>:
  105a98:	490a      	ldr	r1, [pc, #40]	; (105ac4 <fRtcHandler+0x2c>)
  105a9a:	2080      	movs	r0, #128	; 0x80
  105a9c:	f8c1 0080 	str.w	r0, [r1, #128]	; 0x80
  105aa0:	f3bf 8f4f 	dsb	sy
  105aa4:	f3bf 8f6f 	isb	sy
  105aa8:	4b07      	ldr	r3, [pc, #28]	; (105ac8 <fRtcHandler+0x30>)
  105aaa:	2203      	movs	r2, #3
  105aac:	619a      	str	r2, [r3, #24]
  105aae:	691a      	ldr	r2, [r3, #16]
  105ab0:	f022 020c 	bic.w	r2, r2, #12
  105ab4:	611a      	str	r2, [r3, #16]
  105ab6:	6008      	str	r0, [r1, #0]
  105ab8:	695a      	ldr	r2, [r3, #20]
  105aba:	f412 6fe0 	tst.w	r2, #1792	; 0x700
  105abe:	d1fb      	bne.n	105ab8 <fRtcHandler+0x20>
  105ac0:	f7fd b81c 	b.w	102afc <lp_ticker_irq_handler>
  105ac4:	e000e100 	.word	0xe000e100
  105ac8:	4000f000 	.word	0x4000f000

00105acc <fRtcInit>:
  105acc:	b530      	push	{r4, r5, lr}
  105ace:	4b17      	ldr	r3, [pc, #92]	; (105b2c <fRtcInit+0x60>)
  105ad0:	4917      	ldr	r1, [pc, #92]	; (105b30 <fRtcInit+0x64>)
  105ad2:	691a      	ldr	r2, [r3, #16]
  105ad4:	2400      	movs	r4, #0
  105ad6:	f422 4200 	bic.w	r2, r2, #32768	; 0x8000
  105ada:	611a      	str	r2, [r3, #16]
  105adc:	781a      	ldrb	r2, [r3, #0]
  105ade:	2500      	movs	r5, #0
  105ae0:	f042 0210 	orr.w	r2, r2, #16
  105ae4:	701a      	strb	r2, [r3, #0]
  105ae6:	f5a3 4340 	sub.w	r3, r3, #49152	; 0xc000
  105aea:	2200      	movs	r2, #0
  105aec:	611a      	str	r2, [r3, #16]
  105aee:	605a      	str	r2, [r3, #4]
  105af0:	601a      	str	r2, [r3, #0]
  105af2:	60da      	str	r2, [r3, #12]
  105af4:	609a      	str	r2, [r3, #8]
  105af6:	e9c1 4500 	strd	r4, r5, [r1]
  105afa:	615a      	str	r2, [r3, #20]
  105afc:	2203      	movs	r2, #3
  105afe:	619a      	str	r2, [r3, #24]
  105b00:	6959      	ldr	r1, [r3, #20]
  105b02:	4a0c      	ldr	r2, [pc, #48]	; (105b34 <fRtcInit+0x68>)
  105b04:	05c9      	lsls	r1, r1, #23
  105b06:	d4fb      	bmi.n	105b00 <fRtcInit+0x34>
  105b08:	6913      	ldr	r3, [r2, #16]
  105b0a:	490b      	ldr	r1, [pc, #44]	; (105b38 <fRtcInit+0x6c>)
  105b0c:	f043 0303 	orr.w	r3, r3, #3
  105b10:	6113      	str	r3, [r2, #16]
  105b12:	4b0a      	ldr	r3, [pc, #40]	; (105b3c <fRtcInit+0x70>)
  105b14:	689b      	ldr	r3, [r3, #8]
  105b16:	65d9      	str	r1, [r3, #92]	; 0x5c
  105b18:	4b09      	ldr	r3, [pc, #36]	; (105b40 <fRtcInit+0x74>)
  105b1a:	2180      	movs	r1, #128	; 0x80
  105b1c:	f8c3 1180 	str.w	r1, [r3, #384]	; 0x180
  105b20:	6019      	str	r1, [r3, #0]
  105b22:	6953      	ldr	r3, [r2, #20]
  105b24:	05db      	lsls	r3, r3, #23
  105b26:	d4fc      	bmi.n	105b22 <fRtcInit+0x56>
  105b28:	bd30      	pop	{r4, r5, pc}
  105b2a:	bf00      	nop
  105b2c:	4001b000 	.word	0x4001b000
  105b30:	3fff4ce8 	.word	0x3fff4ce8
  105b34:	4000f000 	.word	0x4000f000
  105b38:	00105a99 	.word	0x00105a99
  105b3c:	e000ed00 	.word	0xe000ed00
  105b40:	e000e100 	.word	0xe000e100

00105b44 <fRtcDisableInterrupt>:
  105b44:	4b04      	ldr	r3, [pc, #16]	; (105b58 <fRtcDisableInterrupt+0x14>)
  105b46:	2280      	movs	r2, #128	; 0x80
  105b48:	f8c3 2080 	str.w	r2, [r3, #128]	; 0x80
  105b4c:	f3bf 8f4f 	dsb	sy
  105b50:	f3bf 8f6f 	isb	sy
  105b54:	4770      	bx	lr
  105b56:	bf00      	nop
  105b58:	e000e100 	.word	0xe000e100

00105b5c <fRtcClearInterrupt>:
  105b5c:	4b03      	ldr	r3, [pc, #12]	; (105b6c <fRtcClearInterrupt+0x10>)
  105b5e:	2203      	movs	r2, #3
  105b60:	619a      	str	r2, [r3, #24]
  105b62:	695a      	ldr	r2, [r3, #20]
  105b64:	f412 6fc0 	tst.w	r2, #1536	; 0x600
  105b68:	d1fb      	bne.n	105b62 <fRtcClearInterrupt+0x6>
  105b6a:	4770      	bx	lr
  105b6c:	4000f000 	.word	0x4000f000

00105b70 <fRtcRead>:
  105b70:	b570      	push	{r4, r5, r6, lr}
  105b72:	4b13      	ldr	r3, [pc, #76]	; (105bc0 <fRtcRead+0x50>)
  105b74:	685c      	ldr	r4, [r3, #4]
  105b76:	681a      	ldr	r2, [r3, #0]
  105b78:	6859      	ldr	r1, [r3, #4]
  105b7a:	3a01      	subs	r2, #1
  105b7c:	428c      	cmp	r4, r1
  105b7e:	f3c2 020e 	ubfx	r2, r2, #0, #15
  105b82:	d1f7      	bne.n	105b74 <fRtcRead+0x4>
  105b84:	4d0f      	ldr	r5, [pc, #60]	; (105bc4 <fRtcRead+0x54>)
  105b86:	fba2 2305 	umull	r2, r3, r2, r5
  105b8a:	0bd0      	lsrs	r0, r2, #15
  105b8c:	ea40 4043 	orr.w	r0, r0, r3, lsl #17
  105b90:	0bd9      	lsrs	r1, r3, #15
  105b92:	fbe5 0104 	umlal	r0, r1, r5, r4
  105b96:	460d      	mov	r5, r1
  105b98:	4604      	mov	r4, r0
  105b9a:	4b0b      	ldr	r3, [pc, #44]	; (105bc8 <fRtcRead+0x58>)
  105b9c:	e9d3 0100 	ldrd	r0, r1, [r3]
  105ba0:	428d      	cmp	r5, r1
  105ba2:	bf08      	it	eq
  105ba4:	4284      	cmpeq	r4, r0
  105ba6:	461e      	mov	r6, r3
  105ba8:	d204      	bcs.n	105bb4 <fRtcRead+0x44>
  105baa:	22ee      	movs	r2, #238	; 0xee
  105bac:	4907      	ldr	r1, [pc, #28]	; (105bcc <fRtcRead+0x5c>)
  105bae:	4808      	ldr	r0, [pc, #32]	; (105bd0 <fRtcRead+0x60>)
  105bb0:	f7fd f8c4 	bl	102d3c <mbed_assert_internal>
  105bb4:	e9c6 4500 	strd	r4, r5, [r6]
  105bb8:	4620      	mov	r0, r4
  105bba:	4629      	mov	r1, r5
  105bbc:	bd70      	pop	{r4, r5, r6, pc}
  105bbe:	bf00      	nop
  105bc0:	4000f000 	.word	0x4000f000
  105bc4:	000f4240 	.word	0x000f4240
  105bc8:	3fff4ce8 	.word	0x3fff4ce8
  105bcc:	0010e1e4 	.word	0x0010e1e4
  105bd0:	0010e227 	.word	0x0010e227

00105bd4 <fRtcSetInterrupt>:
  105bd4:	b5f8      	push	{r3, r4, r5, r6, r7, lr}
  105bd6:	4606      	mov	r6, r0
  105bd8:	f7ff ffca 	bl	105b70 <fRtcRead>
  105bdc:	1a33      	subs	r3, r6, r0
  105bde:	2b00      	cmp	r3, #0
  105be0:	4f2b      	ldr	r7, [pc, #172]	; (105c90 <fRtcSetInterrupt+0xbc>)
  105be2:	dc03      	bgt.n	105bec <fRtcSetInterrupt+0x18>
  105be4:	2380      	movs	r3, #128	; 0x80
  105be6:	f8c7 3100 	str.w	r3, [r7, #256]	; 0x100
  105bea:	bdf8      	pop	{r3, r4, r5, r6, r7, pc}
  105bec:	42b0      	cmp	r0, r6
  105bee:	4634      	mov	r4, r6
  105bf0:	f04f 0500 	mov.w	r5, #0
  105bf4:	d902      	bls.n	105bfc <fRtcSetInterrupt+0x28>
  105bf6:	1c34      	adds	r4, r6, #0
  105bf8:	f145 0501 	adc.w	r5, r5, #1
  105bfc:	4a25      	ldr	r2, [pc, #148]	; (105c94 <fRtcSetInterrupt+0xc0>)
  105bfe:	2300      	movs	r3, #0
  105c00:	4620      	mov	r0, r4
  105c02:	4629      	mov	r1, r5
  105c04:	f002 f80a 	bl	107c1c <__aeabi_uldivmod>
  105c08:	2380      	movs	r3, #128	; 0x80
  105c0a:	f8c7 3080 	str.w	r3, [r7, #128]	; 0x80
  105c0e:	f3bf 8f4f 	dsb	sy
  105c12:	f3bf 8f6f 	isb	sy
  105c16:	4e20      	ldr	r6, [pc, #128]	; (105c98 <fRtcSetInterrupt+0xc4>)
  105c18:	6873      	ldr	r3, [r6, #4]
  105c1a:	4298      	cmp	r0, r3
  105c1c:	d007      	beq.n	105c2e <fRtcSetInterrupt+0x5a>
  105c1e:	60f0      	str	r0, [r6, #12]
  105c20:	6933      	ldr	r3, [r6, #16]
  105c22:	f023 0304 	bic.w	r3, r3, #4
  105c26:	f043 0308 	orr.w	r3, r3, #8
  105c2a:	6133      	str	r3, [r6, #16]
  105c2c:	e027      	b.n	105c7e <fRtcSetInterrupt+0xaa>
  105c2e:	2500      	movs	r5, #0
  105c30:	03e9      	lsls	r1, r5, #15
  105c32:	2300      	movs	r3, #0
  105c34:	4a17      	ldr	r2, [pc, #92]	; (105c94 <fRtcSetInterrupt+0xc0>)
  105c36:	03e0      	lsls	r0, r4, #15
  105c38:	ea41 4154 	orr.w	r1, r1, r4, lsr #17
  105c3c:	f001 ffee 	bl	107c1c <__aeabi_uldivmod>
  105c40:	6833      	ldr	r3, [r6, #0]
  105c42:	f3c0 000e 	ubfx	r0, r0, #0, #15
  105c46:	b29b      	uxth	r3, r3
  105c48:	4283      	cmp	r3, r0
  105c4a:	d00b      	beq.n	105c64 <fRtcSetInterrupt+0x90>
  105c4c:	d202      	bcs.n	105c54 <fRtcSetInterrupt+0x80>
  105c4e:	1ac2      	subs	r2, r0, r3
  105c50:	2a04      	cmp	r2, #4
  105c52:	dd07      	ble.n	105c64 <fRtcSetInterrupt+0x90>
  105c54:	4283      	cmp	r3, r0
  105c56:	d90a      	bls.n	105c6e <fRtcSetInterrupt+0x9a>
  105c58:	1a1b      	subs	r3, r3, r0
  105c5a:	f5c3 43ff 	rsb	r3, r3, #32640	; 0x7f80
  105c5e:	337f      	adds	r3, #127	; 0x7f
  105c60:	2b04      	cmp	r3, #4
  105c62:	dc04      	bgt.n	105c6e <fRtcSetInterrupt+0x9a>
  105c64:	4b0a      	ldr	r3, [pc, #40]	; (105c90 <fRtcSetInterrupt+0xbc>)
  105c66:	2280      	movs	r2, #128	; 0x80
  105c68:	f8c3 2100 	str.w	r2, [r3, #256]	; 0x100
  105c6c:	e007      	b.n	105c7e <fRtcSetInterrupt+0xaa>
  105c6e:	4a0a      	ldr	r2, [pc, #40]	; (105c98 <fRtcSetInterrupt+0xc4>)
  105c70:	6090      	str	r0, [r2, #8]
  105c72:	6913      	ldr	r3, [r2, #16]
  105c74:	f023 0308 	bic.w	r3, r3, #8
  105c78:	f043 0304 	orr.w	r3, r3, #4
  105c7c:	6113      	str	r3, [r2, #16]
  105c7e:	4b04      	ldr	r3, [pc, #16]	; (105c90 <fRtcSetInterrupt+0xbc>)
  105c80:	2280      	movs	r2, #128	; 0x80
  105c82:	601a      	str	r2, [r3, #0]
  105c84:	4a04      	ldr	r2, [pc, #16]	; (105c98 <fRtcSetInterrupt+0xc4>)
  105c86:	6953      	ldr	r3, [r2, #20]
  105c88:	f413 7fe0 	tst.w	r3, #448	; 0x1c0
  105c8c:	d1fb      	bne.n	105c86 <fRtcSetInterrupt+0xb2>
  105c8e:	bdf8      	pop	{r3, r4, r5, r6, r7, pc}
  105c90:	e000e100 	.word	0xe000e100
  105c94:	000f4240 	.word	0x000f4240
  105c98:	4000f000 	.word	0x4000f000

00105c9c <uart_irq>:
  105c9c:	4b0c      	ldr	r3, [pc, #48]	; (105cd0 <uart_irq+0x34>)
  105c9e:	b570      	push	{r4, r5, r6, lr}
  105ca0:	4606      	mov	r6, r0
  105ca2:	f853 0021 	ldr.w	r0, [r3, r1, lsl #2]
  105ca6:	460d      	mov	r5, r1
  105ca8:	461c      	mov	r4, r3
  105caa:	b178      	cbz	r0, 105ccc <uart_irq+0x30>
  105cac:	0672      	lsls	r2, r6, #25
  105cae:	d503      	bpl.n	105cb8 <uart_irq+0x1c>
  105cb0:	4b08      	ldr	r3, [pc, #32]	; (105cd4 <uart_irq+0x38>)
  105cb2:	2101      	movs	r1, #1
  105cb4:	681b      	ldr	r3, [r3, #0]
  105cb6:	4798      	blx	r3
  105cb8:	07f3      	lsls	r3, r6, #31
  105cba:	d507      	bpl.n	105ccc <uart_irq+0x30>
  105cbc:	4b05      	ldr	r3, [pc, #20]	; (105cd4 <uart_irq+0x38>)
  105cbe:	f854 0025 	ldr.w	r0, [r4, r5, lsl #2]
  105cc2:	681b      	ldr	r3, [r3, #0]
  105cc4:	2100      	movs	r1, #0
  105cc6:	e8bd 4070 	ldmia.w	sp!, {r4, r5, r6, lr}
  105cca:	4718      	bx	r3
  105ccc:	bd70      	pop	{r4, r5, r6, pc}
  105cce:	bf00      	nop
  105cd0:	3fff4cf0 	.word	0x3fff4cf0
  105cd4:	3fff4cf8 	.word	0x3fff4cf8

00105cd8 <Uart1_Irq>:
  105cd8:	b410      	push	{r4}
  105cda:	490a      	ldr	r1, [pc, #40]	; (105d04 <Uart1_Irq+0x2c>)
  105cdc:	694a      	ldr	r2, [r1, #20]
  105cde:	684b      	ldr	r3, [r1, #4]
  105ce0:	b2d4      	uxtb	r4, r2
  105ce2:	f013 0002 	ands.w	r0, r3, #2
  105ce6:	684b      	ldr	r3, [r1, #4]
  105ce8:	bf1c      	itt	ne
  105cea:	f002 0040 	andne.w	r0, r2, #64	; 0x40
  105cee:	b2c0      	uxtbne	r0, r0
  105cf0:	07db      	lsls	r3, r3, #31
  105cf2:	bf44      	itt	mi
  105cf4:	f002 0201 	andmi.w	r2, r2, #1
  105cf8:	4310      	orrmi	r0, r2
  105cfa:	4020      	ands	r0, r4
  105cfc:	2100      	movs	r1, #0
  105cfe:	bc10      	pop	{r4}
  105d00:	f7ff bfcc 	b.w	105c9c <uart_irq>
  105d04:	40005000 	.word	0x40005000

00105d08 <Uart2_Irq>:
  105d08:	b410      	push	{r4}
  105d0a:	490a      	ldr	r1, [pc, #40]	; (105d34 <Uart2_Irq+0x2c>)
  105d0c:	694a      	ldr	r2, [r1, #20]
  105d0e:	684b      	ldr	r3, [r1, #4]
  105d10:	b2d4      	uxtb	r4, r2
  105d12:	f013 0002 	ands.w	r0, r3, #2
  105d16:	684b      	ldr	r3, [r1, #4]
  105d18:	bf1c      	itt	ne
  105d1a:	f002 0040 	andne.w	r0, r2, #64	; 0x40
  105d1e:	b2c0      	uxtbne	r0, r0
  105d20:	07db      	lsls	r3, r3, #31
  105d22:	bf44      	itt	mi
  105d24:	f002 0201 	andmi.w	r2, r2, #1
  105d28:	4310      	orrmi	r0, r2
  105d2a:	4020      	ands	r0, r4
  105d2c:	2101      	movs	r1, #1
  105d2e:	bc10      	pop	{r4}
  105d30:	f7ff bfb4 	b.w	105c9c <uart_irq>
  105d34:	40008000 	.word	0x40008000

00105d38 <serial_init>:
  105d38:	e92d 41f0 	stmdb	sp!, {r4, r5, r6, r7, r8, lr}
  105d3c:	4688      	mov	r8, r1
  105d3e:	4604      	mov	r4, r0
  105d40:	4956      	ldr	r1, [pc, #344]	; (105e9c <serial_init+0x164>)
  105d42:	4640      	mov	r0, r8
  105d44:	4615      	mov	r5, r2
  105d46:	f7fc ff1b 	bl	102b80 <pinmap_peripheral>
  105d4a:	4955      	ldr	r1, [pc, #340]	; (105ea0 <serial_init+0x168>)
  105d4c:	4606      	mov	r6, r0
  105d4e:	4628      	mov	r0, r5
  105d50:	f7fc ff16 	bl	102b80 <pinmap_peripheral>
  105d54:	4601      	mov	r1, r0
  105d56:	4630      	mov	r0, r6
  105d58:	f7fc fef4 	bl	102b44 <pinmap_merge>
  105d5c:	6020      	str	r0, [r4, #0]
  105d5e:	3001      	adds	r0, #1
  105d60:	d104      	bne.n	105d6c <serial_init+0x34>
  105d62:	2250      	movs	r2, #80	; 0x50
  105d64:	494f      	ldr	r1, [pc, #316]	; (105ea4 <serial_init+0x16c>)
  105d66:	4850      	ldr	r0, [pc, #320]	; (105ea8 <serial_init+0x170>)
  105d68:	f7fc ffe8 	bl	102d3c <mbed_assert_internal>
  105d6c:	494b      	ldr	r1, [pc, #300]	; (105e9c <serial_init+0x164>)
  105d6e:	4640      	mov	r0, r8
  105d70:	f7fc feca 	bl	102b08 <pinmap_pinout>
  105d74:	494a      	ldr	r1, [pc, #296]	; (105ea0 <serial_init+0x168>)
  105d76:	4628      	mov	r0, r5
  105d78:	f7fc fec6 	bl	102b08 <pinmap_pinout>
  105d7c:	6822      	ldr	r2, [r4, #0]
  105d7e:	4b4b      	ldr	r3, [pc, #300]	; (105eac <serial_init+0x174>)
  105d80:	429a      	cmp	r2, r3
  105d82:	d108      	bne.n	105d96 <serial_init+0x5e>
  105d84:	4b4a      	ldr	r3, [pc, #296]	; (105eb0 <serial_init+0x178>)
  105d86:	2201      	movs	r2, #1
  105d88:	601a      	str	r2, [r3, #0]
  105d8a:	6820      	ldr	r0, [r4, #0]
  105d8c:	6861      	ldr	r1, [r4, #4]
  105d8e:	4b49      	ldr	r3, [pc, #292]	; (105eb4 <serial_init+0x17c>)
  105d90:	c303      	stmia	r3!, {r0, r1}
  105d92:	68a0      	ldr	r0, [r4, #8]
  105d94:	6018      	str	r0, [r3, #0]
  105d96:	4b45      	ldr	r3, [pc, #276]	; (105eac <serial_init+0x174>)
  105d98:	6822      	ldr	r2, [r4, #0]
  105d9a:	4e47      	ldr	r6, [pc, #284]	; (105eb8 <serial_init+0x180>)
  105d9c:	429a      	cmp	r2, r3
  105d9e:	f503 3398 	add.w	r3, r3, #77824	; 0x13000
  105da2:	d105      	bne.n	105db0 <serial_init+0x78>
  105da4:	691a      	ldr	r2, [r3, #16]
  105da6:	f422 7280 	bic.w	r2, r2, #256	; 0x100
  105daa:	611a      	str	r2, [r3, #16]
  105dac:	230d      	movs	r3, #13
  105dae:	e007      	b.n	105dc0 <serial_init+0x88>
  105db0:	4942      	ldr	r1, [pc, #264]	; (105ebc <serial_init+0x184>)
  105db2:	428a      	cmp	r2, r1
  105db4:	d106      	bne.n	105dc4 <serial_init+0x8c>
  105db6:	691a      	ldr	r2, [r3, #16]
  105db8:	f022 0220 	bic.w	r2, r2, #32
  105dbc:	611a      	str	r2, [r3, #16]
  105dbe:	2303      	movs	r3, #3
  105dc0:	7033      	strb	r3, [r6, #0]
  105dc2:	e004      	b.n	105dce <serial_init+0x96>
  105dc4:	226f      	movs	r2, #111	; 0x6f
  105dc6:	4937      	ldr	r1, [pc, #220]	; (105ea4 <serial_init+0x16c>)
  105dc8:	483d      	ldr	r0, [pc, #244]	; (105ec0 <serial_init+0x188>)
  105dca:	f7fc ffb7 	bl	102d3c <mbed_assert_internal>
  105dce:	4b3d      	ldr	r3, [pc, #244]	; (105ec4 <serial_init+0x18c>)
  105dd0:	ea4f 0188 	mov.w	r1, r8, lsl #2
  105dd4:	691a      	ldr	r2, [r3, #16]
  105dd6:	f101 4180 	add.w	r1, r1, #1073741824	; 0x40000000
  105dda:	f422 5280 	bic.w	r2, r2, #4096	; 0x1000
  105dde:	611a      	str	r2, [r3, #16]
  105de0:	691a      	ldr	r2, [r3, #16]
  105de2:	2007      	movs	r0, #7
  105de4:	f422 3280 	bic.w	r2, r2, #65536	; 0x10000
  105de8:	611a      	str	r2, [r3, #16]
  105dea:	691a      	ldr	r2, [r3, #16]
  105dec:	f022 5280 	bic.w	r2, r2, #268435456	; 0x10000000
  105df0:	611a      	str	r2, [r3, #16]
  105df2:	f501 3280 	add.w	r2, r1, #65536	; 0x10000
  105df6:	6010      	str	r0, [r2, #0]
  105df8:	00aa      	lsls	r2, r5, #2
  105dfa:	f102 4280 	add.w	r2, r2, #1073741824	; 0x40000000
  105dfe:	f502 3780 	add.w	r7, r2, #65536	; 0x10000
  105e02:	f501 31e0 	add.w	r1, r1, #114688	; 0x1c000
  105e06:	6038      	str	r0, [r7, #0]
  105e08:	f502 32e0 	add.w	r2, r2, #114688	; 0x1c000
  105e0c:	6008      	str	r0, [r1, #0]
  105e0e:	2127      	movs	r1, #39	; 0x27
  105e10:	6011      	str	r1, [r2, #0]
  105e12:	2701      	movs	r7, #1
  105e14:	492c      	ldr	r1, [pc, #176]	; (105ec8 <serial_init+0x190>)
  105e16:	fa07 f208 	lsl.w	r2, r7, r8
  105e1a:	fa07 f505 	lsl.w	r5, r7, r5
  105e1e:	608a      	str	r2, [r1, #8]
  105e20:	60cd      	str	r5, [r1, #12]
  105e22:	691a      	ldr	r2, [r3, #16]
  105e24:	f042 5280 	orr.w	r2, r2, #268435456	; 0x10000000
  105e28:	611a      	str	r2, [r3, #16]
  105e2a:	691a      	ldr	r2, [r3, #16]
  105e2c:	f442 3280 	orr.w	r2, r2, #65536	; 0x10000
  105e30:	611a      	str	r2, [r3, #16]
  105e32:	691a      	ldr	r2, [r3, #16]
  105e34:	f442 5280 	orr.w	r2, r2, #4096	; 0x1000
  105e38:	611a      	str	r2, [r3, #16]
  105e3a:	f7ff fd99 	bl	105970 <fClockGetPeriphClockfrequency>
  105e3e:	f44f 5316 	mov.w	r3, #9600	; 0x2580
  105e42:	fbb0 f0f3 	udiv	r0, r0, r3
  105e46:	6823      	ldr	r3, [r4, #0]
  105e48:	0900      	lsrs	r0, r0, #4
  105e4a:	2280      	movs	r2, #128	; 0x80
  105e4c:	60da      	str	r2, [r3, #12]
  105e4e:	b2c2      	uxtb	r2, r0
  105e50:	601a      	str	r2, [r3, #0]
  105e52:	f3c0 2007 	ubfx	r0, r0, #8, #8
  105e56:	2203      	movs	r2, #3
  105e58:	6058      	str	r0, [r3, #4]
  105e5a:	60da      	str	r2, [r3, #12]
  105e5c:	228f      	movs	r2, #143	; 0x8f
  105e5e:	609a      	str	r2, [r3, #8]
  105e60:	699a      	ldr	r2, [r3, #24]
  105e62:	61da      	str	r2, [r3, #28]
  105e64:	4a11      	ldr	r2, [pc, #68]	; (105eac <serial_init+0x174>)
  105e66:	4293      	cmp	r3, r2
  105e68:	d107      	bne.n	105e7a <serial_init+0x142>
  105e6a:	4b11      	ldr	r3, [pc, #68]	; (105eb0 <serial_init+0x178>)
  105e6c:	6861      	ldr	r1, [r4, #4]
  105e6e:	601f      	str	r7, [r3, #0]
  105e70:	6820      	ldr	r0, [r4, #0]
  105e72:	4b10      	ldr	r3, [pc, #64]	; (105eb4 <serial_init+0x17c>)
  105e74:	c303      	stmia	r3!, {r0, r1}
  105e76:	68a0      	ldr	r0, [r4, #8]
  105e78:	6018      	str	r0, [r3, #0]
  105e7a:	7832      	ldrb	r2, [r6, #0]
  105e7c:	b253      	sxtb	r3, r2
  105e7e:	2b00      	cmp	r3, #0
  105e80:	db09      	blt.n	105e96 <serial_init+0x15e>
  105e82:	2101      	movs	r1, #1
  105e84:	f002 021f 	and.w	r2, r2, #31
  105e88:	fa01 f202 	lsl.w	r2, r1, r2
  105e8c:	095b      	lsrs	r3, r3, #5
  105e8e:	490f      	ldr	r1, [pc, #60]	; (105ecc <serial_init+0x194>)
  105e90:	3360      	adds	r3, #96	; 0x60
  105e92:	f841 2023 	str.w	r2, [r1, r3, lsl #2]
  105e96:	e8bd 81f0 	ldmia.w	sp!, {r4, r5, r6, r7, r8, pc}
  105e9a:	bf00      	nop
  105e9c:	0010e10c 	.word	0x0010e10c
  105ea0:	0010e094 	.word	0x0010e094
  105ea4:	0010e246 	.word	0x0010e246
  105ea8:	0010e290 	.word	0x0010e290
  105eac:	40008000 	.word	0x40008000
  105eb0:	3fff4d00 	.word	0x3fff4d00
  105eb4:	3fff60e4 	.word	0x3fff60e4
  105eb8:	3fff4cfc 	.word	0x3fff4cfc
  105ebc:	40005000 	.word	0x40005000
  105ec0:	0010e2b6 	.word	0x0010e2b6
  105ec4:	4001b000 	.word	0x4001b000
  105ec8:	4000c000 	.word	0x4000c000
  105ecc:	e000e100 	.word	0xe000e100

00105ed0 <serial_baud>:
  105ed0:	b538      	push	{r3, r4, r5, lr}
  105ed2:	4605      	mov	r5, r0
  105ed4:	460c      	mov	r4, r1
  105ed6:	f7ff fd4b 	bl	105970 <fClockGetPeriphClockfrequency>
  105eda:	fbb0 f0f4 	udiv	r0, r0, r4
  105ede:	682b      	ldr	r3, [r5, #0]
  105ee0:	0900      	lsrs	r0, r0, #4
  105ee2:	7b1a      	ldrb	r2, [r3, #12]
  105ee4:	f042 0280 	orr.w	r2, r2, #128	; 0x80
  105ee8:	731a      	strb	r2, [r3, #12]
  105eea:	b2c2      	uxtb	r2, r0
  105eec:	f3c0 2007 	ubfx	r0, r0, #8, #8
  105ef0:	601a      	str	r2, [r3, #0]
  105ef2:	6058      	str	r0, [r3, #4]
  105ef4:	7b1a      	ldrb	r2, [r3, #12]
  105ef6:	f36f 12c7 	bfc	r2, #7, #1
  105efa:	731a      	strb	r2, [r3, #12]
  105efc:	bd38      	pop	{r3, r4, r5, pc}
	...

00105f00 <serial_irq_handler>:
  105f00:	4b03      	ldr	r3, [pc, #12]	; (105f10 <serial_irq_handler+0x10>)
  105f02:	6019      	str	r1, [r3, #0]
  105f04:	6881      	ldr	r1, [r0, #8]
  105f06:	4b03      	ldr	r3, [pc, #12]	; (105f14 <serial_irq_handler+0x14>)
  105f08:	f843 2021 	str.w	r2, [r3, r1, lsl #2]
  105f0c:	4770      	bx	lr
  105f0e:	bf00      	nop
  105f10:	3fff4cf8 	.word	0x3fff4cf8
  105f14:	3fff4cf0 	.word	0x3fff4cf0

00105f18 <serial_getc>:
  105f18:	6803      	ldr	r3, [r0, #0]
  105f1a:	695a      	ldr	r2, [r3, #20]
  105f1c:	07d2      	lsls	r2, r2, #31
  105f1e:	d5fc      	bpl.n	105f1a <serial_getc+0x2>
  105f20:	6818      	ldr	r0, [r3, #0]
  105f22:	b2c0      	uxtb	r0, r0
  105f24:	4770      	bx	lr

00105f26 <serial_putc>:
  105f26:	6803      	ldr	r3, [r0, #0]
  105f28:	695a      	ldr	r2, [r3, #20]
  105f2a:	0692      	lsls	r2, r2, #26
  105f2c:	d5fc      	bpl.n	105f28 <serial_putc+0x2>
  105f2e:	6019      	str	r1, [r3, #0]
  105f30:	4770      	bx	lr

00105f32 <serial_readable>:
  105f32:	6803      	ldr	r3, [r0, #0]
  105f34:	6958      	ldr	r0, [r3, #20]
  105f36:	f000 0001 	and.w	r0, r0, #1
  105f3a:	4770      	bx	lr

00105f3c <fncs36510_sleep>:
  105f3c:	4a06      	ldr	r2, [pc, #24]	; (105f58 <fncs36510_sleep+0x1c>)
  105f3e:	6913      	ldr	r3, [r2, #16]
  105f40:	f023 0304 	bic.w	r3, r3, #4
  105f44:	6113      	str	r3, [r2, #16]
  105f46:	4b05      	ldr	r3, [pc, #20]	; (105f5c <fncs36510_sleep+0x20>)
  105f48:	881a      	ldrh	r2, [r3, #0]
  105f4a:	f36f 0200 	bfc	r2, #0, #1
  105f4e:	801a      	strh	r2, [r3, #0]
  105f50:	f3bf 8f6f 	isb	sy
  105f54:	bf30      	wfi
  105f56:	4770      	bx	lr
  105f58:	e000ed00 	.word	0xe000ed00
  105f5c:	4001d000 	.word	0x4001d000

00105f60 <hal_sleep>:
  105f60:	f7ff bfec 	b.w	105f3c <fncs36510_sleep>

00105f64 <spi_init>:
  105f64:	b410      	push	{r4}
  105f66:	f99d 4004 	ldrsb.w	r4, [sp, #4]
  105f6a:	9401      	str	r4, [sp, #4]
  105f6c:	bc10      	pop	{r4}
  105f6e:	f7ff ba27 	b.w	1053c0 <fSpiInit>
	...

00105f74 <spi_format>:
  105f74:	b570      	push	{r4, r5, r6, lr}
  105f76:	4616      	mov	r6, r2
  105f78:	6802      	ldr	r2, [r0, #0]
  105f7a:	4605      	mov	r5, r0
  105f7c:	7b13      	ldrb	r3, [r2, #12]
  105f7e:	460c      	mov	r4, r1
  105f80:	f36f 0300 	bfc	r3, #0, #1
  105f84:	7313      	strb	r3, [r2, #12]
  105f86:	f1a1 0208 	sub.w	r2, r1, #8
  105f8a:	2a18      	cmp	r2, #24
  105f8c:	d805      	bhi.n	105f9a <spi_format+0x26>
  105f8e:	4b21      	ldr	r3, [pc, #132]	; (106014 <spi_format+0xa0>)
  105f90:	40d3      	lsrs	r3, r2
  105f92:	07db      	lsls	r3, r3, #31
  105f94:	d501      	bpl.n	105f9a <spi_format+0x26>
  105f96:	2e03      	cmp	r6, #3
  105f98:	d904      	bls.n	105fa4 <spi_format+0x30>
  105f9a:	225e      	movs	r2, #94	; 0x5e
  105f9c:	491e      	ldr	r1, [pc, #120]	; (106018 <spi_format+0xa4>)
  105f9e:	481f      	ldr	r0, [pc, #124]	; (10601c <spi_format+0xa8>)
  105fa0:	f7fc fecc 	bl	102d3c <mbed_assert_internal>
  105fa4:	2c10      	cmp	r4, #16
  105fa6:	d005      	beq.n	105fb4 <spi_format+0x40>
  105fa8:	2c20      	cmp	r4, #32
  105faa:	d005      	beq.n	105fb8 <spi_format+0x44>
  105fac:	2c08      	cmp	r4, #8
  105fae:	bf08      	it	eq
  105fb0:	2400      	moveq	r4, #0
  105fb2:	e002      	b.n	105fba <spi_format+0x46>
  105fb4:	2401      	movs	r4, #1
  105fb6:	e000      	b.n	105fba <spi_format+0x46>
  105fb8:	2402      	movs	r4, #2
  105fba:	682a      	ldr	r2, [r5, #0]
  105fbc:	7b13      	ldrb	r3, [r2, #12]
  105fbe:	f364 1387 	bfi	r3, r4, #6, #2
  105fc2:	7313      	strb	r3, [r2, #12]
  105fc4:	682a      	ldr	r2, [r5, #0]
  105fc6:	7b13      	ldrb	r3, [r2, #12]
  105fc8:	f043 0320 	orr.w	r3, r3, #32
  105fcc:	7313      	strb	r3, [r2, #12]
  105fce:	1e72      	subs	r2, r6, #1
  105fd0:	2a02      	cmp	r2, #2
  105fd2:	bf86      	itte	hi
  105fd4:	2200      	movhi	r2, #0
  105fd6:	4610      	movhi	r0, r2
  105fd8:	4b11      	ldrls	r3, [pc, #68]	; (106020 <spi_format+0xac>)
  105fda:	6829      	ldr	r1, [r5, #0]
  105fdc:	bf9e      	ittt	ls
  105fde:	5698      	ldrsbls	r0, [r3, r2]
  105fe0:	4b10      	ldrls	r3, [pc, #64]	; (106024 <spi_format+0xb0>)
  105fe2:	569a      	ldrsbls	r2, [r3, r2]
  105fe4:	7b0b      	ldrb	r3, [r1, #12]
  105fe6:	f360 1304 	bfi	r3, r0, #4, #1
  105fea:	730b      	strb	r3, [r1, #12]
  105fec:	6829      	ldr	r1, [r5, #0]
  105fee:	7b0b      	ldrb	r3, [r1, #12]
  105ff0:	f362 03c3 	bfi	r3, r2, #3, #1
  105ff4:	730b      	strb	r3, [r1, #12]
  105ff6:	682a      	ldr	r2, [r5, #0]
  105ff8:	7b13      	ldrb	r3, [r2, #12]
  105ffa:	f043 0304 	orr.w	r3, r3, #4
  105ffe:	7313      	strb	r3, [r2, #12]
  106000:	682b      	ldr	r3, [r5, #0]
  106002:	7b1a      	ldrb	r2, [r3, #12]
  106004:	f042 0202 	orr.w	r2, r2, #2
  106008:	731a      	strb	r2, [r3, #12]
  10600a:	7b1a      	ldrb	r2, [r3, #12]
  10600c:	f042 0201 	orr.w	r2, r2, #1
  106010:	731a      	strb	r2, [r3, #12]
  106012:	bd70      	pop	{r4, r5, r6, pc}
  106014:	01000101 	.word	0x01000101
  106018:	0010e2bc 	.word	0x0010e2bc
  10601c:	0010e303 	.word	0x0010e303
  106020:	0010e36e 	.word	0x0010e36e
  106024:	0010e371 	.word	0x0010e371

00106028 <spi_frequency>:
  106028:	b538      	push	{r3, r4, r5, lr}
  10602a:	460d      	mov	r5, r1
  10602c:	6804      	ldr	r4, [r0, #0]
  10602e:	f7ff fc9f 	bl	105970 <fClockGetPeriphClockfrequency>
  106032:	4b05      	ldr	r3, [pc, #20]	; (106048 <spi_frequency+0x20>)
  106034:	4629      	mov	r1, r5
  106036:	429d      	cmp	r5, r3
  106038:	bfa8      	it	ge
  10603a:	4619      	movge	r1, r3
  10603c:	fbb0 f0f1 	udiv	r0, r0, r1
  106040:	0841      	lsrs	r1, r0, #1
  106042:	3901      	subs	r1, #1
  106044:	60a1      	str	r1, [r4, #8]
  106046:	bd38      	pop	{r3, r4, r5, pc}
  106048:	003d0900 	.word	0x003d0900

0010604c <spi_master_write>:
  10604c:	6803      	ldr	r3, [r0, #0]
  10604e:	691a      	ldr	r2, [r3, #16]
  106050:	0750      	lsls	r0, r2, #29
  106052:	d5fc      	bpl.n	10604e <spi_master_write+0x2>
  106054:	6019      	str	r1, [r3, #0]
  106056:	691a      	ldr	r2, [r3, #16]
  106058:	07d1      	lsls	r1, r2, #31
  10605a:	d4fc      	bmi.n	106056 <spi_master_write+0xa>
  10605c:	691a      	ldr	r2, [r3, #16]
  10605e:	0692      	lsls	r2, r2, #26
  106060:	d4fc      	bmi.n	10605c <spi_master_write+0x10>
  106062:	6858      	ldr	r0, [r3, #4]
  106064:	4770      	bx	lr

00106066 <spi_master_block_write>:
  106066:	e92d 47f0 	stmdb	sp!, {r4, r5, r6, r7, r8, r9, r10, lr}
  10606a:	9f08      	ldr	r7, [sp, #32]
  10606c:	4680      	mov	r8, r0
  10606e:	4297      	cmp	r7, r2
  106070:	463d      	mov	r5, r7
  106072:	4689      	mov	r9, r1
  106074:	4616      	mov	r6, r2
  106076:	469a      	mov	r10, r3
  106078:	bfb8      	it	lt
  10607a:	4615      	movlt	r5, r2
  10607c:	2400      	movs	r4, #0
  10607e:	42ac      	cmp	r4, r5
  106080:	da0d      	bge.n	10609e <spi_master_block_write+0x38>
  106082:	42b4      	cmp	r4, r6
  106084:	bfb4      	ite	lt
  106086:	f819 1004 	ldrblt.w	r1, [r9, r4]
  10608a:	21ff      	movge	r1, #255	; 0xff
  10608c:	4640      	mov	r0, r8
  10608e:	f7ff ffdd 	bl	10604c <spi_master_write>
  106092:	42bc      	cmp	r4, r7
  106094:	bfb8      	it	lt
  106096:	f80a 0004 	strblt.w	r0, [r10, r4]
  10609a:	3401      	adds	r4, #1
  10609c:	e7ef      	b.n	10607e <spi_master_block_write+0x18>
  10609e:	4628      	mov	r0, r5
  1060a0:	e8bd 87f0 	ldmia.w	sp!, {r4, r5, r6, r7, r8, r9, r10, pc}

001060a4 <SystemInit>:
  1060a4:	4a02      	ldr	r2, [pc, #8]	; (1060b0 <SystemInit+0xc>)
  1060a6:	4b03      	ldr	r3, [pc, #12]	; (1060b4 <SystemInit+0x10>)
  1060a8:	601a      	str	r2, [r3, #0]
  1060aa:	f7ff bc65 	b.w	105978 <fNcs36510Init>
  1060ae:	bf00      	nop
  1060b0:	01e84800 	.word	0x01e84800
  1060b4:	3fff4158 	.word	0x3fff4158

001060b8 <mbed::I2C::~I2C()>:
  1060b8:	4770      	bx	lr

001060ba <mbed::I2C::~I2C()>:
  1060ba:	b510      	push	{r4, lr}
  1060bc:	4604      	mov	r4, r0
  1060be:	f000 fe2f 	bl	106d20 <operator delete(void*)>
  1060c2:	4620      	mov	r0, r4
  1060c4:	bd10      	pop	{r4, pc}
	...

001060c8 <mbed::I2C::I2C(PinName, PinName)>:
  1060c8:	b5f8      	push	{r3, r4, r5, r6, r7, lr}
  1060ca:	4605      	mov	r5, r0
  1060cc:	4604      	mov	r4, r0
  1060ce:	460e      	mov	r6, r1
  1060d0:	4617      	mov	r7, r2
  1060d2:	4b09      	ldr	r3, [pc, #36]	; (1060f8 <mbed::I2C::I2C(PinName, PinName)+0x30>)
  1060d4:	2214      	movs	r2, #20
  1060d6:	f845 3b04 	str.w	r3, [r5], #4
  1060da:	2100      	movs	r1, #0
  1060dc:	4628      	mov	r0, r5
  1060de:	f002 fd1f 	bl	108b20 <memset>
  1060e2:	4b06      	ldr	r3, [pc, #24]	; (1060fc <mbed::I2C::I2C(PinName, PinName)+0x34>)
  1060e4:	4628      	mov	r0, r5
  1060e6:	61a3      	str	r3, [r4, #24]
  1060e8:	463a      	mov	r2, r7
  1060ea:	4631      	mov	r1, r6
  1060ec:	f7fe ff5c 	bl	104fa8 <i2c_init>
  1060f0:	4b03      	ldr	r3, [pc, #12]	; (106100 <mbed::I2C::I2C(PinName, PinName)+0x38>)
  1060f2:	4620      	mov	r0, r4
  1060f4:	601c      	str	r4, [r3, #0]
  1060f6:	bdf8      	pop	{r3, r4, r5, r6, r7, pc}
  1060f8:	0010e37c 	.word	0x0010e37c
  1060fc:	000186a0 	.word	0x000186a0
  106100:	3fff4d04 	.word	0x3fff4d04

00106104 <mbed::I2C::frequency(int)>:
  106104:	b570      	push	{r4, r5, r6, lr}
  106106:	4604      	mov	r4, r0
  106108:	460d      	mov	r5, r1
  10610a:	6803      	ldr	r3, [r0, #0]
  10610c:	681b      	ldr	r3, [r3, #0]
  10610e:	4798      	blx	r3
  106110:	1d20      	adds	r0, r4, #4
  106112:	61a5      	str	r5, [r4, #24]
  106114:	4629      	mov	r1, r5
  106116:	f7fe ff49 	bl	104fac <i2c_frequency>
  10611a:	4b04      	ldr	r3, [pc, #16]	; (10612c <mbed::I2C::frequency(int)+0x28>)
  10611c:	4620      	mov	r0, r4
  10611e:	601c      	str	r4, [r3, #0]
  106120:	6823      	ldr	r3, [r4, #0]
  106122:	e8bd 4070 	ldmia.w	sp!, {r4, r5, r6, lr}
  106126:	685b      	ldr	r3, [r3, #4]
  106128:	4718      	bx	r3
  10612a:	bf00      	nop
  10612c:	3fff4d04 	.word	0x3fff4d04

00106130 <mbed::I2C::aquire()>:
  106130:	b570      	push	{r4, r5, r6, lr}
  106132:	4604      	mov	r4, r0
  106134:	6803      	ldr	r3, [r0, #0]
  106136:	4d08      	ldr	r5, [pc, #32]	; (106158 <mbed::I2C::aquire()+0x28>)
  106138:	681b      	ldr	r3, [r3, #0]
  10613a:	4798      	blx	r3
  10613c:	682b      	ldr	r3, [r5, #0]
  10613e:	429c      	cmp	r4, r3
  106140:	d004      	beq.n	10614c <mbed::I2C::aquire()+0x1c>
  106142:	69a1      	ldr	r1, [r4, #24]
  106144:	1d20      	adds	r0, r4, #4
  106146:	f7fe ff31 	bl	104fac <i2c_frequency>
  10614a:	602c      	str	r4, [r5, #0]
  10614c:	6823      	ldr	r3, [r4, #0]
  10614e:	4620      	mov	r0, r4
  106150:	e8bd 4070 	ldmia.w	sp!, {r4, r5, r6, lr}
  106154:	685b      	ldr	r3, [r3, #4]
  106156:	4718      	bx	r3
  106158:	3fff4d04 	.word	0x3fff4d04

0010615c <mbed::I2C::write(int, char const*, int, bool)>:
  10615c:	b5f7      	push	{r0, r1, r2, r4, r5, r6, r7, lr}
  10615e:	4604      	mov	r4, r0
  106160:	460e      	mov	r6, r1
  106162:	4617      	mov	r7, r2
  106164:	461d      	mov	r5, r3
  106166:	6803      	ldr	r3, [r0, #0]
  106168:	681b      	ldr	r3, [r3, #0]
  10616a:	4798      	blx	r3
  10616c:	4620      	mov	r0, r4
  10616e:	f7ff ffdf 	bl	106130 <mbed::I2C::aquire()>
  106172:	f89d 3020 	ldrb.w	r3, [sp, #32]
  106176:	4631      	mov	r1, r6
  106178:	f083 0301 	eor.w	r3, r3, #1
  10617c:	9300      	str	r3, [sp, #0]
  10617e:	463a      	mov	r2, r7
  106180:	462b      	mov	r3, r5
  106182:	1d20      	adds	r0, r4, #4
  106184:	f7fe ff66 	bl	105054 <i2c_write>
  106188:	6823      	ldr	r3, [r4, #0]
  10618a:	4606      	mov	r6, r0
  10618c:	685b      	ldr	r3, [r3, #4]
  10618e:	4620      	mov	r0, r4
  106190:	4798      	blx	r3
  106192:	1ba8      	subs	r0, r5, r6
  106194:	bf18      	it	ne
  106196:	2001      	movne	r0, #1
  106198:	b003      	add	sp, #12
  10619a:	bdf0      	pop	{r4, r5, r6, r7, pc}

0010619c <mbed::I2C::read(int, char*, int, bool)>:
  10619c:	b5f7      	push	{r0, r1, r2, r4, r5, r6, r7, lr}
  10619e:	4604      	mov	r4, r0
  1061a0:	460e      	mov	r6, r1
  1061a2:	4617      	mov	r7, r2
  1061a4:	461d      	mov	r5, r3
  1061a6:	6803      	ldr	r3, [r0, #0]
  1061a8:	681b      	ldr	r3, [r3, #0]
  1061aa:	4798      	blx	r3
  1061ac:	4620      	mov	r0, r4
  1061ae:	f7ff ffbf 	bl	106130 <mbed::I2C::aquire()>
  1061b2:	f89d 3020 	ldrb.w	r3, [sp, #32]
  1061b6:	4631      	mov	r1, r6
  1061b8:	f083 0301 	eor.w	r3, r3, #1
  1061bc:	9300      	str	r3, [sp, #0]
  1061be:	463a      	mov	r2, r7
  1061c0:	462b      	mov	r3, r5
  1061c2:	1d20      	adds	r0, r4, #4
  1061c4:	f7fe fef8 	bl	104fb8 <i2c_read>
  1061c8:	6823      	ldr	r3, [r4, #0]
  1061ca:	4606      	mov	r6, r0
  1061cc:	685b      	ldr	r3, [r3, #4]
  1061ce:	4620      	mov	r0, r4
  1061d0:	4798      	blx	r3
  1061d2:	1ba8      	subs	r0, r5, r6
  1061d4:	bf18      	it	ne
  1061d6:	2001      	movne	r0, #1
  1061d8:	b003      	add	sp, #12
  1061da:	bdf0      	pop	{r4, r5, r6, r7, pc}

001061dc <SingletonPtr<rtos::Mutex>::get()>:
  1061dc:	b570      	push	{r4, r5, r6, lr}
  1061de:	4604      	mov	r4, r0
  1061e0:	f854 3b04 	ldr.w	r3, [r4], #4
  1061e4:	4605      	mov	r5, r0
  1061e6:	b97b      	cbnz	r3, 106208 <SingletonPtr<rtos::Mutex>::get()+0x2c>
  1061e8:	4e0c      	ldr	r6, [pc, #48]	; (10621c <SingletonPtr<rtos::Mutex>::get()+0x40>)
  1061ea:	f04f 31ff 	mov.w	r1, #4294967295
  1061ee:	6830      	ldr	r0, [r6, #0]
  1061f0:	f7fd ffa6 	bl	104140 <osMutexAcquire>
  1061f4:	682b      	ldr	r3, [r5, #0]
  1061f6:	b923      	cbnz	r3, 106202 <SingletonPtr<rtos::Mutex>::get()+0x26>
  1061f8:	b114      	cbz	r4, 106200 <SingletonPtr<rtos::Mutex>::get()+0x24>
  1061fa:	4620      	mov	r0, r4
  1061fc:	f000 ff6e 	bl	1070dc <rtos::Mutex::Mutex()>
  106200:	602c      	str	r4, [r5, #0]
  106202:	6830      	ldr	r0, [r6, #0]
  106204:	f7fd ffba 	bl	10417c <osMutexRelease>
  106208:	682b      	ldr	r3, [r5, #0]
  10620a:	42a3      	cmp	r3, r4
  10620c:	d004      	beq.n	106218 <SingletonPtr<rtos::Mutex>::get()+0x3c>
  10620e:	225b      	movs	r2, #91	; 0x5b
  106210:	4903      	ldr	r1, [pc, #12]	; (106220 <SingletonPtr<rtos::Mutex>::get()+0x44>)
  106212:	4804      	ldr	r0, [pc, #16]	; (106224 <SingletonPtr<rtos::Mutex>::get()+0x48>)
  106214:	f7fc fd92 	bl	102d3c <mbed_assert_internal>
  106218:	6828      	ldr	r0, [r5, #0]
  10621a:	bd70      	pop	{r4, r5, r6, pc}
  10621c:	3fff6060 	.word	0x3fff6060
  106220:	0010e38c 	.word	0x0010e38c
  106224:	0010e3bb 	.word	0x0010e3bb

00106228 <mbed::I2C::lock()>:
  106228:	b508      	push	{r3, lr}
  10622a:	4804      	ldr	r0, [pc, #16]	; (10623c <mbed::I2C::lock()+0x14>)
  10622c:	f7ff ffd6 	bl	1061dc <SingletonPtr<rtos::Mutex>::get()>
  106230:	e8bd 4008 	ldmia.w	sp!, {r3, lr}
  106234:	f04f 31ff 	mov.w	r1, #4294967295
  106238:	f000 bf57 	b.w	1070ea <rtos::Mutex::lock(unsigned long)>
  10623c:	3fff4d08 	.word	0x3fff4d08

00106240 <mbed::I2C::unlock()>:
  106240:	b508      	push	{r3, lr}
  106242:	4803      	ldr	r0, [pc, #12]	; (106250 <mbed::I2C::unlock()+0x10>)
  106244:	f7ff ffca 	bl	1061dc <SingletonPtr<rtos::Mutex>::get()>
  106248:	e8bd 4008 	ldmia.w	sp!, {r3, lr}
  10624c:	f000 bf50 	b.w	1070f0 <rtos::Mutex::unlock()>
  106250:	3fff4d08 	.word	0x3fff4d08

00106254 <mbed::donothing()>:
  106254:	4770      	bx	lr
	...

00106258 <mbed::InterruptIn::~InterruptIn()>:
  106258:	b510      	push	{r4, lr}
  10625a:	4604      	mov	r4, r0
  10625c:	4b07      	ldr	r3, [pc, #28]	; (10627c <mbed::InterruptIn::~InterruptIn()+0x24>)
  10625e:	f840 3b10 	str.w	r3, [r0], #16
  106262:	f7fe fe4d 	bl	104f00 <gpio_irq_free>
  106266:	f104 002c 	add.w	r0, r4, #44	; 0x2c
  10626a:	f7fb ffeb 	bl	102244 <mbed::Callback<void ()>::~Callback()>
  10626e:	f104 001c 	add.w	r0, r4, #28
  106272:	f7fb ffe7 	bl	102244 <mbed::Callback<void ()>::~Callback()>
  106276:	4620      	mov	r0, r4
  106278:	bd10      	pop	{r4, pc}
  10627a:	bf00      	nop
  10627c:	0010e3d8 	.word	0x0010e3d8

00106280 <mbed::InterruptIn::~InterruptIn()>:
  106280:	b510      	push	{r4, lr}
  106282:	4604      	mov	r4, r0
  106284:	f7ff ffe8 	bl	106258 <mbed::InterruptIn::~InterruptIn()>
  106288:	4620      	mov	r0, r4
  10628a:	f000 fd49 	bl	106d20 <operator delete(void*)>
  10628e:	4620      	mov	r0, r4
  106290:	bd10      	pop	{r4, pc}

00106292 <mbed::Callback<void ()>::operator=(mbed::Callback<void ()> const&)>:
  106292:	4288      	cmp	r0, r1
  106294:	b538      	push	{r3, r4, r5, lr}
  106296:	4604      	mov	r4, r0
  106298:	460d      	mov	r5, r1
  10629a:	d00a      	beq.n	1062b2 <mbed::Callback<void ()>::operator=(mbed::Callback<void ()> const&)+0x20>
  10629c:	f7fb ffd2 	bl	102244 <mbed::Callback<void ()>::~Callback()>
  1062a0:	b13c      	cbz	r4, 1062b2 <mbed::Callback<void ()>::operator=(mbed::Callback<void ()> const&)+0x20>
  1062a2:	68eb      	ldr	r3, [r5, #12]
  1062a4:	b11b      	cbz	r3, 1062ae <mbed::Callback<void ()>::operator=(mbed::Callback<void ()> const&)+0x1c>
  1062a6:	685b      	ldr	r3, [r3, #4]
  1062a8:	4629      	mov	r1, r5
  1062aa:	4620      	mov	r0, r4
  1062ac:	4798      	blx	r3
  1062ae:	68eb      	ldr	r3, [r5, #12]
  1062b0:	60e3      	str	r3, [r4, #12]
  1062b2:	4620      	mov	r0, r4
  1062b4:	bd38      	pop	{r3, r4, r5, pc}
	...

001062b8 <mbed::InterruptIn::InterruptIn(PinName)>:
  1062b8:	b5f0      	push	{r4, r5, r6, r7, lr}
  1062ba:	4604      	mov	r4, r0
  1062bc:	460d      	mov	r5, r1
  1062be:	4b17      	ldr	r3, [pc, #92]	; (10631c <mbed::InterruptIn::InterruptIn(PinName)+0x64>)
  1062c0:	b085      	sub	sp, #20
  1062c2:	6003      	str	r3, [r0, #0]
  1062c4:	4f16      	ldr	r7, [pc, #88]	; (106320 <mbed::InterruptIn::InterruptIn(PinName)+0x68>)
  1062c6:	2300      	movs	r3, #0
  1062c8:	4e16      	ldr	r6, [pc, #88]	; (106324 <mbed::InterruptIn::InterruptIn(PinName)+0x6c>)
  1062ca:	6043      	str	r3, [r0, #4]
  1062cc:	7203      	strb	r3, [r0, #8]
  1062ce:	60c3      	str	r3, [r0, #12]
  1062d0:	6103      	str	r3, [r0, #16]
  1062d2:	6143      	str	r3, [r0, #20]
  1062d4:	6183      	str	r3, [r0, #24]
  1062d6:	6283      	str	r3, [r0, #40]	; 0x28
  1062d8:	6383      	str	r3, [r0, #56]	; 0x38
  1062da:	4669      	mov	r1, sp
  1062dc:	301c      	adds	r0, #28
  1062de:	9700      	str	r7, [sp, #0]
  1062e0:	9603      	str	r6, [sp, #12]
  1062e2:	f7ff ffd6 	bl	106292 <mbed::Callback<void ()>::operator=(mbed::Callback<void ()> const&)>
  1062e6:	4668      	mov	r0, sp
  1062e8:	f7fb ffac 	bl	102244 <mbed::Callback<void ()>::~Callback()>
  1062ec:	4669      	mov	r1, sp
  1062ee:	f104 002c 	add.w	r0, r4, #44	; 0x2c
  1062f2:	9700      	str	r7, [sp, #0]
  1062f4:	9603      	str	r6, [sp, #12]
  1062f6:	f7ff ffcc 	bl	106292 <mbed::Callback<void ()>::operator=(mbed::Callback<void ()> const&)>
  1062fa:	4668      	mov	r0, sp
  1062fc:	f7fb ffa2 	bl	102244 <mbed::Callback<void ()>::~Callback()>
  106300:	4623      	mov	r3, r4
  106302:	4a09      	ldr	r2, [pc, #36]	; (106328 <mbed::InterruptIn::InterruptIn(PinName)+0x70>)
  106304:	4629      	mov	r1, r5
  106306:	f104 0010 	add.w	r0, r4, #16
  10630a:	f7fe fd95 	bl	104e38 <gpio_irq_init>
  10630e:	1d20      	adds	r0, r4, #4
  106310:	4629      	mov	r1, r5
  106312:	f7fc fbc9 	bl	102aa8 <gpio_init_in>
  106316:	4620      	mov	r0, r4
  106318:	b005      	add	sp, #20
  10631a:	bdf0      	pop	{r4, r5, r6, r7, pc}
  10631c:	0010e3d8 	.word	0x0010e3d8
  106320:	00106255 	.word	0x00106255
  106324:	0010da08 	.word	0x0010da08
  106328:	00106355 	.word	0x00106355

0010632c <mbed::Callback<void ()>::call() const>:
  10632c:	68c3      	ldr	r3, [r0, #12]
  10632e:	b510      	push	{r4, lr}
  106330:	4604      	mov	r4, r0
  106332:	b92b      	cbnz	r3, 106340 <mbed::Callback<void ()>::call() const+0x14>
  106334:	f240 220e 	movw	r2, #526	; 0x20e
  106338:	4904      	ldr	r1, [pc, #16]	; (10634c <mbed::Callback<void ()>::call() const+0x20>)
  10633a:	4805      	ldr	r0, [pc, #20]	; (106350 <mbed::Callback<void ()>::call() const+0x24>)
  10633c:	f7fc fcfe 	bl	102d3c <mbed_assert_internal>
  106340:	68e3      	ldr	r3, [r4, #12]
  106342:	4620      	mov	r0, r4
  106344:	e8bd 4010 	ldmia.w	sp!, {r4, lr}
  106348:	681b      	ldr	r3, [r3, #0]
  10634a:	4718      	bx	r3
  10634c:	0010e3e0 	.word	0x0010e3e0
  106350:	0010e40b 	.word	0x0010e40b

00106354 <mbed::InterruptIn::_irq_handler(unsigned long, gpio_irq_event)>:
  106354:	2901      	cmp	r1, #1
  106356:	b508      	push	{r3, lr}
  106358:	d002      	beq.n	106360 <mbed::InterruptIn::_irq_handler(unsigned long, gpio_irq_event)+0xc>
  10635a:	2902      	cmp	r1, #2
  10635c:	d002      	beq.n	106364 <mbed::InterruptIn::_irq_handler(unsigned long, gpio_irq_event)+0x10>
  10635e:	bd08      	pop	{r3, pc}
  106360:	301c      	adds	r0, #28
  106362:	e000      	b.n	106366 <mbed::InterruptIn::_irq_handler(unsigned long, gpio_irq_event)+0x12>
  106364:	302c      	adds	r0, #44	; 0x2c
  106366:	f7ff ffe1 	bl	10632c <mbed::Callback<void ()>::call() const>
  10636a:	bd08      	pop	{r3, pc}

0010636c <mbed::FileHandle::lseek(long, int)>:
  10636c:	6803      	ldr	r3, [r0, #0]
  10636e:	691b      	ldr	r3, [r3, #16]
  106370:	4718      	bx	r3

00106372 <mbed::FileHandle::fsync()>:
  106372:	6803      	ldr	r3, [r0, #0]
  106374:	699b      	ldr	r3, [r3, #24]
  106376:	4718      	bx	r3

00106378 <mbed::FileHandle::flen()>:
  106378:	6803      	ldr	r3, [r0, #0]
  10637a:	6a9b      	ldr	r3, [r3, #40]	; 0x28
  10637c:	4718      	bx	r3

0010637e <mbed::FileHandle::set_blocking(bool)>:
  10637e:	f04f 30ff 	mov.w	r0, #4294967295
  106382:	4770      	bx	lr

00106384 <mbed::FileHandle::poll(short) const>:
  106384:	2011      	movs	r0, #17
  106386:	4770      	bx	lr

00106388 <mbed::FileHandle::sigio(mbed::Callback<void ()>)>:
  106388:	4770      	bx	lr

0010638a <mbed::Serial::_getc()>:
  10638a:	f000 b87e 	b.w	10648a <mbed::SerialBase::_base_getc()>

0010638e <non-virtual thunk to mbed::Serial::_getc()>:
  10638e:	f1a0 0034 	sub.w	r0, r0, #52	; 0x34
  106392:	f7ff bffa 	b.w	10638a <mbed::Serial::_getc()>

00106396 <mbed::Serial::_putc(int)>:
  106396:	f000 b87b 	b.w	106490 <mbed::SerialBase::_base_putc(int)>

0010639a <non-virtual thunk to mbed::Serial::_putc(int)>:
  10639a:	f1a0 0034 	sub.w	r0, r0, #52	; 0x34
  10639e:	f7ff bffa 	b.w	106396 <mbed::Serial::_putc(int)>

001063a2 <mbed::Serial::lock()>:
  1063a2:	f04f 31ff 	mov.w	r1, #4294967295
  1063a6:	304c      	adds	r0, #76	; 0x4c
  1063a8:	f000 be9f 	b.w	1070ea <rtos::Mutex::lock(unsigned long)>

001063ac <non-virtual thunk to mbed::Serial::lock()>:
  1063ac:	f1a0 0034 	sub.w	r0, r0, #52	; 0x34
  1063b0:	f7ff bff7 	b.w	1063a2 <mbed::Serial::lock()>

001063b4 <mbed::Serial::unlock()>:
  1063b4:	304c      	adds	r0, #76	; 0x4c
  1063b6:	f000 be9b 	b.w	1070f0 <rtos::Mutex::unlock()>

001063ba <non-virtual thunk to mbed::Serial::unlock()>:
  1063ba:	f1a0 0034 	sub.w	r0, r0, #52	; 0x34
  1063be:	f7ff bff9 	b.w	1063b4 <mbed::Serial::unlock()>
	...

001063c4 <mbed::Serial::Serial(PinName, PinName, char const*, int)>:
  1063c4:	b538      	push	{r3, r4, r5, lr}
  1063c6:	4604      	mov	r4, r0
  1063c8:	461d      	mov	r5, r3
  1063ca:	9b04      	ldr	r3, [sp, #16]
  1063cc:	f000 f868 	bl	1064a0 <mbed::SerialBase::SerialBase(PinName, PinName, int)>
  1063d0:	4629      	mov	r1, r5
  1063d2:	f104 0034 	add.w	r0, r4, #52	; 0x34
  1063d6:	f000 fddf 	bl	106f98 <mbed::Stream::Stream(char const*)>
  1063da:	4b07      	ldr	r3, [pc, #28]	; (1063f8 <mbed::Serial::Serial(PinName, PinName, char const*, int)+0x34>)
  1063dc:	f104 004c 	add.w	r0, r4, #76	; 0x4c
  1063e0:	f103 0208 	add.w	r2, r3, #8
  1063e4:	6022      	str	r2, [r4, #0]
  1063e6:	f103 0228 	add.w	r2, r3, #40	; 0x28
  1063ea:	3384      	adds	r3, #132	; 0x84
  1063ec:	6362      	str	r2, [r4, #52]	; 0x34
  1063ee:	63a3      	str	r3, [r4, #56]	; 0x38
  1063f0:	f000 fe74 	bl	1070dc <rtos::Mutex::Mutex()>
  1063f4:	4620      	mov	r0, r4
  1063f6:	bd38      	pop	{r3, r4, r5, pc}
  1063f8:	0010e410 	.word	0x0010e410

001063fc <mbed::Serial::Serial(PinName, PinName, int)>:
  1063fc:	b510      	push	{r4, lr}
  1063fe:	4604      	mov	r4, r0
  106400:	f000 f84e 	bl	1064a0 <mbed::SerialBase::SerialBase(PinName, PinName, int)>
  106404:	2100      	movs	r1, #0
  106406:	f104 0034 	add.w	r0, r4, #52	; 0x34
  10640a:	f000 fdc5 	bl	106f98 <mbed::Stream::Stream(char const*)>
  10640e:	4b07      	ldr	r3, [pc, #28]	; (10642c <mbed::Serial::Serial(PinName, PinName, int)+0x30>)
  106410:	f104 004c 	add.w	r0, r4, #76	; 0x4c
  106414:	f103 0208 	add.w	r2, r3, #8
  106418:	6022      	str	r2, [r4, #0]
  10641a:	f103 0228 	add.w	r2, r3, #40	; 0x28
  10641e:	3384      	adds	r3, #132	; 0x84
  106420:	6362      	str	r2, [r4, #52]	; 0x34
  106422:	63a3      	str	r3, [r4, #56]	; 0x38
  106424:	f000 fe5a 	bl	1070dc <rtos::Mutex::Mutex()>
  106428:	4620      	mov	r0, r4
  10642a:	bd10      	pop	{r4, pc}
  10642c:	0010e410 	.word	0x0010e410

00106430 <mbed::donothing()>:
  106430:	4770      	bx	lr

00106432 <mbed::SerialBase::lock()>:
  106432:	4770      	bx	lr

00106434 <mbed::SerialBase::_irq_handler(unsigned long, SerialIrq)>:
  106434:	b570      	push	{r4, r5, r6, lr}
  106436:	010c      	lsls	r4, r1, #4
  106438:	1903      	adds	r3, r0, r4
  10643a:	69db      	ldr	r3, [r3, #28]
  10643c:	1c4d      	adds	r5, r1, #1
  10643e:	4606      	mov	r6, r0
  106440:	eb00 1505 	add.w	r5, r0, r5, lsl #4
  106444:	b92b      	cbnz	r3, 106452 <mbed::SerialBase::_irq_handler(unsigned long, SerialIrq)+0x1e>
  106446:	f240 220e 	movw	r2, #526	; 0x20e
  10644a:	4905      	ldr	r1, [pc, #20]	; (106460 <mbed::SerialBase::_irq_handler(unsigned long, SerialIrq)+0x2c>)
  10644c:	4805      	ldr	r0, [pc, #20]	; (106464 <mbed::SerialBase::_irq_handler(unsigned long, SerialIrq)+0x30>)
  10644e:	f7fc fc75 	bl	102d3c <mbed_assert_internal>
  106452:	4434      	add	r4, r6
  106454:	69e3      	ldr	r3, [r4, #28]
  106456:	4628      	mov	r0, r5
  106458:	e8bd 4070 	ldmia.w	sp!, {r4, r5, r6, lr}
  10645c:	681b      	ldr	r3, [r3, #0]
  10645e:	4718      	bx	r3
  106460:	0010e3e0 	.word	0x0010e3e0
  106464:	0010e40b 	.word	0x0010e40b

00106468 <mbed::SerialBase::readable()>:
  106468:	b538      	push	{r3, r4, r5, lr}
  10646a:	4605      	mov	r5, r0
  10646c:	f855 3b04 	ldr.w	r3, [r5], #4
  106470:	4604      	mov	r4, r0
  106472:	681b      	ldr	r3, [r3, #0]
  106474:	4798      	blx	r3
  106476:	4628      	mov	r0, r5
  106478:	f7ff fd5b 	bl	105f32 <serial_readable>
  10647c:	4605      	mov	r5, r0
  10647e:	6823      	ldr	r3, [r4, #0]
  106480:	4620      	mov	r0, r4
  106482:	685b      	ldr	r3, [r3, #4]
  106484:	4798      	blx	r3
  106486:	4628      	mov	r0, r5
  106488:	bd38      	pop	{r3, r4, r5, pc}

0010648a <mbed::SerialBase::_base_getc()>:
  10648a:	3004      	adds	r0, #4
  10648c:	f7ff bd44 	b.w	105f18 <serial_getc>

00106490 <mbed::SerialBase::_base_putc(int)>:
  106490:	b510      	push	{r4, lr}
  106492:	460c      	mov	r4, r1
  106494:	3004      	adds	r0, #4
  106496:	f7ff fd46 	bl	105f26 <serial_putc>
  10649a:	4620      	mov	r0, r4
  10649c:	bd10      	pop	{r4, pc}
	...

001064a0 <mbed::SerialBase::SerialBase(PinName, PinName, int)>:
  1064a0:	e92d 43f0 	stmdb	sp!, {r4, r5, r6, r7, r8, r9, lr}
  1064a4:	4605      	mov	r5, r0
  1064a6:	4604      	mov	r4, r0
  1064a8:	4688      	mov	r8, r1
  1064aa:	4691      	mov	r9, r2
  1064ac:	4a18      	ldr	r2, [pc, #96]	; (106510 <mbed::SerialBase::SerialBase(PinName, PinName, int)+0x70>)
  1064ae:	b085      	sub	sp, #20
  1064b0:	f845 2b04 	str.w	r2, [r5], #4
  1064b4:	2100      	movs	r1, #0
  1064b6:	4f17      	ldr	r7, [pc, #92]	; (106514 <mbed::SerialBase::SerialBase(PinName, PinName, int)+0x74>)
  1064b8:	4e17      	ldr	r6, [pc, #92]	; (106518 <mbed::SerialBase::SerialBase(PinName, PinName, int)+0x78>)
  1064ba:	6041      	str	r1, [r0, #4]
  1064bc:	6069      	str	r1, [r5, #4]
  1064be:	60a9      	str	r1, [r5, #8]
  1064c0:	3010      	adds	r0, #16
  1064c2:	6203      	str	r3, [r0, #32]
  1064c4:	60c1      	str	r1, [r0, #12]
  1064c6:	61c1      	str	r1, [r0, #28]
  1064c8:	4669      	mov	r1, sp
  1064ca:	9700      	str	r7, [sp, #0]
  1064cc:	9603      	str	r6, [sp, #12]
  1064ce:	f7ff fee0 	bl	106292 <mbed::Callback<void ()>::operator=(mbed::Callback<void ()> const&)>
  1064d2:	4668      	mov	r0, sp
  1064d4:	f7fb feb6 	bl	102244 <mbed::Callback<void ()>::~Callback()>
  1064d8:	4669      	mov	r1, sp
  1064da:	f104 0020 	add.w	r0, r4, #32
  1064de:	9700      	str	r7, [sp, #0]
  1064e0:	9603      	str	r6, [sp, #12]
  1064e2:	f7ff fed6 	bl	106292 <mbed::Callback<void ()>::operator=(mbed::Callback<void ()> const&)>
  1064e6:	4668      	mov	r0, sp
  1064e8:	f7fb feac 	bl	102244 <mbed::Callback<void ()>::~Callback()>
  1064ec:	464a      	mov	r2, r9
  1064ee:	4641      	mov	r1, r8
  1064f0:	4628      	mov	r0, r5
  1064f2:	f7ff fc21 	bl	105d38 <serial_init>
  1064f6:	6b21      	ldr	r1, [r4, #48]	; 0x30
  1064f8:	4628      	mov	r0, r5
  1064fa:	f7ff fce9 	bl	105ed0 <serial_baud>
  1064fe:	4628      	mov	r0, r5
  106500:	4622      	mov	r2, r4
  106502:	4906      	ldr	r1, [pc, #24]	; (10651c <mbed::SerialBase::SerialBase(PinName, PinName, int)+0x7c>)
  106504:	f7ff fcfc 	bl	105f00 <serial_irq_handler>
  106508:	4620      	mov	r0, r4
  10650a:	b005      	add	sp, #20
  10650c:	e8bd 83f0 	ldmia.w	sp!, {r4, r5, r6, r7, r8, r9, pc}
  106510:	0010e4a4 	.word	0x0010e4a4
  106514:	00106431 	.word	0x00106431
  106518:	0010da08 	.word	0x0010da08
  10651c:	00106435 	.word	0x00106435

00106520 <mbed::SPI::~SPI()>:
  106520:	4770      	bx	lr

00106522 <mbed::SPI::~SPI()>:
  106522:	b510      	push	{r4, lr}
  106524:	4604      	mov	r4, r0
  106526:	f000 fbfb 	bl	106d20 <operator delete(void*)>
  10652a:	4620      	mov	r0, r4
  10652c:	bd10      	pop	{r4, pc}
	...

00106530 <mbed::SPI::aquire()>:
  106530:	b570      	push	{r4, r5, r6, lr}
  106532:	4604      	mov	r4, r0
  106534:	6803      	ldr	r3, [r0, #0]
  106536:	4e0c      	ldr	r6, [pc, #48]	; (106568 <mbed::SPI::aquire()+0x38>)
  106538:	689b      	ldr	r3, [r3, #8]
  10653a:	4798      	blx	r3
  10653c:	6833      	ldr	r3, [r6, #0]
  10653e:	429c      	cmp	r4, r3
  106540:	d00b      	beq.n	10655a <mbed::SPI::aquire()+0x2a>
  106542:	1d25      	adds	r5, r4, #4
  106544:	2300      	movs	r3, #0
  106546:	6a62      	ldr	r2, [r4, #36]	; 0x24
  106548:	6a21      	ldr	r1, [r4, #32]
  10654a:	4628      	mov	r0, r5
  10654c:	f7ff fd12 	bl	105f74 <spi_format>
  106550:	6aa1      	ldr	r1, [r4, #40]	; 0x28
  106552:	4628      	mov	r0, r5
  106554:	f7ff fd68 	bl	106028 <spi_frequency>
  106558:	6034      	str	r4, [r6, #0]
  10655a:	6823      	ldr	r3, [r4, #0]
  10655c:	4620      	mov	r0, r4
  10655e:	e8bd 4070 	ldmia.w	sp!, {r4, r5, r6, lr}
  106562:	68db      	ldr	r3, [r3, #12]
  106564:	4718      	bx	r3
  106566:	bf00      	nop
  106568:	3fff4d3c 	.word	0x3fff4d3c

0010656c <mbed::SPI::SPI(PinName, PinName, PinName, PinName)>:
  10656c:	e92d 41f3 	stmdb	sp!, {r0, r1, r4, r5, r6, r7, r8, lr}
  106570:	4605      	mov	r5, r0
  106572:	4604      	mov	r4, r0
  106574:	460e      	mov	r6, r1
  106576:	4617      	mov	r7, r2
  106578:	4698      	mov	r8, r3
  10657a:	4b0f      	ldr	r3, [pc, #60]	; (1065b8 <mbed::SPI::SPI(PinName, PinName, PinName, PinName)+0x4c>)
  10657c:	221c      	movs	r2, #28
  10657e:	f845 3b04 	str.w	r3, [r5], #4
  106582:	2100      	movs	r1, #0
  106584:	4628      	mov	r0, r5
  106586:	f002 facb 	bl	108b20 <memset>
  10658a:	2308      	movs	r3, #8
  10658c:	6223      	str	r3, [r4, #32]
  10658e:	2300      	movs	r3, #0
  106590:	6263      	str	r3, [r4, #36]	; 0x24
  106592:	4b0a      	ldr	r3, [pc, #40]	; (1065bc <mbed::SPI::SPI(PinName, PinName, PinName, PinName)+0x50>)
  106594:	463a      	mov	r2, r7
  106596:	62a3      	str	r3, [r4, #40]	; 0x28
  106598:	f99d 3020 	ldrsb.w	r3, [sp, #32]
  10659c:	4631      	mov	r1, r6
  10659e:	9300      	str	r3, [sp, #0]
  1065a0:	4628      	mov	r0, r5
  1065a2:	4643      	mov	r3, r8
  1065a4:	f7ff fcde 	bl	105f64 <spi_init>
  1065a8:	4620      	mov	r0, r4
  1065aa:	f7ff ffc1 	bl	106530 <mbed::SPI::aquire()>
  1065ae:	4620      	mov	r0, r4
  1065b0:	b002      	add	sp, #8
  1065b2:	e8bd 81f0 	ldmia.w	sp!, {r4, r5, r6, r7, r8, pc}
  1065b6:	bf00      	nop
  1065b8:	0010e4bc 	.word	0x0010e4bc
  1065bc:	000f4240 	.word	0x000f4240

001065c0 <mbed::SPI::format(int, int)>:
  1065c0:	b570      	push	{r4, r5, r6, lr}
  1065c2:	4604      	mov	r4, r0
  1065c4:	460e      	mov	r6, r1
  1065c6:	4615      	mov	r5, r2
  1065c8:	6803      	ldr	r3, [r0, #0]
  1065ca:	689b      	ldr	r3, [r3, #8]
  1065cc:	4798      	blx	r3
  1065ce:	4b07      	ldr	r3, [pc, #28]	; (1065ec <mbed::SPI::format(int, int)+0x2c>)
  1065d0:	4620      	mov	r0, r4
  1065d2:	6226      	str	r6, [r4, #32]
  1065d4:	6265      	str	r5, [r4, #36]	; 0x24
  1065d6:	2200      	movs	r2, #0
  1065d8:	601a      	str	r2, [r3, #0]
  1065da:	f7ff ffa9 	bl	106530 <mbed::SPI::aquire()>
  1065de:	6823      	ldr	r3, [r4, #0]
  1065e0:	4620      	mov	r0, r4
  1065e2:	e8bd 4070 	ldmia.w	sp!, {r4, r5, r6, lr}
  1065e6:	68db      	ldr	r3, [r3, #12]
  1065e8:	4718      	bx	r3
  1065ea:	bf00      	nop
  1065ec:	3fff4d3c 	.word	0x3fff4d3c

001065f0 <mbed::SPI::frequency(int)>:
  1065f0:	b570      	push	{r4, r5, r6, lr}
  1065f2:	4604      	mov	r4, r0
  1065f4:	460d      	mov	r5, r1
  1065f6:	6803      	ldr	r3, [r0, #0]
  1065f8:	689b      	ldr	r3, [r3, #8]
  1065fa:	4798      	blx	r3
  1065fc:	4b06      	ldr	r3, [pc, #24]	; (106618 <mbed::SPI::frequency(int)+0x28>)
  1065fe:	4620      	mov	r0, r4
  106600:	62a5      	str	r5, [r4, #40]	; 0x28
  106602:	2200      	movs	r2, #0
  106604:	601a      	str	r2, [r3, #0]
  106606:	f7ff ff93 	bl	106530 <mbed::SPI::aquire()>
  10660a:	6823      	ldr	r3, [r4, #0]
  10660c:	4620      	mov	r0, r4
  10660e:	e8bd 4070 	ldmia.w	sp!, {r4, r5, r6, lr}
  106612:	68db      	ldr	r3, [r3, #12]
  106614:	4718      	bx	r3
  106616:	bf00      	nop
  106618:	3fff4d3c 	.word	0x3fff4d3c

0010661c <mbed::SPI::write(int)>:
  10661c:	b538      	push	{r3, r4, r5, lr}
  10661e:	4604      	mov	r4, r0
  106620:	460d      	mov	r5, r1
  106622:	6803      	ldr	r3, [r0, #0]
  106624:	689b      	ldr	r3, [r3, #8]
  106626:	4798      	blx	r3
  106628:	4620      	mov	r0, r4
  10662a:	f7ff ff81 	bl	106530 <mbed::SPI::aquire()>
  10662e:	4629      	mov	r1, r5
  106630:	1d20      	adds	r0, r4, #4
  106632:	f7ff fd0b 	bl	10604c <spi_master_write>
  106636:	4605      	mov	r5, r0
  106638:	6823      	ldr	r3, [r4, #0]
  10663a:	4620      	mov	r0, r4
  10663c:	68db      	ldr	r3, [r3, #12]
  10663e:	4798      	blx	r3
  106640:	4628      	mov	r0, r5
  106642:	bd38      	pop	{r3, r4, r5, pc}

00106644 <mbed::SPI::write(char const*, int, char*, int)>:
  106644:	b5f7      	push	{r0, r1, r2, r4, r5, r6, r7, lr}
  106646:	4604      	mov	r4, r0
  106648:	460d      	mov	r5, r1
  10664a:	4616      	mov	r6, r2
  10664c:	461f      	mov	r7, r3
  10664e:	6803      	ldr	r3, [r0, #0]
  106650:	689b      	ldr	r3, [r3, #8]
  106652:	4798      	blx	r3
  106654:	4620      	mov	r0, r4
  106656:	f7ff ff6b 	bl	106530 <mbed::SPI::aquire()>
  10665a:	9b08      	ldr	r3, [sp, #32]
  10665c:	4629      	mov	r1, r5
  10665e:	9300      	str	r3, [sp, #0]
  106660:	4632      	mov	r2, r6
  106662:	463b      	mov	r3, r7
  106664:	1d20      	adds	r0, r4, #4
  106666:	f7ff fcfe 	bl	106066 <spi_master_block_write>
  10666a:	4605      	mov	r5, r0
  10666c:	6823      	ldr	r3, [r4, #0]
  10666e:	4620      	mov	r0, r4
  106670:	68db      	ldr	r3, [r3, #12]
  106672:	4798      	blx	r3
  106674:	4628      	mov	r0, r5
  106676:	b003      	add	sp, #12
  106678:	bdf0      	pop	{r4, r5, r6, r7, pc}
	...

0010667c <mbed::SPI::lock()>:
  10667c:	b508      	push	{r3, lr}
  10667e:	4804      	ldr	r0, [pc, #16]	; (106690 <mbed::SPI::lock()+0x14>)
  106680:	f7ff fdac 	bl	1061dc <SingletonPtr<rtos::Mutex>::get()>
  106684:	e8bd 4008 	ldmia.w	sp!, {r3, lr}
  106688:	f04f 31ff 	mov.w	r1, #4294967295
  10668c:	f000 bd2d 	b.w	1070ea <rtos::Mutex::lock(unsigned long)>
  106690:	3fff4d40 	.word	0x3fff4d40

00106694 <mbed::SPI::unlock()>:
  106694:	b508      	push	{r3, lr}
  106696:	4803      	ldr	r0, [pc, #12]	; (1066a4 <mbed::SPI::unlock()+0x10>)
  106698:	f7ff fda0 	bl	1061dc <SingletonPtr<rtos::Mutex>::get()>
  10669c:	e8bd 4008 	ldmia.w	sp!, {r3, lr}
  1066a0:	f000 bd26 	b.w	1070f0 <rtos::Mutex::unlock()>
  1066a4:	3fff4d40 	.word	0x3fff4d40

001066a8 <mbed::Ticker::handler()>:
  1066a8:	b570      	push	{r4, r5, r6, lr}
  1066aa:	e9d0 2308 	ldrd	r2, r3, [r0, #32]
  1066ae:	e9d0 4502 	ldrd	r4, r5, [r0, #8]
  1066b2:	4606      	mov	r6, r0
  1066b4:	1912      	adds	r2, r2, r4
  1066b6:	416b      	adcs	r3, r5
  1066b8:	f000 f868 	bl	10678c <mbed::TimerEvent::insert_absolute(unsigned long long)>
  1066bc:	6b73      	ldr	r3, [r6, #52]	; 0x34
  1066be:	f106 0428 	add.w	r4, r6, #40	; 0x28
  1066c2:	b92b      	cbnz	r3, 1066d0 <mbed::Ticker::handler()+0x28>
  1066c4:	f240 220e 	movw	r2, #526	; 0x20e
  1066c8:	4904      	ldr	r1, [pc, #16]	; (1066dc <mbed::Ticker::handler()+0x34>)
  1066ca:	4805      	ldr	r0, [pc, #20]	; (1066e0 <mbed::Ticker::handler()+0x38>)
  1066cc:	f7fc fb36 	bl	102d3c <mbed_assert_internal>
  1066d0:	6b73      	ldr	r3, [r6, #52]	; 0x34
  1066d2:	4620      	mov	r0, r4
  1066d4:	e8bd 4070 	ldmia.w	sp!, {r4, r5, r6, lr}
  1066d8:	681b      	ldr	r3, [r3, #0]
  1066da:	4718      	bx	r3
  1066dc:	0010e3e0 	.word	0x0010e3e0
  1066e0:	0010e40b 	.word	0x0010e40b

001066e4 <mbed::Ticker::setup(unsigned long long)>:
  1066e4:	b5d0      	push	{r4, r6, r7, lr}
  1066e6:	4604      	mov	r4, r0
  1066e8:	4616      	mov	r6, r2
  1066ea:	461f      	mov	r7, r3
  1066ec:	f7fc fb7e 	bl	102dec <core_util_critical_section_enter>
  1066f0:	4620      	mov	r0, r4
  1066f2:	f000 f855 	bl	1067a0 <mbed::TimerEvent::remove()>
  1066f6:	e9c4 6708 	strd	r6, r7, [r4, #32]
  1066fa:	69a0      	ldr	r0, [r4, #24]
  1066fc:	f7fc fb0b 	bl	102d16 <ticker_read_us>
  106700:	1832      	adds	r2, r6, r0
  106702:	eb47 0301 	adc.w	r3, r7, r1
  106706:	4620      	mov	r0, r4
  106708:	f000 f840 	bl	10678c <mbed::TimerEvent::insert_absolute(unsigned long long)>
  10670c:	e8bd 40d0 	ldmia.w	sp!, {r4, r6, r7, lr}
  106710:	f7fc bb98 	b.w	102e44 <core_util_critical_section_exit>

00106714 <mbed::Ticker::detach()>:
  106714:	b57f      	push	{r0, r1, r2, r3, r4, r5, r6, lr}
  106716:	4606      	mov	r6, r0
  106718:	466d      	mov	r5, sp
  10671a:	f7fc fb67 	bl	102dec <core_util_critical_section_enter>
  10671e:	f106 0428 	add.w	r4, r6, #40	; 0x28
  106722:	4630      	mov	r0, r6
  106724:	f000 f83c 	bl	1067a0 <mbed::TimerEvent::remove()>
  106728:	2300      	movs	r3, #0
  10672a:	42ac      	cmp	r4, r5
  10672c:	9303      	str	r3, [sp, #12]
  10672e:	d00b      	beq.n	106748 <mbed::Ticker::detach()+0x34>
  106730:	4620      	mov	r0, r4
  106732:	f7fb fd87 	bl	102244 <mbed::Callback<void ()>::~Callback()>
  106736:	b13c      	cbz	r4, 106748 <mbed::Ticker::detach()+0x34>
  106738:	9b03      	ldr	r3, [sp, #12]
  10673a:	b11b      	cbz	r3, 106744 <mbed::Ticker::detach()+0x30>
  10673c:	685b      	ldr	r3, [r3, #4]
  10673e:	4669      	mov	r1, sp
  106740:	4620      	mov	r0, r4
  106742:	4798      	blx	r3
  106744:	9b03      	ldr	r3, [sp, #12]
  106746:	6373      	str	r3, [r6, #52]	; 0x34
  106748:	4628      	mov	r0, r5
  10674a:	f7fb fd7b 	bl	102244 <mbed::Callback<void ()>::~Callback()>
  10674e:	f7fc fb79 	bl	102e44 <core_util_critical_section_exit>
  106752:	b004      	add	sp, #16
  106754:	bd70      	pop	{r4, r5, r6, pc}

00106756 <mbed::TimerEvent::irq(unsigned long)>:
  106756:	6803      	ldr	r3, [r0, #0]
  106758:	689b      	ldr	r3, [r3, #8]
  10675a:	4718      	bx	r3

0010675c <mbed::TimerEvent::TimerEvent()>:
  10675c:	4b09      	ldr	r3, [pc, #36]	; (106784 <mbed::TimerEvent::TimerEvent()+0x28>)
  10675e:	b510      	push	{r4, lr}
  106760:	2200      	movs	r2, #0
  106762:	6003      	str	r3, [r0, #0]
  106764:	2300      	movs	r3, #0
  106766:	e9c0 2302 	strd	r2, r3, [r0, #8]
  10676a:	2300      	movs	r3, #0
  10676c:	6103      	str	r3, [r0, #16]
  10676e:	6143      	str	r3, [r0, #20]
  106770:	4604      	mov	r4, r0
  106772:	f7fc fad9 	bl	102d28 <get_us_ticker_data>
  106776:	4904      	ldr	r1, [pc, #16]	; (106788 <mbed::TimerEvent::TimerEvent()+0x2c>)
  106778:	61a0      	str	r0, [r4, #24]
  10677a:	f7fc fa4b 	bl	102c14 <ticker_set_handler>
  10677e:	4620      	mov	r0, r4
  106780:	bd10      	pop	{r4, pc}
  106782:	bf00      	nop
  106784:	0010e4f0 	.word	0x0010e4f0
  106788:	00106757 	.word	0x00106757

0010678c <mbed::TimerEvent::insert_absolute(unsigned long long)>:
  10678c:	b507      	push	{r0, r1, r2, lr}
  10678e:	9000      	str	r0, [sp, #0]
  106790:	f100 0108 	add.w	r1, r0, #8
  106794:	6980      	ldr	r0, [r0, #24]
  106796:	f7fc fa7a 	bl	102c8e <ticker_insert_event_us>
  10679a:	b003      	add	sp, #12
  10679c:	f85d fb04 	ldr.w	pc, [sp], #4

001067a0 <mbed::TimerEvent::remove()>:
  1067a0:	f100 0108 	add.w	r1, r0, #8
  1067a4:	6980      	ldr	r0, [r0, #24]
  1067a6:	f7fc ba9c 	b.w	102ce2 <ticker_remove_event>
	...

001067ac <mbed::TimerEvent::~TimerEvent()>:
  1067ac:	b510      	push	{r4, lr}
  1067ae:	4604      	mov	r4, r0
  1067b0:	4b02      	ldr	r3, [pc, #8]	; (1067bc <mbed::TimerEvent::~TimerEvent()+0x10>)
  1067b2:	6003      	str	r3, [r0, #0]
  1067b4:	f7ff fff4 	bl	1067a0 <mbed::TimerEvent::remove()>
  1067b8:	4620      	mov	r0, r4
  1067ba:	bd10      	pop	{r4, pc}
  1067bc:	0010e4f0 	.word	0x0010e4f0

001067c0 <mbed::FileHandle::tell()>:
  1067c0:	6803      	ldr	r3, [r0, #0]
  1067c2:	2201      	movs	r2, #1
  1067c4:	691b      	ldr	r3, [r3, #16]
  1067c6:	2100      	movs	r1, #0
  1067c8:	4718      	bx	r3

001067ca <mbed::FileHandle::rewind()>:
  1067ca:	6803      	ldr	r3, [r0, #0]
  1067cc:	2200      	movs	r2, #0
  1067ce:	691b      	ldr	r3, [r3, #16]
  1067d0:	4611      	mov	r1, r2
  1067d2:	4718      	bx	r3

001067d4 <mbed::FileBase::getPathType()>:
  1067d4:	7b00      	ldrb	r0, [r0, #12]
  1067d6:	4770      	bx	lr

001067d8 <mbed::FileBase::FileBase(char const*, mbed::PathType)>:
  1067d8:	b538      	push	{r3, r4, r5, lr}
  1067da:	4604      	mov	r4, r0
  1067dc:	460d      	mov	r5, r1
  1067de:	4b0d      	ldr	r3, [pc, #52]	; (106814 <mbed::FileBase::FileBase(char const*, mbed::PathType)+0x3c>)
  1067e0:	6003      	str	r3, [r0, #0]
  1067e2:	2300      	movs	r3, #0
  1067e4:	6043      	str	r3, [r0, #4]
  1067e6:	60a1      	str	r1, [r4, #8]
  1067e8:	7302      	strb	r2, [r0, #12]
  1067ea:	480b      	ldr	r0, [pc, #44]	; (106818 <mbed::FileBase::FileBase(char const*, mbed::PathType)+0x40>)
  1067ec:	f7ff fcf6 	bl	1061dc <SingletonPtr<rtos::Mutex>::get()>
  1067f0:	f04f 31ff 	mov.w	r1, #4294967295
  1067f4:	f000 fc79 	bl	1070ea <rtos::Mutex::lock(unsigned long)>
  1067f8:	b125      	cbz	r5, 106804 <mbed::FileBase::FileBase(char const*, mbed::PathType)+0x2c>
  1067fa:	4b08      	ldr	r3, [pc, #32]	; (10681c <mbed::FileBase::FileBase(char const*, mbed::PathType)+0x44>)
  1067fc:	681a      	ldr	r2, [r3, #0]
  1067fe:	601c      	str	r4, [r3, #0]
  106800:	6062      	str	r2, [r4, #4]
  106802:	e000      	b.n	106806 <mbed::FileBase::FileBase(char const*, mbed::PathType)+0x2e>
  106804:	6065      	str	r5, [r4, #4]
  106806:	4804      	ldr	r0, [pc, #16]	; (106818 <mbed::FileBase::FileBase(char const*, mbed::PathType)+0x40>)
  106808:	f7ff fce8 	bl	1061dc <SingletonPtr<rtos::Mutex>::get()>
  10680c:	f000 fc70 	bl	1070f0 <rtos::Mutex::unlock()>
  106810:	4620      	mov	r0, r4
  106812:	bd38      	pop	{r3, r4, r5, pc}
  106814:	0010e504 	.word	0x0010e504
  106818:	3fff4d78 	.word	0x3fff4d78
  10681c:	3fff4d74 	.word	0x3fff4d74

00106820 <mbed::FileBase::~FileBase()>:
  106820:	b510      	push	{r4, lr}
  106822:	4604      	mov	r4, r0
  106824:	4b12      	ldr	r3, [pc, #72]	; (106870 <mbed::FileBase::~FileBase()+0x50>)
  106826:	6003      	str	r3, [r0, #0]
  106828:	4812      	ldr	r0, [pc, #72]	; (106874 <mbed::FileBase::~FileBase()+0x54>)
  10682a:	f7ff fcd7 	bl	1061dc <SingletonPtr<rtos::Mutex>::get()>
  10682e:	f04f 31ff 	mov.w	r1, #4294967295
  106832:	f000 fc5a 	bl	1070ea <rtos::Mutex::lock(unsigned long)>
  106836:	68a3      	ldr	r3, [r4, #8]
  106838:	b16b      	cbz	r3, 106856 <mbed::FileBase::~FileBase()+0x36>
  10683a:	4a0f      	ldr	r2, [pc, #60]	; (106878 <mbed::FileBase::~FileBase()+0x58>)
  10683c:	6813      	ldr	r3, [r2, #0]
  10683e:	429c      	cmp	r4, r3
  106840:	d102      	bne.n	106848 <mbed::FileBase::~FileBase()+0x28>
  106842:	6863      	ldr	r3, [r4, #4]
  106844:	6013      	str	r3, [r2, #0]
  106846:	e006      	b.n	106856 <mbed::FileBase::~FileBase()+0x36>
  106848:	685a      	ldr	r2, [r3, #4]
  10684a:	4294      	cmp	r4, r2
  10684c:	d001      	beq.n	106852 <mbed::FileBase::~FileBase()+0x32>
  10684e:	4613      	mov	r3, r2
  106850:	e7fa      	b.n	106848 <mbed::FileBase::~FileBase()+0x28>
  106852:	6862      	ldr	r2, [r4, #4]
  106854:	605a      	str	r2, [r3, #4]
  106856:	4807      	ldr	r0, [pc, #28]	; (106874 <mbed::FileBase::~FileBase()+0x54>)
  106858:	f7ff fcc0 	bl	1061dc <SingletonPtr<rtos::Mutex>::get()>
  10685c:	f000 fc48 	bl	1070f0 <rtos::Mutex::unlock()>
  106860:	7b23      	ldrb	r3, [r4, #12]
  106862:	b913      	cbnz	r3, 10686a <mbed::FileBase::~FileBase()+0x4a>
  106864:	1f20      	subs	r0, r4, #4
  106866:	f000 fa5d 	bl	106d24 <mbed::remove_filehandle(mbed::FileHandle*)>
  10686a:	4620      	mov	r0, r4
  10686c:	bd10      	pop	{r4, pc}
  10686e:	bf00      	nop
  106870:	0010e504 	.word	0x0010e504
  106874:	3fff4d78 	.word	0x3fff4d78
  106878:	3fff4d74 	.word	0x3fff4d74

0010687c <mbed::FileBase::~FileBase()>:
  10687c:	b510      	push	{r4, lr}
  10687e:	4604      	mov	r4, r0
  106880:	f7ff ffce 	bl	106820 <mbed::FileBase::~FileBase()>
  106884:	4620      	mov	r0, r4
  106886:	f000 fa4b 	bl	106d20 <operator delete(void*)>
  10688a:	4620      	mov	r0, r4
  10688c:	bd10      	pop	{r4, pc}
	...

00106890 <mbed::FileBase::lookup(char const*, unsigned int)>:
  106890:	b5f8      	push	{r3, r4, r5, r6, r7, lr}
  106892:	4607      	mov	r7, r0
  106894:	4810      	ldr	r0, [pc, #64]	; (1068d8 <mbed::FileBase::lookup(char const*, unsigned int)+0x48>)
  106896:	460e      	mov	r6, r1
  106898:	f7ff fca0 	bl	1061dc <SingletonPtr<rtos::Mutex>::get()>
  10689c:	f04f 31ff 	mov.w	r1, #4294967295
  1068a0:	f000 fc23 	bl	1070ea <rtos::Mutex::lock(unsigned long)>
  1068a4:	4b0d      	ldr	r3, [pc, #52]	; (1068dc <mbed::FileBase::lookup(char const*, unsigned int)+0x4c>)
  1068a6:	681c      	ldr	r4, [r3, #0]
  1068a8:	b174      	cbz	r4, 1068c8 <mbed::FileBase::lookup(char const*, unsigned int)+0x38>
  1068aa:	68a5      	ldr	r5, [r4, #8]
  1068ac:	b155      	cbz	r5, 1068c4 <mbed::FileBase::lookup(char const*, unsigned int)+0x34>
  1068ae:	4632      	mov	r2, r6
  1068b0:	4639      	mov	r1, r7
  1068b2:	4628      	mov	r0, r5
  1068b4:	f003 fe7f 	bl	10a5b6 <strncmp>
  1068b8:	b920      	cbnz	r0, 1068c4 <mbed::FileBase::lookup(char const*, unsigned int)+0x34>
  1068ba:	4628      	mov	r0, r5
  1068bc:	f003 fe73 	bl	10a5a6 <strlen>
  1068c0:	4286      	cmp	r6, r0
  1068c2:	d001      	beq.n	1068c8 <mbed::FileBase::lookup(char const*, unsigned int)+0x38>
  1068c4:	6864      	ldr	r4, [r4, #4]
  1068c6:	e7ef      	b.n	1068a8 <mbed::FileBase::lookup(char const*, unsigned int)+0x18>
  1068c8:	4803      	ldr	r0, [pc, #12]	; (1068d8 <mbed::FileBase::lookup(char const*, unsigned int)+0x48>)
  1068ca:	f7ff fc87 	bl	1061dc <SingletonPtr<rtos::Mutex>::get()>
  1068ce:	f000 fc0f 	bl	1070f0 <rtos::Mutex::unlock()>
  1068d2:	4620      	mov	r0, r4
  1068d4:	bdf8      	pop	{r3, r4, r5, r6, r7, pc}
  1068d6:	bf00      	nop
  1068d8:	3fff4d78 	.word	0x3fff4d78
  1068dc:	3fff4d74 	.word	0x3fff4d74

001068e0 <mbed::FileHandle::sync()>:
  1068e0:	2000      	movs	r0, #0
  1068e2:	4770      	bx	lr

001068e4 <mbed::FileHandle::isatty()>:
  1068e4:	2000      	movs	r0, #0
  1068e6:	4770      	bx	lr

001068e8 <mbed::FileHandle::size()>:
  1068e8:	6803      	ldr	r3, [r0, #0]
  1068ea:	b570      	push	{r4, r5, r6, lr}
  1068ec:	691b      	ldr	r3, [r3, #16]
  1068ee:	2201      	movs	r2, #1
  1068f0:	2100      	movs	r1, #0
  1068f2:	4605      	mov	r5, r0
  1068f4:	4798      	blx	r3
  1068f6:	1e04      	subs	r4, r0, #0
  1068f8:	db0e      	blt.n	106918 <mbed::FileHandle::size()+0x30>
  1068fa:	682b      	ldr	r3, [r5, #0]
  1068fc:	2202      	movs	r2, #2
  1068fe:	691b      	ldr	r3, [r3, #16]
  106900:	2100      	movs	r1, #0
  106902:	4628      	mov	r0, r5
  106904:	4798      	blx	r3
  106906:	4606      	mov	r6, r0
  106908:	682b      	ldr	r3, [r5, #0]
  10690a:	2200      	movs	r2, #0
  10690c:	691b      	ldr	r3, [r3, #16]
  10690e:	4621      	mov	r1, r4
  106910:	4628      	mov	r0, r5
  106912:	4798      	blx	r3
  106914:	4630      	mov	r0, r6
  106916:	bd70      	pop	{r4, r5, r6, pc}
  106918:	4620      	mov	r0, r4
  10691a:	bd70      	pop	{r4, r5, r6, pc}

0010691c <mbed::fdopen(mbed::FileHandle*, char const*)>:
  10691c:	f000 b9e0 	b.w	106ce0 <mbed::mbed_fdopen(mbed::FileHandle*, char const*)>

00106920 <mbed::FilePath::FilePath(char const*)>:
  106920:	b510      	push	{r4, lr}
  106922:	2300      	movs	r3, #0
  106924:	6003      	str	r3, [r0, #0]
  106926:	6043      	str	r3, [r0, #4]
  106928:	780a      	ldrb	r2, [r1, #0]
  10692a:	4604      	mov	r4, r0
  10692c:	2a2f      	cmp	r2, #47	; 0x2f
  10692e:	d113      	bne.n	106958 <mbed::FilePath::FilePath(char const*)+0x38>
  106930:	784a      	ldrb	r2, [r1, #1]
  106932:	b18a      	cbz	r2, 106958 <mbed::FilePath::FilePath(char const*)+0x38>
  106934:	1c48      	adds	r0, r1, #1
  106936:	4619      	mov	r1, r3
  106938:	6020      	str	r0, [r4, #0]
  10693a:	6823      	ldr	r3, [r4, #0]
  10693c:	781a      	ldrb	r2, [r3, #0]
  10693e:	2a2f      	cmp	r2, #47	; 0x2f
  106940:	d102      	bne.n	106948 <mbed::FilePath::FilePath(char const*)+0x28>
  106942:	3301      	adds	r3, #1
  106944:	6023      	str	r3, [r4, #0]
  106946:	e004      	b.n	106952 <mbed::FilePath::FilePath(char const*)+0x32>
  106948:	b11a      	cbz	r2, 106952 <mbed::FilePath::FilePath(char const*)+0x32>
  10694a:	3301      	adds	r3, #1
  10694c:	3101      	adds	r1, #1
  10694e:	6023      	str	r3, [r4, #0]
  106950:	e7f3      	b.n	10693a <mbed::FilePath::FilePath(char const*)+0x1a>
  106952:	f7ff ff9d 	bl	106890 <mbed::FileBase::lookup(char const*, unsigned int)>
  106956:	6060      	str	r0, [r4, #4]
  106958:	4620      	mov	r0, r4
  10695a:	bd10      	pop	{r4, pc}

0010695c <mbed::FilePath::fileName()>:
  10695c:	6800      	ldr	r0, [r0, #0]
  10695e:	4770      	bx	lr

00106960 <mbed::FilePath::isFileSystem()>:
  106960:	6840      	ldr	r0, [r0, #4]
  106962:	b508      	push	{r3, lr}
  106964:	b120      	cbz	r0, 106970 <mbed::FilePath::isFileSystem()+0x10>
  106966:	f7ff ff35 	bl	1067d4 <mbed::FileBase::getPathType()>
  10696a:	1e43      	subs	r3, r0, #1
  10696c:	4258      	negs	r0, r3
  10696e:	4158      	adcs	r0, r3
  106970:	bd08      	pop	{r3, pc}

00106972 <mbed::FilePath::fileSystem()>:
  106972:	b510      	push	{r4, lr}
  106974:	4604      	mov	r4, r0
  106976:	f7ff fff3 	bl	106960 <mbed::FilePath::isFileSystem()>
  10697a:	b110      	cbz	r0, 106982 <mbed::FilePath::fileSystem()+0x10>
  10697c:	6860      	ldr	r0, [r4, #4]
  10697e:	b100      	cbz	r0, 106982 <mbed::FilePath::fileSystem()+0x10>
  106980:	3804      	subs	r0, #4
  106982:	bd10      	pop	{r4, pc}

00106984 <mbed::FilePath::isFile()>:
  106984:	6840      	ldr	r0, [r0, #4]
  106986:	b508      	push	{r3, lr}
  106988:	b120      	cbz	r0, 106994 <mbed::FilePath::isFile()+0x10>
  10698a:	f7ff ff23 	bl	1067d4 <mbed::FileBase::getPathType()>
  10698e:	fab0 f080 	clz	r0, r0
  106992:	0940      	lsrs	r0, r0, #5
  106994:	bd08      	pop	{r3, pc}

00106996 <mbed::FilePath::file()>:
  106996:	b510      	push	{r4, lr}
  106998:	4604      	mov	r4, r0
  10699a:	f7ff fff3 	bl	106984 <mbed::FilePath::isFile()>
  10699e:	b110      	cbz	r0, 1069a6 <mbed::FilePath::file()+0x10>
  1069a0:	6860      	ldr	r0, [r4, #4]
  1069a2:	b100      	cbz	r0, 1069a6 <mbed::FilePath::file()+0x10>
  1069a4:	3804      	subs	r0, #4
  1069a6:	bd10      	pop	{r4, pc}

001069a8 <mbed::FilePath::exists()>:
  1069a8:	6840      	ldr	r0, [r0, #4]
  1069aa:	3000      	adds	r0, #0
  1069ac:	bf18      	it	ne
  1069ae:	2001      	movne	r0, #1
  1069b0:	4770      	bx	lr

001069b2 <__wrap__realloc_r>:
  1069b2:	b5f8      	push	{r3, r4, r5, r6, r7, lr}
  1069b4:	4615      	mov	r5, r2
  1069b6:	460c      	mov	r4, r1
  1069b8:	b111      	cbz	r1, 1069c0 <__wrap__realloc_r+0xe>
  1069ba:	f851 7c08 	ldr.w	r7, [r1, #-8]
  1069be:	e000      	b.n	1069c2 <__wrap__realloc_r+0x10>
  1069c0:	460f      	mov	r7, r1
  1069c2:	b17d      	cbz	r5, 1069e4 <__wrap__realloc_r+0x32>
  1069c4:	4628      	mov	r0, r5
  1069c6:	f002 f867 	bl	108a98 <malloc>
  1069ca:	4606      	mov	r6, r0
  1069cc:	b158      	cbz	r0, 1069e6 <__wrap__realloc_r+0x34>
  1069ce:	42af      	cmp	r7, r5
  1069d0:	463a      	mov	r2, r7
  1069d2:	4621      	mov	r1, r4
  1069d4:	bf28      	it	cs
  1069d6:	462a      	movcs	r2, r5
  1069d8:	f002 f87c 	bl	108ad4 <memcpy>
  1069dc:	4620      	mov	r0, r4
  1069de:	f002 f863 	bl	108aa8 <free>
  1069e2:	e000      	b.n	1069e6 <__wrap__realloc_r+0x34>
  1069e4:	462e      	mov	r6, r5
  1069e6:	4630      	mov	r0, r6
  1069e8:	bdf8      	pop	{r3, r4, r5, r6, r7, pc}

001069ea <__wrap__calloc_r>:
  1069ea:	b538      	push	{r3, r4, r5, lr}
  1069ec:	fb02 f401 	mul.w	r4, r2, r1
  1069f0:	4620      	mov	r0, r4
  1069f2:	f002 f851 	bl	108a98 <malloc>
  1069f6:	4605      	mov	r5, r0
  1069f8:	b118      	cbz	r0, 106a02 <__wrap__calloc_r+0x18>
  1069fa:	4622      	mov	r2, r4
  1069fc:	2100      	movs	r1, #0
  1069fe:	f002 f88f 	bl	108b20 <memset>
  106a02:	4628      	mov	r0, r5
  106a04:	bd38      	pop	{r3, r4, r5, pc}
	...

00106a08 <__wrap__malloc_r>:
  106a08:	b538      	push	{r3, r4, r5, lr}
  106a0a:	460d      	mov	r5, r1
  106a0c:	4604      	mov	r4, r0
  106a0e:	4815      	ldr	r0, [pc, #84]	; (106a64 <__wrap__malloc_r+0x5c>)
  106a10:	f7ff fbe4 	bl	1061dc <SingletonPtr<rtos::Mutex>::get()>
  106a14:	f04f 31ff 	mov.w	r1, #4294967295
  106a18:	f000 fb67 	bl	1070ea <rtos::Mutex::lock(unsigned long)>
  106a1c:	f105 0108 	add.w	r1, r5, #8
  106a20:	4620      	mov	r0, r4
  106a22:	f002 f8c9 	bl	108bb8 <_malloc_r>
  106a26:	4b10      	ldr	r3, [pc, #64]	; (106a68 <__wrap__malloc_r+0x60>)
  106a28:	b180      	cbz	r0, 106a4c <__wrap__malloc_r+0x44>
  106a2a:	4604      	mov	r4, r0
  106a2c:	6899      	ldr	r1, [r3, #8]
  106a2e:	681a      	ldr	r2, [r3, #0]
  106a30:	f844 5b08 	str.w	r5, [r4], #8
  106a34:	442a      	add	r2, r5
  106a36:	440d      	add	r5, r1
  106a38:	6919      	ldr	r1, [r3, #16]
  106a3a:	601a      	str	r2, [r3, #0]
  106a3c:	3101      	adds	r1, #1
  106a3e:	6119      	str	r1, [r3, #16]
  106a40:	6859      	ldr	r1, [r3, #4]
  106a42:	609d      	str	r5, [r3, #8]
  106a44:	428a      	cmp	r2, r1
  106a46:	d905      	bls.n	106a54 <__wrap__malloc_r+0x4c>
  106a48:	605a      	str	r2, [r3, #4]
  106a4a:	e003      	b.n	106a54 <__wrap__malloc_r+0x4c>
  106a4c:	4604      	mov	r4, r0
  106a4e:	695a      	ldr	r2, [r3, #20]
  106a50:	3201      	adds	r2, #1
  106a52:	615a      	str	r2, [r3, #20]
  106a54:	4803      	ldr	r0, [pc, #12]	; (106a64 <__wrap__malloc_r+0x5c>)
  106a56:	f7ff fbc1 	bl	1061dc <SingletonPtr<rtos::Mutex>::get()>
  106a5a:	f000 fb49 	bl	1070f0 <rtos::Mutex::unlock()>
  106a5e:	4620      	mov	r0, r4
  106a60:	bd38      	pop	{r3, r4, r5, pc}
  106a62:	bf00      	nop
  106a64:	3fff4dc4 	.word	0x3fff4dc4
  106a68:	3fff4dac 	.word	0x3fff4dac

00106a6c <__wrap__free_r>:
  106a6c:	b538      	push	{r3, r4, r5, lr}
  106a6e:	460c      	mov	r4, r1
  106a70:	4605      	mov	r5, r0
  106a72:	480f      	ldr	r0, [pc, #60]	; (106ab0 <__wrap__free_r+0x44>)
  106a74:	f7ff fbb2 	bl	1061dc <SingletonPtr<rtos::Mutex>::get()>
  106a78:	f04f 31ff 	mov.w	r1, #4294967295
  106a7c:	f000 fb35 	bl	1070ea <rtos::Mutex::lock(unsigned long)>
  106a80:	b15c      	cbz	r4, 106a9a <__wrap__free_r+0x2e>
  106a82:	4b0c      	ldr	r3, [pc, #48]	; (106ab4 <__wrap__free_r+0x48>)
  106a84:	f854 0c08 	ldr.w	r0, [r4, #-8]
  106a88:	681a      	ldr	r2, [r3, #0]
  106a8a:	f1a4 0108 	sub.w	r1, r4, #8
  106a8e:	1a12      	subs	r2, r2, r0
  106a90:	601a      	str	r2, [r3, #0]
  106a92:	691a      	ldr	r2, [r3, #16]
  106a94:	3a01      	subs	r2, #1
  106a96:	611a      	str	r2, [r3, #16]
  106a98:	e000      	b.n	106a9c <__wrap__free_r+0x30>
  106a9a:	4621      	mov	r1, r4
  106a9c:	4628      	mov	r0, r5
  106a9e:	f002 f847 	bl	108b30 <_free_r>
  106aa2:	4803      	ldr	r0, [pc, #12]	; (106ab0 <__wrap__free_r+0x44>)
  106aa4:	f7ff fb9a 	bl	1061dc <SingletonPtr<rtos::Mutex>::get()>
  106aa8:	e8bd 4038 	ldmia.w	sp!, {r3, r4, r5, lr}
  106aac:	f000 bb20 	b.w	1070f0 <rtos::Mutex::unlock()>
  106ab0:	3fff4dc4 	.word	0x3fff4dc4
  106ab4:	3fff4dac 	.word	0x3fff4dac

00106ab8 <init_serial()>:
  106ab8:	b508      	push	{r3, lr}
  106aba:	4b08      	ldr	r3, [pc, #32]	; (106adc <init_serial()+0x24>)
  106abc:	681b      	ldr	r3, [r3, #0]
  106abe:	b95b      	cbnz	r3, 106ad8 <init_serial()+0x20>
  106ac0:	2108      	movs	r1, #8
  106ac2:	4807      	ldr	r0, [pc, #28]	; (106ae0 <init_serial()+0x28>)
  106ac4:	2209      	movs	r2, #9
  106ac6:	f7ff f937 	bl	105d38 <serial_init>
  106aca:	e8bd 4008 	ldmia.w	sp!, {r3, lr}
  106ace:	f44f 31e1 	mov.w	r1, #115200	; 0x1c200
  106ad2:	4803      	ldr	r0, [pc, #12]	; (106ae0 <init_serial()+0x28>)
  106ad4:	f7ff b9fc 	b.w	105ed0 <serial_baud>
  106ad8:	bd08      	pop	{r3, pc}
  106ada:	bf00      	nop
  106adc:	3fff4d00 	.word	0x3fff4d00
  106ae0:	3fff60e4 	.word	0x3fff60e4

00106ae4 <_close>:
  106ae4:	2802      	cmp	r0, #2
  106ae6:	b510      	push	{r4, lr}
  106ae8:	dc01      	bgt.n	106aee <_close+0xa>
  106aea:	2000      	movs	r0, #0
  106aec:	bd10      	pop	{r4, pc}
  106aee:	4a0c      	ldr	r2, [pc, #48]	; (106b20 <_close+0x3c>)
  106af0:	1ec3      	subs	r3, r0, #3
  106af2:	f852 0023 	ldr.w	r0, [r2, r3, lsl #2]
  106af6:	2100      	movs	r1, #0
  106af8:	f842 1023 	str.w	r1, [r2, r3, lsl #2]
  106afc:	b920      	cbnz	r0, 106b08 <_close+0x24>
  106afe:	f001 fc75 	bl	1083ec <__errno>
  106b02:	2309      	movs	r3, #9
  106b04:	6003      	str	r3, [r0, #0]
  106b06:	e008      	b.n	106b1a <_close+0x36>
  106b08:	6803      	ldr	r3, [r0, #0]
  106b0a:	695b      	ldr	r3, [r3, #20]
  106b0c:	4798      	blx	r3
  106b0e:	1e04      	subs	r4, r0, #0
  106b10:	daeb      	bge.n	106aea <_close+0x6>
  106b12:	f001 fc6b 	bl	1083ec <__errno>
  106b16:	4264      	negs	r4, r4
  106b18:	6004      	str	r4, [r0, #0]
  106b1a:	f04f 30ff 	mov.w	r0, #4294967295
  106b1e:	bd10      	pop	{r4, pc}
  106b20:	3fff4e30 	.word	0x3fff4e30

00106b24 <_write>:
  106b24:	2802      	cmp	r0, #2
  106b26:	b570      	push	{r4, r5, r6, lr}
  106b28:	460d      	mov	r5, r1
  106b2a:	4614      	mov	r4, r2
  106b2c:	dc0d      	bgt.n	106b4a <_write+0x26>
  106b2e:	4b12      	ldr	r3, [pc, #72]	; (106b78 <_write+0x54>)
  106b30:	681b      	ldr	r3, [r3, #0]
  106b32:	b90b      	cbnz	r3, 106b38 <_write+0x14>
  106b34:	f7ff ffc0 	bl	106ab8 <init_serial()>
  106b38:	192e      	adds	r6, r5, r4
  106b3a:	42b5      	cmp	r5, r6
  106b3c:	d01a      	beq.n	106b74 <_write+0x50>
  106b3e:	f815 1b01 	ldrb.w	r1, [r5], #1
  106b42:	480e      	ldr	r0, [pc, #56]	; (106b7c <_write+0x58>)
  106b44:	f7ff f9ef 	bl	105f26 <serial_putc>
  106b48:	e7f7      	b.n	106b3a <_write+0x16>
  106b4a:	4b0d      	ldr	r3, [pc, #52]	; (106b80 <_write+0x5c>)
  106b4c:	3803      	subs	r0, #3
  106b4e:	f853 0020 	ldr.w	r0, [r3, r0, lsl #2]
  106b52:	b930      	cbnz	r0, 106b62 <_write+0x3e>
  106b54:	f001 fc4a 	bl	1083ec <__errno>
  106b58:	2309      	movs	r3, #9
  106b5a:	6003      	str	r3, [r0, #0]
  106b5c:	f04f 30ff 	mov.w	r0, #4294967295
  106b60:	bd70      	pop	{r4, r5, r6, pc}
  106b62:	6803      	ldr	r3, [r0, #0]
  106b64:	68db      	ldr	r3, [r3, #12]
  106b66:	4798      	blx	r3
  106b68:	1e04      	subs	r4, r0, #0
  106b6a:	da03      	bge.n	106b74 <_write+0x50>
  106b6c:	f001 fc3e 	bl	1083ec <__errno>
  106b70:	4263      	negs	r3, r4
  106b72:	6003      	str	r3, [r0, #0]
  106b74:	4620      	mov	r0, r4
  106b76:	bd70      	pop	{r4, r5, r6, pc}
  106b78:	3fff4d00 	.word	0x3fff4d00
  106b7c:	3fff60e4 	.word	0x3fff60e4
  106b80:	3fff4e30 	.word	0x3fff4e30

00106b84 <_read>:
  106b84:	2802      	cmp	r0, #2
  106b86:	b510      	push	{r4, lr}
  106b88:	460c      	mov	r4, r1
  106b8a:	dc0a      	bgt.n	106ba2 <_read+0x1e>
  106b8c:	4b10      	ldr	r3, [pc, #64]	; (106bd0 <_read+0x4c>)
  106b8e:	681b      	ldr	r3, [r3, #0]
  106b90:	b90b      	cbnz	r3, 106b96 <_read+0x12>
  106b92:	f7ff ff91 	bl	106ab8 <init_serial()>
  106b96:	480f      	ldr	r0, [pc, #60]	; (106bd4 <_read+0x50>)
  106b98:	f7ff f9be 	bl	105f18 <serial_getc>
  106b9c:	7020      	strb	r0, [r4, #0]
  106b9e:	2001      	movs	r0, #1
  106ba0:	bd10      	pop	{r4, pc}
  106ba2:	4b0d      	ldr	r3, [pc, #52]	; (106bd8 <_read+0x54>)
  106ba4:	3803      	subs	r0, #3
  106ba6:	f853 0020 	ldr.w	r0, [r3, r0, lsl #2]
  106baa:	b930      	cbnz	r0, 106bba <_read+0x36>
  106bac:	f001 fc1e 	bl	1083ec <__errno>
  106bb0:	2309      	movs	r3, #9
  106bb2:	6003      	str	r3, [r0, #0]
  106bb4:	f04f 30ff 	mov.w	r0, #4294967295
  106bb8:	bd10      	pop	{r4, pc}
  106bba:	6803      	ldr	r3, [r0, #0]
  106bbc:	689b      	ldr	r3, [r3, #8]
  106bbe:	4798      	blx	r3
  106bc0:	1e04      	subs	r4, r0, #0
  106bc2:	da03      	bge.n	106bcc <_read+0x48>
  106bc4:	f001 fc12 	bl	1083ec <__errno>
  106bc8:	4263      	negs	r3, r4
  106bca:	6003      	str	r3, [r0, #0]
  106bcc:	4620      	mov	r0, r4
  106bce:	bd10      	pop	{r4, pc}
  106bd0:	3fff4d00 	.word	0x3fff4d00
  106bd4:	3fff60e4 	.word	0x3fff60e4
  106bd8:	3fff4e30 	.word	0x3fff4e30

00106bdc <_isatty>:
  106bdc:	2802      	cmp	r0, #2
  106bde:	b510      	push	{r4, lr}
  106be0:	dd15      	ble.n	106c0e <_isatty+0x32>
  106be2:	4b0d      	ldr	r3, [pc, #52]	; (106c18 <_isatty+0x3c>)
  106be4:	3803      	subs	r0, #3
  106be6:	f853 4020 	ldr.w	r4, [r3, r0, lsl #2]
  106bea:	b924      	cbnz	r4, 106bf6 <_isatty+0x1a>
  106bec:	f001 fbfe 	bl	1083ec <__errno>
  106bf0:	2309      	movs	r3, #9
  106bf2:	6003      	str	r3, [r0, #0]
  106bf4:	e00d      	b.n	106c12 <_isatty+0x36>
  106bf6:	6823      	ldr	r3, [r4, #0]
  106bf8:	4620      	mov	r0, r4
  106bfa:	69db      	ldr	r3, [r3, #28]
  106bfc:	4798      	blx	r3
  106bfe:	1e04      	subs	r4, r0, #0
  106c00:	da07      	bge.n	106c12 <_isatty+0x36>
  106c02:	f001 fbf3 	bl	1083ec <__errno>
  106c06:	4264      	negs	r4, r4
  106c08:	6004      	str	r4, [r0, #0]
  106c0a:	2000      	movs	r0, #0
  106c0c:	bd10      	pop	{r4, pc}
  106c0e:	2001      	movs	r0, #1
  106c10:	bd10      	pop	{r4, pc}
  106c12:	4620      	mov	r0, r4
  106c14:	bd10      	pop	{r4, pc}
  106c16:	bf00      	nop
  106c18:	3fff4e30 	.word	0x3fff4e30

00106c1c <_lseek>:
  106c1c:	2802      	cmp	r0, #2
  106c1e:	b510      	push	{r4, lr}
  106c20:	dc03      	bgt.n	106c2a <_lseek+0xe>
  106c22:	f001 fbe3 	bl	1083ec <__errno>
  106c26:	231d      	movs	r3, #29
  106c28:	e007      	b.n	106c3a <_lseek+0x1e>
  106c2a:	4b0c      	ldr	r3, [pc, #48]	; (106c5c <_lseek+0x40>)
  106c2c:	3803      	subs	r0, #3
  106c2e:	f853 0020 	ldr.w	r0, [r3, r0, lsl #2]
  106c32:	b920      	cbnz	r0, 106c3e <_lseek+0x22>
  106c34:	f001 fbda 	bl	1083ec <__errno>
  106c38:	2309      	movs	r3, #9
  106c3a:	6003      	str	r3, [r0, #0]
  106c3c:	e008      	b.n	106c50 <_lseek+0x34>
  106c3e:	6803      	ldr	r3, [r0, #0]
  106c40:	691b      	ldr	r3, [r3, #16]
  106c42:	4798      	blx	r3
  106c44:	1e04      	subs	r4, r0, #0
  106c46:	da06      	bge.n	106c56 <_lseek+0x3a>
  106c48:	f001 fbd0 	bl	1083ec <__errno>
  106c4c:	4264      	negs	r4, r4
  106c4e:	6004      	str	r4, [r0, #0]
  106c50:	f04f 30ff 	mov.w	r0, #4294967295
  106c54:	bd10      	pop	{r4, pc}
  106c56:	4620      	mov	r0, r4
  106c58:	bd10      	pop	{r4, pc}
  106c5a:	bf00      	nop
  106c5c:	3fff4e30 	.word	0x3fff4e30

00106c60 <_fstat>:
  106c60:	2802      	cmp	r0, #2
  106c62:	b508      	push	{r3, lr}
  106c64:	dc04      	bgt.n	106c70 <_fstat+0x10>
  106c66:	f44f 5300 	mov.w	r3, #8192	; 0x2000
  106c6a:	604b      	str	r3, [r1, #4]
  106c6c:	2000      	movs	r0, #0
  106c6e:	bd08      	pop	{r3, pc}
  106c70:	f001 fbbc 	bl	1083ec <__errno>
  106c74:	2309      	movs	r3, #9
  106c76:	6003      	str	r3, [r0, #0]
  106c78:	f04f 30ff 	mov.w	r0, #4294967295
  106c7c:	bd08      	pop	{r3, pc}
	...

00106c80 <_sbrk>:
  106c80:	4a0c      	ldr	r2, [pc, #48]	; (106cb4 <_sbrk+0x34>)
  106c82:	b510      	push	{r4, lr}
  106c84:	6813      	ldr	r3, [r2, #0]
  106c86:	4418      	add	r0, r3
  106c88:	f3ef 8108 	mrs	r1, MSP
  106c8c:	4288      	cmp	r0, r1
  106c8e:	d305      	bcc.n	106c9c <_sbrk+0x1c>
  106c90:	4b09      	ldr	r3, [pc, #36]	; (106cb8 <_sbrk+0x38>)
  106c92:	220c      	movs	r2, #12
  106c94:	601a      	str	r2, [r3, #0]
  106c96:	f04f 30ff 	mov.w	r0, #4294967295
  106c9a:	bd10      	pop	{r4, pc}
  106c9c:	4907      	ldr	r1, [pc, #28]	; (106cbc <_sbrk+0x3c>)
  106c9e:	6809      	ldr	r1, [r1, #0]
  106ca0:	b121      	cbz	r1, 106cac <_sbrk+0x2c>
  106ca2:	4c07      	ldr	r4, [pc, #28]	; (106cc0 <_sbrk+0x40>)
  106ca4:	6824      	ldr	r4, [r4, #0]
  106ca6:	4421      	add	r1, r4
  106ca8:	4288      	cmp	r0, r1
  106caa:	d2f1      	bcs.n	106c90 <_sbrk+0x10>
  106cac:	6010      	str	r0, [r2, #0]
  106cae:	4618      	mov	r0, r3
  106cb0:	bd10      	pop	{r4, pc}
  106cb2:	bf00      	nop
  106cb4:	3fff415c 	.word	0x3fff415c
  106cb8:	3fff60f0 	.word	0x3fff60f0
  106cbc:	3fff4e2c 	.word	0x3fff4e2c
  106cc0:	3fff4f30 	.word	0x3fff4f30

00106cc4 <_exit>:
  106cc4:	b508      	push	{r3, lr}
  106cc6:	b108      	cbz	r0, 106ccc <_exit+0x8>
  106cc8:	f7fc f84a 	bl	102d60 <mbed_die>
  106ccc:	e7fe      	b.n	106ccc <_exit+0x8>

00106cce <__aeabi_atexit>:
  106cce:	2001      	movs	r0, #1
  106cd0:	4770      	bx	lr

00106cd2 <__wrap_exit>:
  106cd2:	b508      	push	{r3, lr}
  106cd4:	f7ff fff6 	bl	106cc4 <_exit>

00106cd8 <mbed::mbed_set_unbuffered_stream(__sFILE*)>:
  106cd8:	2100      	movs	r1, #0
  106cda:	f003 bb2b 	b.w	10a334 <setbuf>
	...

00106ce0 <mbed::mbed_fdopen(mbed::FileHandle*, char const*)>:
  106ce0:	b530      	push	{r4, r5, lr}
  106ce2:	460c      	mov	r4, r1
  106ce4:	b085      	sub	sp, #20
  106ce6:	4602      	mov	r2, r0
  106ce8:	490a      	ldr	r1, [pc, #40]	; (106d14 <mbed::mbed_fdopen(mbed::FileHandle*, char const*)+0x34>)
  106cea:	4605      	mov	r5, r0
  106cec:	a801      	add	r0, sp, #4
  106cee:	f003 fbb5 	bl	10a45c <siprintf>
  106cf2:	4621      	mov	r1, r4
  106cf4:	a801      	add	r0, sp, #4
  106cf6:	f001 fd89 	bl	10880c <fopen>
  106cfa:	4604      	mov	r4, r0
  106cfc:	b138      	cbz	r0, 106d0e <mbed::mbed_fdopen(mbed::FileHandle*, char const*)+0x2e>
  106cfe:	682b      	ldr	r3, [r5, #0]
  106d00:	4628      	mov	r0, r5
  106d02:	69db      	ldr	r3, [r3, #28]
  106d04:	4798      	blx	r3
  106d06:	b110      	cbz	r0, 106d0e <mbed::mbed_fdopen(mbed::FileHandle*, char const*)+0x2e>
  106d08:	4620      	mov	r0, r4
  106d0a:	f7ff ffe5 	bl	106cd8 <mbed::mbed_set_unbuffered_stream(__sFILE*)>
  106d0e:	4620      	mov	r0, r4
  106d10:	b005      	add	sp, #20
  106d12:	bd30      	pop	{r4, r5, pc}
  106d14:	0010e571 	.word	0x0010e571

00106d18 <operator delete[](void*)>:
  106d18:	b108      	cbz	r0, 106d1e <operator delete[](void*)+0x6>
  106d1a:	f001 bec5 	b.w	108aa8 <free>
  106d1e:	4770      	bx	lr

00106d20 <operator delete(void*)>:
  106d20:	f7ff bffa 	b.w	106d18 <operator delete[](void*)>

00106d24 <mbed::remove_filehandle(mbed::FileHandle*)>:
  106d24:	b510      	push	{r4, lr}
  106d26:	4604      	mov	r4, r0
  106d28:	480c      	ldr	r0, [pc, #48]	; (106d5c <mbed::remove_filehandle(mbed::FileHandle*)+0x38>)
  106d2a:	f7ff fa57 	bl	1061dc <SingletonPtr<rtos::Mutex>::get()>
  106d2e:	f04f 31ff 	mov.w	r1, #4294967295
  106d32:	f000 f9da 	bl	1070ea <rtos::Mutex::lock(unsigned long)>
  106d36:	2300      	movs	r3, #0
  106d38:	4619      	mov	r1, r3
  106d3a:	4a09      	ldr	r2, [pc, #36]	; (106d60 <mbed::remove_filehandle(mbed::FileHandle*)+0x3c>)
  106d3c:	f852 0023 	ldr.w	r0, [r2, r3, lsl #2]
  106d40:	42a0      	cmp	r0, r4
  106d42:	bf08      	it	eq
  106d44:	f842 1023 	streq.w	r1, [r2, r3, lsl #2]
  106d48:	3301      	adds	r3, #1
  106d4a:	2b40      	cmp	r3, #64	; 0x40
  106d4c:	d1f6      	bne.n	106d3c <mbed::remove_filehandle(mbed::FileHandle*)+0x18>
  106d4e:	4803      	ldr	r0, [pc, #12]	; (106d5c <mbed::remove_filehandle(mbed::FileHandle*)+0x38>)
  106d50:	f7ff fa44 	bl	1061dc <SingletonPtr<rtos::Mutex>::get()>
  106d54:	e8bd 4010 	ldmia.w	sp!, {r4, lr}
  106d58:	f000 b9ca 	b.w	1070f0 <rtos::Mutex::unlock()>
  106d5c:	3fff4df8 	.word	0x3fff4df8
  106d60:	3fff4e30 	.word	0x3fff4e30

00106d64 <_open>:
  106d64:	e92d 47ff 	stmdb	sp!, {r0, r1, r2, r3, r4, r5, r6, r7, r8, r9, r10, lr}
  106d68:	4689      	mov	r9, r1
  106d6a:	4944      	ldr	r1, [pc, #272]	; (106e7c <_open+0x118>)
  106d6c:	4605      	mov	r5, r0
  106d6e:	f003 fc08 	bl	10a582 <strcmp>
  106d72:	4604      	mov	r4, r0
  106d74:	b910      	cbnz	r0, 106d7c <_open+0x18>
  106d76:	f7ff fe9f 	bl	106ab8 <init_serial()>
  106d7a:	e07b      	b.n	106e74 <_open+0x110>
  106d7c:	4940      	ldr	r1, [pc, #256]	; (106e80 <_open+0x11c>)
  106d7e:	4628      	mov	r0, r5
  106d80:	f003 fbff 	bl	10a582 <strcmp>
  106d84:	b918      	cbnz	r0, 106d8e <_open+0x2a>
  106d86:	f7ff fe97 	bl	106ab8 <init_serial()>
  106d8a:	2401      	movs	r4, #1
  106d8c:	e072      	b.n	106e74 <_open+0x110>
  106d8e:	493d      	ldr	r1, [pc, #244]	; (106e84 <_open+0x120>)
  106d90:	4628      	mov	r0, r5
  106d92:	f003 fbf6 	bl	10a582 <strcmp>
  106d96:	b918      	cbnz	r0, 106da0 <_open+0x3c>
  106d98:	f7ff fe8e 	bl	106ab8 <init_serial()>
  106d9c:	2402      	movs	r4, #2
  106d9e:	e069      	b.n	106e74 <_open+0x110>
  106da0:	4839      	ldr	r0, [pc, #228]	; (106e88 <_open+0x124>)
  106da2:	f7ff fa1b 	bl	1061dc <SingletonPtr<rtos::Mutex>::get()>
  106da6:	f04f 31ff 	mov.w	r1, #4294967295
  106daa:	f000 f99e 	bl	1070ea <rtos::Mutex::lock(unsigned long)>
  106dae:	4b37      	ldr	r3, [pc, #220]	; (106e8c <_open+0x128>)
  106db0:	2400      	movs	r4, #0
  106db2:	4e36      	ldr	r6, [pc, #216]	; (106e8c <_open+0x128>)
  106db4:	f853 7024 	ldr.w	r7, [r3, r4, lsl #2]
  106db8:	46b0      	mov	r8, r6
  106dba:	b167      	cbz	r7, 106dd6 <_open+0x72>
  106dbc:	3401      	adds	r4, #1
  106dbe:	2c40      	cmp	r4, #64	; 0x40
  106dc0:	d1f7      	bne.n	106db2 <_open+0x4e>
  106dc2:	f001 fb13 	bl	1083ec <__errno>
  106dc6:	2318      	movs	r3, #24
  106dc8:	6003      	str	r3, [r0, #0]
  106dca:	482f      	ldr	r0, [pc, #188]	; (106e88 <_open+0x124>)
  106dcc:	f7ff fa06 	bl	1061dc <SingletonPtr<rtos::Mutex>::get()>
  106dd0:	f000 f98e 	bl	1070f0 <rtos::Mutex::unlock()>
  106dd4:	e04c      	b.n	106e70 <_open+0x10c>
  106dd6:	f04f 33ff 	mov.w	r3, #4294967295
  106dda:	482b      	ldr	r0, [pc, #172]	; (106e88 <_open+0x124>)
  106ddc:	f846 3024 	str.w	r3, [r6, r4, lsl #2]
  106de0:	f7ff f9fc 	bl	1061dc <SingletonPtr<rtos::Mutex>::get()>
  106de4:	f000 f984 	bl	1070f0 <rtos::Mutex::unlock()>
  106de8:	782b      	ldrb	r3, [r5, #0]
  106dea:	9701      	str	r7, [sp, #4]
  106dec:	2b3a      	cmp	r3, #58	; 0x3a
  106dee:	d107      	bne.n	106e00 <_open+0x9c>
  106df0:	aa02      	add	r2, sp, #8
  106df2:	4927      	ldr	r1, [pc, #156]	; (106e90 <_open+0x12c>)
  106df4:	4628      	mov	r0, r5
  106df6:	f003 fb55 	bl	10a4a4 <siscanf>
  106dfa:	9b02      	ldr	r3, [sp, #8]
  106dfc:	9301      	str	r3, [sp, #4]
  106dfe:	e032      	b.n	106e66 <_open+0x102>
  106e00:	4629      	mov	r1, r5
  106e02:	a802      	add	r0, sp, #8
  106e04:	f7ff fd8c 	bl	106920 <mbed::FilePath::FilePath(char const*)>
  106e08:	a802      	add	r0, sp, #8
  106e0a:	f7ff fdcd 	bl	1069a8 <mbed::FilePath::exists()>
  106e0e:	4605      	mov	r5, r0
  106e10:	b168      	cbz	r0, 106e2e <_open+0xca>
  106e12:	a802      	add	r0, sp, #8
  106e14:	f7ff fdb6 	bl	106984 <mbed::FilePath::isFile()>
  106e18:	4607      	mov	r7, r0
  106e1a:	a802      	add	r0, sp, #8
  106e1c:	b11f      	cbz	r7, 106e26 <_open+0xc2>
  106e1e:	f7ff fdba 	bl	106996 <mbed::FilePath::file()>
  106e22:	9001      	str	r0, [sp, #4]
  106e24:	e01f      	b.n	106e66 <_open+0x102>
  106e26:	f7ff fda4 	bl	106972 <mbed::FilePath::fileSystem()>
  106e2a:	4605      	mov	r5, r0
  106e2c:	b930      	cbnz	r0, 106e3c <_open+0xd8>
  106e2e:	f001 fadd 	bl	1083ec <__errno>
  106e32:	2302      	movs	r3, #2
  106e34:	6003      	str	r3, [r0, #0]
  106e36:	f846 5024 	str.w	r5, [r6, r4, lsl #2]
  106e3a:	e019      	b.n	106e70 <_open+0x10c>
  106e3c:	6803      	ldr	r3, [r0, #0]
  106e3e:	a802      	add	r0, sp, #8
  106e40:	f8d3 a008 	ldr.w	r10, [r3, #8]
  106e44:	f7ff fd8a 	bl	10695c <mbed::FilePath::fileName()>
  106e48:	f429 3380 	bic.w	r3, r9, #65536	; 0x10000
  106e4c:	4602      	mov	r2, r0
  106e4e:	a901      	add	r1, sp, #4
  106e50:	4628      	mov	r0, r5
  106e52:	47d0      	blx	r10
  106e54:	4605      	mov	r5, r0
  106e56:	b130      	cbz	r0, 106e66 <_open+0x102>
  106e58:	f001 fac8 	bl	1083ec <__errno>
  106e5c:	426d      	negs	r5, r5
  106e5e:	6005      	str	r5, [r0, #0]
  106e60:	f846 7024 	str.w	r7, [r6, r4, lsl #2]
  106e64:	e004      	b.n	106e70 <_open+0x10c>
  106e66:	9b01      	ldr	r3, [sp, #4]
  106e68:	f848 3024 	str.w	r3, [r8, r4, lsl #2]
  106e6c:	3403      	adds	r4, #3
  106e6e:	e001      	b.n	106e74 <_open+0x110>
  106e70:	f04f 34ff 	mov.w	r4, #4294967295
  106e74:	4620      	mov	r0, r4
  106e76:	b004      	add	sp, #16
  106e78:	e8bd 87f0 	ldmia.w	sp!, {r4, r5, r6, r7, r8, r9, r10, pc}
  106e7c:	0010e558 	.word	0x0010e558
  106e80:	0010e648 	.word	0x0010e648
  106e84:	0010e55f 	.word	0x0010e55f
  106e88:	3fff4df8 	.word	0x3fff4df8
  106e8c:	3fff4e30 	.word	0x3fff4e30
  106e90:	0010e571 	.word	0x0010e571

00106e94 <wait_us>:
  106e94:	b570      	push	{r4, r5, r6, lr}
  106e96:	4605      	mov	r5, r0
  106e98:	f44f 747a 	mov.w	r4, #1000	; 0x3e8
  106e9c:	f7fe fbb6 	bl	10560c <us_ticker_read>
  106ea0:	fb95 f4f4 	sdiv	r4, r5, r4
  106ea4:	2c00      	cmp	r4, #0
  106ea6:	4606      	mov	r6, r0
  106ea8:	dd02      	ble.n	106eb0 <wait_us+0x1c>
  106eaa:	f7fb ff98 	bl	102dde <core_util_are_interrupts_enabled>
  106eae:	b928      	cbnz	r0, 106ebc <wait_us+0x28>
  106eb0:	f7fe fbac 	bl	10560c <us_ticker_read>
  106eb4:	1b80      	subs	r0, r0, r6
  106eb6:	42a8      	cmp	r0, r5
  106eb8:	d3fa      	bcc.n	106eb0 <wait_us+0x1c>
  106eba:	bd70      	pop	{r4, r5, r6, pc}
  106ebc:	4620      	mov	r0, r4
  106ebe:	f000 f921 	bl	107104 <rtos::Thread::wait(unsigned long)>
  106ec2:	e7f5      	b.n	106eb0 <wait_us+0x1c>

00106ec4 <wait>:
  106ec4:	b508      	push	{r3, lr}
  106ec6:	4904      	ldr	r1, [pc, #16]	; (106ed8 <wait+0x14>)
  106ec8:	f000 fd32 	bl	107930 <__aeabi_fmul>
  106ecc:	f000 fe80 	bl	107bd0 <__aeabi_f2iz>
  106ed0:	e8bd 4008 	ldmia.w	sp!, {r3, lr}
  106ed4:	f7ff bfde 	b.w	106e94 <wait_us>
  106ed8:	49742400 	.word	0x49742400

00106edc <wait_ms>:
  106edc:	f44f 737a 	mov.w	r3, #1000	; 0x3e8
  106ee0:	4358      	muls	r0, r3
  106ee2:	f7ff bfd7 	b.w	106e94 <wait_us>

00106ee6 <mbed::Stream::lock()>:
  106ee6:	4770      	bx	lr

00106ee8 <mbed::Stream::unlock()>:
  106ee8:	4770      	bx	lr

00106eea <mbed::Stream::write(void const*, unsigned int)>:
  106eea:	b5f8      	push	{r3, r4, r5, r6, r7, lr}
  106eec:	460e      	mov	r6, r1
  106eee:	6803      	ldr	r3, [r0, #0]
  106ef0:	4604      	mov	r4, r0
  106ef2:	6cdb      	ldr	r3, [r3, #76]	; 0x4c
  106ef4:	188f      	adds	r7, r1, r2
  106ef6:	4635      	mov	r5, r6
  106ef8:	4798      	blx	r3
  106efa:	42bd      	cmp	r5, r7
  106efc:	d008      	beq.n	106f10 <mbed::Stream::write(void const*, unsigned int)+0x26>
  106efe:	6823      	ldr	r3, [r4, #0]
  106f00:	f815 1b01 	ldrb.w	r1, [r5], #1
  106f04:	6c5b      	ldr	r3, [r3, #68]	; 0x44
  106f06:	4620      	mov	r0, r4
  106f08:	4798      	blx	r3
  106f0a:	3001      	adds	r0, #1
  106f0c:	d1f5      	bne.n	106efa <mbed::Stream::write(void const*, unsigned int)+0x10>
  106f0e:	462f      	mov	r7, r5
  106f10:	6823      	ldr	r3, [r4, #0]
  106f12:	4620      	mov	r0, r4
  106f14:	6d1b      	ldr	r3, [r3, #80]	; 0x50
  106f16:	4798      	blx	r3
  106f18:	1bb8      	subs	r0, r7, r6
  106f1a:	bdf8      	pop	{r3, r4, r5, r6, r7, pc}

00106f1c <mbed::Stream::read(void*, unsigned int)>:
  106f1c:	b5f8      	push	{r3, r4, r5, r6, r7, lr}
  106f1e:	460e      	mov	r6, r1
  106f20:	6803      	ldr	r3, [r0, #0]
  106f22:	4604      	mov	r4, r0
  106f24:	6cdb      	ldr	r3, [r3, #76]	; 0x4c
  106f26:	188f      	adds	r7, r1, r2
  106f28:	4635      	mov	r5, r6
  106f2a:	4798      	blx	r3
  106f2c:	42bd      	cmp	r5, r7
  106f2e:	d008      	beq.n	106f42 <mbed::Stream::read(void*, unsigned int)+0x26>
  106f30:	6823      	ldr	r3, [r4, #0]
  106f32:	4620      	mov	r0, r4
  106f34:	6c9b      	ldr	r3, [r3, #72]	; 0x48
  106f36:	4798      	blx	r3
  106f38:	1c43      	adds	r3, r0, #1
  106f3a:	d002      	beq.n	106f42 <mbed::Stream::read(void*, unsigned int)+0x26>
  106f3c:	f805 0b01 	strb.w	r0, [r5], #1
  106f40:	e7f4      	b.n	106f2c <mbed::Stream::read(void*, unsigned int)+0x10>
  106f42:	6823      	ldr	r3, [r4, #0]
  106f44:	4620      	mov	r0, r4
  106f46:	6d1b      	ldr	r3, [r3, #80]	; 0x50
  106f48:	4798      	blx	r3
  106f4a:	1ba8      	subs	r0, r5, r6
  106f4c:	bdf8      	pop	{r3, r4, r5, r6, r7, pc}

00106f4e <mbed::Stream::seek(long, int)>:
  106f4e:	2000      	movs	r0, #0
  106f50:	4770      	bx	lr

00106f52 <mbed::Stream::rewind()>:
  106f52:	4770      	bx	lr

00106f54 <mbed::Stream::sync()>:
  106f54:	2000      	movs	r0, #0
  106f56:	4770      	bx	lr

00106f58 <mbed::Stream::size()>:
  106f58:	2000      	movs	r0, #0
  106f5a:	4770      	bx	lr

00106f5c <mbed::FileLike::~FileLike()>:
  106f5c:	b510      	push	{r4, lr}
  106f5e:	4604      	mov	r4, r0
  106f60:	4b04      	ldr	r3, [pc, #16]	; (106f74 <mbed::FileLike::~FileLike()+0x18>)
  106f62:	6003      	str	r3, [r0, #0]
  106f64:	334c      	adds	r3, #76	; 0x4c
  106f66:	f840 3f04 	str.w	r3, [r0, #4]!
  106f6a:	f7ff fc59 	bl	106820 <mbed::FileBase::~FileBase()>
  106f6e:	4620      	mov	r0, r4
  106f70:	bd10      	pop	{r4, pc}
  106f72:	bf00      	nop
  106f74:	0010e658 	.word	0x0010e658

00106f78 <non-virtual thunk to mbed::FileLike::~FileLike()>:
  106f78:	f1a0 0004 	sub.w	r0, r0, #4
  106f7c:	e7ee      	b.n	106f5c <mbed::FileLike::~FileLike()>
  106f7e:	bf00      	nop

00106f80 <mbed::FileLike::~FileLike()>:
  106f80:	b510      	push	{r4, lr}
  106f82:	4604      	mov	r4, r0
  106f84:	f7ff ffea 	bl	106f5c <mbed::FileLike::~FileLike()>
  106f88:	4620      	mov	r0, r4
  106f8a:	f7ff fec9 	bl	106d20 <operator delete(void*)>
  106f8e:	4620      	mov	r0, r4
  106f90:	bd10      	pop	{r4, pc}

00106f92 <non-virtual thunk to mbed::FileLike::~FileLike()>:
  106f92:	f1a0 0004 	sub.w	r0, r0, #4
  106f96:	e7f3      	b.n	106f80 <mbed::FileLike::~FileLike()>

00106f98 <mbed::Stream::Stream(char const*)>:
  106f98:	b510      	push	{r4, lr}
  106f9a:	4604      	mov	r4, r0
  106f9c:	4b0e      	ldr	r3, [pc, #56]	; (106fd8 <mbed::Stream::Stream(char const*)+0x40>)
  106f9e:	2200      	movs	r2, #0
  106fa0:	f840 3b04 	str.w	r3, [r0], #4
  106fa4:	f7ff fc18 	bl	1067d8 <mbed::FileBase::FileBase(char const*, mbed::PathType)>
  106fa8:	4b0c      	ldr	r3, [pc, #48]	; (106fdc <mbed::Stream::Stream(char const*)+0x44>)
  106faa:	490d      	ldr	r1, [pc, #52]	; (106fe0 <mbed::Stream::Stream(char const*)+0x48>)
  106fac:	6023      	str	r3, [r4, #0]
  106fae:	335c      	adds	r3, #92	; 0x5c
  106fb0:	6063      	str	r3, [r4, #4]
  106fb2:	2300      	movs	r3, #0
  106fb4:	6163      	str	r3, [r4, #20]
  106fb6:	4620      	mov	r0, r4
  106fb8:	f7ff fcb0 	bl	10691c <mbed::fdopen(mbed::FileHandle*, char const*)>
  106fbc:	6160      	str	r0, [r4, #20]
  106fbe:	b110      	cbz	r0, 106fc6 <mbed::Stream::Stream(char const*)+0x2e>
  106fc0:	f7ff fe8a 	bl	106cd8 <mbed::mbed_set_unbuffered_stream(__sFILE*)>
  106fc4:	e005      	b.n	106fd2 <mbed::Stream::Stream(char const*)+0x3a>
  106fc6:	f001 fa11 	bl	1083ec <__errno>
  106fca:	6801      	ldr	r1, [r0, #0]
  106fcc:	4805      	ldr	r0, [pc, #20]	; (106fe4 <mbed::Stream::Stream(char const*)+0x4c>)
  106fce:	f7fb ff57 	bl	102e80 <error>
  106fd2:	4620      	mov	r0, r4
  106fd4:	bd10      	pop	{r4, pc}
  106fd6:	bf00      	nop
  106fd8:	0010e514 	.word	0x0010e514
  106fdc:	0010e6b4 	.word	0x0010e6b4
  106fe0:	0010e718 	.word	0x0010e718
  106fe4:	0010e71b 	.word	0x0010e71b

00106fe8 <mbed::Stream::~Stream()>:
  106fe8:	b510      	push	{r4, lr}
  106fea:	4604      	mov	r4, r0
  106fec:	4b06      	ldr	r3, [pc, #24]	; (107008 <mbed::Stream::~Stream()+0x20>)
  106fee:	f103 0208 	add.w	r2, r3, #8
  106ff2:	3364      	adds	r3, #100	; 0x64
  106ff4:	6002      	str	r2, [r0, #0]
  106ff6:	6043      	str	r3, [r0, #4]
  106ff8:	6940      	ldr	r0, [r0, #20]
  106ffa:	f001 fa4f 	bl	10849c <fclose>
  106ffe:	4620      	mov	r0, r4
  107000:	f7ff ffac 	bl	106f5c <mbed::FileLike::~FileLike()>
  107004:	4620      	mov	r0, r4
  107006:	bd10      	pop	{r4, pc}
  107008:	0010e6ac 	.word	0x0010e6ac

0010700c <mbed::Stream::printf(char const*, ...)>:
  10700c:	b40e      	push	{r1, r2, r3}
  10700e:	b577      	push	{r0, r1, r2, r4, r5, r6, lr}
  107010:	4604      	mov	r4, r0
  107012:	6803      	ldr	r3, [r0, #0]
  107014:	ad07      	add	r5, sp, #28
  107016:	f855 6b04 	ldr.w	r6, [r5], #4
  10701a:	6cdb      	ldr	r3, [r3, #76]	; 0x4c
  10701c:	4798      	blx	r3
  10701e:	6960      	ldr	r0, [r4, #20]
  107020:	9501      	str	r5, [sp, #4]
  107022:	f001 faf3 	bl	10860c <fflush>
  107026:	9a01      	ldr	r2, [sp, #4]
  107028:	4631      	mov	r1, r6
  10702a:	6960      	ldr	r0, [r4, #20]
  10702c:	f001 ff5c 	bl	108ee8 <vfiprintf>
  107030:	4605      	mov	r5, r0
  107032:	6823      	ldr	r3, [r4, #0]
  107034:	4620      	mov	r0, r4
  107036:	6d1b      	ldr	r3, [r3, #80]	; 0x50
  107038:	4798      	blx	r3
  10703a:	4628      	mov	r0, r5
  10703c:	b003      	add	sp, #12
  10703e:	e8bd 4070 	ldmia.w	sp!, {r4, r5, r6, lr}
  107042:	b003      	add	sp, #12
  107044:	4770      	bx	lr

00107046 <mbed::Stream::scanf(char const*, ...)>:
  107046:	b40e      	push	{r1, r2, r3}
  107048:	b577      	push	{r0, r1, r2, r4, r5, r6, lr}
  10704a:	4604      	mov	r4, r0
  10704c:	6803      	ldr	r3, [r0, #0]
  10704e:	ad07      	add	r5, sp, #28
  107050:	f855 6b04 	ldr.w	r6, [r5], #4
  107054:	6cdb      	ldr	r3, [r3, #76]	; 0x4c
  107056:	4798      	blx	r3
  107058:	6960      	ldr	r0, [r4, #20]
  10705a:	9501      	str	r5, [sp, #4]
  10705c:	f001 fad6 	bl	10860c <fflush>
  107060:	9a01      	ldr	r2, [sp, #4]
  107062:	4631      	mov	r1, r6
  107064:	6960      	ldr	r0, [r4, #20]
  107066:	f002 fcfb 	bl	109a60 <vfiscanf>
  10706a:	4605      	mov	r5, r0
  10706c:	6823      	ldr	r3, [r4, #0]
  10706e:	4620      	mov	r0, r4
  107070:	6d1b      	ldr	r3, [r3, #80]	; 0x50
  107072:	4798      	blx	r3
  107074:	4628      	mov	r0, r5
  107076:	b003      	add	sp, #12
  107078:	e8bd 4070 	ldmia.w	sp!, {r4, r5, r6, lr}
  10707c:	b003      	add	sp, #12
  10707e:	4770      	bx	lr

00107080 <rtos::Mutex::constructor(char const*)>:
  107080:	b5f8      	push	{r3, r4, r5, r6, r7, lr}
  107082:	4604      	mov	r4, r0
  107084:	460d      	mov	r5, r1
  107086:	f100 0714 	add.w	r7, r0, #20
  10708a:	221c      	movs	r2, #28
  10708c:	2100      	movs	r1, #0
  10708e:	1d26      	adds	r6, r4, #4
  107090:	4638      	mov	r0, r7
  107092:	f001 fd45 	bl	108b20 <memset>
  107096:	2210      	movs	r2, #16
  107098:	2100      	movs	r1, #0
  10709a:	4630      	mov	r0, r6
  10709c:	f001 fd40 	bl	108b20 <memset>
  1070a0:	4b0b      	ldr	r3, [pc, #44]	; (1070d0 <rtos::Mutex::constructor(char const*)+0x50>)
  1070a2:	60e7      	str	r7, [r4, #12]
  1070a4:	2d00      	cmp	r5, #0
  1070a6:	bf08      	it	eq
  1070a8:	461d      	moveq	r5, r3
  1070aa:	231c      	movs	r3, #28
  1070ac:	6123      	str	r3, [r4, #16]
  1070ae:	230b      	movs	r3, #11
  1070b0:	6065      	str	r5, [r4, #4]
  1070b2:	60a3      	str	r3, [r4, #8]
  1070b4:	4630      	mov	r0, r6
  1070b6:	f7fd f81b 	bl	1040f0 <osMutexNew>
  1070ba:	6020      	str	r0, [r4, #0]
  1070bc:	b930      	cbnz	r0, 1070cc <rtos::Mutex::constructor(char const*)+0x4c>
  1070be:	e8bd 40f8 	ldmia.w	sp!, {r3, r4, r5, r6, r7, lr}
  1070c2:	2231      	movs	r2, #49	; 0x31
  1070c4:	4903      	ldr	r1, [pc, #12]	; (1070d4 <rtos::Mutex::constructor(char const*)+0x54>)
  1070c6:	4804      	ldr	r0, [pc, #16]	; (1070d8 <rtos::Mutex::constructor(char const*)+0x58>)
  1070c8:	f7fb be38 	b.w	102d3c <mbed_assert_internal>
  1070cc:	bdf8      	pop	{r3, r4, r5, r6, r7, pc}
  1070ce:	bf00      	nop
  1070d0:	0010e73a 	.word	0x0010e73a
  1070d4:	0010e753 	.word	0x0010e753
  1070d8:	0010e779 	.word	0x0010e779

001070dc <rtos::Mutex::Mutex()>:
  1070dc:	b510      	push	{r4, lr}
  1070de:	4604      	mov	r4, r0
  1070e0:	2100      	movs	r1, #0
  1070e2:	f7ff ffcd 	bl	107080 <rtos::Mutex::constructor(char const*)>
  1070e6:	4620      	mov	r0, r4
  1070e8:	bd10      	pop	{r4, pc}

001070ea <rtos::Mutex::lock(unsigned long)>:
  1070ea:	6800      	ldr	r0, [r0, #0]
  1070ec:	f7fd b828 	b.w	104140 <osMutexAcquire>

001070f0 <rtos::Mutex::unlock()>:
  1070f0:	6800      	ldr	r0, [r0, #0]
  1070f2:	f7fd b843 	b.w	10417c <osMutexRelease>

001070f6 <rtos::Mutex::~Mutex()>:
  1070f6:	b510      	push	{r4, lr}
  1070f8:	4604      	mov	r4, r0
  1070fa:	6800      	ldr	r0, [r0, #0]
  1070fc:	f7fd f85a 	bl	1041b4 <osMutexDelete>
  107100:	4620      	mov	r0, r4
  107102:	bd10      	pop	{r4, pc}

00107104 <rtos::Thread::wait(unsigned long)>:
  107104:	f7fb bfdc 	b.w	1030c0 <osDelay>

00107108 <SVC_Handler>:
  107108:	f3ef 8009 	mrs	r0, PSP
  10710c:	6981      	ldr	r1, [r0, #24]
  10710e:	f811 1c02 	ldrb.w	r1, [r1, #-2]
  107112:	bb01      	cbnz	r1, 107156 <SVC_User>
  107114:	b501      	push	{r0, lr}
  107116:	e890 100f 	ldmia.w	r0, {r0, r1, r2, r3, r12}
  10711a:	47e0      	blx	r12
  10711c:	e8bd 5000 	ldmia.w	sp!, {r12, lr}
  107120:	e88c 0003 	stmia.w	r12, {r0, r1}

00107124 <SVC_Context>:
  107124:	4b1a      	ldr	r3, [pc, #104]	; (107190 <SysTick_Handler+0x10>)
  107126:	e893 0006 	ldmia.w	r3, {r1, r2}
  10712a:	4291      	cmp	r1, r2
  10712c:	bf08      	it	eq
  10712e:	4770      	bxeq	lr
  107130:	b119      	cbz	r1, 10713a <SVC_ContextSwitch>

00107132 <SVC_ContextSave>:
  107132:	e92c 0ff0 	stmdb	r12!, {r4, r5, r6, r7, r8, r9, r10, r11}
  107136:	f8c1 c038 	str.w	r12, [r1, #56]	; 0x38

0010713a <SVC_ContextSwitch>:
  10713a:	f7fd faef 	bl	10471c <thread_switch_helper>
  10713e:	4b14      	ldr	r3, [pc, #80]	; (107190 <SysTick_Handler+0x10>)
  107140:	e893 0006 	ldmia.w	r3, {r1, r2}
  107144:	601a      	str	r2, [r3, #0]

00107146 <SVC_ContextRestore>:
  107146:	6b90      	ldr	r0, [r2, #56]	; 0x38
  107148:	e8b0 0ff0 	ldmia.w	r0!, {r4, r5, r6, r7, r8, r9, r10, r11}
  10714c:	f380 8809 	msr	PSP, r0
  107150:	f06f 0e02 	mvn.w	lr, #2

00107154 <SVC_Exit>:
  107154:	4770      	bx	lr

00107156 <SVC_User>:
  107156:	b510      	push	{r4, lr}
  107158:	4a0e      	ldr	r2, [pc, #56]	; (107194 <SysTick_Handler+0x14>)
  10715a:	6813      	ldr	r3, [r2, #0]
  10715c:	4299      	cmp	r1, r3
  10715e:	d806      	bhi.n	10716e <SVC_Done>
  107160:	f852 4021 	ldr.w	r4, [r2, r1, lsl #2]
  107164:	c80f      	ldmia	r0, {r0, r1, r2, r3}
  107166:	47a0      	blx	r4
  107168:	f3ef 8409 	mrs	r4, PSP
  10716c:	6020      	str	r0, [r4, #0]

0010716e <SVC_Done>:
  10716e:	bd10      	pop	{r4, pc}

00107170 <PendSV_Handler>:
  107170:	b510      	push	{r4, lr}
  107172:	f7fd f849 	bl	104208 <osRtxPendSV_Handler>
  107176:	e8bd 4010 	ldmia.w	sp!, {r4, lr}
  10717a:	f3ef 8c09 	mrs	r12, PSP
  10717e:	e7d1      	b.n	107124 <SVC_Context>

00107180 <SysTick_Handler>:
  107180:	b510      	push	{r4, lr}
  107182:	f7fd f8df 	bl	104344 <osRtxTick_Handler>
  107186:	e8bd 4010 	ldmia.w	sp!, {r4, lr}
  10718a:	f3ef 8c09 	mrs	r12, PSP
  10718e:	e7c9      	b.n	107124 <SVC_Context>
  107190:	3fff40c4 	.word	0x3fff40c4
  107194:	0010dee4 	.word	0x0010dee4

00107198 <NMI_Handler>:
  107198:	e7fe      	b.n	107198 <NMI_Handler>
  10719a:	e7fe      	b.n	10719a <NMI_Handler+0x2>

0010719c <MemManage_Handler>:
  10719c:	e7fe      	b.n	10719c <MemManage_Handler>

0010719e <BusFault_Handler>:
  10719e:	e7fe      	b.n	10719e <BusFault_Handler>

001071a0 <UsageFault_Handler>:
  1071a0:	e7fe      	b.n	1071a0 <UsageFault_Handler>
  1071a2:	e7fe      	b.n	1071a2 <UsageFault_Handler+0x2>

001071a4 <DebugMon_Handler>:
  1071a4:	e7fe      	b.n	1071a4 <DebugMon_Handler>
  1071a6:	e7fe      	b.n	1071a6 <DebugMon_Handler+0x2>
  1071a8:	e7fe      	b.n	1071a8 <DebugMon_Handler+0x4>

001071aa <DefaultISR>:
  1071aa:	e7fe      	b.n	1071aa <DefaultISR>

001071ac <Reset_Handler>:
  1071ac:	4907      	ldr	r1, [pc, #28]	; (1071cc <Reset_Handler+0x20>)
  1071ae:	4a08      	ldr	r2, [pc, #32]	; (1071d0 <Reset_Handler+0x24>)
  1071b0:	4b08      	ldr	r3, [pc, #32]	; (1071d4 <Reset_Handler+0x28>)
  1071b2:	1a9b      	subs	r3, r3, r2
  1071b4:	dd05      	ble.n	1071c2 <Reset_Handler+0x16>
  1071b6:	2400      	movs	r4, #0
  1071b8:	5908      	ldr	r0, [r1, r4]
  1071ba:	5110      	str	r0, [r2, r4]
  1071bc:	3404      	adds	r4, #4
  1071be:	429c      	cmp	r4, r3
  1071c0:	dbfa      	blt.n	1071b8 <Reset_Handler+0xc>
  1071c2:	4805      	ldr	r0, [pc, #20]	; (1071d8 <Reset_Handler+0x2c>)
  1071c4:	4780      	blx	r0
  1071c6:	4805      	ldr	r0, [pc, #20]	; (1071dc <Reset_Handler+0x30>)
  1071c8:	4700      	bx	r0
  1071ca:	0000      	.short	0x0000
  1071cc:	0010eacc 	.word	0x0010eacc
  1071d0:	3fff40a0 	.word	0x3fff40a0
  1071d4:	3fff4220 	.word	0x3fff4220
  1071d8:	001060a5 	.word	0x001060a5
  1071dc:	001025bd 	.word	0x001025bd

001071e0 <std::char_traits<char>::copy(char*, char const*, unsigned int)>:
  1071e0:	b10a      	cbz	r2, 1071e6 <std::char_traits<char>::copy(char*, char const*, unsigned int)+0x6>
  1071e2:	f001 bc77 	b.w	108ad4 <memcpy>
  1071e6:	4770      	bx	lr

001071e8 <std::__cxx11::basic_string<char, std::char_traits<char>, std::allocator<char> >::_M_dispose()>:
  1071e8:	4603      	mov	r3, r0
  1071ea:	f853 0b08 	ldr.w	r0, [r3], #8
  1071ee:	4298      	cmp	r0, r3
  1071f0:	d001      	beq.n	1071f6 <std::__cxx11::basic_string<char, std::char_traits<char>, std::allocator<char> >::_M_dispose()+0xe>
  1071f2:	f7ff bd95 	b.w	106d20 <operator delete(void*)>
  1071f6:	4770      	bx	lr

001071f8 <std::__cxx11::basic_string<char, std::char_traits<char>, std::allocator<char> >::_S_copy(char*, char const*, unsigned int)>:
  1071f8:	2a01      	cmp	r2, #1
  1071fa:	b510      	push	{r4, lr}
  1071fc:	d102      	bne.n	107204 <std::__cxx11::basic_string<char, std::char_traits<char>, std::allocator<char> >::_S_copy(char*, char const*, unsigned int)+0xc>
  1071fe:	780a      	ldrb	r2, [r1, #0]
  107200:	7002      	strb	r2, [r0, #0]
  107202:	bd10      	pop	{r4, pc}
  107204:	f7ff ffec 	bl	1071e0 <std::char_traits<char>::copy(char*, char const*, unsigned int)>
  107208:	bd10      	pop	{r4, pc}

0010720a <std::__cxx11::basic_string<char, std::char_traits<char>, std::allocator<char> >::_S_copy_chars(char*, char const*, char const*)>:
  10720a:	b508      	push	{r3, lr}
  10720c:	1a52      	subs	r2, r2, r1
  10720e:	f7ff fff3 	bl	1071f8 <std::__cxx11::basic_string<char, std::char_traits<char>, std::allocator<char> >::_S_copy(char*, char const*, unsigned int)>
  107212:	bd08      	pop	{r3, pc}

00107214 <std::__cxx11::basic_string<char, std::char_traits<char>, std::allocator<char> >::~basic_string()>:
  107214:	b510      	push	{r4, lr}
  107216:	4604      	mov	r4, r0
  107218:	f7ff ffe6 	bl	1071e8 <std::__cxx11::basic_string<char, std::char_traits<char>, std::allocator<char> >::_M_dispose()>
  10721c:	4620      	mov	r0, r4
  10721e:	bd10      	pop	{r4, pc}

00107220 <_GLOBAL__sub_I__ZNSt12ctype_bynameIcEC2ERKSsj>:
  107220:	4b24      	ldr	r3, [pc, #144]	; (1072b4 <_GLOBAL__sub_I__ZNSt12ctype_bynameIcEC2ERKSsj+0x94>)
  107222:	681a      	ldr	r2, [r3, #0]
  107224:	07d0      	lsls	r0, r2, #31
  107226:	bf5c      	itt	pl
  107228:	2201      	movpl	r2, #1
  10722a:	601a      	strpl	r2, [r3, #0]
  10722c:	4b22      	ldr	r3, [pc, #136]	; (1072b8 <_GLOBAL__sub_I__ZNSt12ctype_bynameIcEC2ERKSsj+0x98>)
  10722e:	681a      	ldr	r2, [r3, #0]
  107230:	07d1      	lsls	r1, r2, #31
  107232:	bf5c      	itt	pl
  107234:	2201      	movpl	r2, #1
  107236:	601a      	strpl	r2, [r3, #0]
  107238:	4b20      	ldr	r3, [pc, #128]	; (1072bc <_GLOBAL__sub_I__ZNSt12ctype_bynameIcEC2ERKSsj+0x9c>)
  10723a:	681a      	ldr	r2, [r3, #0]
  10723c:	07d2      	lsls	r2, r2, #31
  10723e:	bf5c      	itt	pl
  107240:	2201      	movpl	r2, #1
  107242:	601a      	strpl	r2, [r3, #0]
  107244:	4b1e      	ldr	r3, [pc, #120]	; (1072c0 <_GLOBAL__sub_I__ZNSt12ctype_bynameIcEC2ERKSsj+0xa0>)
  107246:	681a      	ldr	r2, [r3, #0]
  107248:	07d0      	lsls	r0, r2, #31
  10724a:	bf5c      	itt	pl
  10724c:	2201      	movpl	r2, #1
  10724e:	601a      	strpl	r2, [r3, #0]
  107250:	4b1c      	ldr	r3, [pc, #112]	; (1072c4 <_GLOBAL__sub_I__ZNSt12ctype_bynameIcEC2ERKSsj+0xa4>)
  107252:	681a      	ldr	r2, [r3, #0]
  107254:	07d1      	lsls	r1, r2, #31
  107256:	bf5c      	itt	pl
  107258:	2201      	movpl	r2, #1
  10725a:	601a      	strpl	r2, [r3, #0]
  10725c:	4b1a      	ldr	r3, [pc, #104]	; (1072c8 <_GLOBAL__sub_I__ZNSt12ctype_bynameIcEC2ERKSsj+0xa8>)
  10725e:	681a      	ldr	r2, [r3, #0]
  107260:	07d2      	lsls	r2, r2, #31
  107262:	bf5c      	itt	pl
  107264:	2201      	movpl	r2, #1
  107266:	601a      	strpl	r2, [r3, #0]
  107268:	4b18      	ldr	r3, [pc, #96]	; (1072cc <_GLOBAL__sub_I__ZNSt12ctype_bynameIcEC2ERKSsj+0xac>)
  10726a:	681a      	ldr	r2, [r3, #0]
  10726c:	07d0      	lsls	r0, r2, #31
  10726e:	bf5c      	itt	pl
  107270:	2201      	movpl	r2, #1
  107272:	601a      	strpl	r2, [r3, #0]
  107274:	4b16      	ldr	r3, [pc, #88]	; (1072d0 <_GLOBAL__sub_I__ZNSt12ctype_bynameIcEC2ERKSsj+0xb0>)
  107276:	681a      	ldr	r2, [r3, #0]
  107278:	07d1      	lsls	r1, r2, #31
  10727a:	bf5c      	itt	pl
  10727c:	2201      	movpl	r2, #1
  10727e:	601a      	strpl	r2, [r3, #0]
  107280:	4b14      	ldr	r3, [pc, #80]	; (1072d4 <_GLOBAL__sub_I__ZNSt12ctype_bynameIcEC2ERKSsj+0xb4>)
  107282:	681a      	ldr	r2, [r3, #0]
  107284:	07d2      	lsls	r2, r2, #31
  107286:	bf5c      	itt	pl
  107288:	2201      	movpl	r2, #1
  10728a:	601a      	strpl	r2, [r3, #0]
  10728c:	4b12      	ldr	r3, [pc, #72]	; (1072d8 <_GLOBAL__sub_I__ZNSt12ctype_bynameIcEC2ERKSsj+0xb8>)
  10728e:	681a      	ldr	r2, [r3, #0]
  107290:	07d0      	lsls	r0, r2, #31
  107292:	bf5c      	itt	pl
  107294:	2201      	movpl	r2, #1
  107296:	601a      	strpl	r2, [r3, #0]
  107298:	4b10      	ldr	r3, [pc, #64]	; (1072dc <_GLOBAL__sub_I__ZNSt12ctype_bynameIcEC2ERKSsj+0xbc>)
  10729a:	681a      	ldr	r2, [r3, #0]
  10729c:	07d1      	lsls	r1, r2, #31
  10729e:	bf5c      	itt	pl
  1072a0:	2201      	movpl	r2, #1
  1072a2:	601a      	strpl	r2, [r3, #0]
  1072a4:	4b0e      	ldr	r3, [pc, #56]	; (1072e0 <_GLOBAL__sub_I__ZNSt12ctype_bynameIcEC2ERKSsj+0xc0>)
  1072a6:	681a      	ldr	r2, [r3, #0]
  1072a8:	07d2      	lsls	r2, r2, #31
  1072aa:	bf5c      	itt	pl
  1072ac:	2201      	movpl	r2, #1
  1072ae:	601a      	strpl	r2, [r3, #0]
  1072b0:	4770      	bx	lr
  1072b2:	bf00      	nop
  1072b4:	3fff4f60 	.word	0x3fff4f60
  1072b8:	3fff4f5c 	.word	0x3fff4f5c
  1072bc:	3fff4f58 	.word	0x3fff4f58
  1072c0:	3fff4f54 	.word	0x3fff4f54
  1072c4:	3fff4f50 	.word	0x3fff4f50
  1072c8:	3fff4f4c 	.word	0x3fff4f4c
  1072cc:	3fff4f48 	.word	0x3fff4f48
  1072d0:	3fff4f44 	.word	0x3fff4f44
  1072d4:	3fff4f40 	.word	0x3fff4f40
  1072d8:	3fff4f3c 	.word	0x3fff4f3c
  1072dc:	3fff4f38 	.word	0x3fff4f38
  1072e0:	3fff4f34 	.word	0x3fff4f34

001072e4 <_GLOBAL__sub_I__ZNSt12ctype_bynameIcEC2ERKNSt7__cxx1112basic_stringIcSt11char_traitsIcESaIcEEEj>:
  1072e4:	4b18      	ldr	r3, [pc, #96]	; (107348 <_GLOBAL__sub_I__ZNSt12ctype_bynameIcEC2ERKNSt7__cxx1112basic_stringIcSt11char_traitsIcESaIcEEEj+0x64>)
  1072e6:	681a      	ldr	r2, [r3, #0]
  1072e8:	07d1      	lsls	r1, r2, #31
  1072ea:	bf5c      	itt	pl
  1072ec:	2201      	movpl	r2, #1
  1072ee:	601a      	strpl	r2, [r3, #0]
  1072f0:	4b16      	ldr	r3, [pc, #88]	; (10734c <_GLOBAL__sub_I__ZNSt12ctype_bynameIcEC2ERKNSt7__cxx1112basic_stringIcSt11char_traitsIcESaIcEEEj+0x68>)
  1072f2:	681a      	ldr	r2, [r3, #0]
  1072f4:	07d2      	lsls	r2, r2, #31
  1072f6:	bf5c      	itt	pl
  1072f8:	2201      	movpl	r2, #1
  1072fa:	601a      	strpl	r2, [r3, #0]
  1072fc:	4b14      	ldr	r3, [pc, #80]	; (107350 <_GLOBAL__sub_I__ZNSt12ctype_bynameIcEC2ERKNSt7__cxx1112basic_stringIcSt11char_traitsIcESaIcEEEj+0x6c>)
  1072fe:	681a      	ldr	r2, [r3, #0]
  107300:	07d0      	lsls	r0, r2, #31
  107302:	bf5c      	itt	pl
  107304:	2201      	movpl	r2, #1
  107306:	601a      	strpl	r2, [r3, #0]
  107308:	4b12      	ldr	r3, [pc, #72]	; (107354 <_GLOBAL__sub_I__ZNSt12ctype_bynameIcEC2ERKNSt7__cxx1112basic_stringIcSt11char_traitsIcESaIcEEEj+0x70>)
  10730a:	681a      	ldr	r2, [r3, #0]
  10730c:	07d1      	lsls	r1, r2, #31
  10730e:	bf5c      	itt	pl
  107310:	2201      	movpl	r2, #1
  107312:	601a      	strpl	r2, [r3, #0]
  107314:	4b10      	ldr	r3, [pc, #64]	; (107358 <_GLOBAL__sub_I__ZNSt12ctype_bynameIcEC2ERKNSt7__cxx1112basic_stringIcSt11char_traitsIcESaIcEEEj+0x74>)
  107316:	681a      	ldr	r2, [r3, #0]
  107318:	07d2      	lsls	r2, r2, #31
  10731a:	bf5c      	itt	pl
  10731c:	2201      	movpl	r2, #1
  10731e:	601a      	strpl	r2, [r3, #0]
  107320:	4b0e      	ldr	r3, [pc, #56]	; (10735c <_GLOBAL__sub_I__ZNSt12ctype_bynameIcEC2ERKNSt7__cxx1112basic_stringIcSt11char_traitsIcESaIcEEEj+0x78>)
  107322:	681a      	ldr	r2, [r3, #0]
  107324:	07d0      	lsls	r0, r2, #31
  107326:	bf5c      	itt	pl
  107328:	2201      	movpl	r2, #1
  10732a:	601a      	strpl	r2, [r3, #0]
  10732c:	4b0c      	ldr	r3, [pc, #48]	; (107360 <_GLOBAL__sub_I__ZNSt12ctype_bynameIcEC2ERKNSt7__cxx1112basic_stringIcSt11char_traitsIcESaIcEEEj+0x7c>)
  10732e:	681a      	ldr	r2, [r3, #0]
  107330:	07d1      	lsls	r1, r2, #31
  107332:	bf5c      	itt	pl
  107334:	2201      	movpl	r2, #1
  107336:	601a      	strpl	r2, [r3, #0]
  107338:	4b0a      	ldr	r3, [pc, #40]	; (107364 <_GLOBAL__sub_I__ZNSt12ctype_bynameIcEC2ERKNSt7__cxx1112basic_stringIcSt11char_traitsIcESaIcEEEj+0x80>)
  10733a:	681a      	ldr	r2, [r3, #0]
  10733c:	07d2      	lsls	r2, r2, #31
  10733e:	bf5c      	itt	pl
  107340:	2201      	movpl	r2, #1
  107342:	601a      	strpl	r2, [r3, #0]
  107344:	4770      	bx	lr
  107346:	bf00      	nop
  107348:	3fff4f80 	.word	0x3fff4f80
  10734c:	3fff4f7c 	.word	0x3fff4f7c
  107350:	3fff4f78 	.word	0x3fff4f78
  107354:	3fff4f74 	.word	0x3fff4f74
  107358:	3fff4f70 	.word	0x3fff4f70
  10735c:	3fff4f6c 	.word	0x3fff4f6c
  107360:	3fff4f68 	.word	0x3fff4f68
  107364:	3fff4f64 	.word	0x3fff4f64

00107368 <_GLOBAL__sub_I__ZNSt12ctype_bynameIwEC2ERKSsj>:
  107368:	4b24      	ldr	r3, [pc, #144]	; (1073fc <_GLOBAL__sub_I__ZNSt12ctype_bynameIwEC2ERKSsj+0x94>)
  10736a:	681a      	ldr	r2, [r3, #0]
  10736c:	07d0      	lsls	r0, r2, #31
  10736e:	bf5c      	itt	pl
  107370:	2201      	movpl	r2, #1
  107372:	601a      	strpl	r2, [r3, #0]
  107374:	4b22      	ldr	r3, [pc, #136]	; (107400 <_GLOBAL__sub_I__ZNSt12ctype_bynameIwEC2ERKSsj+0x98>)
  107376:	681a      	ldr	r2, [r3, #0]
  107378:	07d1      	lsls	r1, r2, #31
  10737a:	bf5c      	itt	pl
  10737c:	2201      	movpl	r2, #1
  10737e:	601a      	strpl	r2, [r3, #0]
  107380:	4b20      	ldr	r3, [pc, #128]	; (107404 <_GLOBAL__sub_I__ZNSt12ctype_bynameIwEC2ERKSsj+0x9c>)
  107382:	681a      	ldr	r2, [r3, #0]
  107384:	07d2      	lsls	r2, r2, #31
  107386:	bf5c      	itt	pl
  107388:	2201      	movpl	r2, #1
  10738a:	601a      	strpl	r2, [r3, #0]
  10738c:	4b1e      	ldr	r3, [pc, #120]	; (107408 <_GLOBAL__sub_I__ZNSt12ctype_bynameIwEC2ERKSsj+0xa0>)
  10738e:	681a      	ldr	r2, [r3, #0]
  107390:	07d0      	lsls	r0, r2, #31
  107392:	bf5c      	itt	pl
  107394:	2201      	movpl	r2, #1
  107396:	601a      	strpl	r2, [r3, #0]
  107398:	4b1c      	ldr	r3, [pc, #112]	; (10740c <_GLOBAL__sub_I__ZNSt12ctype_bynameIwEC2ERKSsj+0xa4>)
  10739a:	681a      	ldr	r2, [r3, #0]
  10739c:	07d1      	lsls	r1, r2, #31
  10739e:	bf5c      	itt	pl
  1073a0:	2201      	movpl	r2, #1
  1073a2:	601a      	strpl	r2, [r3, #0]
  1073a4:	4b1a      	ldr	r3, [pc, #104]	; (107410 <_GLOBAL__sub_I__ZNSt12ctype_bynameIwEC2ERKSsj+0xa8>)
  1073a6:	681a      	ldr	r2, [r3, #0]
  1073a8:	07d2      	lsls	r2, r2, #31
  1073aa:	bf5c      	itt	pl
  1073ac:	2201      	movpl	r2, #1
  1073ae:	601a      	strpl	r2, [r3, #0]
  1073b0:	4b18      	ldr	r3, [pc, #96]	; (107414 <_GLOBAL__sub_I__ZNSt12ctype_bynameIwEC2ERKSsj+0xac>)
  1073b2:	681a      	ldr	r2, [r3, #0]
  1073b4:	07d0      	lsls	r0, r2, #31
  1073b6:	bf5c      	itt	pl
  1073b8:	2201      	movpl	r2, #1
  1073ba:	601a      	strpl	r2, [r3, #0]
  1073bc:	4b16      	ldr	r3, [pc, #88]	; (107418 <_GLOBAL__sub_I__ZNSt12ctype_bynameIwEC2ERKSsj+0xb0>)
  1073be:	681a      	ldr	r2, [r3, #0]
  1073c0:	07d1      	lsls	r1, r2, #31
  1073c2:	bf5c      	itt	pl
  1073c4:	2201      	movpl	r2, #1
  1073c6:	601a      	strpl	r2, [r3, #0]
  1073c8:	4b14      	ldr	r3, [pc, #80]	; (10741c <_GLOBAL__sub_I__ZNSt12ctype_bynameIwEC2ERKSsj+0xb4>)
  1073ca:	681a      	ldr	r2, [r3, #0]
  1073cc:	07d2      	lsls	r2, r2, #31
  1073ce:	bf5c      	itt	pl
  1073d0:	2201      	movpl	r2, #1
  1073d2:	601a      	strpl	r2, [r3, #0]
  1073d4:	4b12      	ldr	r3, [pc, #72]	; (107420 <_GLOBAL__sub_I__ZNSt12ctype_bynameIwEC2ERKSsj+0xb8>)
  1073d6:	681a      	ldr	r2, [r3, #0]
  1073d8:	07d0      	lsls	r0, r2, #31
  1073da:	bf5c      	itt	pl
  1073dc:	2201      	movpl	r2, #1
  1073de:	601a      	strpl	r2, [r3, #0]
  1073e0:	4b10      	ldr	r3, [pc, #64]	; (107424 <_GLOBAL__sub_I__ZNSt12ctype_bynameIwEC2ERKSsj+0xbc>)
  1073e2:	681a      	ldr	r2, [r3, #0]
  1073e4:	07d1      	lsls	r1, r2, #31
  1073e6:	bf5c      	itt	pl
  1073e8:	2201      	movpl	r2, #1
  1073ea:	601a      	strpl	r2, [r3, #0]
  1073ec:	4b0e      	ldr	r3, [pc, #56]	; (107428 <_GLOBAL__sub_I__ZNSt12ctype_bynameIwEC2ERKSsj+0xc0>)
  1073ee:	681a      	ldr	r2, [r3, #0]
  1073f0:	07d2      	lsls	r2, r2, #31
  1073f2:	bf5c      	itt	pl
  1073f4:	2201      	movpl	r2, #1
  1073f6:	601a      	strpl	r2, [r3, #0]
  1073f8:	4770      	bx	lr
  1073fa:	bf00      	nop
  1073fc:	3fff4fb0 	.word	0x3fff4fb0
  107400:	3fff4fac 	.word	0x3fff4fac
  107404:	3fff4fa8 	.word	0x3fff4fa8
  107408:	3fff4fa4 	.word	0x3fff4fa4
  10740c:	3fff4fa0 	.word	0x3fff4fa0
  107410:	3fff4f9c 	.word	0x3fff4f9c
  107414:	3fff4f98 	.word	0x3fff4f98
  107418:	3fff4f94 	.word	0x3fff4f94
  10741c:	3fff4f90 	.word	0x3fff4f90
  107420:	3fff4f8c 	.word	0x3fff4f8c
  107424:	3fff4f88 	.word	0x3fff4f88
  107428:	3fff4f84 	.word	0x3fff4f84

0010742c <_GLOBAL__sub_I__ZNSt12ctype_bynameIwEC2ERKNSt7__cxx1112basic_stringIcSt11char_traitsIcESaIcEEEj>:
  10742c:	4b18      	ldr	r3, [pc, #96]	; (107490 <_GLOBAL__sub_I__ZNSt12ctype_bynameIwEC2ERKNSt7__cxx1112basic_stringIcSt11char_traitsIcESaIcEEEj+0x64>)
  10742e:	681a      	ldr	r2, [r3, #0]
  107430:	07d1      	lsls	r1, r2, #31
  107432:	bf5c      	itt	pl
  107434:	2201      	movpl	r2, #1
  107436:	601a      	strpl	r2, [r3, #0]
  107438:	4b16      	ldr	r3, [pc, #88]	; (107494 <_GLOBAL__sub_I__ZNSt12ctype_bynameIwEC2ERKNSt7__cxx1112basic_stringIcSt11char_traitsIcESaIcEEEj+0x68>)
  10743a:	681a      	ldr	r2, [r3, #0]
  10743c:	07d2      	lsls	r2, r2, #31
  10743e:	bf5c      	itt	pl
  107440:	2201      	movpl	r2, #1
  107442:	601a      	strpl	r2, [r3, #0]
  107444:	4b14      	ldr	r3, [pc, #80]	; (107498 <_GLOBAL__sub_I__ZNSt12ctype_bynameIwEC2ERKNSt7__cxx1112basic_stringIcSt11char_traitsIcESaIcEEEj+0x6c>)
  107446:	681a      	ldr	r2, [r3, #0]
  107448:	07d0      	lsls	r0, r2, #31
  10744a:	bf5c      	itt	pl
  10744c:	2201      	movpl	r2, #1
  10744e:	601a      	strpl	r2, [r3, #0]
  107450:	4b12      	ldr	r3, [pc, #72]	; (10749c <_GLOBAL__sub_I__ZNSt12ctype_bynameIwEC2ERKNSt7__cxx1112basic_stringIcSt11char_traitsIcESaIcEEEj+0x70>)
  107452:	681a      	ldr	r2, [r3, #0]
  107454:	07d1      	lsls	r1, r2, #31
  107456:	bf5c      	itt	pl
  107458:	2201      	movpl	r2, #1
  10745a:	601a      	strpl	r2, [r3, #0]
  10745c:	4b10      	ldr	r3, [pc, #64]	; (1074a0 <_GLOBAL__sub_I__ZNSt12ctype_bynameIwEC2ERKNSt7__cxx1112basic_stringIcSt11char_traitsIcESaIcEEEj+0x74>)
  10745e:	681a      	ldr	r2, [r3, #0]
  107460:	07d2      	lsls	r2, r2, #31
  107462:	bf5c      	itt	pl
  107464:	2201      	movpl	r2, #1
  107466:	601a      	strpl	r2, [r3, #0]
  107468:	4b0e      	ldr	r3, [pc, #56]	; (1074a4 <_GLOBAL__sub_I__ZNSt12ctype_bynameIwEC2ERKNSt7__cxx1112basic_stringIcSt11char_traitsIcESaIcEEEj+0x78>)
  10746a:	681a      	ldr	r2, [r3, #0]
  10746c:	07d0      	lsls	r0, r2, #31
  10746e:	bf5c      	itt	pl
  107470:	2201      	movpl	r2, #1
  107472:	601a      	strpl	r2, [r3, #0]
  107474:	4b0c      	ldr	r3, [pc, #48]	; (1074a8 <_GLOBAL__sub_I__ZNSt12ctype_bynameIwEC2ERKNSt7__cxx1112basic_stringIcSt11char_traitsIcESaIcEEEj+0x7c>)
  107476:	681a      	ldr	r2, [r3, #0]
  107478:	07d1      	lsls	r1, r2, #31
  10747a:	bf5c      	itt	pl
  10747c:	2201      	movpl	r2, #1
  10747e:	601a      	strpl	r2, [r3, #0]
  107480:	4b0a      	ldr	r3, [pc, #40]	; (1074ac <_GLOBAL__sub_I__ZNSt12ctype_bynameIwEC2ERKNSt7__cxx1112basic_stringIcSt11char_traitsIcESaIcEEEj+0x80>)
  107482:	681a      	ldr	r2, [r3, #0]
  107484:	07d2      	lsls	r2, r2, #31
  107486:	bf5c      	itt	pl
  107488:	2201      	movpl	r2, #1
  10748a:	601a      	strpl	r2, [r3, #0]
  10748c:	4770      	bx	lr
  10748e:	bf00      	nop
  107490:	3fff4fd0 	.word	0x3fff4fd0
  107494:	3fff4fcc 	.word	0x3fff4fcc
  107498:	3fff4fc8 	.word	0x3fff4fc8
  10749c:	3fff4fc4 	.word	0x3fff4fc4
  1074a0:	3fff4fc0 	.word	0x3fff4fc0
  1074a4:	3fff4fbc 	.word	0x3fff4fbc
  1074a8:	3fff4fb8 	.word	0x3fff4fb8
  1074ac:	3fff4fb4 	.word	0x3fff4fb4

001074b0 <__aeabi_drsub>:
  1074b0:	f081 4100 	eor.w	r1, r1, #2147483648	; 0x80000000
  1074b4:	e002      	b.n	1074bc <__adddf3>
  1074b6:	bf00      	nop

001074b8 <__aeabi_dsub>:
  1074b8:	f083 4300 	eor.w	r3, r3, #2147483648	; 0x80000000

001074bc <__adddf3>:
  1074bc:	b530      	push	{r4, r5, lr}
  1074be:	ea4f 0441 	mov.w	r4, r1, lsl #1
  1074c2:	ea4f 0543 	mov.w	r5, r3, lsl #1
  1074c6:	ea94 0f05 	teq	r4, r5
  1074ca:	bf08      	it	eq
  1074cc:	ea90 0f02 	teqeq	r0, r2
  1074d0:	bf1f      	itttt	ne
  1074d2:	ea54 0c00 	orrsne.w	r12, r4, r0
  1074d6:	ea55 0c02 	orrsne.w	r12, r5, r2
  1074da:	ea7f 5c64 	mvnsne.w	r12, r4, asr #21
  1074de:	ea7f 5c65 	mvnsne.w	r12, r5, asr #21
  1074e2:	f000 80e2 	beq.w	1076aa <__adddf3+0x1ee>
  1074e6:	ea4f 5454 	mov.w	r4, r4, lsr #21
  1074ea:	ebd4 5555 	rsbs	r5, r4, r5, lsr #21
  1074ee:	bfb8      	it	lt
  1074f0:	426d      	neglt	r5, r5
  1074f2:	dd0c      	ble.n	10750e <__adddf3+0x52>
  1074f4:	442c      	add	r4, r5
  1074f6:	ea80 0202 	eor.w	r2, r0, r2
  1074fa:	ea81 0303 	eor.w	r3, r1, r3
  1074fe:	ea82 0000 	eor.w	r0, r2, r0
  107502:	ea83 0101 	eor.w	r1, r3, r1
  107506:	ea80 0202 	eor.w	r2, r0, r2
  10750a:	ea81 0303 	eor.w	r3, r1, r3
  10750e:	2d36      	cmp	r5, #54	; 0x36
  107510:	bf88      	it	hi
  107512:	bd30      	pophi	{r4, r5, pc}
  107514:	f011 4f00 	tst.w	r1, #2147483648	; 0x80000000
  107518:	ea4f 3101 	mov.w	r1, r1, lsl #12
  10751c:	f44f 1c80 	mov.w	r12, #1048576	; 0x100000
  107520:	ea4c 3111 	orr.w	r1, r12, r1, lsr #12
  107524:	d002      	beq.n	10752c <__adddf3+0x70>
  107526:	4240      	negs	r0, r0
  107528:	eb61 0141 	sbc.w	r1, r1, r1, lsl #1
  10752c:	f013 4f00 	tst.w	r3, #2147483648	; 0x80000000
  107530:	ea4f 3303 	mov.w	r3, r3, lsl #12
  107534:	ea4c 3313 	orr.w	r3, r12, r3, lsr #12
  107538:	d002      	beq.n	107540 <__adddf3+0x84>
  10753a:	4252      	negs	r2, r2
  10753c:	eb63 0343 	sbc.w	r3, r3, r3, lsl #1
  107540:	ea94 0f05 	teq	r4, r5
  107544:	f000 80a7 	beq.w	107696 <__adddf3+0x1da>
  107548:	f1a4 0401 	sub.w	r4, r4, #1
  10754c:	f1d5 0e20 	rsbs	lr, r5, #32
  107550:	db0d      	blt.n	10756e <__adddf3+0xb2>
  107552:	fa02 fc0e 	lsl.w	r12, r2, lr
  107556:	fa22 f205 	lsr.w	r2, r2, r5
  10755a:	1880      	adds	r0, r0, r2
  10755c:	f141 0100 	adc.w	r1, r1, #0
  107560:	fa03 f20e 	lsl.w	r2, r3, lr
  107564:	1880      	adds	r0, r0, r2
  107566:	fa43 f305 	asr.w	r3, r3, r5
  10756a:	4159      	adcs	r1, r3
  10756c:	e00e      	b.n	10758c <__adddf3+0xd0>
  10756e:	f1a5 0520 	sub.w	r5, r5, #32
  107572:	f10e 0e20 	add.w	lr, lr, #32
  107576:	2a01      	cmp	r2, #1
  107578:	fa03 fc0e 	lsl.w	r12, r3, lr
  10757c:	bf28      	it	cs
  10757e:	f04c 0c02 	orrcs.w	r12, r12, #2
  107582:	fa43 f305 	asr.w	r3, r3, r5
  107586:	18c0      	adds	r0, r0, r3
  107588:	eb51 71e3 	adcs.w	r1, r1, r3, asr #31
  10758c:	f001 4500 	and.w	r5, r1, #2147483648	; 0x80000000
  107590:	d507      	bpl.n	1075a2 <__adddf3+0xe6>
  107592:	f04f 0e00 	mov.w	lr, #0
  107596:	f1dc 0c00 	rsbs	r12, r12, #0
  10759a:	eb7e 0000 	sbcs.w	r0, lr, r0
  10759e:	eb6e 0101 	sbc.w	r1, lr, r1
  1075a2:	f5b1 1f80 	cmp.w	r1, #1048576	; 0x100000
  1075a6:	d31b      	bcc.n	1075e0 <__adddf3+0x124>
  1075a8:	f5b1 1f00 	cmp.w	r1, #2097152	; 0x200000
  1075ac:	d30c      	bcc.n	1075c8 <__adddf3+0x10c>
  1075ae:	0849      	lsrs	r1, r1, #1
  1075b0:	ea5f 0030 	movs.w	r0, r0, rrx
  1075b4:	ea4f 0c3c 	mov.w	r12, r12, rrx
  1075b8:	f104 0401 	add.w	r4, r4, #1
  1075bc:	ea4f 5244 	mov.w	r2, r4, lsl #21
  1075c0:	f512 0f80 	cmn.w	r2, #4194304	; 0x400000
  1075c4:	f080 809a 	bcs.w	1076fc <__adddf3+0x240>
  1075c8:	f1bc 4f00 	cmp.w	r12, #2147483648	; 0x80000000
  1075cc:	bf08      	it	eq
  1075ce:	ea5f 0c50 	movseq.w	r12, r0, lsr #1
  1075d2:	f150 0000 	adcs.w	r0, r0, #0
  1075d6:	eb41 5104 	adc.w	r1, r1, r4, lsl #20
  1075da:	ea41 0105 	orr.w	r1, r1, r5
  1075de:	bd30      	pop	{r4, r5, pc}
  1075e0:	ea5f 0c4c 	movs.w	r12, r12, lsl #1
  1075e4:	4140      	adcs	r0, r0
  1075e6:	eb41 0101 	adc.w	r1, r1, r1
  1075ea:	f411 1f80 	tst.w	r1, #1048576	; 0x100000
  1075ee:	f1a4 0401 	sub.w	r4, r4, #1
  1075f2:	d1e9      	bne.n	1075c8 <__adddf3+0x10c>
  1075f4:	f091 0f00 	teq	r1, #0
  1075f8:	bf04      	itt	eq
  1075fa:	4601      	moveq	r1, r0
  1075fc:	2000      	moveq	r0, #0
  1075fe:	fab1 f381 	clz	r3, r1
  107602:	bf08      	it	eq
  107604:	3320      	addeq	r3, #32
  107606:	f1a3 030b 	sub.w	r3, r3, #11
  10760a:	f1b3 0220 	subs.w	r2, r3, #32
  10760e:	da0c      	bge.n	10762a <__adddf3+0x16e>
  107610:	320c      	adds	r2, #12
  107612:	dd08      	ble.n	107626 <__adddf3+0x16a>
  107614:	f102 0c14 	add.w	r12, r2, #20
  107618:	f1c2 020c 	rsb	r2, r2, #12
  10761c:	fa01 f00c 	lsl.w	r0, r1, r12
  107620:	fa21 f102 	lsr.w	r1, r1, r2
  107624:	e00c      	b.n	107640 <__adddf3+0x184>
  107626:	f102 0214 	add.w	r2, r2, #20
  10762a:	bfd8      	it	le
  10762c:	f1c2 0c20 	rsble	r12, r2, #32
  107630:	fa01 f102 	lsl.w	r1, r1, r2
  107634:	fa20 fc0c 	lsr.w	r12, r0, r12
  107638:	bfdc      	itt	le
  10763a:	ea41 010c 	orrle.w	r1, r1, r12
  10763e:	4090      	lslle	r0, r2
  107640:	1ae4      	subs	r4, r4, r3
  107642:	bfa2      	ittt	ge
  107644:	eb01 5104 	addge.w	r1, r1, r4, lsl #20
  107648:	4329      	orrge	r1, r5
  10764a:	bd30      	popge	{r4, r5, pc}
  10764c:	ea6f 0404 	mvn.w	r4, r4
  107650:	3c1f      	subs	r4, #31
  107652:	da1c      	bge.n	10768e <__adddf3+0x1d2>
  107654:	340c      	adds	r4, #12
  107656:	dc0e      	bgt.n	107676 <__adddf3+0x1ba>
  107658:	f104 0414 	add.w	r4, r4, #20
  10765c:	f1c4 0220 	rsb	r2, r4, #32
  107660:	fa20 f004 	lsr.w	r0, r0, r4
  107664:	fa01 f302 	lsl.w	r3, r1, r2
  107668:	ea40 0003 	orr.w	r0, r0, r3
  10766c:	fa21 f304 	lsr.w	r3, r1, r4
  107670:	ea45 0103 	orr.w	r1, r5, r3
  107674:	bd30      	pop	{r4, r5, pc}
  107676:	f1c4 040c 	rsb	r4, r4, #12
  10767a:	f1c4 0220 	rsb	r2, r4, #32
  10767e:	fa20 f002 	lsr.w	r0, r0, r2
  107682:	fa01 f304 	lsl.w	r3, r1, r4
  107686:	ea40 0003 	orr.w	r0, r0, r3
  10768a:	4629      	mov	r1, r5
  10768c:	bd30      	pop	{r4, r5, pc}
  10768e:	fa21 f004 	lsr.w	r0, r1, r4
  107692:	4629      	mov	r1, r5
  107694:	bd30      	pop	{r4, r5, pc}
  107696:	f094 0f00 	teq	r4, #0
  10769a:	f483 1380 	eor.w	r3, r3, #1048576	; 0x100000
  10769e:	bf06      	itte	eq
  1076a0:	f481 1180 	eoreq.w	r1, r1, #1048576	; 0x100000
  1076a4:	3401      	addeq	r4, #1
  1076a6:	3d01      	subne	r5, #1
  1076a8:	e74e      	b.n	107548 <__adddf3+0x8c>
  1076aa:	ea7f 5c64 	mvns.w	r12, r4, asr #21
  1076ae:	bf18      	it	ne
  1076b0:	ea7f 5c65 	mvnsne.w	r12, r5, asr #21
  1076b4:	d029      	beq.n	10770a <__adddf3+0x24e>
  1076b6:	ea94 0f05 	teq	r4, r5
  1076ba:	bf08      	it	eq
  1076bc:	ea90 0f02 	teqeq	r0, r2
  1076c0:	d005      	beq.n	1076ce <__adddf3+0x212>
  1076c2:	ea54 0c00 	orrs.w	r12, r4, r0
  1076c6:	bf04      	itt	eq
  1076c8:	4619      	moveq	r1, r3
  1076ca:	4610      	moveq	r0, r2
  1076cc:	bd30      	pop	{r4, r5, pc}
  1076ce:	ea91 0f03 	teq	r1, r3
  1076d2:	bf1e      	ittt	ne
  1076d4:	2100      	movne	r1, #0
  1076d6:	2000      	movne	r0, #0
  1076d8:	bd30      	popne	{r4, r5, pc}
  1076da:	ea5f 5c54 	movs.w	r12, r4, lsr #21
  1076de:	d105      	bne.n	1076ec <__adddf3+0x230>
  1076e0:	0040      	lsls	r0, r0, #1
  1076e2:	4149      	adcs	r1, r1
  1076e4:	bf28      	it	cs
  1076e6:	f041 4100 	orrcs.w	r1, r1, #2147483648	; 0x80000000
  1076ea:	bd30      	pop	{r4, r5, pc}
  1076ec:	f514 0480 	adds.w	r4, r4, #4194304	; 0x400000
  1076f0:	bf3c      	itt	cc
  1076f2:	f501 1180 	addcc.w	r1, r1, #1048576	; 0x100000
  1076f6:	bd30      	popcc	{r4, r5, pc}
  1076f8:	f001 4500 	and.w	r5, r1, #2147483648	; 0x80000000
  1076fc:	f045 41fe 	orr.w	r1, r5, #2130706432	; 0x7f000000
  107700:	f441 0170 	orr.w	r1, r1, #15728640	; 0xf00000
  107704:	f04f 0000 	mov.w	r0, #0
  107708:	bd30      	pop	{r4, r5, pc}
  10770a:	ea7f 5c64 	mvns.w	r12, r4, asr #21
  10770e:	bf1a      	itte	ne
  107710:	4619      	movne	r1, r3
  107712:	4610      	movne	r0, r2
  107714:	ea7f 5c65 	mvnseq.w	r12, r5, asr #21
  107718:	bf1c      	itt	ne
  10771a:	460b      	movne	r3, r1
  10771c:	4602      	movne	r2, r0
  10771e:	ea50 3401 	orrs.w	r4, r0, r1, lsl #12
  107722:	bf06      	itte	eq
  107724:	ea52 3503 	orrseq.w	r5, r2, r3, lsl #12
  107728:	ea91 0f03 	teqeq	r1, r3
  10772c:	f441 2100 	orrne.w	r1, r1, #524288	; 0x80000
  107730:	bd30      	pop	{r4, r5, pc}
  107732:	bf00      	nop

00107734 <__aeabi_ui2d>:
  107734:	f090 0f00 	teq	r0, #0
  107738:	bf04      	itt	eq
  10773a:	2100      	moveq	r1, #0
  10773c:	4770      	bxeq	lr
  10773e:	b530      	push	{r4, r5, lr}
  107740:	f44f 6480 	mov.w	r4, #1024	; 0x400
  107744:	f104 0432 	add.w	r4, r4, #50	; 0x32
  107748:	f04f 0500 	mov.w	r5, #0
  10774c:	f04f 0100 	mov.w	r1, #0
  107750:	e750      	b.n	1075f4 <__adddf3+0x138>
  107752:	bf00      	nop

00107754 <__aeabi_i2d>:
  107754:	f090 0f00 	teq	r0, #0
  107758:	bf04      	itt	eq
  10775a:	2100      	moveq	r1, #0
  10775c:	4770      	bxeq	lr
  10775e:	b530      	push	{r4, r5, lr}
  107760:	f44f 6480 	mov.w	r4, #1024	; 0x400
  107764:	f104 0432 	add.w	r4, r4, #50	; 0x32
  107768:	f010 4500 	ands.w	r5, r0, #2147483648	; 0x80000000
  10776c:	bf48      	it	mi
  10776e:	4240      	negmi	r0, r0
  107770:	f04f 0100 	mov.w	r1, #0
  107774:	e73e      	b.n	1075f4 <__adddf3+0x138>
  107776:	bf00      	nop

00107778 <__aeabi_f2d>:
  107778:	0042      	lsls	r2, r0, #1
  10777a:	ea4f 01e2 	mov.w	r1, r2, asr #3
  10777e:	ea4f 0131 	mov.w	r1, r1, rrx
  107782:	ea4f 7002 	mov.w	r0, r2, lsl #28
  107786:	bf1f      	itttt	ne
  107788:	f012 437f 	andsne.w	r3, r2, #4278190080	; 0xff000000
  10778c:	f093 4f7f 	teqne	r3, #4278190080	; 0xff000000
  107790:	f081 5160 	eorne.w	r1, r1, #939524096	; 0x38000000
  107794:	4770      	bxne	lr
  107796:	f092 0f00 	teq	r2, #0
  10779a:	bf14      	ite	ne
  10779c:	f093 4f7f 	teqne	r3, #4278190080	; 0xff000000
  1077a0:	4770      	bxeq	lr
  1077a2:	b530      	push	{r4, r5, lr}
  1077a4:	f44f 7460 	mov.w	r4, #896	; 0x380
  1077a8:	f001 4500 	and.w	r5, r1, #2147483648	; 0x80000000
  1077ac:	f021 4100 	bic.w	r1, r1, #2147483648	; 0x80000000
  1077b0:	e720      	b.n	1075f4 <__adddf3+0x138>
  1077b2:	bf00      	nop

001077b4 <__aeabi_ul2d>:
  1077b4:	ea50 0201 	orrs.w	r2, r0, r1
  1077b8:	bf08      	it	eq
  1077ba:	4770      	bxeq	lr
  1077bc:	b530      	push	{r4, r5, lr}
  1077be:	f04f 0500 	mov.w	r5, #0
  1077c2:	e00a      	b.n	1077da <__aeabi_l2d+0x16>

001077c4 <__aeabi_l2d>:
  1077c4:	ea50 0201 	orrs.w	r2, r0, r1
  1077c8:	bf08      	it	eq
  1077ca:	4770      	bxeq	lr
  1077cc:	b530      	push	{r4, r5, lr}
  1077ce:	f011 4500 	ands.w	r5, r1, #2147483648	; 0x80000000
  1077d2:	d502      	bpl.n	1077da <__aeabi_l2d+0x16>
  1077d4:	4240      	negs	r0, r0
  1077d6:	eb61 0141 	sbc.w	r1, r1, r1, lsl #1
  1077da:	f44f 6480 	mov.w	r4, #1024	; 0x400
  1077de:	f104 0432 	add.w	r4, r4, #50	; 0x32
  1077e2:	ea5f 5c91 	movs.w	r12, r1, lsr #22
  1077e6:	f43f aedc 	beq.w	1075a2 <__adddf3+0xe6>
  1077ea:	f04f 0203 	mov.w	r2, #3
  1077ee:	ea5f 0cdc 	movs.w	r12, r12, lsr #3
  1077f2:	bf18      	it	ne
  1077f4:	3203      	addne	r2, #3
  1077f6:	ea5f 0cdc 	movs.w	r12, r12, lsr #3
  1077fa:	bf18      	it	ne
  1077fc:	3203      	addne	r2, #3
  1077fe:	eb02 02dc 	add.w	r2, r2, r12, lsr #3
  107802:	f1c2 0320 	rsb	r3, r2, #32
  107806:	fa00 fc03 	lsl.w	r12, r0, r3
  10780a:	fa20 f002 	lsr.w	r0, r0, r2
  10780e:	fa01 fe03 	lsl.w	lr, r1, r3
  107812:	ea40 000e 	orr.w	r0, r0, lr
  107816:	fa21 f102 	lsr.w	r1, r1, r2
  10781a:	4414      	add	r4, r2
  10781c:	e6c1      	b.n	1075a2 <__adddf3+0xe6>
  10781e:	bf00      	nop

00107820 <__gedf2>:
  107820:	f04f 3cff 	mov.w	r12, #4294967295
  107824:	e006      	b.n	107834 <__cmpdf2+0x4>
  107826:	bf00      	nop

00107828 <__ledf2>:
  107828:	f04f 0c01 	mov.w	r12, #1
  10782c:	e002      	b.n	107834 <__cmpdf2+0x4>
  10782e:	bf00      	nop

00107830 <__cmpdf2>:
  107830:	f04f 0c01 	mov.w	r12, #1
  107834:	f84d cd04 	str.w	r12, [sp, #-4]!
  107838:	ea4f 0c41 	mov.w	r12, r1, lsl #1
  10783c:	ea7f 5c6c 	mvns.w	r12, r12, asr #21
  107840:	ea4f 0c43 	mov.w	r12, r3, lsl #1
  107844:	bf18      	it	ne
  107846:	ea7f 5c6c 	mvnsne.w	r12, r12, asr #21
  10784a:	d01b      	beq.n	107884 <__cmpdf2+0x54>
  10784c:	b001      	add	sp, #4
  10784e:	ea50 0c41 	orrs.w	r12, r0, r1, lsl #1
  107852:	bf0c      	ite	eq
  107854:	ea52 0c43 	orrseq.w	r12, r2, r3, lsl #1
  107858:	ea91 0f03 	teqne	r1, r3
  10785c:	bf02      	ittt	eq
  10785e:	ea90 0f02 	teqeq	r0, r2
  107862:	2000      	moveq	r0, #0
  107864:	4770      	bxeq	lr
  107866:	f110 0f00 	cmn.w	r0, #0
  10786a:	ea91 0f03 	teq	r1, r3
  10786e:	bf58      	it	pl
  107870:	4299      	cmppl	r1, r3
  107872:	bf08      	it	eq
  107874:	4290      	cmpeq	r0, r2
  107876:	bf2c      	ite	cs
  107878:	17d8      	asrcs	r0, r3, #31
  10787a:	ea6f 70e3 	mvncc.w	r0, r3, asr #31
  10787e:	f040 0001 	orr.w	r0, r0, #1
  107882:	4770      	bx	lr
  107884:	ea4f 0c41 	mov.w	r12, r1, lsl #1
  107888:	ea7f 5c6c 	mvns.w	r12, r12, asr #21
  10788c:	d102      	bne.n	107894 <__cmpdf2+0x64>
  10788e:	ea50 3c01 	orrs.w	r12, r0, r1, lsl #12
  107892:	d107      	bne.n	1078a4 <__cmpdf2+0x74>
  107894:	ea4f 0c43 	mov.w	r12, r3, lsl #1
  107898:	ea7f 5c6c 	mvns.w	r12, r12, asr #21
  10789c:	d1d6      	bne.n	10784c <__cmpdf2+0x1c>
  10789e:	ea52 3c03 	orrs.w	r12, r2, r3, lsl #12
  1078a2:	d0d3      	beq.n	10784c <__cmpdf2+0x1c>
  1078a4:	f85d 0b04 	ldr.w	r0, [sp], #4
  1078a8:	4770      	bx	lr
  1078aa:	bf00      	nop

001078ac <__aeabi_cdrcmple>:
  1078ac:	4684      	mov	r12, r0
  1078ae:	4610      	mov	r0, r2
  1078b0:	4662      	mov	r2, r12
  1078b2:	468c      	mov	r12, r1
  1078b4:	4619      	mov	r1, r3
  1078b6:	4663      	mov	r3, r12
  1078b8:	e000      	b.n	1078bc <__aeabi_cdcmpeq>
  1078ba:	bf00      	nop

001078bc <__aeabi_cdcmpeq>:
  1078bc:	b501      	push	{r0, lr}
  1078be:	f7ff ffb7 	bl	107830 <__cmpdf2>
  1078c2:	2800      	cmp	r0, #0
  1078c4:	bf48      	it	mi
  1078c6:	f110 0f00 	cmnmi.w	r0, #0
  1078ca:	bd01      	pop	{r0, pc}

001078cc <__aeabi_dcmpeq>:
  1078cc:	f84d ed08 	str.w	lr, [sp, #-8]!
  1078d0:	f7ff fff4 	bl	1078bc <__aeabi_cdcmpeq>
  1078d4:	bf0c      	ite	eq
  1078d6:	2001      	moveq	r0, #1
  1078d8:	2000      	movne	r0, #0
  1078da:	f85d fb08 	ldr.w	pc, [sp], #8
  1078de:	bf00      	nop

001078e0 <__aeabi_dcmplt>:
  1078e0:	f84d ed08 	str.w	lr, [sp, #-8]!
  1078e4:	f7ff ffea 	bl	1078bc <__aeabi_cdcmpeq>
  1078e8:	bf34      	ite	cc
  1078ea:	2001      	movcc	r0, #1
  1078ec:	2000      	movcs	r0, #0
  1078ee:	f85d fb08 	ldr.w	pc, [sp], #8
  1078f2:	bf00      	nop

001078f4 <__aeabi_dcmple>:
  1078f4:	f84d ed08 	str.w	lr, [sp, #-8]!
  1078f8:	f7ff ffe0 	bl	1078bc <__aeabi_cdcmpeq>
  1078fc:	bf94      	ite	ls
  1078fe:	2001      	movls	r0, #1
  107900:	2000      	movhi	r0, #0
  107902:	f85d fb08 	ldr.w	pc, [sp], #8
  107906:	bf00      	nop

00107908 <__aeabi_dcmpge>:
  107908:	f84d ed08 	str.w	lr, [sp, #-8]!
  10790c:	f7ff ffce 	bl	1078ac <__aeabi_cdrcmple>
  107910:	bf94      	ite	ls
  107912:	2001      	movls	r0, #1
  107914:	2000      	movhi	r0, #0
  107916:	f85d fb08 	ldr.w	pc, [sp], #8
  10791a:	bf00      	nop

0010791c <__aeabi_dcmpgt>:
  10791c:	f84d ed08 	str.w	lr, [sp, #-8]!
  107920:	f7ff ffc4 	bl	1078ac <__aeabi_cdrcmple>
  107924:	bf34      	ite	cc
  107926:	2001      	movcc	r0, #1
  107928:	2000      	movcs	r0, #0
  10792a:	f85d fb08 	ldr.w	pc, [sp], #8
  10792e:	bf00      	nop

00107930 <__aeabi_fmul>:
  107930:	f04f 0cff 	mov.w	r12, #255	; 0xff
  107934:	ea1c 52d0 	ands.w	r2, r12, r0, lsr #23
  107938:	bf1e      	ittt	ne
  10793a:	ea1c 53d1 	andsne.w	r3, r12, r1, lsr #23
  10793e:	ea92 0f0c 	teqne	r2, r12
  107942:	ea93 0f0c 	teqne	r3, r12
  107946:	d06f      	beq.n	107a28 <__aeabi_fmul+0xf8>
  107948:	441a      	add	r2, r3
  10794a:	ea80 0c01 	eor.w	r12, r0, r1
  10794e:	0240      	lsls	r0, r0, #9
  107950:	bf18      	it	ne
  107952:	ea5f 2141 	movsne.w	r1, r1, lsl #9
  107956:	d01e      	beq.n	107996 <__aeabi_fmul+0x66>
  107958:	f04f 6300 	mov.w	r3, #134217728	; 0x8000000
  10795c:	ea43 1050 	orr.w	r0, r3, r0, lsr #5
  107960:	ea43 1151 	orr.w	r1, r3, r1, lsr #5
  107964:	fba0 3101 	umull	r3, r1, r0, r1
  107968:	f00c 4000 	and.w	r0, r12, #2147483648	; 0x80000000
  10796c:	f5b1 0f00 	cmp.w	r1, #8388608	; 0x800000
  107970:	bf3e      	ittt	cc
  107972:	0049      	lslcc	r1, r1, #1
  107974:	ea41 71d3 	orrcc.w	r1, r1, r3, lsr #31
  107978:	005b      	lslcc	r3, r3, #1
  10797a:	ea40 0001 	orr.w	r0, r0, r1
  10797e:	f162 027f 	sbc.w	r2, r2, #127	; 0x7f
  107982:	2afd      	cmp	r2, #253	; 0xfd
  107984:	d81d      	bhi.n	1079c2 <__aeabi_fmul+0x92>
  107986:	f1b3 4f00 	cmp.w	r3, #2147483648	; 0x80000000
  10798a:	eb40 50c2 	adc.w	r0, r0, r2, lsl #23
  10798e:	bf08      	it	eq
  107990:	f020 0001 	biceq.w	r0, r0, #1
  107994:	4770      	bx	lr
  107996:	f090 0f00 	teq	r0, #0
  10799a:	f00c 4c00 	and.w	r12, r12, #2147483648	; 0x80000000
  10799e:	bf08      	it	eq
  1079a0:	0249      	lsleq	r1, r1, #9
  1079a2:	ea4c 2050 	orr.w	r0, r12, r0, lsr #9
  1079a6:	ea40 2051 	orr.w	r0, r0, r1, lsr #9
  1079aa:	3a7f      	subs	r2, #127	; 0x7f
  1079ac:	bfc2      	ittt	gt
  1079ae:	f1d2 03ff 	rsbsgt	r3, r2, #255	; 0xff
  1079b2:	ea40 50c2 	orrgt.w	r0, r0, r2, lsl #23
  1079b6:	4770      	bxgt	lr
  1079b8:	f440 0000 	orr.w	r0, r0, #8388608	; 0x800000
  1079bc:	f04f 0300 	mov.w	r3, #0
  1079c0:	3a01      	subs	r2, #1
  1079c2:	dc5d      	bgt.n	107a80 <__aeabi_fmul+0x150>
  1079c4:	f112 0f19 	cmn.w	r2, #25
  1079c8:	bfdc      	itt	le
  1079ca:	f000 4000 	andle.w	r0, r0, #2147483648	; 0x80000000
  1079ce:	4770      	bxle	lr
  1079d0:	f1c2 0200 	rsb	r2, r2, #0
  1079d4:	0041      	lsls	r1, r0, #1
  1079d6:	fa21 f102 	lsr.w	r1, r1, r2
  1079da:	f1c2 0220 	rsb	r2, r2, #32
  1079de:	fa00 fc02 	lsl.w	r12, r0, r2
  1079e2:	ea5f 0031 	movs.w	r0, r1, rrx
  1079e6:	f140 0000 	adc.w	r0, r0, #0
  1079ea:	ea53 034c 	orrs.w	r3, r3, r12, lsl #1
  1079ee:	bf08      	it	eq
  1079f0:	ea20 70dc 	biceq.w	r0, r0, r12, lsr #31
  1079f4:	4770      	bx	lr
  1079f6:	f092 0f00 	teq	r2, #0
  1079fa:	f000 4c00 	and.w	r12, r0, #2147483648	; 0x80000000
  1079fe:	bf02      	ittt	eq
  107a00:	0040      	lsleq	r0, r0, #1
  107a02:	f410 0f00 	tsteq.w	r0, #8388608	; 0x800000
  107a06:	3a01      	subeq	r2, #1
  107a08:	d0f9      	beq.n	1079fe <__aeabi_fmul+0xce>
  107a0a:	ea40 000c 	orr.w	r0, r0, r12
  107a0e:	f093 0f00 	teq	r3, #0
  107a12:	f001 4c00 	and.w	r12, r1, #2147483648	; 0x80000000
  107a16:	bf02      	ittt	eq
  107a18:	0049      	lsleq	r1, r1, #1
  107a1a:	f411 0f00 	tsteq.w	r1, #8388608	; 0x800000
  107a1e:	3b01      	subeq	r3, #1
  107a20:	d0f9      	beq.n	107a16 <__aeabi_fmul+0xe6>
  107a22:	ea41 010c 	orr.w	r1, r1, r12
  107a26:	e78f      	b.n	107948 <__aeabi_fmul+0x18>
  107a28:	ea0c 53d1 	and.w	r3, r12, r1, lsr #23
  107a2c:	ea92 0f0c 	teq	r2, r12
  107a30:	bf18      	it	ne
  107a32:	ea93 0f0c 	teqne	r3, r12
  107a36:	d00a      	beq.n	107a4e <__aeabi_fmul+0x11e>
  107a38:	f030 4c00 	bics.w	r12, r0, #2147483648	; 0x80000000
  107a3c:	bf18      	it	ne
  107a3e:	f031 4c00 	bicsne.w	r12, r1, #2147483648	; 0x80000000
  107a42:	d1d8      	bne.n	1079f6 <__aeabi_fmul+0xc6>
  107a44:	ea80 0001 	eor.w	r0, r0, r1
  107a48:	f000 4000 	and.w	r0, r0, #2147483648	; 0x80000000
  107a4c:	4770      	bx	lr
  107a4e:	f090 0f00 	teq	r0, #0
  107a52:	bf17      	itett	ne
  107a54:	f090 4f00 	teqne	r0, #2147483648	; 0x80000000
  107a58:	4608      	moveq	r0, r1
  107a5a:	f091 0f00 	teqne	r1, #0
  107a5e:	f091 4f00 	teqne	r1, #2147483648	; 0x80000000
  107a62:	d014      	beq.n	107a8e <__aeabi_fmul+0x15e>
  107a64:	ea92 0f0c 	teq	r2, r12
  107a68:	d101      	bne.n	107a6e <__aeabi_fmul+0x13e>
  107a6a:	0242      	lsls	r2, r0, #9
  107a6c:	d10f      	bne.n	107a8e <__aeabi_fmul+0x15e>
  107a6e:	ea93 0f0c 	teq	r3, r12
  107a72:	d103      	bne.n	107a7c <__aeabi_fmul+0x14c>
  107a74:	024b      	lsls	r3, r1, #9
  107a76:	bf18      	it	ne
  107a78:	4608      	movne	r0, r1
  107a7a:	d108      	bne.n	107a8e <__aeabi_fmul+0x15e>
  107a7c:	ea80 0001 	eor.w	r0, r0, r1
  107a80:	f000 4000 	and.w	r0, r0, #2147483648	; 0x80000000
  107a84:	f040 40fe 	orr.w	r0, r0, #2130706432	; 0x7f000000
  107a88:	f440 0000 	orr.w	r0, r0, #8388608	; 0x800000
  107a8c:	4770      	bx	lr
  107a8e:	f040 40fe 	orr.w	r0, r0, #2130706432	; 0x7f000000
  107a92:	f440 0040 	orr.w	r0, r0, #12582912	; 0xc00000
  107a96:	4770      	bx	lr

00107a98 <__aeabi_fdiv>:
  107a98:	f04f 0cff 	mov.w	r12, #255	; 0xff
  107a9c:	ea1c 52d0 	ands.w	r2, r12, r0, lsr #23
  107aa0:	bf1e      	ittt	ne
  107aa2:	ea1c 53d1 	andsne.w	r3, r12, r1, lsr #23
  107aa6:	ea92 0f0c 	teqne	r2, r12
  107aaa:	ea93 0f0c 	teqne	r3, r12
  107aae:	d069      	beq.n	107b84 <__aeabi_fdiv+0xec>
  107ab0:	eba2 0203 	sub.w	r2, r2, r3
  107ab4:	ea80 0c01 	eor.w	r12, r0, r1
  107ab8:	0249      	lsls	r1, r1, #9
  107aba:	ea4f 2040 	mov.w	r0, r0, lsl #9
  107abe:	d037      	beq.n	107b30 <__aeabi_fdiv+0x98>
  107ac0:	f04f 5380 	mov.w	r3, #268435456	; 0x10000000
  107ac4:	ea43 1111 	orr.w	r1, r3, r1, lsr #4
  107ac8:	ea43 1310 	orr.w	r3, r3, r0, lsr #4
  107acc:	f00c 4000 	and.w	r0, r12, #2147483648	; 0x80000000
  107ad0:	428b      	cmp	r3, r1
  107ad2:	bf38      	it	cc
  107ad4:	005b      	lslcc	r3, r3, #1
  107ad6:	f142 027d 	adc.w	r2, r2, #125	; 0x7d
  107ada:	f44f 0c00 	mov.w	r12, #8388608	; 0x800000
  107ade:	428b      	cmp	r3, r1
  107ae0:	bf24      	itt	cs
  107ae2:	1a5b      	subcs	r3, r3, r1
  107ae4:	ea40 000c 	orrcs.w	r0, r0, r12
  107ae8:	ebb3 0f51 	cmp.w	r3, r1, lsr #1
  107aec:	bf24      	itt	cs
  107aee:	eba3 0351 	subcs.w	r3, r3, r1, lsr #1
  107af2:	ea40 005c 	orrcs.w	r0, r0, r12, lsr #1
  107af6:	ebb3 0f91 	cmp.w	r3, r1, lsr #2
  107afa:	bf24      	itt	cs
  107afc:	eba3 0391 	subcs.w	r3, r3, r1, lsr #2
  107b00:	ea40 009c 	orrcs.w	r0, r0, r12, lsr #2
  107b04:	ebb3 0fd1 	cmp.w	r3, r1, lsr #3
  107b08:	bf24      	itt	cs
  107b0a:	eba3 03d1 	subcs.w	r3, r3, r1, lsr #3
  107b0e:	ea40 00dc 	orrcs.w	r0, r0, r12, lsr #3
  107b12:	011b      	lsls	r3, r3, #4
  107b14:	bf18      	it	ne
  107b16:	ea5f 1c1c 	movsne.w	r12, r12, lsr #4
  107b1a:	d1e0      	bne.n	107ade <__aeabi_fdiv+0x46>
  107b1c:	2afd      	cmp	r2, #253	; 0xfd
  107b1e:	f63f af50 	bhi.w	1079c2 <__aeabi_fmul+0x92>
  107b22:	428b      	cmp	r3, r1
  107b24:	eb40 50c2 	adc.w	r0, r0, r2, lsl #23
  107b28:	bf08      	it	eq
  107b2a:	f020 0001 	biceq.w	r0, r0, #1
  107b2e:	4770      	bx	lr
  107b30:	f00c 4c00 	and.w	r12, r12, #2147483648	; 0x80000000
  107b34:	ea4c 2050 	orr.w	r0, r12, r0, lsr #9
  107b38:	327f      	adds	r2, #127	; 0x7f
  107b3a:	bfc2      	ittt	gt
  107b3c:	f1d2 03ff 	rsbsgt	r3, r2, #255	; 0xff
  107b40:	ea40 50c2 	orrgt.w	r0, r0, r2, lsl #23
  107b44:	4770      	bxgt	lr
  107b46:	f440 0000 	orr.w	r0, r0, #8388608	; 0x800000
  107b4a:	f04f 0300 	mov.w	r3, #0
  107b4e:	3a01      	subs	r2, #1
  107b50:	e737      	b.n	1079c2 <__aeabi_fmul+0x92>
  107b52:	f092 0f00 	teq	r2, #0
  107b56:	f000 4c00 	and.w	r12, r0, #2147483648	; 0x80000000
  107b5a:	bf02      	ittt	eq
  107b5c:	0040      	lsleq	r0, r0, #1
  107b5e:	f410 0f00 	tsteq.w	r0, #8388608	; 0x800000
  107b62:	3a01      	subeq	r2, #1
  107b64:	d0f9      	beq.n	107b5a <__aeabi_fdiv+0xc2>
  107b66:	ea40 000c 	orr.w	r0, r0, r12
  107b6a:	f093 0f00 	teq	r3, #0
  107b6e:	f001 4c00 	and.w	r12, r1, #2147483648	; 0x80000000
  107b72:	bf02      	ittt	eq
  107b74:	0049      	lsleq	r1, r1, #1
  107b76:	f411 0f00 	tsteq.w	r1, #8388608	; 0x800000
  107b7a:	3b01      	subeq	r3, #1
  107b7c:	d0f9      	beq.n	107b72 <__aeabi_fdiv+0xda>
  107b7e:	ea41 010c 	orr.w	r1, r1, r12
  107b82:	e795      	b.n	107ab0 <__aeabi_fdiv+0x18>
  107b84:	ea0c 53d1 	and.w	r3, r12, r1, lsr #23
  107b88:	ea92 0f0c 	teq	r2, r12
  107b8c:	d108      	bne.n	107ba0 <__aeabi_fdiv+0x108>
  107b8e:	0242      	lsls	r2, r0, #9
  107b90:	f47f af7d 	bne.w	107a8e <__aeabi_fmul+0x15e>
  107b94:	ea93 0f0c 	teq	r3, r12
  107b98:	f47f af70 	bne.w	107a7c <__aeabi_fmul+0x14c>
  107b9c:	4608      	mov	r0, r1
  107b9e:	e776      	b.n	107a8e <__aeabi_fmul+0x15e>
  107ba0:	ea93 0f0c 	teq	r3, r12
  107ba4:	d104      	bne.n	107bb0 <__aeabi_fdiv+0x118>
  107ba6:	024b      	lsls	r3, r1, #9
  107ba8:	f43f af4c 	beq.w	107a44 <__aeabi_fmul+0x114>
  107bac:	4608      	mov	r0, r1
  107bae:	e76e      	b.n	107a8e <__aeabi_fmul+0x15e>
  107bb0:	f030 4c00 	bics.w	r12, r0, #2147483648	; 0x80000000
  107bb4:	bf18      	it	ne
  107bb6:	f031 4c00 	bicsne.w	r12, r1, #2147483648	; 0x80000000
  107bba:	d1ca      	bne.n	107b52 <__aeabi_fdiv+0xba>
  107bbc:	f030 4200 	bics.w	r2, r0, #2147483648	; 0x80000000
  107bc0:	f47f af5c 	bne.w	107a7c <__aeabi_fmul+0x14c>
  107bc4:	f031 4300 	bics.w	r3, r1, #2147483648	; 0x80000000
  107bc8:	f47f af3c 	bne.w	107a44 <__aeabi_fmul+0x114>
  107bcc:	e75f      	b.n	107a8e <__aeabi_fmul+0x15e>
  107bce:	bf00      	nop

00107bd0 <__aeabi_f2iz>:
  107bd0:	ea4f 0240 	mov.w	r2, r0, lsl #1
  107bd4:	f1b2 4ffe 	cmp.w	r2, #2130706432	; 0x7f000000
  107bd8:	d30f      	bcc.n	107bfa <__aeabi_f2iz+0x2a>
  107bda:	f04f 039e 	mov.w	r3, #158	; 0x9e
  107bde:	ebb3 6212 	subs.w	r2, r3, r2, lsr #24
  107be2:	d90d      	bls.n	107c00 <__aeabi_f2iz+0x30>
  107be4:	ea4f 2300 	mov.w	r3, r0, lsl #8
  107be8:	f043 4300 	orr.w	r3, r3, #2147483648	; 0x80000000
  107bec:	f010 4f00 	tst.w	r0, #2147483648	; 0x80000000
  107bf0:	fa23 f002 	lsr.w	r0, r3, r2
  107bf4:	bf18      	it	ne
  107bf6:	4240      	negne	r0, r0
  107bf8:	4770      	bx	lr
  107bfa:	f04f 0000 	mov.w	r0, #0
  107bfe:	4770      	bx	lr
  107c00:	f112 0f61 	cmn.w	r2, #97	; 0x61
  107c04:	d101      	bne.n	107c0a <__aeabi_f2iz+0x3a>
  107c06:	0242      	lsls	r2, r0, #9
  107c08:	d105      	bne.n	107c16 <__aeabi_f2iz+0x46>
  107c0a:	f010 4000 	ands.w	r0, r0, #2147483648	; 0x80000000
  107c0e:	bf08      	it	eq
  107c10:	f06f 4000 	mvneq.w	r0, #2147483648	; 0x80000000
  107c14:	4770      	bx	lr
  107c16:	f04f 0000 	mov.w	r0, #0
  107c1a:	4770      	bx	lr

00107c1c <__aeabi_uldivmod>:
  107c1c:	b953      	cbnz	r3, 107c34 <__aeabi_uldivmod+0x18>
  107c1e:	b94a      	cbnz	r2, 107c34 <__aeabi_uldivmod+0x18>
  107c20:	2900      	cmp	r1, #0
  107c22:	bf08      	it	eq
  107c24:	2800      	cmpeq	r0, #0
  107c26:	bf1c      	itt	ne
  107c28:	f04f 31ff 	movne.w	r1, #4294967295
  107c2c:	f04f 30ff 	movne.w	r0, #4294967295
  107c30:	f000 b9a8 	b.w	107f84 <__aeabi_idiv0>
  107c34:	f1ad 0c08 	sub.w	r12, sp, #8
  107c38:	e96d ce04 	strd	r12, lr, [sp, #-16]!
  107c3c:	f000 f82c 	bl	107c98 <__udivmoddi4>
  107c40:	f8dd e004 	ldr.w	lr, [sp, #4]
  107c44:	e9dd 2302 	ldrd	r2, r3, [sp, #8]
  107c48:	b004      	add	sp, #16
  107c4a:	4770      	bx	lr

00107c4c <__aeabi_f2ulz>:
  107c4c:	b5d0      	push	{r4, r6, r7, lr}
  107c4e:	f7ff fd93 	bl	107778 <__aeabi_f2d>
  107c52:	2200      	movs	r2, #0
  107c54:	4b0e      	ldr	r3, [pc, #56]	; (107c90 <__aeabi_f2ulz+0x44>)
  107c56:	4606      	mov	r6, r0
  107c58:	460f      	mov	r7, r1
  107c5a:	f000 f995 	bl	107f88 <__aeabi_dmul>
  107c5e:	f000 fba5 	bl	1083ac <__aeabi_d2uiz>
  107c62:	4604      	mov	r4, r0
  107c64:	f7ff fd66 	bl	107734 <__aeabi_ui2d>
  107c68:	2200      	movs	r2, #0
  107c6a:	4b0a      	ldr	r3, [pc, #40]	; (107c94 <__aeabi_f2ulz+0x48>)
  107c6c:	f000 f98c 	bl	107f88 <__aeabi_dmul>
  107c70:	4602      	mov	r2, r0
  107c72:	460b      	mov	r3, r1
  107c74:	4630      	mov	r0, r6
  107c76:	4639      	mov	r1, r7
  107c78:	f7ff fc1e 	bl	1074b8 <__aeabi_dsub>
  107c7c:	f000 fb96 	bl	1083ac <__aeabi_d2uiz>
  107c80:	4623      	mov	r3, r4
  107c82:	2200      	movs	r2, #0
  107c84:	ea42 0200 	orr.w	r2, r2, r0
  107c88:	4610      	mov	r0, r2
  107c8a:	4619      	mov	r1, r3
  107c8c:	bdd0      	pop	{r4, r6, r7, pc}
  107c8e:	bf00      	nop
  107c90:	3df00000 	.word	0x3df00000
  107c94:	41f00000 	.word	0x41f00000

00107c98 <__udivmoddi4>:
  107c98:	e92d 4ff0 	stmdb	sp!, {r4, r5, r6, r7, r8, r9, r10, r11, lr}
  107c9c:	468c      	mov	r12, r1
  107c9e:	460c      	mov	r4, r1
  107ca0:	4605      	mov	r5, r0
  107ca2:	9e09      	ldr	r6, [sp, #36]	; 0x24
  107ca4:	2b00      	cmp	r3, #0
  107ca6:	d14f      	bne.n	107d48 <__udivmoddi4+0xb0>
  107ca8:	428a      	cmp	r2, r1
  107caa:	4617      	mov	r7, r2
  107cac:	d96b      	bls.n	107d86 <__udivmoddi4+0xee>
  107cae:	fab2 fe82 	clz	lr, r2
  107cb2:	f1be 0f00 	cmp.w	lr, #0
  107cb6:	d00b      	beq.n	107cd0 <__udivmoddi4+0x38>
  107cb8:	f1ce 0520 	rsb	r5, lr, #32
  107cbc:	fa20 f505 	lsr.w	r5, r0, r5
  107cc0:	fa01 f30e 	lsl.w	r3, r1, lr
  107cc4:	ea45 0c03 	orr.w	r12, r5, r3
  107cc8:	fa02 f70e 	lsl.w	r7, r2, lr
  107ccc:	fa00 f50e 	lsl.w	r5, r0, lr
  107cd0:	0c39      	lsrs	r1, r7, #16
  107cd2:	fbbc f0f1 	udiv	r0, r12, r1
  107cd6:	b2ba      	uxth	r2, r7
  107cd8:	fb01 c310 	mls	r3, r1, r0, r12
  107cdc:	fb00 f802 	mul.w	r8, r0, r2
  107ce0:	ea4f 4c15 	mov.w	r12, r5, lsr #16
  107ce4:	ea4c 4403 	orr.w	r4, r12, r3, lsl #16
  107ce8:	45a0      	cmp	r8, r4
  107cea:	d909      	bls.n	107d00 <__udivmoddi4+0x68>
  107cec:	19e4      	adds	r4, r4, r7
  107cee:	f100 33ff 	add.w	r3, r0, #4294967295
  107cf2:	f080 8128 	bcs.w	107f46 <__udivmoddi4+0x2ae>
  107cf6:	45a0      	cmp	r8, r4
  107cf8:	f240 8125 	bls.w	107f46 <__udivmoddi4+0x2ae>
  107cfc:	3802      	subs	r0, #2
  107cfe:	443c      	add	r4, r7
  107d00:	ebc8 0404 	rsb	r4, r8, r4
  107d04:	fbb4 f3f1 	udiv	r3, r4, r1
  107d08:	fb01 4c13 	mls	r12, r1, r3, r4
  107d0c:	fb03 f202 	mul.w	r2, r3, r2
  107d10:	b2ac      	uxth	r4, r5
  107d12:	ea44 410c 	orr.w	r1, r4, r12, lsl #16
  107d16:	428a      	cmp	r2, r1
  107d18:	d909      	bls.n	107d2e <__udivmoddi4+0x96>
  107d1a:	19c9      	adds	r1, r1, r7
  107d1c:	f103 34ff 	add.w	r4, r3, #4294967295
  107d20:	f080 810f 	bcs.w	107f42 <__udivmoddi4+0x2aa>
  107d24:	428a      	cmp	r2, r1
  107d26:	f240 810c 	bls.w	107f42 <__udivmoddi4+0x2aa>
  107d2a:	3b02      	subs	r3, #2
  107d2c:	4439      	add	r1, r7
  107d2e:	1a8a      	subs	r2, r1, r2
  107d30:	ea43 4000 	orr.w	r0, r3, r0, lsl #16
  107d34:	2100      	movs	r1, #0
  107d36:	2e00      	cmp	r6, #0
  107d38:	d063      	beq.n	107e02 <__udivmoddi4+0x16a>
  107d3a:	fa22 f20e 	lsr.w	r2, r2, lr
  107d3e:	2300      	movs	r3, #0
  107d40:	e886 000c 	stmia.w	r6, {r2, r3}
  107d44:	e8bd 8ff0 	ldmia.w	sp!, {r4, r5, r6, r7, r8, r9, r10, r11, pc}
  107d48:	428b      	cmp	r3, r1
  107d4a:	d907      	bls.n	107d5c <__udivmoddi4+0xc4>
  107d4c:	2e00      	cmp	r6, #0
  107d4e:	d056      	beq.n	107dfe <__udivmoddi4+0x166>
  107d50:	2100      	movs	r1, #0
  107d52:	e886 0011 	stmia.w	r6, {r0, r4}
  107d56:	4608      	mov	r0, r1
  107d58:	e8bd 8ff0 	ldmia.w	sp!, {r4, r5, r6, r7, r8, r9, r10, r11, pc}
  107d5c:	fab3 f183 	clz	r1, r3
  107d60:	2900      	cmp	r1, #0
  107d62:	f040 8093 	bne.w	107e8c <__udivmoddi4+0x1f4>
  107d66:	42a3      	cmp	r3, r4
  107d68:	d302      	bcc.n	107d70 <__udivmoddi4+0xd8>
  107d6a:	4282      	cmp	r2, r0
  107d6c:	f200 80fe 	bhi.w	107f6c <__udivmoddi4+0x2d4>
  107d70:	1a85      	subs	r5, r0, r2
  107d72:	eb64 0303 	sbc.w	r3, r4, r3
  107d76:	469c      	mov	r12, r3
  107d78:	2001      	movs	r0, #1
  107d7a:	2e00      	cmp	r6, #0
  107d7c:	d041      	beq.n	107e02 <__udivmoddi4+0x16a>
  107d7e:	e886 1020 	stmia.w	r6, {r5, r12}
  107d82:	e8bd 8ff0 	ldmia.w	sp!, {r4, r5, r6, r7, r8, r9, r10, r11, pc}
  107d86:	b912      	cbnz	r2, 107d8e <__udivmoddi4+0xf6>
  107d88:	2701      	movs	r7, #1
  107d8a:	fbb7 f7f2 	udiv	r7, r7, r2
  107d8e:	fab7 fe87 	clz	lr, r7
  107d92:	f1be 0f00 	cmp.w	lr, #0
  107d96:	d136      	bne.n	107e06 <__udivmoddi4+0x16e>
  107d98:	1be4      	subs	r4, r4, r7
  107d9a:	ea4f 4817 	mov.w	r8, r7, lsr #16
  107d9e:	fa1f f987 	uxth.w	r9, r7
  107da2:	2101      	movs	r1, #1
  107da4:	fbb4 f3f8 	udiv	r3, r4, r8
  107da8:	fb08 4413 	mls	r4, r8, r3, r4
  107dac:	fb09 f203 	mul.w	r2, r9, r3
  107db0:	ea4f 4c15 	mov.w	r12, r5, lsr #16
  107db4:	ea4c 4404 	orr.w	r4, r12, r4, lsl #16
  107db8:	42a2      	cmp	r2, r4
  107dba:	d907      	bls.n	107dcc <__udivmoddi4+0x134>
  107dbc:	19e4      	adds	r4, r4, r7
  107dbe:	f103 30ff 	add.w	r0, r3, #4294967295
  107dc2:	d202      	bcs.n	107dca <__udivmoddi4+0x132>
  107dc4:	42a2      	cmp	r2, r4
  107dc6:	f200 80d3 	bhi.w	107f70 <__udivmoddi4+0x2d8>
  107dca:	4603      	mov	r3, r0
  107dcc:	1aa4      	subs	r4, r4, r2
  107dce:	fbb4 f0f8 	udiv	r0, r4, r8
  107dd2:	fb08 4810 	mls	r8, r8, r0, r4
  107dd6:	fb09 f900 	mul.w	r9, r9, r0
  107dda:	b2ac      	uxth	r4, r5
  107ddc:	ea44 4208 	orr.w	r2, r4, r8, lsl #16
  107de0:	4591      	cmp	r9, r2
  107de2:	d907      	bls.n	107df4 <__udivmoddi4+0x15c>
  107de4:	19d2      	adds	r2, r2, r7
  107de6:	f100 34ff 	add.w	r4, r0, #4294967295
  107dea:	d202      	bcs.n	107df2 <__udivmoddi4+0x15a>
  107dec:	4591      	cmp	r9, r2
  107dee:	f200 80ba 	bhi.w	107f66 <__udivmoddi4+0x2ce>
  107df2:	4620      	mov	r0, r4
  107df4:	ebc9 0202 	rsb	r2, r9, r2
  107df8:	ea40 4003 	orr.w	r0, r0, r3, lsl #16
  107dfc:	e79b      	b.n	107d36 <__udivmoddi4+0x9e>
  107dfe:	4631      	mov	r1, r6
  107e00:	4630      	mov	r0, r6
  107e02:	e8bd 8ff0 	ldmia.w	sp!, {r4, r5, r6, r7, r8, r9, r10, r11, pc}
  107e06:	fa07 f70e 	lsl.w	r7, r7, lr
  107e0a:	f1ce 0c20 	rsb	r12, lr, #32
  107e0e:	fa24 f30c 	lsr.w	r3, r4, r12
  107e12:	ea4f 4817 	mov.w	r8, r7, lsr #16
  107e16:	fbb3 faf8 	udiv	r10, r3, r8
  107e1a:	fa1f f987 	uxth.w	r9, r7
  107e1e:	fb08 351a 	mls	r5, r8, r10, r3
  107e22:	fa20 fc0c 	lsr.w	r12, r0, r12
  107e26:	fa04 f40e 	lsl.w	r4, r4, lr
  107e2a:	fb0a fb09 	mul.w	r11, r10, r9
  107e2e:	ea4c 0c04 	orr.w	r12, r12, r4
  107e32:	ea4f 421c 	mov.w	r2, r12, lsr #16
  107e36:	ea42 4305 	orr.w	r3, r2, r5, lsl #16
  107e3a:	459b      	cmp	r11, r3
  107e3c:	fa00 f50e 	lsl.w	r5, r0, lr
  107e40:	d90a      	bls.n	107e58 <__udivmoddi4+0x1c0>
  107e42:	19db      	adds	r3, r3, r7
  107e44:	f10a 32ff 	add.w	r2, r10, #4294967295
  107e48:	f080 808b 	bcs.w	107f62 <__udivmoddi4+0x2ca>
  107e4c:	459b      	cmp	r11, r3
  107e4e:	f240 8088 	bls.w	107f62 <__udivmoddi4+0x2ca>
  107e52:	f1aa 0a02 	sub.w	r10, r10, #2
  107e56:	443b      	add	r3, r7
  107e58:	ebcb 0303 	rsb	r3, r11, r3
  107e5c:	fbb3 f0f8 	udiv	r0, r3, r8
  107e60:	fb08 3310 	mls	r3, r8, r0, r3
  107e64:	fb00 f409 	mul.w	r4, r0, r9
  107e68:	fa1f fc8c 	uxth.w	r12, r12
  107e6c:	ea4c 4303 	orr.w	r3, r12, r3, lsl #16
  107e70:	429c      	cmp	r4, r3
  107e72:	d907      	bls.n	107e84 <__udivmoddi4+0x1ec>
  107e74:	19db      	adds	r3, r3, r7
  107e76:	f100 32ff 	add.w	r2, r0, #4294967295
  107e7a:	d26e      	bcs.n	107f5a <__udivmoddi4+0x2c2>
  107e7c:	429c      	cmp	r4, r3
  107e7e:	d96c      	bls.n	107f5a <__udivmoddi4+0x2c2>
  107e80:	3802      	subs	r0, #2
  107e82:	443b      	add	r3, r7
  107e84:	1b1c      	subs	r4, r3, r4
  107e86:	ea40 410a 	orr.w	r1, r0, r10, lsl #16
  107e8a:	e78b      	b.n	107da4 <__udivmoddi4+0x10c>
  107e8c:	f1c1 0e20 	rsb	lr, r1, #32
  107e90:	408b      	lsls	r3, r1
  107e92:	fa22 fc0e 	lsr.w	r12, r2, lr
  107e96:	ea4c 0c03 	orr.w	r12, r12, r3
  107e9a:	fa24 f70e 	lsr.w	r7, r4, lr
  107e9e:	ea4f 491c 	mov.w	r9, r12, lsr #16
  107ea2:	fbb7 faf9 	udiv	r10, r7, r9
  107ea6:	fa1f f38c 	uxth.w	r3, r12
  107eaa:	fb09 771a 	mls	r7, r9, r10, r7
  107eae:	fa20 f80e 	lsr.w	r8, r0, lr
  107eb2:	408c      	lsls	r4, r1
  107eb4:	fb0a f503 	mul.w	r5, r10, r3
  107eb8:	ea48 0404 	orr.w	r4, r8, r4
  107ebc:	ea4f 4814 	mov.w	r8, r4, lsr #16
  107ec0:	ea48 4707 	orr.w	r7, r8, r7, lsl #16
  107ec4:	42bd      	cmp	r5, r7
  107ec6:	fa02 f201 	lsl.w	r2, r2, r1
  107eca:	fa00 fb01 	lsl.w	r11, r0, r1
  107ece:	d909      	bls.n	107ee4 <__udivmoddi4+0x24c>
  107ed0:	eb17 070c 	adds.w	r7, r7, r12
  107ed4:	f10a 30ff 	add.w	r0, r10, #4294967295
  107ed8:	d241      	bcs.n	107f5e <__udivmoddi4+0x2c6>
  107eda:	42bd      	cmp	r5, r7
  107edc:	d93f      	bls.n	107f5e <__udivmoddi4+0x2c6>
  107ede:	f1aa 0a02 	sub.w	r10, r10, #2
  107ee2:	4467      	add	r7, r12
  107ee4:	1b7f      	subs	r7, r7, r5
  107ee6:	fbb7 f5f9 	udiv	r5, r7, r9
  107eea:	fb09 7715 	mls	r7, r9, r5, r7
  107eee:	fb05 f303 	mul.w	r3, r5, r3
  107ef2:	b2a4      	uxth	r4, r4
  107ef4:	ea44 4707 	orr.w	r7, r4, r7, lsl #16
  107ef8:	42bb      	cmp	r3, r7
  107efa:	d908      	bls.n	107f0e <__udivmoddi4+0x276>
  107efc:	eb17 070c 	adds.w	r7, r7, r12
  107f00:	f105 30ff 	add.w	r0, r5, #4294967295
  107f04:	d227      	bcs.n	107f56 <__udivmoddi4+0x2be>
  107f06:	42bb      	cmp	r3, r7
  107f08:	d925      	bls.n	107f56 <__udivmoddi4+0x2be>
  107f0a:	3d02      	subs	r5, #2
  107f0c:	4467      	add	r7, r12
  107f0e:	ea45 400a 	orr.w	r0, r5, r10, lsl #16
  107f12:	fba0 8902 	umull	r8, r9, r0, r2
  107f16:	1aff      	subs	r7, r7, r3
  107f18:	454f      	cmp	r7, r9
  107f1a:	4645      	mov	r5, r8
  107f1c:	464c      	mov	r4, r9
  107f1e:	d314      	bcc.n	107f4a <__udivmoddi4+0x2b2>
  107f20:	d029      	beq.n	107f76 <__udivmoddi4+0x2de>
  107f22:	b366      	cbz	r6, 107f7e <__udivmoddi4+0x2e6>
  107f24:	ebbb 0305 	subs.w	r3, r11, r5
  107f28:	eb67 0704 	sbc.w	r7, r7, r4
  107f2c:	fa07 fe0e 	lsl.w	lr, r7, lr
  107f30:	40cb      	lsrs	r3, r1
  107f32:	40cf      	lsrs	r7, r1
  107f34:	ea4e 0303 	orr.w	r3, lr, r3
  107f38:	e886 0088 	stmia.w	r6, {r3, r7}
  107f3c:	2100      	movs	r1, #0
  107f3e:	e8bd 8ff0 	ldmia.w	sp!, {r4, r5, r6, r7, r8, r9, r10, r11, pc}
  107f42:	4623      	mov	r3, r4
  107f44:	e6f3      	b.n	107d2e <__udivmoddi4+0x96>
  107f46:	4618      	mov	r0, r3
  107f48:	e6da      	b.n	107d00 <__udivmoddi4+0x68>
  107f4a:	ebb8 0502 	subs.w	r5, r8, r2
  107f4e:	eb69 040c 	sbc.w	r4, r9, r12
  107f52:	3801      	subs	r0, #1
  107f54:	e7e5      	b.n	107f22 <__udivmoddi4+0x28a>
  107f56:	4605      	mov	r5, r0
  107f58:	e7d9      	b.n	107f0e <__udivmoddi4+0x276>
  107f5a:	4610      	mov	r0, r2
  107f5c:	e792      	b.n	107e84 <__udivmoddi4+0x1ec>
  107f5e:	4682      	mov	r10, r0
  107f60:	e7c0      	b.n	107ee4 <__udivmoddi4+0x24c>
  107f62:	4692      	mov	r10, r2
  107f64:	e778      	b.n	107e58 <__udivmoddi4+0x1c0>
  107f66:	3802      	subs	r0, #2
  107f68:	443a      	add	r2, r7
  107f6a:	e743      	b.n	107df4 <__udivmoddi4+0x15c>
  107f6c:	4608      	mov	r0, r1
  107f6e:	e704      	b.n	107d7a <__udivmoddi4+0xe2>
  107f70:	3b02      	subs	r3, #2
  107f72:	443c      	add	r4, r7
  107f74:	e72a      	b.n	107dcc <__udivmoddi4+0x134>
  107f76:	45c3      	cmp	r11, r8
  107f78:	d3e7      	bcc.n	107f4a <__udivmoddi4+0x2b2>
  107f7a:	463c      	mov	r4, r7
  107f7c:	e7d1      	b.n	107f22 <__udivmoddi4+0x28a>
  107f7e:	4631      	mov	r1, r6
  107f80:	e8bd 8ff0 	ldmia.w	sp!, {r4, r5, r6, r7, r8, r9, r10, r11, pc}

00107f84 <__aeabi_idiv0>:
  107f84:	4770      	bx	lr
  107f86:	bf00      	nop

00107f88 <__aeabi_dmul>:
  107f88:	b570      	push	{r4, r5, r6, lr}
  107f8a:	f04f 0cff 	mov.w	r12, #255	; 0xff
  107f8e:	f44c 6ce0 	orr.w	r12, r12, #1792	; 0x700
  107f92:	ea1c 5411 	ands.w	r4, r12, r1, lsr #20
  107f96:	bf1d      	ittte	ne
  107f98:	ea1c 5513 	andsne.w	r5, r12, r3, lsr #20
  107f9c:	ea94 0f0c 	teqne	r4, r12
  107fa0:	ea95 0f0c 	teqne	r5, r12
  107fa4:	f000 f8de 	bleq	108164 <__aeabi_dmul+0x1dc>
  107fa8:	442c      	add	r4, r5
  107faa:	ea81 0603 	eor.w	r6, r1, r3
  107fae:	ea21 514c 	bic.w	r1, r1, r12, lsl #21
  107fb2:	ea23 534c 	bic.w	r3, r3, r12, lsl #21
  107fb6:	ea50 3501 	orrs.w	r5, r0, r1, lsl #12
  107fba:	bf18      	it	ne
  107fbc:	ea52 3503 	orrsne.w	r5, r2, r3, lsl #12
  107fc0:	f441 1180 	orr.w	r1, r1, #1048576	; 0x100000
  107fc4:	f443 1380 	orr.w	r3, r3, #1048576	; 0x100000
  107fc8:	d038      	beq.n	10803c <__aeabi_dmul+0xb4>
  107fca:	fba0 ce02 	umull	r12, lr, r0, r2
  107fce:	f04f 0500 	mov.w	r5, #0
  107fd2:	fbe1 e502 	umlal	lr, r5, r1, r2
  107fd6:	f006 4200 	and.w	r2, r6, #2147483648	; 0x80000000
  107fda:	fbe0 e503 	umlal	lr, r5, r0, r3
  107fde:	f04f 0600 	mov.w	r6, #0
  107fe2:	fbe1 5603 	umlal	r5, r6, r1, r3
  107fe6:	f09c 0f00 	teq	r12, #0
  107fea:	bf18      	it	ne
  107fec:	f04e 0e01 	orrne.w	lr, lr, #1
  107ff0:	f1a4 04ff 	sub.w	r4, r4, #255	; 0xff
  107ff4:	f5b6 7f00 	cmp.w	r6, #512	; 0x200
  107ff8:	f564 7440 	sbc.w	r4, r4, #768	; 0x300
  107ffc:	d204      	bcs.n	108008 <__aeabi_dmul+0x80>
  107ffe:	ea5f 0e4e 	movs.w	lr, lr, lsl #1
  108002:	416d      	adcs	r5, r5
  108004:	eb46 0606 	adc.w	r6, r6, r6
  108008:	ea42 21c6 	orr.w	r1, r2, r6, lsl #11
  10800c:	ea41 5155 	orr.w	r1, r1, r5, lsr #21
  108010:	ea4f 20c5 	mov.w	r0, r5, lsl #11
  108014:	ea40 505e 	orr.w	r0, r0, lr, lsr #21
  108018:	ea4f 2ece 	mov.w	lr, lr, lsl #11
  10801c:	f1b4 0cfd 	subs.w	r12, r4, #253	; 0xfd
  108020:	bf88      	it	hi
  108022:	f5bc 6fe0 	cmphi.w	r12, #1792	; 0x700
  108026:	d81e      	bhi.n	108066 <__aeabi_dmul+0xde>
  108028:	f1be 4f00 	cmp.w	lr, #2147483648	; 0x80000000
  10802c:	bf08      	it	eq
  10802e:	ea5f 0e50 	movseq.w	lr, r0, lsr #1
  108032:	f150 0000 	adcs.w	r0, r0, #0
  108036:	eb41 5104 	adc.w	r1, r1, r4, lsl #20
  10803a:	bd70      	pop	{r4, r5, r6, pc}
  10803c:	f006 4600 	and.w	r6, r6, #2147483648	; 0x80000000
  108040:	ea46 0101 	orr.w	r1, r6, r1
  108044:	ea40 0002 	orr.w	r0, r0, r2
  108048:	ea81 0103 	eor.w	r1, r1, r3
  10804c:	ebb4 045c 	subs.w	r4, r4, r12, lsr #1
  108050:	bfc2      	ittt	gt
  108052:	ebd4 050c 	rsbsgt	r5, r4, r12
  108056:	ea41 5104 	orrgt.w	r1, r1, r4, lsl #20
  10805a:	bd70      	popgt	{r4, r5, r6, pc}
  10805c:	f441 1180 	orr.w	r1, r1, #1048576	; 0x100000
  108060:	f04f 0e00 	mov.w	lr, #0
  108064:	3c01      	subs	r4, #1
  108066:	f300 80ab 	bgt.w	1081c0 <__aeabi_dmul+0x238>
  10806a:	f114 0f36 	cmn.w	r4, #54	; 0x36
  10806e:	bfde      	ittt	le
  108070:	2000      	movle	r0, #0
  108072:	f001 4100 	andle.w	r1, r1, #2147483648	; 0x80000000
  108076:	bd70      	pople	{r4, r5, r6, pc}
  108078:	f1c4 0400 	rsb	r4, r4, #0
  10807c:	3c20      	subs	r4, #32
  10807e:	da35      	bge.n	1080ec <__aeabi_dmul+0x164>
  108080:	340c      	adds	r4, #12
  108082:	dc1b      	bgt.n	1080bc <__aeabi_dmul+0x134>
  108084:	f104 0414 	add.w	r4, r4, #20
  108088:	f1c4 0520 	rsb	r5, r4, #32
  10808c:	fa00 f305 	lsl.w	r3, r0, r5
  108090:	fa20 f004 	lsr.w	r0, r0, r4
  108094:	fa01 f205 	lsl.w	r2, r1, r5
  108098:	ea40 0002 	orr.w	r0, r0, r2
  10809c:	f001 4200 	and.w	r2, r1, #2147483648	; 0x80000000
  1080a0:	f021 4100 	bic.w	r1, r1, #2147483648	; 0x80000000
  1080a4:	eb10 70d3 	adds.w	r0, r0, r3, lsr #31
  1080a8:	fa21 f604 	lsr.w	r6, r1, r4
  1080ac:	eb42 0106 	adc.w	r1, r2, r6
  1080b0:	ea5e 0e43 	orrs.w	lr, lr, r3, lsl #1
  1080b4:	bf08      	it	eq
  1080b6:	ea20 70d3 	biceq.w	r0, r0, r3, lsr #31
  1080ba:	bd70      	pop	{r4, r5, r6, pc}
  1080bc:	f1c4 040c 	rsb	r4, r4, #12
  1080c0:	f1c4 0520 	rsb	r5, r4, #32
  1080c4:	fa00 f304 	lsl.w	r3, r0, r4
  1080c8:	fa20 f005 	lsr.w	r0, r0, r5
  1080cc:	fa01 f204 	lsl.w	r2, r1, r4
  1080d0:	ea40 0002 	orr.w	r0, r0, r2
  1080d4:	f001 4100 	and.w	r1, r1, #2147483648	; 0x80000000
  1080d8:	eb10 70d3 	adds.w	r0, r0, r3, lsr #31
  1080dc:	f141 0100 	adc.w	r1, r1, #0
  1080e0:	ea5e 0e43 	orrs.w	lr, lr, r3, lsl #1
  1080e4:	bf08      	it	eq
  1080e6:	ea20 70d3 	biceq.w	r0, r0, r3, lsr #31
  1080ea:	bd70      	pop	{r4, r5, r6, pc}
  1080ec:	f1c4 0520 	rsb	r5, r4, #32
  1080f0:	fa00 f205 	lsl.w	r2, r0, r5
  1080f4:	ea4e 0e02 	orr.w	lr, lr, r2
  1080f8:	fa20 f304 	lsr.w	r3, r0, r4
  1080fc:	fa01 f205 	lsl.w	r2, r1, r5
  108100:	ea43 0302 	orr.w	r3, r3, r2
  108104:	fa21 f004 	lsr.w	r0, r1, r4
  108108:	f001 4100 	and.w	r1, r1, #2147483648	; 0x80000000
  10810c:	fa21 f204 	lsr.w	r2, r1, r4
  108110:	ea20 0002 	bic.w	r0, r0, r2
  108114:	eb00 70d3 	add.w	r0, r0, r3, lsr #31
  108118:	ea5e 0e43 	orrs.w	lr, lr, r3, lsl #1
  10811c:	bf08      	it	eq
  10811e:	ea20 70d3 	biceq.w	r0, r0, r3, lsr #31
  108122:	bd70      	pop	{r4, r5, r6, pc}
  108124:	f094 0f00 	teq	r4, #0
  108128:	d10f      	bne.n	10814a <__aeabi_dmul+0x1c2>
  10812a:	f001 4600 	and.w	r6, r1, #2147483648	; 0x80000000
  10812e:	0040      	lsls	r0, r0, #1
  108130:	eb41 0101 	adc.w	r1, r1, r1
  108134:	f411 1f80 	tst.w	r1, #1048576	; 0x100000
  108138:	bf08      	it	eq
  10813a:	3c01      	subeq	r4, #1
  10813c:	d0f7      	beq.n	10812e <__aeabi_dmul+0x1a6>
  10813e:	ea41 0106 	orr.w	r1, r1, r6
  108142:	f095 0f00 	teq	r5, #0
  108146:	bf18      	it	ne
  108148:	4770      	bxne	lr
  10814a:	f003 4600 	and.w	r6, r3, #2147483648	; 0x80000000
  10814e:	0052      	lsls	r2, r2, #1
  108150:	eb43 0303 	adc.w	r3, r3, r3
  108154:	f413 1f80 	tst.w	r3, #1048576	; 0x100000
  108158:	bf08      	it	eq
  10815a:	3d01      	subeq	r5, #1
  10815c:	d0f7      	beq.n	10814e <__aeabi_dmul+0x1c6>
  10815e:	ea43 0306 	orr.w	r3, r3, r6
  108162:	4770      	bx	lr
  108164:	ea94 0f0c 	teq	r4, r12
  108168:	ea0c 5513 	and.w	r5, r12, r3, lsr #20
  10816c:	bf18      	it	ne
  10816e:	ea95 0f0c 	teqne	r5, r12
  108172:	d00c      	beq.n	10818e <__aeabi_dmul+0x206>
  108174:	ea50 0641 	orrs.w	r6, r0, r1, lsl #1
  108178:	bf18      	it	ne
  10817a:	ea52 0643 	orrsne.w	r6, r2, r3, lsl #1
  10817e:	d1d1      	bne.n	108124 <__aeabi_dmul+0x19c>
  108180:	ea81 0103 	eor.w	r1, r1, r3
  108184:	f001 4100 	and.w	r1, r1, #2147483648	; 0x80000000
  108188:	f04f 0000 	mov.w	r0, #0
  10818c:	bd70      	pop	{r4, r5, r6, pc}
  10818e:	ea50 0641 	orrs.w	r6, r0, r1, lsl #1
  108192:	bf06      	itte	eq
  108194:	4610      	moveq	r0, r2
  108196:	4619      	moveq	r1, r3
  108198:	ea52 0643 	orrsne.w	r6, r2, r3, lsl #1
  10819c:	d019      	beq.n	1081d2 <__aeabi_dmul+0x24a>
  10819e:	ea94 0f0c 	teq	r4, r12
  1081a2:	d102      	bne.n	1081aa <__aeabi_dmul+0x222>
  1081a4:	ea50 3601 	orrs.w	r6, r0, r1, lsl #12
  1081a8:	d113      	bne.n	1081d2 <__aeabi_dmul+0x24a>
  1081aa:	ea95 0f0c 	teq	r5, r12
  1081ae:	d105      	bne.n	1081bc <__aeabi_dmul+0x234>
  1081b0:	ea52 3603 	orrs.w	r6, r2, r3, lsl #12
  1081b4:	bf1c      	itt	ne
  1081b6:	4610      	movne	r0, r2
  1081b8:	4619      	movne	r1, r3
  1081ba:	d10a      	bne.n	1081d2 <__aeabi_dmul+0x24a>
  1081bc:	ea81 0103 	eor.w	r1, r1, r3
  1081c0:	f001 4100 	and.w	r1, r1, #2147483648	; 0x80000000
  1081c4:	f041 41fe 	orr.w	r1, r1, #2130706432	; 0x7f000000
  1081c8:	f441 0170 	orr.w	r1, r1, #15728640	; 0xf00000
  1081cc:	f04f 0000 	mov.w	r0, #0
  1081d0:	bd70      	pop	{r4, r5, r6, pc}
  1081d2:	f041 41fe 	orr.w	r1, r1, #2130706432	; 0x7f000000
  1081d6:	f441 0178 	orr.w	r1, r1, #16252928	; 0xf80000
  1081da:	bd70      	pop	{r4, r5, r6, pc}

001081dc <__aeabi_ddiv>:
  1081dc:	b570      	push	{r4, r5, r6, lr}
  1081de:	f04f 0cff 	mov.w	r12, #255	; 0xff
  1081e2:	f44c 6ce0 	orr.w	r12, r12, #1792	; 0x700
  1081e6:	ea1c 5411 	ands.w	r4, r12, r1, lsr #20
  1081ea:	bf1d      	ittte	ne
  1081ec:	ea1c 5513 	andsne.w	r5, r12, r3, lsr #20
  1081f0:	ea94 0f0c 	teqne	r4, r12
  1081f4:	ea95 0f0c 	teqne	r5, r12
  1081f8:	f000 f8a7 	bleq	10834a <__aeabi_ddiv+0x16e>
  1081fc:	eba4 0405 	sub.w	r4, r4, r5
  108200:	ea81 0e03 	eor.w	lr, r1, r3
  108204:	ea52 3503 	orrs.w	r5, r2, r3, lsl #12
  108208:	ea4f 3101 	mov.w	r1, r1, lsl #12
  10820c:	f000 8088 	beq.w	108320 <__aeabi_ddiv+0x144>
  108210:	ea4f 3303 	mov.w	r3, r3, lsl #12
  108214:	f04f 5580 	mov.w	r5, #268435456	; 0x10000000
  108218:	ea45 1313 	orr.w	r3, r5, r3, lsr #4
  10821c:	ea43 6312 	orr.w	r3, r3, r2, lsr #24
  108220:	ea4f 2202 	mov.w	r2, r2, lsl #8
  108224:	ea45 1511 	orr.w	r5, r5, r1, lsr #4
  108228:	ea45 6510 	orr.w	r5, r5, r0, lsr #24
  10822c:	ea4f 2600 	mov.w	r6, r0, lsl #8
  108230:	f00e 4100 	and.w	r1, lr, #2147483648	; 0x80000000
  108234:	429d      	cmp	r5, r3
  108236:	bf08      	it	eq
  108238:	4296      	cmpeq	r6, r2
  10823a:	f144 04fd 	adc.w	r4, r4, #253	; 0xfd
  10823e:	f504 7440 	add.w	r4, r4, #768	; 0x300
  108242:	d202      	bcs.n	10824a <__aeabi_ddiv+0x6e>
  108244:	085b      	lsrs	r3, r3, #1
  108246:	ea4f 0232 	mov.w	r2, r2, rrx
  10824a:	1ab6      	subs	r6, r6, r2
  10824c:	eb65 0503 	sbc.w	r5, r5, r3
  108250:	085b      	lsrs	r3, r3, #1
  108252:	ea4f 0232 	mov.w	r2, r2, rrx
  108256:	f44f 1080 	mov.w	r0, #1048576	; 0x100000
  10825a:	f44f 2c00 	mov.w	r12, #524288	; 0x80000
  10825e:	ebb6 0e02 	subs.w	lr, r6, r2
  108262:	eb75 0e03 	sbcs.w	lr, r5, r3
  108266:	bf22      	ittt	cs
  108268:	1ab6      	subcs	r6, r6, r2
  10826a:	4675      	movcs	r5, lr
  10826c:	ea40 000c 	orrcs.w	r0, r0, r12
  108270:	085b      	lsrs	r3, r3, #1
  108272:	ea4f 0232 	mov.w	r2, r2, rrx
  108276:	ebb6 0e02 	subs.w	lr, r6, r2
  10827a:	eb75 0e03 	sbcs.w	lr, r5, r3
  10827e:	bf22      	ittt	cs
  108280:	1ab6      	subcs	r6, r6, r2
  108282:	4675      	movcs	r5, lr
  108284:	ea40 005c 	orrcs.w	r0, r0, r12, lsr #1
  108288:	085b      	lsrs	r3, r3, #1
  10828a:	ea4f 0232 	mov.w	r2, r2, rrx
  10828e:	ebb6 0e02 	subs.w	lr, r6, r2
  108292:	eb75 0e03 	sbcs.w	lr, r5, r3
  108296:	bf22      	ittt	cs
  108298:	1ab6      	subcs	r6, r6, r2
  10829a:	4675      	movcs	r5, lr
  10829c:	ea40 009c 	orrcs.w	r0, r0, r12, lsr #2
  1082a0:	085b      	lsrs	r3, r3, #1
  1082a2:	ea4f 0232 	mov.w	r2, r2, rrx
  1082a6:	ebb6 0e02 	subs.w	lr, r6, r2
  1082aa:	eb75 0e03 	sbcs.w	lr, r5, r3
  1082ae:	bf22      	ittt	cs
  1082b0:	1ab6      	subcs	r6, r6, r2
  1082b2:	4675      	movcs	r5, lr
  1082b4:	ea40 00dc 	orrcs.w	r0, r0, r12, lsr #3
  1082b8:	ea55 0e06 	orrs.w	lr, r5, r6
  1082bc:	d018      	beq.n	1082f0 <__aeabi_ddiv+0x114>
  1082be:	ea4f 1505 	mov.w	r5, r5, lsl #4
  1082c2:	ea45 7516 	orr.w	r5, r5, r6, lsr #28
  1082c6:	ea4f 1606 	mov.w	r6, r6, lsl #4
  1082ca:	ea4f 03c3 	mov.w	r3, r3, lsl #3
  1082ce:	ea43 7352 	orr.w	r3, r3, r2, lsr #29
  1082d2:	ea4f 02c2 	mov.w	r2, r2, lsl #3
  1082d6:	ea5f 1c1c 	movs.w	r12, r12, lsr #4
  1082da:	d1c0      	bne.n	10825e <__aeabi_ddiv+0x82>
  1082dc:	f411 1f80 	tst.w	r1, #1048576	; 0x100000
  1082e0:	d10b      	bne.n	1082fa <__aeabi_ddiv+0x11e>
  1082e2:	ea41 0100 	orr.w	r1, r1, r0
  1082e6:	f04f 0000 	mov.w	r0, #0
  1082ea:	f04f 4c00 	mov.w	r12, #2147483648	; 0x80000000
  1082ee:	e7b6      	b.n	10825e <__aeabi_ddiv+0x82>
  1082f0:	f411 1f80 	tst.w	r1, #1048576	; 0x100000
  1082f4:	bf04      	itt	eq
  1082f6:	4301      	orreq	r1, r0
  1082f8:	2000      	moveq	r0, #0
  1082fa:	f1b4 0cfd 	subs.w	r12, r4, #253	; 0xfd
  1082fe:	bf88      	it	hi
  108300:	f5bc 6fe0 	cmphi.w	r12, #1792	; 0x700
  108304:	f63f aeaf 	bhi.w	108066 <__aeabi_dmul+0xde>
  108308:	ebb5 0c03 	subs.w	r12, r5, r3
  10830c:	bf04      	itt	eq
  10830e:	ebb6 0c02 	subseq.w	r12, r6, r2
  108312:	ea5f 0c50 	movseq.w	r12, r0, lsr #1
  108316:	f150 0000 	adcs.w	r0, r0, #0
  10831a:	eb41 5104 	adc.w	r1, r1, r4, lsl #20
  10831e:	bd70      	pop	{r4, r5, r6, pc}
  108320:	f00e 4e00 	and.w	lr, lr, #2147483648	; 0x80000000
  108324:	ea4e 3111 	orr.w	r1, lr, r1, lsr #12
  108328:	eb14 045c 	adds.w	r4, r4, r12, lsr #1
  10832c:	bfc2      	ittt	gt
  10832e:	ebd4 050c 	rsbsgt	r5, r4, r12
  108332:	ea41 5104 	orrgt.w	r1, r1, r4, lsl #20
  108336:	bd70      	popgt	{r4, r5, r6, pc}
  108338:	f441 1180 	orr.w	r1, r1, #1048576	; 0x100000
  10833c:	f04f 0e00 	mov.w	lr, #0
  108340:	3c01      	subs	r4, #1
  108342:	e690      	b.n	108066 <__aeabi_dmul+0xde>
  108344:	ea45 0e06 	orr.w	lr, r5, r6
  108348:	e68d      	b.n	108066 <__aeabi_dmul+0xde>
  10834a:	ea0c 5513 	and.w	r5, r12, r3, lsr #20
  10834e:	ea94 0f0c 	teq	r4, r12
  108352:	bf08      	it	eq
  108354:	ea95 0f0c 	teqeq	r5, r12
  108358:	f43f af3b 	beq.w	1081d2 <__aeabi_dmul+0x24a>
  10835c:	ea94 0f0c 	teq	r4, r12
  108360:	d10a      	bne.n	108378 <__aeabi_ddiv+0x19c>
  108362:	ea50 3401 	orrs.w	r4, r0, r1, lsl #12
  108366:	f47f af34 	bne.w	1081d2 <__aeabi_dmul+0x24a>
  10836a:	ea95 0f0c 	teq	r5, r12
  10836e:	f47f af25 	bne.w	1081bc <__aeabi_dmul+0x234>
  108372:	4610      	mov	r0, r2
  108374:	4619      	mov	r1, r3
  108376:	e72c      	b.n	1081d2 <__aeabi_dmul+0x24a>
  108378:	ea95 0f0c 	teq	r5, r12
  10837c:	d106      	bne.n	10838c <__aeabi_ddiv+0x1b0>
  10837e:	ea52 3503 	orrs.w	r5, r2, r3, lsl #12
  108382:	f43f aefd 	beq.w	108180 <__aeabi_dmul+0x1f8>
  108386:	4610      	mov	r0, r2
  108388:	4619      	mov	r1, r3
  10838a:	e722      	b.n	1081d2 <__aeabi_dmul+0x24a>
  10838c:	ea50 0641 	orrs.w	r6, r0, r1, lsl #1
  108390:	bf18      	it	ne
  108392:	ea52 0643 	orrsne.w	r6, r2, r3, lsl #1
  108396:	f47f aec5 	bne.w	108124 <__aeabi_dmul+0x19c>
  10839a:	ea50 0441 	orrs.w	r4, r0, r1, lsl #1
  10839e:	f47f af0d 	bne.w	1081bc <__aeabi_dmul+0x234>
  1083a2:	ea52 0543 	orrs.w	r5, r2, r3, lsl #1
  1083a6:	f47f aeeb 	bne.w	108180 <__aeabi_dmul+0x1f8>
  1083aa:	e712      	b.n	1081d2 <__aeabi_dmul+0x24a>

001083ac <__aeabi_d2uiz>:
  1083ac:	004a      	lsls	r2, r1, #1
  1083ae:	d211      	bcs.n	1083d4 <__aeabi_d2uiz+0x28>
  1083b0:	f512 1200 	adds.w	r2, r2, #2097152	; 0x200000
  1083b4:	d211      	bcs.n	1083da <__aeabi_d2uiz+0x2e>
  1083b6:	d50d      	bpl.n	1083d4 <__aeabi_d2uiz+0x28>
  1083b8:	f46f 7378 	mvn.w	r3, #992	; 0x3e0
  1083bc:	ebb3 5262 	subs.w	r2, r3, r2, asr #21
  1083c0:	d40e      	bmi.n	1083e0 <__aeabi_d2uiz+0x34>
  1083c2:	ea4f 23c1 	mov.w	r3, r1, lsl #11
  1083c6:	f043 4300 	orr.w	r3, r3, #2147483648	; 0x80000000
  1083ca:	ea43 5350 	orr.w	r3, r3, r0, lsr #21
  1083ce:	fa23 f002 	lsr.w	r0, r3, r2
  1083d2:	4770      	bx	lr
  1083d4:	f04f 0000 	mov.w	r0, #0
  1083d8:	4770      	bx	lr
  1083da:	ea50 3001 	orrs.w	r0, r0, r1, lsl #12
  1083de:	d102      	bne.n	1083e6 <__aeabi_d2uiz+0x3a>
  1083e0:	f04f 30ff 	mov.w	r0, #4294967295
  1083e4:	4770      	bx	lr
  1083e6:	f04f 0000 	mov.w	r0, #0
  1083ea:	4770      	bx	lr

001083ec <__errno>:
  1083ec:	4b01      	ldr	r3, [pc, #4]	; (1083f4 <__errno+0x8>)
  1083ee:	6818      	ldr	r0, [r3, #0]
  1083f0:	4770      	bx	lr
  1083f2:	bf00      	nop
  1083f4:	3fff41c4 	.word	0x3fff41c4

001083f8 <_fclose_r>:
  1083f8:	b570      	push	{r4, r5, r6, lr}
  1083fa:	4605      	mov	r5, r0
  1083fc:	460c      	mov	r4, r1
  1083fe:	b909      	cbnz	r1, 108404 <_fclose_r+0xc>
  108400:	2000      	movs	r0, #0
  108402:	bd70      	pop	{r4, r5, r6, pc}
  108404:	b118      	cbz	r0, 10840e <_fclose_r+0x16>
  108406:	6983      	ldr	r3, [r0, #24]
  108408:	b90b      	cbnz	r3, 10840e <_fclose_r+0x16>
  10840a:	f000 f951 	bl	1086b0 <__sinit>
  10840e:	4b20      	ldr	r3, [pc, #128]	; (108490 <_fclose_r+0x98>)
  108410:	429c      	cmp	r4, r3
  108412:	d101      	bne.n	108418 <_fclose_r+0x20>
  108414:	686c      	ldr	r4, [r5, #4]
  108416:	e008      	b.n	10842a <_fclose_r+0x32>
  108418:	4b1e      	ldr	r3, [pc, #120]	; (108494 <_fclose_r+0x9c>)
  10841a:	429c      	cmp	r4, r3
  10841c:	d101      	bne.n	108422 <_fclose_r+0x2a>
  10841e:	68ac      	ldr	r4, [r5, #8]
  108420:	e003      	b.n	10842a <_fclose_r+0x32>
  108422:	4b1d      	ldr	r3, [pc, #116]	; (108498 <_fclose_r+0xa0>)
  108424:	429c      	cmp	r4, r3
  108426:	bf08      	it	eq
  108428:	68ec      	ldreq	r4, [r5, #12]
  10842a:	f9b4 300c 	ldrsh.w	r3, [r4, #12]
  10842e:	2b00      	cmp	r3, #0
  108430:	d0e6      	beq.n	108400 <_fclose_r+0x8>
  108432:	4621      	mov	r1, r4
  108434:	4628      	mov	r0, r5
  108436:	f000 f839 	bl	1084ac <__sflush_r>
  10843a:	6b23      	ldr	r3, [r4, #48]	; 0x30
  10843c:	4606      	mov	r6, r0
  10843e:	b133      	cbz	r3, 10844e <_fclose_r+0x56>
  108440:	6a21      	ldr	r1, [r4, #32]
  108442:	4628      	mov	r0, r5
  108444:	4798      	blx	r3
  108446:	2800      	cmp	r0, #0
  108448:	bfb8      	it	lt
  10844a:	f04f 36ff 	movlt.w	r6, #4294967295
  10844e:	89a3      	ldrh	r3, [r4, #12]
  108450:	061b      	lsls	r3, r3, #24
  108452:	d503      	bpl.n	10845c <_fclose_r+0x64>
  108454:	6921      	ldr	r1, [r4, #16]
  108456:	4628      	mov	r0, r5
  108458:	f7fe fb08 	bl	106a6c <__wrap__free_r>
  10845c:	6b61      	ldr	r1, [r4, #52]	; 0x34
  10845e:	b141      	cbz	r1, 108472 <_fclose_r+0x7a>
  108460:	f104 0344 	add.w	r3, r4, #68	; 0x44
  108464:	4299      	cmp	r1, r3
  108466:	d002      	beq.n	10846e <_fclose_r+0x76>
  108468:	4628      	mov	r0, r5
  10846a:	f7fe faff 	bl	106a6c <__wrap__free_r>
  10846e:	2300      	movs	r3, #0
  108470:	6363      	str	r3, [r4, #52]	; 0x34
  108472:	6ca1      	ldr	r1, [r4, #72]	; 0x48
  108474:	b121      	cbz	r1, 108480 <_fclose_r+0x88>
  108476:	4628      	mov	r0, r5
  108478:	f7fe faf8 	bl	106a6c <__wrap__free_r>
  10847c:	2300      	movs	r3, #0
  10847e:	64a3      	str	r3, [r4, #72]	; 0x48
  108480:	f000 f982 	bl	108788 <__sfp_lock_acquire>
  108484:	2300      	movs	r3, #0
  108486:	81a3      	strh	r3, [r4, #12]
  108488:	f000 f97f 	bl	10878a <__sfp_lock_release>
  10848c:	4630      	mov	r0, r6
  10848e:	bd70      	pop	{r4, r5, r6, pc}
  108490:	0010e880 	.word	0x0010e880
  108494:	0010e8a0 	.word	0x0010e8a0
  108498:	0010e8c0 	.word	0x0010e8c0

0010849c <fclose>:
  10849c:	4b02      	ldr	r3, [pc, #8]	; (1084a8 <fclose+0xc>)
  10849e:	4601      	mov	r1, r0
  1084a0:	6818      	ldr	r0, [r3, #0]
  1084a2:	f7ff bfa9 	b.w	1083f8 <_fclose_r>
  1084a6:	bf00      	nop
  1084a8:	3fff41c4 	.word	0x3fff41c4

001084ac <__sflush_r>:
  1084ac:	898a      	ldrh	r2, [r1, #12]
  1084ae:	e92d 41f0 	stmdb	sp!, {r4, r5, r6, r7, r8, lr}
  1084b2:	4605      	mov	r5, r0
  1084b4:	0710      	lsls	r0, r2, #28
  1084b6:	460c      	mov	r4, r1
  1084b8:	d459      	bmi.n	10856e <__sflush_r+0xc2>
  1084ba:	684b      	ldr	r3, [r1, #4]
  1084bc:	2b00      	cmp	r3, #0
  1084be:	dc02      	bgt.n	1084c6 <__sflush_r+0x1a>
  1084c0:	6c0b      	ldr	r3, [r1, #64]	; 0x40
  1084c2:	2b00      	cmp	r3, #0
  1084c4:	dd17      	ble.n	1084f6 <__sflush_r+0x4a>
  1084c6:	6ae6      	ldr	r6, [r4, #44]	; 0x2c
  1084c8:	b1ae      	cbz	r6, 1084f6 <__sflush_r+0x4a>
  1084ca:	f402 5280 	and.w	r2, r2, #4096	; 0x1000
  1084ce:	2300      	movs	r3, #0
  1084d0:	b292      	uxth	r2, r2
  1084d2:	682f      	ldr	r7, [r5, #0]
  1084d4:	602b      	str	r3, [r5, #0]
  1084d6:	b10a      	cbz	r2, 1084dc <__sflush_r+0x30>
  1084d8:	6d60      	ldr	r0, [r4, #84]	; 0x54
  1084da:	e015      	b.n	108508 <__sflush_r+0x5c>
  1084dc:	6a21      	ldr	r1, [r4, #32]
  1084de:	2301      	movs	r3, #1
  1084e0:	4628      	mov	r0, r5
  1084e2:	47b0      	blx	r6
  1084e4:	1c41      	adds	r1, r0, #1
  1084e6:	d10f      	bne.n	108508 <__sflush_r+0x5c>
  1084e8:	682b      	ldr	r3, [r5, #0]
  1084ea:	b16b      	cbz	r3, 108508 <__sflush_r+0x5c>
  1084ec:	2b1d      	cmp	r3, #29
  1084ee:	d001      	beq.n	1084f4 <__sflush_r+0x48>
  1084f0:	2b16      	cmp	r3, #22
  1084f2:	d103      	bne.n	1084fc <__sflush_r+0x50>
  1084f4:	602f      	str	r7, [r5, #0]
  1084f6:	2000      	movs	r0, #0
  1084f8:	e8bd 81f0 	ldmia.w	sp!, {r4, r5, r6, r7, r8, pc}
  1084fc:	89a3      	ldrh	r3, [r4, #12]
  1084fe:	f043 0340 	orr.w	r3, r3, #64	; 0x40
  108502:	81a3      	strh	r3, [r4, #12]
  108504:	e8bd 81f0 	ldmia.w	sp!, {r4, r5, r6, r7, r8, pc}
  108508:	89a3      	ldrh	r3, [r4, #12]
  10850a:	075a      	lsls	r2, r3, #29
  10850c:	d505      	bpl.n	10851a <__sflush_r+0x6e>
  10850e:	6863      	ldr	r3, [r4, #4]
  108510:	1ac0      	subs	r0, r0, r3
  108512:	6b63      	ldr	r3, [r4, #52]	; 0x34
  108514:	b10b      	cbz	r3, 10851a <__sflush_r+0x6e>
  108516:	6c23      	ldr	r3, [r4, #64]	; 0x40
  108518:	1ac0      	subs	r0, r0, r3
  10851a:	2300      	movs	r3, #0
  10851c:	4602      	mov	r2, r0
  10851e:	6ae6      	ldr	r6, [r4, #44]	; 0x2c
  108520:	6a21      	ldr	r1, [r4, #32]
  108522:	4628      	mov	r0, r5
  108524:	47b0      	blx	r6
  108526:	1c43      	adds	r3, r0, #1
  108528:	89a3      	ldrh	r3, [r4, #12]
  10852a:	d106      	bne.n	10853a <__sflush_r+0x8e>
  10852c:	6829      	ldr	r1, [r5, #0]
  10852e:	291d      	cmp	r1, #29
  108530:	d839      	bhi.n	1085a6 <__sflush_r+0xfa>
  108532:	4a20      	ldr	r2, [pc, #128]	; (1085b4 <__sflush_r+0x108>)
  108534:	40ca      	lsrs	r2, r1
  108536:	07d6      	lsls	r6, r2, #31
  108538:	d535      	bpl.n	1085a6 <__sflush_r+0xfa>
  10853a:	2200      	movs	r2, #0
  10853c:	6062      	str	r2, [r4, #4]
  10853e:	6922      	ldr	r2, [r4, #16]
  108540:	04d9      	lsls	r1, r3, #19
  108542:	6022      	str	r2, [r4, #0]
  108544:	d504      	bpl.n	108550 <__sflush_r+0xa4>
  108546:	1c42      	adds	r2, r0, #1
  108548:	d101      	bne.n	10854e <__sflush_r+0xa2>
  10854a:	682b      	ldr	r3, [r5, #0]
  10854c:	b903      	cbnz	r3, 108550 <__sflush_r+0xa4>
  10854e:	6560      	str	r0, [r4, #84]	; 0x54
  108550:	6b61      	ldr	r1, [r4, #52]	; 0x34
  108552:	602f      	str	r7, [r5, #0]
  108554:	2900      	cmp	r1, #0
  108556:	d0ce      	beq.n	1084f6 <__sflush_r+0x4a>
  108558:	f104 0344 	add.w	r3, r4, #68	; 0x44
  10855c:	4299      	cmp	r1, r3
  10855e:	d002      	beq.n	108566 <__sflush_r+0xba>
  108560:	4628      	mov	r0, r5
  108562:	f7fe fa83 	bl	106a6c <__wrap__free_r>
  108566:	2000      	movs	r0, #0
  108568:	6360      	str	r0, [r4, #52]	; 0x34
  10856a:	e8bd 81f0 	ldmia.w	sp!, {r4, r5, r6, r7, r8, pc}
  10856e:	690f      	ldr	r7, [r1, #16]
  108570:	2f00      	cmp	r7, #0
  108572:	d0c0      	beq.n	1084f6 <__sflush_r+0x4a>
  108574:	0793      	lsls	r3, r2, #30
  108576:	680e      	ldr	r6, [r1, #0]
  108578:	bf0c      	ite	eq
  10857a:	694b      	ldreq	r3, [r1, #20]
  10857c:	2300      	movne	r3, #0
  10857e:	ebc7 0806 	rsb	r8, r7, r6
  108582:	600f      	str	r7, [r1, #0]
  108584:	608b      	str	r3, [r1, #8]
  108586:	e002      	b.n	10858e <__sflush_r+0xe2>
  108588:	4407      	add	r7, r0
  10858a:	ebc0 0808 	rsb	r8, r0, r8
  10858e:	f1b8 0f00 	cmp.w	r8, #0
  108592:	ddb0      	ble.n	1084f6 <__sflush_r+0x4a>
  108594:	4643      	mov	r3, r8
  108596:	463a      	mov	r2, r7
  108598:	6a21      	ldr	r1, [r4, #32]
  10859a:	4628      	mov	r0, r5
  10859c:	6aa6      	ldr	r6, [r4, #40]	; 0x28
  10859e:	47b0      	blx	r6
  1085a0:	2800      	cmp	r0, #0
  1085a2:	dcf1      	bgt.n	108588 <__sflush_r+0xdc>
  1085a4:	89a3      	ldrh	r3, [r4, #12]
  1085a6:	f043 0340 	orr.w	r3, r3, #64	; 0x40
  1085aa:	81a3      	strh	r3, [r4, #12]
  1085ac:	f04f 30ff 	mov.w	r0, #4294967295
  1085b0:	e8bd 81f0 	ldmia.w	sp!, {r4, r5, r6, r7, r8, pc}
  1085b4:	20400001 	.word	0x20400001

001085b8 <_fflush_r>:
  1085b8:	b538      	push	{r3, r4, r5, lr}
  1085ba:	690b      	ldr	r3, [r1, #16]
  1085bc:	4605      	mov	r5, r0
  1085be:	460c      	mov	r4, r1
  1085c0:	b1db      	cbz	r3, 1085fa <_fflush_r+0x42>
  1085c2:	b118      	cbz	r0, 1085cc <_fflush_r+0x14>
  1085c4:	6983      	ldr	r3, [r0, #24]
  1085c6:	b90b      	cbnz	r3, 1085cc <_fflush_r+0x14>
  1085c8:	f000 f872 	bl	1086b0 <__sinit>
  1085cc:	4b0c      	ldr	r3, [pc, #48]	; (108600 <_fflush_r+0x48>)
  1085ce:	429c      	cmp	r4, r3
  1085d0:	d101      	bne.n	1085d6 <_fflush_r+0x1e>
  1085d2:	686c      	ldr	r4, [r5, #4]
  1085d4:	e008      	b.n	1085e8 <_fflush_r+0x30>
  1085d6:	4b0b      	ldr	r3, [pc, #44]	; (108604 <_fflush_r+0x4c>)
  1085d8:	429c      	cmp	r4, r3
  1085da:	d101      	bne.n	1085e0 <_fflush_r+0x28>
  1085dc:	68ac      	ldr	r4, [r5, #8]
  1085de:	e003      	b.n	1085e8 <_fflush_r+0x30>
  1085e0:	4b09      	ldr	r3, [pc, #36]	; (108608 <_fflush_r+0x50>)
  1085e2:	429c      	cmp	r4, r3
  1085e4:	bf08      	it	eq
  1085e6:	68ec      	ldreq	r4, [r5, #12]
  1085e8:	f9b4 300c 	ldrsh.w	r3, [r4, #12]
  1085ec:	b12b      	cbz	r3, 1085fa <_fflush_r+0x42>
  1085ee:	4621      	mov	r1, r4
  1085f0:	4628      	mov	r0, r5
  1085f2:	e8bd 4038 	ldmia.w	sp!, {r3, r4, r5, lr}
  1085f6:	f7ff bf59 	b.w	1084ac <__sflush_r>
  1085fa:	2000      	movs	r0, #0
  1085fc:	bd38      	pop	{r3, r4, r5, pc}
  1085fe:	bf00      	nop
  108600:	0010e880 	.word	0x0010e880
  108604:	0010e8a0 	.word	0x0010e8a0
  108608:	0010e8c0 	.word	0x0010e8c0

0010860c <fflush>:
  10860c:	4601      	mov	r1, r0
  10860e:	b920      	cbnz	r0, 10861a <fflush+0xe>
  108610:	4b04      	ldr	r3, [pc, #16]	; (108624 <fflush+0x18>)
  108612:	4905      	ldr	r1, [pc, #20]	; (108628 <fflush+0x1c>)
  108614:	6818      	ldr	r0, [r3, #0]
  108616:	f000 b9ab 	b.w	108970 <_fwalk_reent>
  10861a:	4b04      	ldr	r3, [pc, #16]	; (10862c <fflush+0x20>)
  10861c:	6818      	ldr	r0, [r3, #0]
  10861e:	f7ff bfcb 	b.w	1085b8 <_fflush_r>
  108622:	bf00      	nop
  108624:	0010e8e0 	.word	0x0010e8e0
  108628:	001085b9 	.word	0x001085b9
  10862c:	3fff41c4 	.word	0x3fff41c4

00108630 <_cleanup_r>:
  108630:	4901      	ldr	r1, [pc, #4]	; (108638 <_cleanup_r+0x8>)
  108632:	f000 b99d 	b.w	108970 <_fwalk_reent>
  108636:	bf00      	nop
  108638:	001085b9 	.word	0x001085b9

0010863c <std.isra.0>:
  10863c:	b510      	push	{r4, lr}
  10863e:	4604      	mov	r4, r0
  108640:	2300      	movs	r3, #0
  108642:	6003      	str	r3, [r0, #0]
  108644:	6043      	str	r3, [r0, #4]
  108646:	6083      	str	r3, [r0, #8]
  108648:	8181      	strh	r1, [r0, #12]
  10864a:	6643      	str	r3, [r0, #100]	; 0x64
  10864c:	81c2      	strh	r2, [r0, #14]
  10864e:	6103      	str	r3, [r0, #16]
  108650:	6143      	str	r3, [r0, #20]
  108652:	6183      	str	r3, [r0, #24]
  108654:	4619      	mov	r1, r3
  108656:	2208      	movs	r2, #8
  108658:	305c      	adds	r0, #92	; 0x5c
  10865a:	f000 fa61 	bl	108b20 <memset>
  10865e:	4b05      	ldr	r3, [pc, #20]	; (108674 <std.isra.0+0x38>)
  108660:	6224      	str	r4, [r4, #32]
  108662:	6263      	str	r3, [r4, #36]	; 0x24
  108664:	4b04      	ldr	r3, [pc, #16]	; (108678 <std.isra.0+0x3c>)
  108666:	62a3      	str	r3, [r4, #40]	; 0x28
  108668:	4b04      	ldr	r3, [pc, #16]	; (10867c <std.isra.0+0x40>)
  10866a:	62e3      	str	r3, [r4, #44]	; 0x2c
  10866c:	4b04      	ldr	r3, [pc, #16]	; (108680 <std.isra.0+0x44>)
  10866e:	6323      	str	r3, [r4, #48]	; 0x30
  108670:	bd10      	pop	{r4, pc}
  108672:	bf00      	nop
  108674:	0010a4f9 	.word	0x0010a4f9
  108678:	0010a51f 	.word	0x0010a51f
  10867c:	0010a557 	.word	0x0010a557
  108680:	0010a57b 	.word	0x0010a57b

00108684 <__sfmoreglue>:
  108684:	b570      	push	{r4, r5, r6, lr}
  108686:	2368      	movs	r3, #104	; 0x68
  108688:	1e4d      	subs	r5, r1, #1
  10868a:	435d      	muls	r5, r3
  10868c:	460e      	mov	r6, r1
  10868e:	f105 0174 	add.w	r1, r5, #116	; 0x74
  108692:	f7fe f9b9 	bl	106a08 <__wrap__malloc_r>
  108696:	4604      	mov	r4, r0
  108698:	b140      	cbz	r0, 1086ac <__sfmoreglue+0x28>
  10869a:	2100      	movs	r1, #0
  10869c:	e880 0042 	stmia.w	r0, {r1, r6}
  1086a0:	300c      	adds	r0, #12
  1086a2:	60a0      	str	r0, [r4, #8]
  1086a4:	f105 0268 	add.w	r2, r5, #104	; 0x68
  1086a8:	f000 fa3a 	bl	108b20 <memset>
  1086ac:	4620      	mov	r0, r4
  1086ae:	bd70      	pop	{r4, r5, r6, pc}

001086b0 <__sinit>:
  1086b0:	6983      	ldr	r3, [r0, #24]
  1086b2:	b510      	push	{r4, lr}
  1086b4:	4604      	mov	r4, r0
  1086b6:	bb33      	cbnz	r3, 108706 <__sinit+0x56>
  1086b8:	6483      	str	r3, [r0, #72]	; 0x48
  1086ba:	64c3      	str	r3, [r0, #76]	; 0x4c
  1086bc:	6503      	str	r3, [r0, #80]	; 0x50
  1086be:	4b12      	ldr	r3, [pc, #72]	; (108708 <__sinit+0x58>)
  1086c0:	4a12      	ldr	r2, [pc, #72]	; (10870c <__sinit+0x5c>)
  1086c2:	681b      	ldr	r3, [r3, #0]
  1086c4:	6282      	str	r2, [r0, #40]	; 0x28
  1086c6:	4298      	cmp	r0, r3
  1086c8:	bf04      	itt	eq
  1086ca:	2301      	moveq	r3, #1
  1086cc:	6183      	streq	r3, [r0, #24]
  1086ce:	f000 f81f 	bl	108710 <__sfp>
  1086d2:	6060      	str	r0, [r4, #4]
  1086d4:	4620      	mov	r0, r4
  1086d6:	f000 f81b 	bl	108710 <__sfp>
  1086da:	60a0      	str	r0, [r4, #8]
  1086dc:	4620      	mov	r0, r4
  1086de:	f000 f817 	bl	108710 <__sfp>
  1086e2:	2200      	movs	r2, #0
  1086e4:	60e0      	str	r0, [r4, #12]
  1086e6:	2104      	movs	r1, #4
  1086e8:	6860      	ldr	r0, [r4, #4]
  1086ea:	f7ff ffa7 	bl	10863c <std.isra.0>
  1086ee:	2201      	movs	r2, #1
  1086f0:	2109      	movs	r1, #9
  1086f2:	68a0      	ldr	r0, [r4, #8]
  1086f4:	f7ff ffa2 	bl	10863c <std.isra.0>
  1086f8:	2202      	movs	r2, #2
  1086fa:	2112      	movs	r1, #18
  1086fc:	68e0      	ldr	r0, [r4, #12]
  1086fe:	f7ff ff9d 	bl	10863c <std.isra.0>
  108702:	2301      	movs	r3, #1
  108704:	61a3      	str	r3, [r4, #24]
  108706:	bd10      	pop	{r4, pc}
  108708:	0010e8e0 	.word	0x0010e8e0
  10870c:	00108631 	.word	0x00108631

00108710 <__sfp>:
  108710:	b5f8      	push	{r3, r4, r5, r6, r7, lr}
  108712:	4b1c      	ldr	r3, [pc, #112]	; (108784 <__sfp+0x74>)
  108714:	4607      	mov	r7, r0
  108716:	681e      	ldr	r6, [r3, #0]
  108718:	69b3      	ldr	r3, [r6, #24]
  10871a:	b913      	cbnz	r3, 108722 <__sfp+0x12>
  10871c:	4630      	mov	r0, r6
  10871e:	f7ff ffc7 	bl	1086b0 <__sinit>
  108722:	3648      	adds	r6, #72	; 0x48
  108724:	68b4      	ldr	r4, [r6, #8]
  108726:	6873      	ldr	r3, [r6, #4]
  108728:	3b01      	subs	r3, #1
  10872a:	d404      	bmi.n	108736 <__sfp+0x26>
  10872c:	f9b4 500c 	ldrsh.w	r5, [r4, #12]
  108730:	b17d      	cbz	r5, 108752 <__sfp+0x42>
  108732:	3468      	adds	r4, #104	; 0x68
  108734:	e7f8      	b.n	108728 <__sfp+0x18>
  108736:	6833      	ldr	r3, [r6, #0]
  108738:	b10b      	cbz	r3, 10873e <__sfp+0x2e>
  10873a:	6836      	ldr	r6, [r6, #0]
  10873c:	e7f2      	b.n	108724 <__sfp+0x14>
  10873e:	2104      	movs	r1, #4
  108740:	4638      	mov	r0, r7
  108742:	f7ff ff9f 	bl	108684 <__sfmoreglue>
  108746:	6030      	str	r0, [r6, #0]
  108748:	2800      	cmp	r0, #0
  10874a:	d1f6      	bne.n	10873a <__sfp+0x2a>
  10874c:	230c      	movs	r3, #12
  10874e:	603b      	str	r3, [r7, #0]
  108750:	bdf8      	pop	{r3, r4, r5, r6, r7, pc}
  108752:	f64f 73ff 	movw	r3, #65535	; 0xffff
  108756:	81e3      	strh	r3, [r4, #14]
  108758:	2301      	movs	r3, #1
  10875a:	81a3      	strh	r3, [r4, #12]
  10875c:	6665      	str	r5, [r4, #100]	; 0x64
  10875e:	6025      	str	r5, [r4, #0]
  108760:	60a5      	str	r5, [r4, #8]
  108762:	6065      	str	r5, [r4, #4]
  108764:	6125      	str	r5, [r4, #16]
  108766:	6165      	str	r5, [r4, #20]
  108768:	61a5      	str	r5, [r4, #24]
  10876a:	2208      	movs	r2, #8
  10876c:	4629      	mov	r1, r5
  10876e:	f104 005c 	add.w	r0, r4, #92	; 0x5c
  108772:	f000 f9d5 	bl	108b20 <memset>
  108776:	6365      	str	r5, [r4, #52]	; 0x34
  108778:	63a5      	str	r5, [r4, #56]	; 0x38
  10877a:	64a5      	str	r5, [r4, #72]	; 0x48
  10877c:	64e5      	str	r5, [r4, #76]	; 0x4c
  10877e:	4620      	mov	r0, r4
  108780:	bdf8      	pop	{r3, r4, r5, r6, r7, pc}
  108782:	bf00      	nop
  108784:	0010e8e0 	.word	0x0010e8e0

00108788 <__sfp_lock_acquire>:
  108788:	4770      	bx	lr

0010878a <__sfp_lock_release>:
  10878a:	4770      	bx	lr

0010878c <_fopen_r>:
  10878c:	b5f7      	push	{r0, r1, r2, r4, r5, r6, r7, lr}
  10878e:	460f      	mov	r7, r1
  108790:	4611      	mov	r1, r2
  108792:	aa01      	add	r2, sp, #4
  108794:	4605      	mov	r5, r0
  108796:	f003 fe37 	bl	10c408 <__sflags>
  10879a:	4606      	mov	r6, r0
  10879c:	b908      	cbnz	r0, 1087a2 <_fopen_r+0x16>
  10879e:	2000      	movs	r0, #0
  1087a0:	e029      	b.n	1087f6 <_fopen_r+0x6a>
  1087a2:	4628      	mov	r0, r5
  1087a4:	f7ff ffb4 	bl	108710 <__sfp>
  1087a8:	4604      	mov	r4, r0
  1087aa:	2800      	cmp	r0, #0
  1087ac:	d0f7      	beq.n	10879e <_fopen_r+0x12>
  1087ae:	f44f 73db 	mov.w	r3, #438	; 0x1b6
  1087b2:	9a01      	ldr	r2, [sp, #4]
  1087b4:	4639      	mov	r1, r7
  1087b6:	4628      	mov	r0, r5
  1087b8:	f001 fcb2 	bl	10a120 <_open_r>
  1087bc:	2800      	cmp	r0, #0
  1087be:	da06      	bge.n	1087ce <_fopen_r+0x42>
  1087c0:	2500      	movs	r5, #0
  1087c2:	f7ff ffe1 	bl	108788 <__sfp_lock_acquire>
  1087c6:	81a5      	strh	r5, [r4, #12]
  1087c8:	f7ff ffdf 	bl	10878a <__sfp_lock_release>
  1087cc:	e7e7      	b.n	10879e <_fopen_r+0x12>
  1087ce:	4b0b      	ldr	r3, [pc, #44]	; (1087fc <_fopen_r+0x70>)
  1087d0:	81e0      	strh	r0, [r4, #14]
  1087d2:	6263      	str	r3, [r4, #36]	; 0x24
  1087d4:	4b0a      	ldr	r3, [pc, #40]	; (108800 <_fopen_r+0x74>)
  1087d6:	81a6      	strh	r6, [r4, #12]
  1087d8:	62a3      	str	r3, [r4, #40]	; 0x28
  1087da:	4b0a      	ldr	r3, [pc, #40]	; (108804 <_fopen_r+0x78>)
  1087dc:	6224      	str	r4, [r4, #32]
  1087de:	62e3      	str	r3, [r4, #44]	; 0x2c
  1087e0:	4b09      	ldr	r3, [pc, #36]	; (108808 <_fopen_r+0x7c>)
  1087e2:	6323      	str	r3, [r4, #48]	; 0x30
  1087e4:	05f3      	lsls	r3, r6, #23
  1087e6:	d505      	bpl.n	1087f4 <_fopen_r+0x68>
  1087e8:	2302      	movs	r3, #2
  1087ea:	2200      	movs	r2, #0
  1087ec:	4621      	mov	r1, r4
  1087ee:	4628      	mov	r0, r5
  1087f0:	f000 f814 	bl	10881c <_fseek_r>
  1087f4:	4620      	mov	r0, r4
  1087f6:	b003      	add	sp, #12
  1087f8:	bdf0      	pop	{r4, r5, r6, r7, pc}
  1087fa:	bf00      	nop
  1087fc:	0010a4f9 	.word	0x0010a4f9
  108800:	0010a51f 	.word	0x0010a51f
  108804:	0010a557 	.word	0x0010a557
  108808:	0010a57b 	.word	0x0010a57b

0010880c <fopen>:
  10880c:	4b02      	ldr	r3, [pc, #8]	; (108818 <fopen+0xc>)
  10880e:	460a      	mov	r2, r1
  108810:	4601      	mov	r1, r0
  108812:	6818      	ldr	r0, [r3, #0]
  108814:	f7ff bfba 	b.w	10878c <_fopen_r>
  108818:	3fff41c4 	.word	0x3fff41c4

0010881c <_fseek_r>:
  10881c:	f000 b800 	b.w	108820 <_fseeko_r>

00108820 <_fseeko_r>:
  108820:	e92d 43f8 	stmdb	sp!, {r3, r4, r5, r6, r7, r8, r9, lr}
  108824:	460c      	mov	r4, r1
  108826:	4690      	mov	r8, r2
  108828:	461e      	mov	r6, r3
  10882a:	4605      	mov	r5, r0
  10882c:	b118      	cbz	r0, 108836 <_fseeko_r+0x16>
  10882e:	6983      	ldr	r3, [r0, #24]
  108830:	b90b      	cbnz	r3, 108836 <_fseeko_r+0x16>
  108832:	f7ff ff3d 	bl	1086b0 <__sinit>
  108836:	4b3d      	ldr	r3, [pc, #244]	; (10892c <_fseeko_r+0x10c>)
  108838:	429c      	cmp	r4, r3
  10883a:	d101      	bne.n	108840 <_fseeko_r+0x20>
  10883c:	686c      	ldr	r4, [r5, #4]
  10883e:	e008      	b.n	108852 <_fseeko_r+0x32>
  108840:	4b3b      	ldr	r3, [pc, #236]	; (108930 <_fseeko_r+0x110>)
  108842:	429c      	cmp	r4, r3
  108844:	d101      	bne.n	10884a <_fseeko_r+0x2a>
  108846:	68ac      	ldr	r4, [r5, #8]
  108848:	e003      	b.n	108852 <_fseeko_r+0x32>
  10884a:	4b3a      	ldr	r3, [pc, #232]	; (108934 <_fseeko_r+0x114>)
  10884c:	429c      	cmp	r4, r3
  10884e:	bf08      	it	eq
  108850:	68ec      	ldreq	r4, [r5, #12]
  108852:	89a3      	ldrh	r3, [r4, #12]
  108854:	f403 7384 	and.w	r3, r3, #264	; 0x108
  108858:	f5b3 7f84 	cmp.w	r3, #264	; 0x108
  10885c:	d103      	bne.n	108866 <_fseeko_r+0x46>
  10885e:	4621      	mov	r1, r4
  108860:	4628      	mov	r0, r5
  108862:	f7ff fea9 	bl	1085b8 <_fflush_r>
  108866:	6ae7      	ldr	r7, [r4, #44]	; 0x2c
  108868:	b90f      	cbnz	r7, 10886e <_fseeko_r+0x4e>
  10886a:	231d      	movs	r3, #29
  10886c:	e02b      	b.n	1088c6 <_fseeko_r+0xa6>
  10886e:	2e01      	cmp	r6, #1
  108870:	d004      	beq.n	10887c <_fseeko_r+0x5c>
  108872:	2e02      	cmp	r6, #2
  108874:	d02b      	beq.n	1088ce <_fseeko_r+0xae>
  108876:	b356      	cbz	r6, 1088ce <_fseeko_r+0xae>
  108878:	2316      	movs	r3, #22
  10887a:	e024      	b.n	1088c6 <_fseeko_r+0xa6>
  10887c:	4621      	mov	r1, r4
  10887e:	4628      	mov	r0, r5
  108880:	f7ff fe9a 	bl	1085b8 <_fflush_r>
  108884:	89a2      	ldrh	r2, [r4, #12]
  108886:	f402 5280 	and.w	r2, r2, #4096	; 0x1000
  10888a:	b292      	uxth	r2, r2
  10888c:	b10a      	cbz	r2, 108892 <_fseeko_r+0x72>
  10888e:	6d60      	ldr	r0, [r4, #84]	; 0x54
  108890:	e005      	b.n	10889e <_fseeko_r+0x7e>
  108892:	6a21      	ldr	r1, [r4, #32]
  108894:	4633      	mov	r3, r6
  108896:	4628      	mov	r0, r5
  108898:	47b8      	blx	r7
  10889a:	1c41      	adds	r1, r0, #1
  10889c:	d014      	beq.n	1088c8 <_fseeko_r+0xa8>
  10889e:	89a3      	ldrh	r3, [r4, #12]
  1088a0:	075a      	lsls	r2, r3, #29
  1088a2:	d506      	bpl.n	1088b2 <_fseeko_r+0x92>
  1088a4:	6863      	ldr	r3, [r4, #4]
  1088a6:	1ac0      	subs	r0, r0, r3
  1088a8:	6b63      	ldr	r3, [r4, #52]	; 0x34
  1088aa:	b14b      	cbz	r3, 1088c0 <_fseeko_r+0xa0>
  1088ac:	6c23      	ldr	r3, [r4, #64]	; 0x40
  1088ae:	1ac0      	subs	r0, r0, r3
  1088b0:	e006      	b.n	1088c0 <_fseeko_r+0xa0>
  1088b2:	071b      	lsls	r3, r3, #28
  1088b4:	d504      	bpl.n	1088c0 <_fseeko_r+0xa0>
  1088b6:	6823      	ldr	r3, [r4, #0]
  1088b8:	b113      	cbz	r3, 1088c0 <_fseeko_r+0xa0>
  1088ba:	6922      	ldr	r2, [r4, #16]
  1088bc:	1a9b      	subs	r3, r3, r2
  1088be:	4418      	add	r0, r3
  1088c0:	4480      	add	r8, r0
  1088c2:	2600      	movs	r6, #0
  1088c4:	e003      	b.n	1088ce <_fseeko_r+0xae>
  1088c6:	602b      	str	r3, [r5, #0]
  1088c8:	f04f 39ff 	mov.w	r9, #4294967295
  1088cc:	e02b      	b.n	108926 <_fseeko_r+0x106>
  1088ce:	6923      	ldr	r3, [r4, #16]
  1088d0:	b91b      	cbnz	r3, 1088da <_fseeko_r+0xba>
  1088d2:	4621      	mov	r1, r4
  1088d4:	4628      	mov	r0, r5
  1088d6:	f000 f893 	bl	108a00 <__smakebuf_r>
  1088da:	4621      	mov	r1, r4
  1088dc:	4628      	mov	r0, r5
  1088de:	f7ff fe6b 	bl	1085b8 <_fflush_r>
  1088e2:	4681      	mov	r9, r0
  1088e4:	2800      	cmp	r0, #0
  1088e6:	d1ef      	bne.n	1088c8 <_fseeko_r+0xa8>
  1088e8:	4633      	mov	r3, r6
  1088ea:	4642      	mov	r2, r8
  1088ec:	6a21      	ldr	r1, [r4, #32]
  1088ee:	4628      	mov	r0, r5
  1088f0:	47b8      	blx	r7
  1088f2:	3001      	adds	r0, #1
  1088f4:	d0e8      	beq.n	1088c8 <_fseeko_r+0xa8>
  1088f6:	6b61      	ldr	r1, [r4, #52]	; 0x34
  1088f8:	b141      	cbz	r1, 10890c <_fseeko_r+0xec>
  1088fa:	f104 0344 	add.w	r3, r4, #68	; 0x44
  1088fe:	4299      	cmp	r1, r3
  108900:	d002      	beq.n	108908 <_fseeko_r+0xe8>
  108902:	4628      	mov	r0, r5
  108904:	f7fe f8b2 	bl	106a6c <__wrap__free_r>
  108908:	2300      	movs	r3, #0
  10890a:	6363      	str	r3, [r4, #52]	; 0x34
  10890c:	6923      	ldr	r3, [r4, #16]
  10890e:	2100      	movs	r1, #0
  108910:	6023      	str	r3, [r4, #0]
  108912:	89a3      	ldrh	r3, [r4, #12]
  108914:	6061      	str	r1, [r4, #4]
  108916:	f423 6302 	bic.w	r3, r3, #2080	; 0x820
  10891a:	81a3      	strh	r3, [r4, #12]
  10891c:	2208      	movs	r2, #8
  10891e:	f104 005c 	add.w	r0, r4, #92	; 0x5c
  108922:	f000 f8fd 	bl	108b20 <memset>
  108926:	4648      	mov	r0, r9
  108928:	e8bd 83f8 	ldmia.w	sp!, {r3, r4, r5, r6, r7, r8, r9, pc}
  10892c:	0010e880 	.word	0x0010e880
  108930:	0010e8a0 	.word	0x0010e8a0
  108934:	0010e8c0 	.word	0x0010e8c0

00108938 <_fwalk>:
  108938:	e92d 41f0 	stmdb	sp!, {r4, r5, r6, r7, r8, lr}
  10893c:	4688      	mov	r8, r1
  10893e:	f100 0448 	add.w	r4, r0, #72	; 0x48
  108942:	2600      	movs	r6, #0
  108944:	b18c      	cbz	r4, 10896a <_fwalk+0x32>
  108946:	68a5      	ldr	r5, [r4, #8]
  108948:	6867      	ldr	r7, [r4, #4]
  10894a:	3f01      	subs	r7, #1
  10894c:	d40b      	bmi.n	108966 <_fwalk+0x2e>
  10894e:	89ab      	ldrh	r3, [r5, #12]
  108950:	2b01      	cmp	r3, #1
  108952:	d906      	bls.n	108962 <_fwalk+0x2a>
  108954:	f9b5 300e 	ldrsh.w	r3, [r5, #14]
  108958:	3301      	adds	r3, #1
  10895a:	d002      	beq.n	108962 <_fwalk+0x2a>
  10895c:	4628      	mov	r0, r5
  10895e:	47c0      	blx	r8
  108960:	4306      	orrs	r6, r0
  108962:	3568      	adds	r5, #104	; 0x68
  108964:	e7f1      	b.n	10894a <_fwalk+0x12>
  108966:	6824      	ldr	r4, [r4, #0]
  108968:	e7ec      	b.n	108944 <_fwalk+0xc>
  10896a:	4630      	mov	r0, r6
  10896c:	e8bd 81f0 	ldmia.w	sp!, {r4, r5, r6, r7, r8, pc}

00108970 <_fwalk_reent>:
  108970:	e92d 43f8 	stmdb	sp!, {r3, r4, r5, r6, r7, r8, r9, lr}
  108974:	4680      	mov	r8, r0
  108976:	4689      	mov	r9, r1
  108978:	f100 0448 	add.w	r4, r0, #72	; 0x48
  10897c:	2600      	movs	r6, #0
  10897e:	b194      	cbz	r4, 1089a6 <_fwalk_reent+0x36>
  108980:	68a5      	ldr	r5, [r4, #8]
  108982:	6867      	ldr	r7, [r4, #4]
  108984:	3f01      	subs	r7, #1
  108986:	d40c      	bmi.n	1089a2 <_fwalk_reent+0x32>
  108988:	89ab      	ldrh	r3, [r5, #12]
  10898a:	2b01      	cmp	r3, #1
  10898c:	d907      	bls.n	10899e <_fwalk_reent+0x2e>
  10898e:	f9b5 300e 	ldrsh.w	r3, [r5, #14]
  108992:	3301      	adds	r3, #1
  108994:	d003      	beq.n	10899e <_fwalk_reent+0x2e>
  108996:	4629      	mov	r1, r5
  108998:	4640      	mov	r0, r8
  10899a:	47c8      	blx	r9
  10899c:	4306      	orrs	r6, r0
  10899e:	3568      	adds	r5, #104	; 0x68
  1089a0:	e7f0      	b.n	108984 <_fwalk_reent+0x14>
  1089a2:	6824      	ldr	r4, [r4, #0]
  1089a4:	e7eb      	b.n	10897e <_fwalk_reent+0xe>
  1089a6:	4630      	mov	r0, r6
  1089a8:	e8bd 83f8 	ldmia.w	sp!, {r3, r4, r5, r6, r7, r8, r9, pc}

001089ac <__libc_init_array>:
  1089ac:	4b0e      	ldr	r3, [pc, #56]	; (1089e8 <__libc_init_array+0x3c>)
  1089ae:	b570      	push	{r4, r5, r6, lr}
  1089b0:	461e      	mov	r6, r3
  1089b2:	4c0e      	ldr	r4, [pc, #56]	; (1089ec <__libc_init_array+0x40>)
  1089b4:	2500      	movs	r5, #0
  1089b6:	1ae4      	subs	r4, r4, r3
  1089b8:	10a4      	asrs	r4, r4, #2
  1089ba:	42a5      	cmp	r5, r4
  1089bc:	d004      	beq.n	1089c8 <__libc_init_array+0x1c>
  1089be:	f856 3025 	ldr.w	r3, [r6, r5, lsl #2]
  1089c2:	4798      	blx	r3
  1089c4:	3501      	adds	r5, #1
  1089c6:	e7f8      	b.n	1089ba <__libc_init_array+0xe>
  1089c8:	f005 f812 	bl	10d9f0 <_init>
  1089cc:	4b08      	ldr	r3, [pc, #32]	; (1089f0 <__libc_init_array+0x44>)
  1089ce:	4c09      	ldr	r4, [pc, #36]	; (1089f4 <__libc_init_array+0x48>)
  1089d0:	461e      	mov	r6, r3
  1089d2:	1ae4      	subs	r4, r4, r3
  1089d4:	10a4      	asrs	r4, r4, #2
  1089d6:	2500      	movs	r5, #0
  1089d8:	42a5      	cmp	r5, r4
  1089da:	d004      	beq.n	1089e6 <__libc_init_array+0x3a>
  1089dc:	f856 3025 	ldr.w	r3, [r6, r5, lsl #2]
  1089e0:	4798      	blx	r3
  1089e2:	3501      	adds	r5, #1
  1089e4:	e7f8      	b.n	1089d8 <__libc_init_array+0x2c>
  1089e6:	bd70      	pop	{r4, r5, r6, pc}
  1089e8:	3fff4200 	.word	0x3fff4200
  1089ec:	3fff4200 	.word	0x3fff4200
  1089f0:	3fff4200 	.word	0x3fff4200
  1089f4:	3fff4218 	.word	0x3fff4218

001089f8 <_localeconv_r>:
  1089f8:	4800      	ldr	r0, [pc, #0]	; (1089fc <_localeconv_r+0x4>)
  1089fa:	4770      	bx	lr
  1089fc:	3fff41c8 	.word	0x3fff41c8

00108a00 <__smakebuf_r>:
  108a00:	b5f0      	push	{r4, r5, r6, r7, lr}
  108a02:	898b      	ldrh	r3, [r1, #12]
  108a04:	b091      	sub	sp, #68	; 0x44
  108a06:	079d      	lsls	r5, r3, #30
  108a08:	4606      	mov	r6, r0
  108a0a:	460c      	mov	r4, r1
  108a0c:	d425      	bmi.n	108a5a <__smakebuf_r+0x5a>
  108a0e:	f9b1 100e 	ldrsh.w	r1, [r1, #14]
  108a12:	2900      	cmp	r1, #0
  108a14:	da08      	bge.n	108a28 <__smakebuf_r+0x28>
  108a16:	89a3      	ldrh	r3, [r4, #12]
  108a18:	2500      	movs	r5, #0
  108a1a:	f013 0f80 	tst.w	r3, #128	; 0x80
  108a1e:	bf14      	ite	ne
  108a20:	2740      	movne	r7, #64	; 0x40
  108a22:	f44f 6780 	moveq.w	r7, #1024	; 0x400
  108a26:	e00d      	b.n	108a44 <__smakebuf_r+0x44>
  108a28:	aa01      	add	r2, sp, #4
  108a2a:	f003 fd25 	bl	10c478 <_fstat_r>
  108a2e:	2800      	cmp	r0, #0
  108a30:	dbf1      	blt.n	108a16 <__smakebuf_r+0x16>
  108a32:	9d02      	ldr	r5, [sp, #8]
  108a34:	f44f 6780 	mov.w	r7, #1024	; 0x400
  108a38:	f405 4570 	and.w	r5, r5, #61440	; 0xf000
  108a3c:	f5a5 5100 	sub.w	r1, r5, #8192	; 0x2000
  108a40:	424d      	negs	r5, r1
  108a42:	414d      	adcs	r5, r1
  108a44:	4639      	mov	r1, r7
  108a46:	4630      	mov	r0, r6
  108a48:	f7fd ffde 	bl	106a08 <__wrap__malloc_r>
  108a4c:	b960      	cbnz	r0, 108a68 <__smakebuf_r+0x68>
  108a4e:	89a3      	ldrh	r3, [r4, #12]
  108a50:	059a      	lsls	r2, r3, #22
  108a52:	d41d      	bmi.n	108a90 <__smakebuf_r+0x90>
  108a54:	f043 0302 	orr.w	r3, r3, #2
  108a58:	81a3      	strh	r3, [r4, #12]
  108a5a:	f104 0347 	add.w	r3, r4, #71	; 0x47
  108a5e:	6023      	str	r3, [r4, #0]
  108a60:	6123      	str	r3, [r4, #16]
  108a62:	2301      	movs	r3, #1
  108a64:	6163      	str	r3, [r4, #20]
  108a66:	e013      	b.n	108a90 <__smakebuf_r+0x90>
  108a68:	4b0a      	ldr	r3, [pc, #40]	; (108a94 <__smakebuf_r+0x94>)
  108a6a:	62b3      	str	r3, [r6, #40]	; 0x28
  108a6c:	89a3      	ldrh	r3, [r4, #12]
  108a6e:	6020      	str	r0, [r4, #0]
  108a70:	f043 0380 	orr.w	r3, r3, #128	; 0x80
  108a74:	81a3      	strh	r3, [r4, #12]
  108a76:	6120      	str	r0, [r4, #16]
  108a78:	6167      	str	r7, [r4, #20]
  108a7a:	b14d      	cbz	r5, 108a90 <__smakebuf_r+0x90>
  108a7c:	f9b4 100e 	ldrsh.w	r1, [r4, #14]
  108a80:	4630      	mov	r0, r6
  108a82:	f004 f829 	bl	10cad8 <_isatty_r>
  108a86:	b118      	cbz	r0, 108a90 <__smakebuf_r+0x90>
  108a88:	89a3      	ldrh	r3, [r4, #12]
  108a8a:	f043 0301 	orr.w	r3, r3, #1
  108a8e:	81a3      	strh	r3, [r4, #12]
  108a90:	b011      	add	sp, #68	; 0x44
  108a92:	bdf0      	pop	{r4, r5, r6, r7, pc}
  108a94:	00108631 	.word	0x00108631

00108a98 <malloc>:
  108a98:	4b02      	ldr	r3, [pc, #8]	; (108aa4 <malloc+0xc>)
  108a9a:	4601      	mov	r1, r0
  108a9c:	6818      	ldr	r0, [r3, #0]
  108a9e:	f7fd bfb3 	b.w	106a08 <__wrap__malloc_r>
  108aa2:	bf00      	nop
  108aa4:	3fff41c4 	.word	0x3fff41c4

00108aa8 <free>:
  108aa8:	4b02      	ldr	r3, [pc, #8]	; (108ab4 <free+0xc>)
  108aaa:	4601      	mov	r1, r0
  108aac:	6818      	ldr	r0, [r3, #0]
  108aae:	f7fd bfdd 	b.w	106a6c <__wrap__free_r>
  108ab2:	bf00      	nop
  108ab4:	3fff41c4 	.word	0x3fff41c4

00108ab8 <memchr>:
  108ab8:	b510      	push	{r4, lr}
  108aba:	b2c9      	uxtb	r1, r1
  108abc:	4402      	add	r2, r0
  108abe:	4290      	cmp	r0, r2
  108ac0:	4603      	mov	r3, r0
  108ac2:	d005      	beq.n	108ad0 <memchr+0x18>
  108ac4:	781c      	ldrb	r4, [r3, #0]
  108ac6:	3001      	adds	r0, #1
  108ac8:	428c      	cmp	r4, r1
  108aca:	d1f8      	bne.n	108abe <memchr+0x6>
  108acc:	4618      	mov	r0, r3
  108ace:	bd10      	pop	{r4, pc}
  108ad0:	2000      	movs	r0, #0
  108ad2:	bd10      	pop	{r4, pc}

00108ad4 <memcpy>:
  108ad4:	b510      	push	{r4, lr}
  108ad6:	1e43      	subs	r3, r0, #1
  108ad8:	440a      	add	r2, r1
  108ada:	4291      	cmp	r1, r2
  108adc:	d004      	beq.n	108ae8 <memcpy+0x14>
  108ade:	f811 4b01 	ldrb.w	r4, [r1], #1
  108ae2:	f803 4f01 	strb.w	r4, [r3, #1]!
  108ae6:	e7f8      	b.n	108ada <memcpy+0x6>
  108ae8:	bd10      	pop	{r4, pc}

00108aea <memmove>:
  108aea:	4288      	cmp	r0, r1
  108aec:	b510      	push	{r4, lr}
  108aee:	eb01 0302 	add.w	r3, r1, r2
  108af2:	d801      	bhi.n	108af8 <memmove+0xe>
  108af4:	1e42      	subs	r2, r0, #1
  108af6:	e00b      	b.n	108b10 <memmove+0x26>
  108af8:	4298      	cmp	r0, r3
  108afa:	d2fb      	bcs.n	108af4 <memmove+0xa>
  108afc:	1881      	adds	r1, r0, r2
  108afe:	1ad2      	subs	r2, r2, r3
  108b00:	42d3      	cmn	r3, r2
  108b02:	d004      	beq.n	108b0e <memmove+0x24>
  108b04:	f813 4d01 	ldrb.w	r4, [r3, #-1]!
  108b08:	f801 4d01 	strb.w	r4, [r1, #-1]!
  108b0c:	e7f8      	b.n	108b00 <memmove+0x16>
  108b0e:	bd10      	pop	{r4, pc}
  108b10:	4299      	cmp	r1, r3
  108b12:	d004      	beq.n	108b1e <memmove+0x34>
  108b14:	f811 4b01 	ldrb.w	r4, [r1], #1
  108b18:	f802 4f01 	strb.w	r4, [r2, #1]!
  108b1c:	e7f8      	b.n	108b10 <memmove+0x26>
  108b1e:	bd10      	pop	{r4, pc}

00108b20 <memset>:
  108b20:	4603      	mov	r3, r0
  108b22:	4402      	add	r2, r0
  108b24:	4293      	cmp	r3, r2
  108b26:	d002      	beq.n	108b2e <memset+0xe>
  108b28:	f803 1b01 	strb.w	r1, [r3], #1
  108b2c:	e7fa      	b.n	108b24 <memset+0x4>
  108b2e:	4770      	bx	lr

00108b30 <_free_r>:
  108b30:	b530      	push	{r4, r5, lr}
  108b32:	2900      	cmp	r1, #0
  108b34:	d03c      	beq.n	108bb0 <_free_r+0x80>
  108b36:	f851 2c04 	ldr.w	r2, [r1, #-4]
  108b3a:	1f0b      	subs	r3, r1, #4
  108b3c:	491d      	ldr	r1, [pc, #116]	; (108bb4 <_free_r+0x84>)
  108b3e:	2a00      	cmp	r2, #0
  108b40:	bfb8      	it	lt
  108b42:	189b      	addlt	r3, r3, r2
  108b44:	680a      	ldr	r2, [r1, #0]
  108b46:	460c      	mov	r4, r1
  108b48:	b912      	cbnz	r2, 108b50 <_free_r+0x20>
  108b4a:	605a      	str	r2, [r3, #4]
  108b4c:	600b      	str	r3, [r1, #0]
  108b4e:	bd30      	pop	{r4, r5, pc}
  108b50:	429a      	cmp	r2, r3
  108b52:	d90d      	bls.n	108b70 <_free_r+0x40>
  108b54:	6819      	ldr	r1, [r3, #0]
  108b56:	1858      	adds	r0, r3, r1
  108b58:	4282      	cmp	r2, r0
  108b5a:	bf01      	itttt	eq
  108b5c:	6810      	ldreq	r0, [r2, #0]
  108b5e:	6852      	ldreq	r2, [r2, #4]
  108b60:	1809      	addeq	r1, r1, r0
  108b62:	6019      	streq	r1, [r3, #0]
  108b64:	605a      	str	r2, [r3, #4]
  108b66:	6023      	str	r3, [r4, #0]
  108b68:	bd30      	pop	{r4, r5, pc}
  108b6a:	4299      	cmp	r1, r3
  108b6c:	d803      	bhi.n	108b76 <_free_r+0x46>
  108b6e:	460a      	mov	r2, r1
  108b70:	6851      	ldr	r1, [r2, #4]
  108b72:	2900      	cmp	r1, #0
  108b74:	d1f9      	bne.n	108b6a <_free_r+0x3a>
  108b76:	6814      	ldr	r4, [r2, #0]
  108b78:	1915      	adds	r5, r2, r4
  108b7a:	429d      	cmp	r5, r3
  108b7c:	d10a      	bne.n	108b94 <_free_r+0x64>
  108b7e:	681b      	ldr	r3, [r3, #0]
  108b80:	4423      	add	r3, r4
  108b82:	18d0      	adds	r0, r2, r3
  108b84:	4281      	cmp	r1, r0
  108b86:	6013      	str	r3, [r2, #0]
  108b88:	d112      	bne.n	108bb0 <_free_r+0x80>
  108b8a:	6808      	ldr	r0, [r1, #0]
  108b8c:	4403      	add	r3, r0
  108b8e:	6013      	str	r3, [r2, #0]
  108b90:	684b      	ldr	r3, [r1, #4]
  108b92:	e00c      	b.n	108bae <_free_r+0x7e>
  108b94:	d902      	bls.n	108b9c <_free_r+0x6c>
  108b96:	230c      	movs	r3, #12
  108b98:	6003      	str	r3, [r0, #0]
  108b9a:	bd30      	pop	{r4, r5, pc}
  108b9c:	6818      	ldr	r0, [r3, #0]
  108b9e:	181c      	adds	r4, r3, r0
  108ba0:	42a1      	cmp	r1, r4
  108ba2:	bf01      	itttt	eq
  108ba4:	680c      	ldreq	r4, [r1, #0]
  108ba6:	6849      	ldreq	r1, [r1, #4]
  108ba8:	1900      	addeq	r0, r0, r4
  108baa:	6018      	streq	r0, [r3, #0]
  108bac:	6059      	str	r1, [r3, #4]
  108bae:	6053      	str	r3, [r2, #4]
  108bb0:	bd30      	pop	{r4, r5, pc}
  108bb2:	bf00      	nop
  108bb4:	3fff4fd8 	.word	0x3fff4fd8

00108bb8 <_malloc_r>:
  108bb8:	b570      	push	{r4, r5, r6, lr}
  108bba:	1ccd      	adds	r5, r1, #3
  108bbc:	f025 0503 	bic.w	r5, r5, #3
  108bc0:	3508      	adds	r5, #8
  108bc2:	2d0c      	cmp	r5, #12
  108bc4:	bf38      	it	cc
  108bc6:	250c      	movcc	r5, #12
  108bc8:	2d00      	cmp	r5, #0
  108bca:	4606      	mov	r6, r0
  108bcc:	da03      	bge.n	108bd6 <_malloc_r+0x1e>
  108bce:	230c      	movs	r3, #12
  108bd0:	6033      	str	r3, [r6, #0]
  108bd2:	2000      	movs	r0, #0
  108bd4:	bd70      	pop	{r4, r5, r6, pc}
  108bd6:	42a9      	cmp	r1, r5
  108bd8:	d8f9      	bhi.n	108bce <_malloc_r+0x16>
  108bda:	4b1f      	ldr	r3, [pc, #124]	; (108c58 <_malloc_r+0xa0>)
  108bdc:	681c      	ldr	r4, [r3, #0]
  108bde:	461a      	mov	r2, r3
  108be0:	4621      	mov	r1, r4
  108be2:	b1a1      	cbz	r1, 108c0e <_malloc_r+0x56>
  108be4:	680b      	ldr	r3, [r1, #0]
  108be6:	1b5b      	subs	r3, r3, r5
  108be8:	d40e      	bmi.n	108c08 <_malloc_r+0x50>
  108bea:	2b0b      	cmp	r3, #11
  108bec:	d903      	bls.n	108bf6 <_malloc_r+0x3e>
  108bee:	600b      	str	r3, [r1, #0]
  108bf0:	18cc      	adds	r4, r1, r3
  108bf2:	50cd      	str	r5, [r1, r3]
  108bf4:	e01e      	b.n	108c34 <_malloc_r+0x7c>
  108bf6:	428c      	cmp	r4, r1
  108bf8:	bf0b      	itete	eq
  108bfa:	6863      	ldreq	r3, [r4, #4]
  108bfc:	684b      	ldrne	r3, [r1, #4]
  108bfe:	6013      	streq	r3, [r2, #0]
  108c00:	6063      	strne	r3, [r4, #4]
  108c02:	bf18      	it	ne
  108c04:	460c      	movne	r4, r1
  108c06:	e015      	b.n	108c34 <_malloc_r+0x7c>
  108c08:	460c      	mov	r4, r1
  108c0a:	6849      	ldr	r1, [r1, #4]
  108c0c:	e7e9      	b.n	108be2 <_malloc_r+0x2a>
  108c0e:	4c13      	ldr	r4, [pc, #76]	; (108c5c <_malloc_r+0xa4>)
  108c10:	6823      	ldr	r3, [r4, #0]
  108c12:	b91b      	cbnz	r3, 108c1c <_malloc_r+0x64>
  108c14:	4630      	mov	r0, r6
  108c16:	f001 fb4d 	bl	10a2b4 <_sbrk_r>
  108c1a:	6020      	str	r0, [r4, #0]
  108c1c:	4629      	mov	r1, r5
  108c1e:	4630      	mov	r0, r6
  108c20:	f001 fb48 	bl	10a2b4 <_sbrk_r>
  108c24:	1c43      	adds	r3, r0, #1
  108c26:	d0d2      	beq.n	108bce <_malloc_r+0x16>
  108c28:	1cc4      	adds	r4, r0, #3
  108c2a:	f024 0403 	bic.w	r4, r4, #3
  108c2e:	42a0      	cmp	r0, r4
  108c30:	d10a      	bne.n	108c48 <_malloc_r+0x90>
  108c32:	6025      	str	r5, [r4, #0]
  108c34:	f104 000b 	add.w	r0, r4, #11
  108c38:	1d23      	adds	r3, r4, #4
  108c3a:	f020 0007 	bic.w	r0, r0, #7
  108c3e:	1ac3      	subs	r3, r0, r3
  108c40:	d009      	beq.n	108c56 <_malloc_r+0x9e>
  108c42:	425a      	negs	r2, r3
  108c44:	50e2      	str	r2, [r4, r3]
  108c46:	bd70      	pop	{r4, r5, r6, pc}
  108c48:	1a21      	subs	r1, r4, r0
  108c4a:	4630      	mov	r0, r6
  108c4c:	f001 fb32 	bl	10a2b4 <_sbrk_r>
  108c50:	3001      	adds	r0, #1
  108c52:	d1ee      	bne.n	108c32 <_malloc_r+0x7a>
  108c54:	e7bb      	b.n	108bce <_malloc_r+0x16>
  108c56:	bd70      	pop	{r4, r5, r6, pc}
  108c58:	3fff4fd8 	.word	0x3fff4fd8
  108c5c:	3fff4fd4 	.word	0x3fff4fd4

00108c60 <__sfputc_r>:
  108c60:	6893      	ldr	r3, [r2, #8]
  108c62:	b410      	push	{r4}
  108c64:	3b01      	subs	r3, #1
  108c66:	2b00      	cmp	r3, #0
  108c68:	6093      	str	r3, [r2, #8]
  108c6a:	da08      	bge.n	108c7e <__sfputc_r+0x1e>
  108c6c:	6994      	ldr	r4, [r2, #24]
  108c6e:	42a3      	cmp	r3, r4
  108c70:	db02      	blt.n	108c78 <__sfputc_r+0x18>
  108c72:	b2cb      	uxtb	r3, r1
  108c74:	2b0a      	cmp	r3, #10
  108c76:	d102      	bne.n	108c7e <__sfputc_r+0x1e>
  108c78:	bc10      	pop	{r4}
  108c7a:	f002 bcbf 	b.w	10b5fc <__swbuf_r>
  108c7e:	6813      	ldr	r3, [r2, #0]
  108c80:	1c58      	adds	r0, r3, #1
  108c82:	6010      	str	r0, [r2, #0]
  108c84:	7019      	strb	r1, [r3, #0]
  108c86:	b2c8      	uxtb	r0, r1
  108c88:	bc10      	pop	{r4}
  108c8a:	4770      	bx	lr

00108c8c <__sfputs_r>:
  108c8c:	b5f8      	push	{r3, r4, r5, r6, r7, lr}
  108c8e:	4606      	mov	r6, r0
  108c90:	460f      	mov	r7, r1
  108c92:	4614      	mov	r4, r2
  108c94:	18d5      	adds	r5, r2, r3
  108c96:	42ac      	cmp	r4, r5
  108c98:	d008      	beq.n	108cac <__sfputs_r+0x20>
  108c9a:	463a      	mov	r2, r7
  108c9c:	f814 1b01 	ldrb.w	r1, [r4], #1
  108ca0:	4630      	mov	r0, r6
  108ca2:	f7ff ffdd 	bl	108c60 <__sfputc_r>
  108ca6:	1c43      	adds	r3, r0, #1
  108ca8:	d1f5      	bne.n	108c96 <__sfputs_r+0xa>
  108caa:	e000      	b.n	108cae <__sfputs_r+0x22>
  108cac:	2000      	movs	r0, #0
  108cae:	bdf8      	pop	{r3, r4, r5, r6, r7, pc}

00108cb0 <_vfiprintf_r>:
  108cb0:	e92d 4ff0 	stmdb	sp!, {r4, r5, r6, r7, r8, r9, r10, r11, lr}
  108cb4:	b09d      	sub	sp, #116	; 0x74
  108cb6:	460c      	mov	r4, r1
  108cb8:	4617      	mov	r7, r2
  108cba:	9303      	str	r3, [sp, #12]
  108cbc:	4606      	mov	r6, r0
  108cbe:	b118      	cbz	r0, 108cc8 <_vfiprintf_r+0x18>
  108cc0:	6983      	ldr	r3, [r0, #24]
  108cc2:	b90b      	cbnz	r3, 108cc8 <_vfiprintf_r+0x18>
  108cc4:	f7ff fcf4 	bl	1086b0 <__sinit>
  108cc8:	4b7f      	ldr	r3, [pc, #508]	; (108ec8 <_vfiprintf_r+0x218>)
  108cca:	429c      	cmp	r4, r3
  108ccc:	d101      	bne.n	108cd2 <_vfiprintf_r+0x22>
  108cce:	6874      	ldr	r4, [r6, #4]
  108cd0:	e008      	b.n	108ce4 <_vfiprintf_r+0x34>
  108cd2:	4b7e      	ldr	r3, [pc, #504]	; (108ecc <_vfiprintf_r+0x21c>)
  108cd4:	429c      	cmp	r4, r3
  108cd6:	d101      	bne.n	108cdc <_vfiprintf_r+0x2c>
  108cd8:	68b4      	ldr	r4, [r6, #8]
  108cda:	e003      	b.n	108ce4 <_vfiprintf_r+0x34>
  108cdc:	4b7c      	ldr	r3, [pc, #496]	; (108ed0 <_vfiprintf_r+0x220>)
  108cde:	429c      	cmp	r4, r3
  108ce0:	bf08      	it	eq
  108ce2:	68f4      	ldreq	r4, [r6, #12]
  108ce4:	89a3      	ldrh	r3, [r4, #12]
  108ce6:	0718      	lsls	r0, r3, #28
  108ce8:	d50c      	bpl.n	108d04 <_vfiprintf_r+0x54>
  108cea:	6923      	ldr	r3, [r4, #16]
  108cec:	b153      	cbz	r3, 108d04 <_vfiprintf_r+0x54>
  108cee:	2300      	movs	r3, #0
  108cf0:	9309      	str	r3, [sp, #36]	; 0x24
  108cf2:	2320      	movs	r3, #32
  108cf4:	f88d 3029 	strb.w	r3, [sp, #41]	; 0x29
  108cf8:	2330      	movs	r3, #48	; 0x30
  108cfa:	f88d 302a 	strb.w	r3, [sp, #42]	; 0x2a
  108cfe:	f8df b1d4 	ldr.w	r11, [pc, #468]	; 108ed4 <_vfiprintf_r+0x224>
  108d02:	e044      	b.n	108d8e <_vfiprintf_r+0xde>
  108d04:	4621      	mov	r1, r4
  108d06:	4630      	mov	r0, r6
  108d08:	f002 fcde 	bl	10b6c8 <__swsetup_r>
  108d0c:	2800      	cmp	r0, #0
  108d0e:	d0ee      	beq.n	108cee <_vfiprintf_r+0x3e>
  108d10:	f04f 30ff 	mov.w	r0, #4294967295
  108d14:	e0d5      	b.n	108ec2 <_vfiprintf_r+0x212>
  108d16:	9a03      	ldr	r2, [sp, #12]
  108d18:	1d11      	adds	r1, r2, #4
  108d1a:	6812      	ldr	r2, [r2, #0]
  108d1c:	9103      	str	r1, [sp, #12]
  108d1e:	2a00      	cmp	r2, #0
  108d20:	f280 808c 	bge.w	108e3c <_vfiprintf_r+0x18c>
  108d24:	4252      	negs	r2, r2
  108d26:	f043 0002 	orr.w	r0, r3, #2
  108d2a:	9207      	str	r2, [sp, #28]
  108d2c:	9004      	str	r0, [sp, #16]
  108d2e:	f898 3000 	ldrb.w	r3, [r8]
  108d32:	2b2e      	cmp	r3, #46	; 0x2e
  108d34:	f000 8084 	beq.w	108e40 <_vfiprintf_r+0x190>
  108d38:	2203      	movs	r2, #3
  108d3a:	f898 1000 	ldrb.w	r1, [r8]
  108d3e:	4865      	ldr	r0, [pc, #404]	; (108ed4 <_vfiprintf_r+0x224>)
  108d40:	f7ff feba 	bl	108ab8 <memchr>
  108d44:	b148      	cbz	r0, 108d5a <_vfiprintf_r+0xaa>
  108d46:	2340      	movs	r3, #64	; 0x40
  108d48:	ebcb 0000 	rsb	r0, r11, r0
  108d4c:	fa03 f000 	lsl.w	r0, r3, r0
  108d50:	9b04      	ldr	r3, [sp, #16]
  108d52:	f108 0801 	add.w	r8, r8, #1
  108d56:	4318      	orrs	r0, r3
  108d58:	9004      	str	r0, [sp, #16]
  108d5a:	f898 1000 	ldrb.w	r1, [r8]
  108d5e:	2206      	movs	r2, #6
  108d60:	485d      	ldr	r0, [pc, #372]	; (108ed8 <_vfiprintf_r+0x228>)
  108d62:	f108 0701 	add.w	r7, r8, #1
  108d66:	f88d 1028 	strb.w	r1, [sp, #40]	; 0x28
  108d6a:	f7ff fea5 	bl	108ab8 <memchr>
  108d6e:	2800      	cmp	r0, #0
  108d70:	f000 8095 	beq.w	108e9e <_vfiprintf_r+0x1ee>
  108d74:	4b59      	ldr	r3, [pc, #356]	; (108edc <_vfiprintf_r+0x22c>)
  108d76:	2b00      	cmp	r3, #0
  108d78:	f040 8088 	bne.w	108e8c <_vfiprintf_r+0x1dc>
  108d7c:	9b03      	ldr	r3, [sp, #12]
  108d7e:	3307      	adds	r3, #7
  108d80:	f023 0307 	bic.w	r3, r3, #7
  108d84:	3308      	adds	r3, #8
  108d86:	9303      	str	r3, [sp, #12]
  108d88:	9b09      	ldr	r3, [sp, #36]	; 0x24
  108d8a:	4453      	add	r3, r10
  108d8c:	9309      	str	r3, [sp, #36]	; 0x24
  108d8e:	46b8      	mov	r8, r7
  108d90:	4645      	mov	r5, r8
  108d92:	f815 3b01 	ldrb.w	r3, [r5], #1
  108d96:	b91b      	cbnz	r3, 108da0 <_vfiprintf_r+0xf0>
  108d98:	ebb8 0907 	subs.w	r9, r8, r7
  108d9c:	d00f      	beq.n	108dbe <_vfiprintf_r+0x10e>
  108d9e:	e003      	b.n	108da8 <_vfiprintf_r+0xf8>
  108da0:	2b25      	cmp	r3, #37	; 0x25
  108da2:	d0f9      	beq.n	108d98 <_vfiprintf_r+0xe8>
  108da4:	46a8      	mov	r8, r5
  108da6:	e7f3      	b.n	108d90 <_vfiprintf_r+0xe0>
  108da8:	464b      	mov	r3, r9
  108daa:	463a      	mov	r2, r7
  108dac:	4621      	mov	r1, r4
  108dae:	4630      	mov	r0, r6
  108db0:	f7ff ff6c 	bl	108c8c <__sfputs_r>
  108db4:	3001      	adds	r0, #1
  108db6:	d07f      	beq.n	108eb8 <_vfiprintf_r+0x208>
  108db8:	9b09      	ldr	r3, [sp, #36]	; 0x24
  108dba:	444b      	add	r3, r9
  108dbc:	9309      	str	r3, [sp, #36]	; 0x24
  108dbe:	f898 3000 	ldrb.w	r3, [r8]
  108dc2:	2b00      	cmp	r3, #0
  108dc4:	d078      	beq.n	108eb8 <_vfiprintf_r+0x208>
  108dc6:	2300      	movs	r3, #0
  108dc8:	f04f 32ff 	mov.w	r2, #4294967295
  108dcc:	9304      	str	r3, [sp, #16]
  108dce:	9307      	str	r3, [sp, #28]
  108dd0:	9205      	str	r2, [sp, #20]
  108dd2:	9306      	str	r3, [sp, #24]
  108dd4:	f88d 3053 	strb.w	r3, [sp, #83]	; 0x53
  108dd8:	931a      	str	r3, [sp, #104]	; 0x68
  108dda:	2701      	movs	r7, #1
  108ddc:	2205      	movs	r2, #5
  108dde:	7829      	ldrb	r1, [r5, #0]
  108de0:	483f      	ldr	r0, [pc, #252]	; (108ee0 <_vfiprintf_r+0x230>)
  108de2:	f7ff fe69 	bl	108ab8 <memchr>
  108de6:	f105 0801 	add.w	r8, r5, #1
  108dea:	9b04      	ldr	r3, [sp, #16]
  108dec:	b138      	cbz	r0, 108dfe <_vfiprintf_r+0x14e>
  108dee:	4a3c      	ldr	r2, [pc, #240]	; (108ee0 <_vfiprintf_r+0x230>)
  108df0:	4645      	mov	r5, r8
  108df2:	1a80      	subs	r0, r0, r2
  108df4:	fa07 f000 	lsl.w	r0, r7, r0
  108df8:	4318      	orrs	r0, r3
  108dfa:	9004      	str	r0, [sp, #16]
  108dfc:	e7ee      	b.n	108ddc <_vfiprintf_r+0x12c>
  108dfe:	06d9      	lsls	r1, r3, #27
  108e00:	bf44      	itt	mi
  108e02:	2220      	movmi	r2, #32
  108e04:	f88d 2053 	strbmi.w	r2, [sp, #83]	; 0x53
  108e08:	071a      	lsls	r2, r3, #28
  108e0a:	bf44      	itt	mi
  108e0c:	222b      	movmi	r2, #43	; 0x2b
  108e0e:	f88d 2053 	strbmi.w	r2, [sp, #83]	; 0x53
  108e12:	782a      	ldrb	r2, [r5, #0]
  108e14:	2a2a      	cmp	r2, #42	; 0x2a
  108e16:	f43f af7e 	beq.w	108d16 <_vfiprintf_r+0x66>
  108e1a:	9a07      	ldr	r2, [sp, #28]
  108e1c:	2100      	movs	r1, #0
  108e1e:	200a      	movs	r0, #10
  108e20:	46a8      	mov	r8, r5
  108e22:	f898 3000 	ldrb.w	r3, [r8]
  108e26:	3501      	adds	r5, #1
  108e28:	3b30      	subs	r3, #48	; 0x30
  108e2a:	2b09      	cmp	r3, #9
  108e2c:	d803      	bhi.n	108e36 <_vfiprintf_r+0x186>
  108e2e:	fb00 3202 	mla	r2, r0, r2, r3
  108e32:	2101      	movs	r1, #1
  108e34:	e7f4      	b.n	108e20 <_vfiprintf_r+0x170>
  108e36:	2900      	cmp	r1, #0
  108e38:	f43f af79 	beq.w	108d2e <_vfiprintf_r+0x7e>
  108e3c:	9207      	str	r2, [sp, #28]
  108e3e:	e776      	b.n	108d2e <_vfiprintf_r+0x7e>
  108e40:	f898 3001 	ldrb.w	r3, [r8, #1]
  108e44:	2b2a      	cmp	r3, #42	; 0x2a
  108e46:	d10b      	bne.n	108e60 <_vfiprintf_r+0x1b0>
  108e48:	9b03      	ldr	r3, [sp, #12]
  108e4a:	f108 0802 	add.w	r8, r8, #2
  108e4e:	1d1a      	adds	r2, r3, #4
  108e50:	681b      	ldr	r3, [r3, #0]
  108e52:	9203      	str	r2, [sp, #12]
  108e54:	2b00      	cmp	r3, #0
  108e56:	bfb8      	it	lt
  108e58:	f04f 33ff 	movlt.w	r3, #4294967295
  108e5c:	9305      	str	r3, [sp, #20]
  108e5e:	e76b      	b.n	108d38 <_vfiprintf_r+0x88>
  108e60:	2300      	movs	r3, #0
  108e62:	4619      	mov	r1, r3
  108e64:	9305      	str	r3, [sp, #20]
  108e66:	f108 0001 	add.w	r0, r8, #1
  108e6a:	250a      	movs	r5, #10
  108e6c:	4680      	mov	r8, r0
  108e6e:	f898 2000 	ldrb.w	r2, [r8]
  108e72:	3001      	adds	r0, #1
  108e74:	3a30      	subs	r2, #48	; 0x30
  108e76:	2a09      	cmp	r2, #9
  108e78:	d803      	bhi.n	108e82 <_vfiprintf_r+0x1d2>
  108e7a:	fb05 2101 	mla	r1, r5, r1, r2
  108e7e:	2301      	movs	r3, #1
  108e80:	e7f4      	b.n	108e6c <_vfiprintf_r+0x1bc>
  108e82:	2b00      	cmp	r3, #0
  108e84:	f43f af58 	beq.w	108d38 <_vfiprintf_r+0x88>
  108e88:	9105      	str	r1, [sp, #20]
  108e8a:	e755      	b.n	108d38 <_vfiprintf_r+0x88>
  108e8c:	ab03      	add	r3, sp, #12
  108e8e:	9300      	str	r3, [sp, #0]
  108e90:	4622      	mov	r2, r4
  108e92:	4b14      	ldr	r3, [pc, #80]	; (108ee4 <_vfiprintf_r+0x234>)
  108e94:	a904      	add	r1, sp, #16
  108e96:	4630      	mov	r0, r6
  108e98:	f000 f8c2 	bl	109020 <_printf_float>
  108e9c:	e007      	b.n	108eae <_vfiprintf_r+0x1fe>
  108e9e:	ab03      	add	r3, sp, #12
  108ea0:	9300      	str	r3, [sp, #0]
  108ea2:	4622      	mov	r2, r4
  108ea4:	4b0f      	ldr	r3, [pc, #60]	; (108ee4 <_vfiprintf_r+0x234>)
  108ea6:	a904      	add	r1, sp, #16
  108ea8:	4630      	mov	r0, r6
  108eaa:	f000 fb65 	bl	109578 <_printf_i>
  108eae:	f1b0 3fff 	cmp.w	r0, #4294967295
  108eb2:	4682      	mov	r10, r0
  108eb4:	f47f af68 	bne.w	108d88 <_vfiprintf_r+0xd8>
  108eb8:	89a3      	ldrh	r3, [r4, #12]
  108eba:	065b      	lsls	r3, r3, #25
  108ebc:	f53f af28 	bmi.w	108d10 <_vfiprintf_r+0x60>
  108ec0:	9809      	ldr	r0, [sp, #36]	; 0x24
  108ec2:	b01d      	add	sp, #116	; 0x74
  108ec4:	e8bd 8ff0 	ldmia.w	sp!, {r4, r5, r6, r7, r8, r9, r10, r11, pc}
  108ec8:	0010e880 	.word	0x0010e880
  108ecc:	0010e8a0 	.word	0x0010e8a0
  108ed0:	0010e8c0 	.word	0x0010e8c0
  108ed4:	0010e8f2 	.word	0x0010e8f2
  108ed8:	0010e8f6 	.word	0x0010e8f6
  108edc:	00109021 	.word	0x00109021
  108ee0:	0010e8ec 	.word	0x0010e8ec
  108ee4:	00108c8d 	.word	0x00108c8d

00108ee8 <vfiprintf>:
  108ee8:	4613      	mov	r3, r2
  108eea:	460a      	mov	r2, r1
  108eec:	4601      	mov	r1, r0
  108eee:	4802      	ldr	r0, [pc, #8]	; (108ef8 <vfiprintf+0x10>)
  108ef0:	6800      	ldr	r0, [r0, #0]
  108ef2:	f7ff bedd 	b.w	108cb0 <_vfiprintf_r>
  108ef6:	bf00      	nop
  108ef8:	3fff41c4 	.word	0x3fff41c4

00108efc <__cvt>:
  108efc:	e92d 47f0 	stmdb	sp!, {r4, r5, r6, r7, r8, r9, r10, lr}
  108f00:	b088      	sub	sp, #32
  108f02:	9f14      	ldr	r7, [sp, #80]	; 0x50
  108f04:	2b00      	cmp	r3, #0
  108f06:	461e      	mov	r6, r3
  108f08:	9912      	ldr	r1, [sp, #72]	; 0x48
  108f0a:	bfb8      	it	lt
  108f0c:	f103 4300 	addlt.w	r3, r3, #2147483648	; 0x80000000
  108f10:	f027 0720 	bic.w	r7, r7, #32
  108f14:	bfb6      	itet	lt
  108f16:	461e      	movlt	r6, r3
  108f18:	2300      	movge	r3, #0
  108f1a:	232d      	movlt	r3, #45	; 0x2d
  108f1c:	2f46      	cmp	r7, #70	; 0x46
  108f1e:	4614      	mov	r4, r2
  108f20:	9d10      	ldr	r5, [sp, #64]	; 0x40
  108f22:	f8dd a04c 	ldr.w	r10, [sp, #76]	; 0x4c
  108f26:	700b      	strb	r3, [r1, #0]
  108f28:	d003      	beq.n	108f32 <__cvt+0x36>
  108f2a:	2f45      	cmp	r7, #69	; 0x45
  108f2c:	d103      	bne.n	108f36 <__cvt+0x3a>
  108f2e:	3501      	adds	r5, #1
  108f30:	e001      	b.n	108f36 <__cvt+0x3a>
  108f32:	2303      	movs	r3, #3
  108f34:	e000      	b.n	108f38 <__cvt+0x3c>
  108f36:	2302      	movs	r3, #2
  108f38:	aa07      	add	r2, sp, #28
  108f3a:	9204      	str	r2, [sp, #16]
  108f3c:	aa06      	add	r2, sp, #24
  108f3e:	9203      	str	r2, [sp, #12]
  108f40:	e88d 0428 	stmia.w	sp, {r3, r5, r10}
  108f44:	4622      	mov	r2, r4
  108f46:	4633      	mov	r3, r6
  108f48:	f002 fcc6 	bl	10b8d8 <_dtoa_r>
  108f4c:	2f47      	cmp	r7, #71	; 0x47
  108f4e:	4680      	mov	r8, r0
  108f50:	d102      	bne.n	108f58 <__cvt+0x5c>
  108f52:	9b11      	ldr	r3, [sp, #68]	; 0x44
  108f54:	07db      	lsls	r3, r3, #31
  108f56:	d528      	bpl.n	108faa <__cvt+0xae>
  108f58:	2f46      	cmp	r7, #70	; 0x46
  108f5a:	eb08 0905 	add.w	r9, r8, r5
  108f5e:	d111      	bne.n	108f84 <__cvt+0x88>
  108f60:	f898 3000 	ldrb.w	r3, [r8]
  108f64:	2b30      	cmp	r3, #48	; 0x30
  108f66:	d10a      	bne.n	108f7e <__cvt+0x82>
  108f68:	2200      	movs	r2, #0
  108f6a:	2300      	movs	r3, #0
  108f6c:	4620      	mov	r0, r4
  108f6e:	4631      	mov	r1, r6
  108f70:	f7fe fcac 	bl	1078cc <__aeabi_dcmpeq>
  108f74:	b918      	cbnz	r0, 108f7e <__cvt+0x82>
  108f76:	f1c5 0501 	rsb	r5, r5, #1
  108f7a:	f8ca 5000 	str.w	r5, [r10]
  108f7e:	f8da 3000 	ldr.w	r3, [r10]
  108f82:	4499      	add	r9, r3
  108f84:	2200      	movs	r2, #0
  108f86:	2300      	movs	r3, #0
  108f88:	4620      	mov	r0, r4
  108f8a:	4631      	mov	r1, r6
  108f8c:	f7fe fc9e 	bl	1078cc <__aeabi_dcmpeq>
  108f90:	b908      	cbnz	r0, 108f96 <__cvt+0x9a>
  108f92:	2230      	movs	r2, #48	; 0x30
  108f94:	e002      	b.n	108f9c <__cvt+0xa0>
  108f96:	f8cd 901c 	str.w	r9, [sp, #28]
  108f9a:	e006      	b.n	108faa <__cvt+0xae>
  108f9c:	9b07      	ldr	r3, [sp, #28]
  108f9e:	4599      	cmp	r9, r3
  108fa0:	d903      	bls.n	108faa <__cvt+0xae>
  108fa2:	1c59      	adds	r1, r3, #1
  108fa4:	9107      	str	r1, [sp, #28]
  108fa6:	701a      	strb	r2, [r3, #0]
  108fa8:	e7f8      	b.n	108f9c <__cvt+0xa0>
  108faa:	4640      	mov	r0, r8
  108fac:	9b07      	ldr	r3, [sp, #28]
  108fae:	9a15      	ldr	r2, [sp, #84]	; 0x54
  108fb0:	ebc8 0303 	rsb	r3, r8, r3
  108fb4:	6013      	str	r3, [r2, #0]
  108fb6:	b008      	add	sp, #32
  108fb8:	e8bd 87f0 	ldmia.w	sp!, {r4, r5, r6, r7, r8, r9, r10, pc}

00108fbc <__exponent>:
  108fbc:	4603      	mov	r3, r0
  108fbe:	b573      	push	{r0, r1, r4, r5, r6, lr}
  108fc0:	2900      	cmp	r1, #0
  108fc2:	bfb8      	it	lt
  108fc4:	4249      	neglt	r1, r1
  108fc6:	f803 2b02 	strb.w	r2, [r3], #2
  108fca:	bfb4      	ite	lt
  108fcc:	222d      	movlt	r2, #45	; 0x2d
  108fce:	222b      	movge	r2, #43	; 0x2b
  108fd0:	2909      	cmp	r1, #9
  108fd2:	7042      	strb	r2, [r0, #1]
  108fd4:	dd1a      	ble.n	10900c <__exponent+0x50>
  108fd6:	f10d 0207 	add.w	r2, sp, #7
  108fda:	4616      	mov	r6, r2
  108fdc:	250a      	movs	r5, #10
  108fde:	fb91 f4f5 	sdiv	r4, r1, r5
  108fe2:	fb05 1114 	mls	r1, r5, r4, r1
  108fe6:	2c09      	cmp	r4, #9
  108fe8:	f101 0130 	add.w	r1, r1, #48	; 0x30
  108fec:	f802 1d01 	strb.w	r1, [r2, #-1]!
  108ff0:	4621      	mov	r1, r4
  108ff2:	dcf4      	bgt.n	108fde <__exponent+0x22>
  108ff4:	3130      	adds	r1, #48	; 0x30
  108ff6:	1e54      	subs	r4, r2, #1
  108ff8:	f802 1c01 	strb.w	r1, [r2, #-1]
  108ffc:	42b4      	cmp	r4, r6
  108ffe:	461a      	mov	r2, r3
  109000:	d20a      	bcs.n	109018 <__exponent+0x5c>
  109002:	f814 2b01 	ldrb.w	r2, [r4], #1
  109006:	f803 2b01 	strb.w	r2, [r3], #1
  10900a:	e7f7      	b.n	108ffc <__exponent+0x40>
  10900c:	461a      	mov	r2, r3
  10900e:	2430      	movs	r4, #48	; 0x30
  109010:	4421      	add	r1, r4
  109012:	f802 4b02 	strb.w	r4, [r2], #2
  109016:	7059      	strb	r1, [r3, #1]
  109018:	1a10      	subs	r0, r2, r0
  10901a:	b002      	add	sp, #8
  10901c:	bd70      	pop	{r4, r5, r6, pc}
	...

00109020 <_printf_float>:
  109020:	e92d 4ff0 	stmdb	sp!, {r4, r5, r6, r7, r8, r9, r10, r11, lr}
  109024:	b08f      	sub	sp, #60	; 0x3c
  109026:	460c      	mov	r4, r1
  109028:	4616      	mov	r6, r2
  10902a:	461f      	mov	r7, r3
  10902c:	f8dd 8060 	ldr.w	r8, [sp, #96]	; 0x60
  109030:	4605      	mov	r5, r0
  109032:	f7ff fce1 	bl	1089f8 <_localeconv_r>
  109036:	f8d0 b000 	ldr.w	r11, [r0]
  10903a:	4658      	mov	r0, r11
  10903c:	f001 fab3 	bl	10a5a6 <strlen>
  109040:	2300      	movs	r3, #0
  109042:	930c      	str	r3, [sp, #48]	; 0x30
  109044:	f8d8 3000 	ldr.w	r3, [r8]
  109048:	9008      	str	r0, [sp, #32]
  10904a:	3307      	adds	r3, #7
  10904c:	f023 0307 	bic.w	r3, r3, #7
  109050:	f103 0208 	add.w	r2, r3, #8
  109054:	f894 9018 	ldrb.w	r9, [r4, #24]
  109058:	f8c8 2000 	str.w	r2, [r8]
  10905c:	e9d3 2300 	ldrd	r2, r3, [r3]
  109060:	e9c4 2312 	strd	r2, r3, [r4, #72]	; 0x48
  109064:	e9d4 0112 	ldrd	r0, r1, [r4, #72]	; 0x48
  109068:	f001 f8fc 	bl	10a264 <__fpclassifyd>
  10906c:	2801      	cmp	r0, #1
  10906e:	d119      	bne.n	1090a4 <_printf_float+0x84>
  109070:	e9d4 0112 	ldrd	r0, r1, [r4, #72]	; 0x48
  109074:	2200      	movs	r2, #0
  109076:	2300      	movs	r3, #0
  109078:	f7fe fc32 	bl	1078e0 <__aeabi_dcmplt>
  10907c:	b110      	cbz	r0, 109084 <_printf_float+0x64>
  10907e:	232d      	movs	r3, #45	; 0x2d
  109080:	f884 3043 	strb.w	r3, [r4, #67]	; 0x43
  109084:	4b9a      	ldr	r3, [pc, #616]	; (1092f0 <_printf_float+0x2d0>)
  109086:	4a9b      	ldr	r2, [pc, #620]	; (1092f4 <_printf_float+0x2d4>)
  109088:	f1b9 0f47 	cmp.w	r9, #71	; 0x47
  10908c:	bf8c      	ite	hi
  10908e:	4690      	movhi	r8, r2
  109090:	4698      	movls	r8, r3
  109092:	2303      	movs	r3, #3
  109094:	6123      	str	r3, [r4, #16]
  109096:	6823      	ldr	r3, [r4, #0]
  109098:	f023 0304 	bic.w	r3, r3, #4
  10909c:	6023      	str	r3, [r4, #0]
  10909e:	f04f 0a00 	mov.w	r10, #0
  1090a2:	e093      	b.n	1091cc <_printf_float+0x1ac>
  1090a4:	e9d4 0112 	ldrd	r0, r1, [r4, #72]	; 0x48
  1090a8:	f001 f8dc 	bl	10a264 <__fpclassifyd>
  1090ac:	6823      	ldr	r3, [r4, #0]
  1090ae:	b948      	cbnz	r0, 1090c4 <_printf_float+0xa4>
  1090b0:	4a91      	ldr	r2, [pc, #580]	; (1092f8 <_printf_float+0x2d8>)
  1090b2:	4992      	ldr	r1, [pc, #584]	; (1092fc <_printf_float+0x2dc>)
  1090b4:	f1b9 0f47 	cmp.w	r9, #71	; 0x47
  1090b8:	bf8c      	ite	hi
  1090ba:	4688      	movhi	r8, r1
  1090bc:	4690      	movls	r8, r2
  1090be:	2203      	movs	r2, #3
  1090c0:	6122      	str	r2, [r4, #16]
  1090c2:	e7e9      	b.n	109098 <_printf_float+0x78>
  1090c4:	f8d4 e004 	ldr.w	lr, [r4, #4]
  1090c8:	e9d4 0112 	ldrd	r0, r1, [r4, #72]	; 0x48
  1090cc:	f1be 3fff 	cmp.w	lr, #4294967295
  1090d0:	d101      	bne.n	1090d6 <_printf_float+0xb6>
  1090d2:	2206      	movs	r2, #6
  1090d4:	e00a      	b.n	1090ec <_printf_float+0xcc>
  1090d6:	f1b9 0f67 	cmp.w	r9, #103	; 0x67
  1090da:	d002      	beq.n	1090e2 <_printf_float+0xc2>
  1090dc:	f1b9 0f47 	cmp.w	r9, #71	; 0x47
  1090e0:	d105      	bne.n	1090ee <_printf_float+0xce>
  1090e2:	f1be 0f00 	cmp.w	lr, #0
  1090e6:	f040 81b6 	bne.w	109456 <_printf_float+0x436>
  1090ea:	2201      	movs	r2, #1
  1090ec:	6062      	str	r2, [r4, #4]
  1090ee:	2200      	movs	r2, #0
  1090f0:	f443 6380 	orr.w	r3, r3, #1024	; 0x400
  1090f4:	9206      	str	r2, [sp, #24]
  1090f6:	aa0c      	add	r2, sp, #48	; 0x30
  1090f8:	6023      	str	r3, [r4, #0]
  1090fa:	9205      	str	r2, [sp, #20]
  1090fc:	9301      	str	r3, [sp, #4]
  1090fe:	aa0b      	add	r2, sp, #44	; 0x2c
  109100:	6863      	ldr	r3, [r4, #4]
  109102:	9203      	str	r2, [sp, #12]
  109104:	f10d 022b 	add.w	r2, sp, #43	; 0x2b
  109108:	9202      	str	r2, [sp, #8]
  10910a:	9300      	str	r3, [sp, #0]
  10910c:	4602      	mov	r2, r0
  10910e:	460b      	mov	r3, r1
  109110:	f8cd 9010 	str.w	r9, [sp, #16]
  109114:	4628      	mov	r0, r5
  109116:	f7ff fef1 	bl	108efc <__cvt>
  10911a:	f009 03df 	and.w	r3, r9, #223	; 0xdf
  10911e:	2b47      	cmp	r3, #71	; 0x47
  109120:	4680      	mov	r8, r0
  109122:	d109      	bne.n	109138 <_printf_float+0x118>
  109124:	9b0b      	ldr	r3, [sp, #44]	; 0x2c
  109126:	1cd8      	adds	r0, r3, #3
  109128:	db02      	blt.n	109130 <_printf_float+0x110>
  10912a:	6862      	ldr	r2, [r4, #4]
  10912c:	4293      	cmp	r3, r2
  10912e:	dd30      	ble.n	109192 <_printf_float+0x172>
  109130:	f1a9 0902 	sub.w	r9, r9, #2
  109134:	fa5f f989 	uxtb.w	r9, r9
  109138:	f1b9 0f65 	cmp.w	r9, #101	; 0x65
  10913c:	990b      	ldr	r1, [sp, #44]	; 0x2c
  10913e:	d812      	bhi.n	109166 <_printf_float+0x146>
  109140:	3901      	subs	r1, #1
  109142:	464a      	mov	r2, r9
  109144:	f104 0050 	add.w	r0, r4, #80	; 0x50
  109148:	910b      	str	r1, [sp, #44]	; 0x2c
  10914a:	f7ff ff37 	bl	108fbc <__exponent>
  10914e:	9a0c      	ldr	r2, [sp, #48]	; 0x30
  109150:	4682      	mov	r10, r0
  109152:	1883      	adds	r3, r0, r2
  109154:	2a01      	cmp	r2, #1
  109156:	6123      	str	r3, [r4, #16]
  109158:	dc02      	bgt.n	109160 <_printf_float+0x140>
  10915a:	6822      	ldr	r2, [r4, #0]
  10915c:	07d1      	lsls	r1, r2, #31
  10915e:	d52f      	bpl.n	1091c0 <_printf_float+0x1a0>
  109160:	3301      	adds	r3, #1
  109162:	6123      	str	r3, [r4, #16]
  109164:	e02c      	b.n	1091c0 <_printf_float+0x1a0>
  109166:	f1b9 0f66 	cmp.w	r9, #102	; 0x66
  10916a:	d114      	bne.n	109196 <_printf_float+0x176>
  10916c:	2900      	cmp	r1, #0
  10916e:	6863      	ldr	r3, [r4, #4]
  109170:	dd07      	ble.n	109182 <_printf_float+0x162>
  109172:	6121      	str	r1, [r4, #16]
  109174:	b913      	cbnz	r3, 10917c <_printf_float+0x15c>
  109176:	6822      	ldr	r2, [r4, #0]
  109178:	07d2      	lsls	r2, r2, #31
  10917a:	d51d      	bpl.n	1091b8 <_printf_float+0x198>
  10917c:	3301      	adds	r3, #1
  10917e:	440b      	add	r3, r1
  109180:	e019      	b.n	1091b6 <_printf_float+0x196>
  109182:	b913      	cbnz	r3, 10918a <_printf_float+0x16a>
  109184:	6822      	ldr	r2, [r4, #0]
  109186:	07d0      	lsls	r0, r2, #31
  109188:	d501      	bpl.n	10918e <_printf_float+0x16e>
  10918a:	3302      	adds	r3, #2
  10918c:	e013      	b.n	1091b6 <_printf_float+0x196>
  10918e:	2301      	movs	r3, #1
  109190:	e011      	b.n	1091b6 <_printf_float+0x196>
  109192:	f04f 0967 	mov.w	r9, #103	; 0x67
  109196:	9b0b      	ldr	r3, [sp, #44]	; 0x2c
  109198:	9a0c      	ldr	r2, [sp, #48]	; 0x30
  10919a:	4293      	cmp	r3, r2
  10919c:	db05      	blt.n	1091aa <_printf_float+0x18a>
  10919e:	6822      	ldr	r2, [r4, #0]
  1091a0:	6123      	str	r3, [r4, #16]
  1091a2:	07d1      	lsls	r1, r2, #31
  1091a4:	d508      	bpl.n	1091b8 <_printf_float+0x198>
  1091a6:	3301      	adds	r3, #1
  1091a8:	e005      	b.n	1091b6 <_printf_float+0x196>
  1091aa:	2b00      	cmp	r3, #0
  1091ac:	bfd4      	ite	le
  1091ae:	f1c3 0302 	rsble	r3, r3, #2
  1091b2:	2301      	movgt	r3, #1
  1091b4:	4413      	add	r3, r2
  1091b6:	6123      	str	r3, [r4, #16]
  1091b8:	9b0b      	ldr	r3, [sp, #44]	; 0x2c
  1091ba:	f04f 0a00 	mov.w	r10, #0
  1091be:	65a3      	str	r3, [r4, #88]	; 0x58
  1091c0:	f89d 302b 	ldrb.w	r3, [sp, #43]	; 0x2b
  1091c4:	b113      	cbz	r3, 1091cc <_printf_float+0x1ac>
  1091c6:	232d      	movs	r3, #45	; 0x2d
  1091c8:	f884 3043 	strb.w	r3, [r4, #67]	; 0x43
  1091cc:	9700      	str	r7, [sp, #0]
  1091ce:	4633      	mov	r3, r6
  1091d0:	aa0d      	add	r2, sp, #52	; 0x34
  1091d2:	4621      	mov	r1, r4
  1091d4:	4628      	mov	r0, r5
  1091d6:	f000 f959 	bl	10948c <_printf_common>
  1091da:	3001      	adds	r0, #1
  1091dc:	d102      	bne.n	1091e4 <_printf_float+0x1c4>
  1091de:	f04f 30ff 	mov.w	r0, #4294967295
  1091e2:	e150      	b.n	109486 <_printf_float+0x466>
  1091e4:	6823      	ldr	r3, [r4, #0]
  1091e6:	055a      	lsls	r2, r3, #21
  1091e8:	d401      	bmi.n	1091ee <_printf_float+0x1ce>
  1091ea:	6923      	ldr	r3, [r4, #16]
  1091ec:	e065      	b.n	1092ba <_printf_float+0x29a>
  1091ee:	f1b9 0f65 	cmp.w	r9, #101	; 0x65
  1091f2:	f240 80d5 	bls.w	1093a0 <_printf_float+0x380>
  1091f6:	e9d4 0112 	ldrd	r0, r1, [r4, #72]	; 0x48
  1091fa:	2200      	movs	r2, #0
  1091fc:	2300      	movs	r3, #0
  1091fe:	f7fe fb65 	bl	1078cc <__aeabi_dcmpeq>
  109202:	b378      	cbz	r0, 109264 <_printf_float+0x244>
  109204:	2301      	movs	r3, #1
  109206:	4a3e      	ldr	r2, [pc, #248]	; (109300 <_printf_float+0x2e0>)
  109208:	4631      	mov	r1, r6
  10920a:	4628      	mov	r0, r5
  10920c:	47b8      	blx	r7
  10920e:	3001      	adds	r0, #1
  109210:	d0e5      	beq.n	1091de <_printf_float+0x1be>
  109212:	9b0c      	ldr	r3, [sp, #48]	; 0x30
  109214:	9a0b      	ldr	r2, [sp, #44]	; 0x2c
  109216:	429a      	cmp	r2, r3
  109218:	db0b      	blt.n	109232 <_printf_float+0x212>
  10921a:	6823      	ldr	r3, [r4, #0]
  10921c:	07d8      	lsls	r0, r3, #31
  10921e:	d408      	bmi.n	109232 <_printf_float+0x212>
  109220:	6823      	ldr	r3, [r4, #0]
  109222:	079b      	lsls	r3, r3, #30
  109224:	f140 8111 	bpl.w	10944a <_printf_float+0x42a>
  109228:	f04f 0800 	mov.w	r8, #0
  10922c:	f104 0919 	add.w	r9, r4, #25
  109230:	e106      	b.n	109440 <_printf_float+0x420>
  109232:	9b08      	ldr	r3, [sp, #32]
  109234:	465a      	mov	r2, r11
  109236:	4631      	mov	r1, r6
  109238:	4628      	mov	r0, r5
  10923a:	47b8      	blx	r7
  10923c:	3001      	adds	r0, #1
  10923e:	d0ce      	beq.n	1091de <_printf_float+0x1be>
  109240:	f04f 0800 	mov.w	r8, #0
  109244:	f104 091a 	add.w	r9, r4, #26
  109248:	9b0c      	ldr	r3, [sp, #48]	; 0x30
  10924a:	3b01      	subs	r3, #1
  10924c:	4598      	cmp	r8, r3
  10924e:	dae7      	bge.n	109220 <_printf_float+0x200>
  109250:	2301      	movs	r3, #1
  109252:	464a      	mov	r2, r9
  109254:	4631      	mov	r1, r6
  109256:	4628      	mov	r0, r5
  109258:	47b8      	blx	r7
  10925a:	3001      	adds	r0, #1
  10925c:	d0bf      	beq.n	1091de <_printf_float+0x1be>
  10925e:	f108 0801 	add.w	r8, r8, #1
  109262:	e7f1      	b.n	109248 <_printf_float+0x228>
  109264:	9b0b      	ldr	r3, [sp, #44]	; 0x2c
  109266:	2b00      	cmp	r3, #0
  109268:	dc29      	bgt.n	1092be <_printf_float+0x29e>
  10926a:	2301      	movs	r3, #1
  10926c:	4a24      	ldr	r2, [pc, #144]	; (109300 <_printf_float+0x2e0>)
  10926e:	4631      	mov	r1, r6
  109270:	4628      	mov	r0, r5
  109272:	47b8      	blx	r7
  109274:	3001      	adds	r0, #1
  109276:	d0b2      	beq.n	1091de <_printf_float+0x1be>
  109278:	9b0b      	ldr	r3, [sp, #44]	; 0x2c
  10927a:	b923      	cbnz	r3, 109286 <_printf_float+0x266>
  10927c:	9b0c      	ldr	r3, [sp, #48]	; 0x30
  10927e:	b913      	cbnz	r3, 109286 <_printf_float+0x266>
  109280:	6823      	ldr	r3, [r4, #0]
  109282:	07d9      	lsls	r1, r3, #31
  109284:	d5cc      	bpl.n	109220 <_printf_float+0x200>
  109286:	9b08      	ldr	r3, [sp, #32]
  109288:	465a      	mov	r2, r11
  10928a:	4631      	mov	r1, r6
  10928c:	4628      	mov	r0, r5
  10928e:	47b8      	blx	r7
  109290:	3001      	adds	r0, #1
  109292:	d0a4      	beq.n	1091de <_printf_float+0x1be>
  109294:	f04f 0900 	mov.w	r9, #0
  109298:	f104 0a1a 	add.w	r10, r4, #26
  10929c:	9b0b      	ldr	r3, [sp, #44]	; 0x2c
  10929e:	425b      	negs	r3, r3
  1092a0:	4599      	cmp	r9, r3
  1092a2:	da09      	bge.n	1092b8 <_printf_float+0x298>
  1092a4:	2301      	movs	r3, #1
  1092a6:	4652      	mov	r2, r10
  1092a8:	4631      	mov	r1, r6
  1092aa:	4628      	mov	r0, r5
  1092ac:	47b8      	blx	r7
  1092ae:	3001      	adds	r0, #1
  1092b0:	d095      	beq.n	1091de <_printf_float+0x1be>
  1092b2:	f109 0901 	add.w	r9, r9, #1
  1092b6:	e7f1      	b.n	10929c <_printf_float+0x27c>
  1092b8:	9b0c      	ldr	r3, [sp, #48]	; 0x30
  1092ba:	4642      	mov	r2, r8
  1092bc:	e0a7      	b.n	10940e <_printf_float+0x3ee>
  1092be:	9a0c      	ldr	r2, [sp, #48]	; 0x30
  1092c0:	6da3      	ldr	r3, [r4, #88]	; 0x58
  1092c2:	429a      	cmp	r2, r3
  1092c4:	bfa8      	it	ge
  1092c6:	461a      	movge	r2, r3
  1092c8:	2a00      	cmp	r2, #0
  1092ca:	4691      	mov	r9, r2
  1092cc:	dc07      	bgt.n	1092de <_printf_float+0x2be>
  1092ce:	f104 031a 	add.w	r3, r4, #26
  1092d2:	f04f 0a00 	mov.w	r10, #0
  1092d6:	ea29 79e9 	bic.w	r9, r9, r9, asr #31
  1092da:	9309      	str	r3, [sp, #36]	; 0x24
  1092dc:	e01c      	b.n	109318 <_printf_float+0x2f8>
  1092de:	4613      	mov	r3, r2
  1092e0:	4631      	mov	r1, r6
  1092e2:	4642      	mov	r2, r8
  1092e4:	4628      	mov	r0, r5
  1092e6:	47b8      	blx	r7
  1092e8:	3001      	adds	r0, #1
  1092ea:	d1f0      	bne.n	1092ce <_printf_float+0x2ae>
  1092ec:	e777      	b.n	1091de <_printf_float+0x1be>
  1092ee:	bf00      	nop
  1092f0:	0010e8fd 	.word	0x0010e8fd
  1092f4:	0010e901 	.word	0x0010e901
  1092f8:	0010e905 	.word	0x0010e905
  1092fc:	0010e909 	.word	0x0010e909
  109300:	0010e956 	.word	0x0010e956
  109304:	2301      	movs	r3, #1
  109306:	9a09      	ldr	r2, [sp, #36]	; 0x24
  109308:	4631      	mov	r1, r6
  10930a:	4628      	mov	r0, r5
  10930c:	47b8      	blx	r7
  10930e:	3001      	adds	r0, #1
  109310:	f43f af65 	beq.w	1091de <_printf_float+0x1be>
  109314:	f10a 0a01 	add.w	r10, r10, #1
  109318:	6da3      	ldr	r3, [r4, #88]	; 0x58
  10931a:	ebc9 0203 	rsb	r2, r9, r3
  10931e:	4592      	cmp	r10, r2
  109320:	dbf0      	blt.n	109304 <_printf_float+0x2e4>
  109322:	eb08 0903 	add.w	r9, r8, r3
  109326:	9a0b      	ldr	r2, [sp, #44]	; 0x2c
  109328:	9b0c      	ldr	r3, [sp, #48]	; 0x30
  10932a:	429a      	cmp	r2, r3
  10932c:	db0f      	blt.n	10934e <_printf_float+0x32e>
  10932e:	6823      	ldr	r3, [r4, #0]
  109330:	07da      	lsls	r2, r3, #31
  109332:	d40c      	bmi.n	10934e <_printf_float+0x32e>
  109334:	9b0c      	ldr	r3, [sp, #48]	; 0x30
  109336:	9a0b      	ldr	r2, [sp, #44]	; 0x2c
  109338:	4498      	add	r8, r3
  10933a:	ebc9 0808 	rsb	r8, r9, r8
  10933e:	1a9b      	subs	r3, r3, r2
  109340:	4598      	cmp	r8, r3
  109342:	bfa8      	it	ge
  109344:	4698      	movge	r8, r3
  109346:	f1b8 0f00 	cmp.w	r8, #0
  10934a:	dc08      	bgt.n	10935e <_printf_float+0x33e>
  10934c:	e00f      	b.n	10936e <_printf_float+0x34e>
  10934e:	9b08      	ldr	r3, [sp, #32]
  109350:	465a      	mov	r2, r11
  109352:	4631      	mov	r1, r6
  109354:	4628      	mov	r0, r5
  109356:	47b8      	blx	r7
  109358:	3001      	adds	r0, #1
  10935a:	d1eb      	bne.n	109334 <_printf_float+0x314>
  10935c:	e73f      	b.n	1091de <_printf_float+0x1be>
  10935e:	4643      	mov	r3, r8
  109360:	464a      	mov	r2, r9
  109362:	4631      	mov	r1, r6
  109364:	4628      	mov	r0, r5
  109366:	47b8      	blx	r7
  109368:	3001      	adds	r0, #1
  10936a:	f43f af38 	beq.w	1091de <_printf_float+0x1be>
  10936e:	f04f 0900 	mov.w	r9, #0
  109372:	ea28 78e8 	bic.w	r8, r8, r8, asr #31
  109376:	f104 0a1a 	add.w	r10, r4, #26
  10937a:	e009      	b.n	109390 <_printf_float+0x370>
  10937c:	2301      	movs	r3, #1
  10937e:	4652      	mov	r2, r10
  109380:	4631      	mov	r1, r6
  109382:	4628      	mov	r0, r5
  109384:	47b8      	blx	r7
  109386:	3001      	adds	r0, #1
  109388:	f43f af29 	beq.w	1091de <_printf_float+0x1be>
  10938c:	f109 0901 	add.w	r9, r9, #1
  109390:	9a0b      	ldr	r2, [sp, #44]	; 0x2c
  109392:	9b0c      	ldr	r3, [sp, #48]	; 0x30
  109394:	1a9b      	subs	r3, r3, r2
  109396:	ebc8 0303 	rsb	r3, r8, r3
  10939a:	4599      	cmp	r9, r3
  10939c:	dbee      	blt.n	10937c <_printf_float+0x35c>
  10939e:	e73f      	b.n	109220 <_printf_float+0x200>
  1093a0:	9a0c      	ldr	r2, [sp, #48]	; 0x30
  1093a2:	2a01      	cmp	r2, #1
  1093a4:	dc01      	bgt.n	1093aa <_printf_float+0x38a>
  1093a6:	07db      	lsls	r3, r3, #31
  1093a8:	d538      	bpl.n	10941c <_printf_float+0x3fc>
  1093aa:	2301      	movs	r3, #1
  1093ac:	4642      	mov	r2, r8
  1093ae:	4631      	mov	r1, r6
  1093b0:	4628      	mov	r0, r5
  1093b2:	47b8      	blx	r7
  1093b4:	3001      	adds	r0, #1
  1093b6:	f43f af12 	beq.w	1091de <_printf_float+0x1be>
  1093ba:	9b08      	ldr	r3, [sp, #32]
  1093bc:	465a      	mov	r2, r11
  1093be:	4631      	mov	r1, r6
  1093c0:	4628      	mov	r0, r5
  1093c2:	47b8      	blx	r7
  1093c4:	3001      	adds	r0, #1
  1093c6:	f43f af0a 	beq.w	1091de <_printf_float+0x1be>
  1093ca:	e9d4 0112 	ldrd	r0, r1, [r4, #72]	; 0x48
  1093ce:	2200      	movs	r2, #0
  1093d0:	2300      	movs	r3, #0
  1093d2:	f7fe fa7b 	bl	1078cc <__aeabi_dcmpeq>
  1093d6:	b120      	cbz	r0, 1093e2 <_printf_float+0x3c2>
  1093d8:	f04f 0800 	mov.w	r8, #0
  1093dc:	f104 091a 	add.w	r9, r4, #26
  1093e0:	e00e      	b.n	109400 <_printf_float+0x3e0>
  1093e2:	9b0c      	ldr	r3, [sp, #48]	; 0x30
  1093e4:	f108 0201 	add.w	r2, r8, #1
  1093e8:	3b01      	subs	r3, #1
  1093ea:	e019      	b.n	109420 <_printf_float+0x400>
  1093ec:	2301      	movs	r3, #1
  1093ee:	464a      	mov	r2, r9
  1093f0:	4631      	mov	r1, r6
  1093f2:	4628      	mov	r0, r5
  1093f4:	47b8      	blx	r7
  1093f6:	3001      	adds	r0, #1
  1093f8:	f43f aef1 	beq.w	1091de <_printf_float+0x1be>
  1093fc:	f108 0801 	add.w	r8, r8, #1
  109400:	9b0c      	ldr	r3, [sp, #48]	; 0x30
  109402:	3b01      	subs	r3, #1
  109404:	4598      	cmp	r8, r3
  109406:	dbf1      	blt.n	1093ec <_printf_float+0x3cc>
  109408:	4653      	mov	r3, r10
  10940a:	f104 0250 	add.w	r2, r4, #80	; 0x50
  10940e:	4631      	mov	r1, r6
  109410:	4628      	mov	r0, r5
  109412:	47b8      	blx	r7
  109414:	3001      	adds	r0, #1
  109416:	f47f af03 	bne.w	109220 <_printf_float+0x200>
  10941a:	e6e0      	b.n	1091de <_printf_float+0x1be>
  10941c:	4642      	mov	r2, r8
  10941e:	2301      	movs	r3, #1
  109420:	4631      	mov	r1, r6
  109422:	4628      	mov	r0, r5
  109424:	47b8      	blx	r7
  109426:	3001      	adds	r0, #1
  109428:	d1ee      	bne.n	109408 <_printf_float+0x3e8>
  10942a:	e6d8      	b.n	1091de <_printf_float+0x1be>
  10942c:	2301      	movs	r3, #1
  10942e:	464a      	mov	r2, r9
  109430:	4631      	mov	r1, r6
  109432:	4628      	mov	r0, r5
  109434:	47b8      	blx	r7
  109436:	3001      	adds	r0, #1
  109438:	f43f aed1 	beq.w	1091de <_printf_float+0x1be>
  10943c:	f108 0801 	add.w	r8, r8, #1
  109440:	68e3      	ldr	r3, [r4, #12]
  109442:	9a0d      	ldr	r2, [sp, #52]	; 0x34
  109444:	1a9b      	subs	r3, r3, r2
  109446:	4598      	cmp	r8, r3
  109448:	dbf0      	blt.n	10942c <_printf_float+0x40c>
  10944a:	68e0      	ldr	r0, [r4, #12]
  10944c:	9b0d      	ldr	r3, [sp, #52]	; 0x34
  10944e:	4298      	cmp	r0, r3
  109450:	bfb8      	it	lt
  109452:	4618      	movlt	r0, r3
  109454:	e017      	b.n	109486 <_printf_float+0x466>
  109456:	2200      	movs	r2, #0
  109458:	9206      	str	r2, [sp, #24]
  10945a:	aa0c      	add	r2, sp, #48	; 0x30
  10945c:	9205      	str	r2, [sp, #20]
  10945e:	aa0b      	add	r2, sp, #44	; 0x2c
  109460:	f443 6380 	orr.w	r3, r3, #1024	; 0x400
  109464:	9203      	str	r2, [sp, #12]
  109466:	f10d 022b 	add.w	r2, sp, #43	; 0x2b
  10946a:	6023      	str	r3, [r4, #0]
  10946c:	9202      	str	r2, [sp, #8]
  10946e:	9301      	str	r3, [sp, #4]
  109470:	4602      	mov	r2, r0
  109472:	f8cd 9010 	str.w	r9, [sp, #16]
  109476:	f8cd e000 	str.w	lr, [sp]
  10947a:	460b      	mov	r3, r1
  10947c:	4628      	mov	r0, r5
  10947e:	f7ff fd3d 	bl	108efc <__cvt>
  109482:	4680      	mov	r8, r0
  109484:	e64e      	b.n	109124 <_printf_float+0x104>
  109486:	b00f      	add	sp, #60	; 0x3c
  109488:	e8bd 8ff0 	ldmia.w	sp!, {r4, r5, r6, r7, r8, r9, r10, r11, pc}

0010948c <_printf_common>:
  10948c:	e92d 47f0 	stmdb	sp!, {r4, r5, r6, r7, r8, r9, r10, lr}
  109490:	4691      	mov	r9, r2
  109492:	461f      	mov	r7, r3
  109494:	690a      	ldr	r2, [r1, #16]
  109496:	688b      	ldr	r3, [r1, #8]
  109498:	4606      	mov	r6, r0
  10949a:	4293      	cmp	r3, r2
  10949c:	bfb8      	it	lt
  10949e:	4613      	movlt	r3, r2
  1094a0:	f8c9 3000 	str.w	r3, [r9]
  1094a4:	f891 2043 	ldrb.w	r2, [r1, #67]	; 0x43
  1094a8:	460c      	mov	r4, r1
  1094aa:	f8dd 8020 	ldr.w	r8, [sp, #32]
  1094ae:	b112      	cbz	r2, 1094b6 <_printf_common+0x2a>
  1094b0:	3301      	adds	r3, #1
  1094b2:	f8c9 3000 	str.w	r3, [r9]
  1094b6:	6823      	ldr	r3, [r4, #0]
  1094b8:	0699      	lsls	r1, r3, #26
  1094ba:	bf42      	ittt	mi
  1094bc:	f8d9 3000 	ldrmi.w	r3, [r9]
  1094c0:	3302      	addmi	r3, #2
  1094c2:	f8c9 3000 	strmi.w	r3, [r9]
  1094c6:	6825      	ldr	r5, [r4, #0]
  1094c8:	f015 0506 	ands.w	r5, r5, #6
  1094cc:	d110      	bne.n	1094f0 <_printf_common+0x64>
  1094ce:	f104 0a19 	add.w	r10, r4, #25
  1094d2:	e007      	b.n	1094e4 <_printf_common+0x58>
  1094d4:	2301      	movs	r3, #1
  1094d6:	4652      	mov	r2, r10
  1094d8:	4639      	mov	r1, r7
  1094da:	4630      	mov	r0, r6
  1094dc:	47c0      	blx	r8
  1094de:	3001      	adds	r0, #1
  1094e0:	d01a      	beq.n	109518 <_printf_common+0x8c>
  1094e2:	3501      	adds	r5, #1
  1094e4:	68e3      	ldr	r3, [r4, #12]
  1094e6:	f8d9 2000 	ldr.w	r2, [r9]
  1094ea:	1a9b      	subs	r3, r3, r2
  1094ec:	429d      	cmp	r5, r3
  1094ee:	dbf1      	blt.n	1094d4 <_printf_common+0x48>
  1094f0:	f894 3043 	ldrb.w	r3, [r4, #67]	; 0x43
  1094f4:	6822      	ldr	r2, [r4, #0]
  1094f6:	3300      	adds	r3, #0
  1094f8:	bf18      	it	ne
  1094fa:	2301      	movne	r3, #1
  1094fc:	0692      	lsls	r2, r2, #26
  1094fe:	d50f      	bpl.n	109520 <_printf_common+0x94>
  109500:	18e1      	adds	r1, r4, r3
  109502:	2030      	movs	r0, #48	; 0x30
  109504:	f881 0043 	strb.w	r0, [r1, #67]	; 0x43
  109508:	1c5a      	adds	r2, r3, #1
  10950a:	f894 1045 	ldrb.w	r1, [r4, #69]	; 0x45
  10950e:	4422      	add	r2, r4
  109510:	3302      	adds	r3, #2
  109512:	f882 1043 	strb.w	r1, [r2, #67]	; 0x43
  109516:	e003      	b.n	109520 <_printf_common+0x94>
  109518:	f04f 30ff 	mov.w	r0, #4294967295
  10951c:	e8bd 87f0 	ldmia.w	sp!, {r4, r5, r6, r7, r8, r9, r10, pc}
  109520:	f104 0243 	add.w	r2, r4, #67	; 0x43
  109524:	4639      	mov	r1, r7
  109526:	4630      	mov	r0, r6
  109528:	47c0      	blx	r8
  10952a:	3001      	adds	r0, #1
  10952c:	d0f4      	beq.n	109518 <_printf_common+0x8c>
  10952e:	6822      	ldr	r2, [r4, #0]
  109530:	f8d9 5000 	ldr.w	r5, [r9]
  109534:	68e3      	ldr	r3, [r4, #12]
  109536:	f002 0206 	and.w	r2, r2, #6
  10953a:	2a04      	cmp	r2, #4
  10953c:	bf08      	it	eq
  10953e:	1b5d      	subeq	r5, r3, r5
  109540:	6922      	ldr	r2, [r4, #16]
  109542:	68a3      	ldr	r3, [r4, #8]
  109544:	bf0c      	ite	eq
  109546:	ea25 75e5 	biceq.w	r5, r5, r5, asr #31
  10954a:	2500      	movne	r5, #0
  10954c:	4293      	cmp	r3, r2
  10954e:	bfc4      	itt	gt
  109550:	1a9b      	subgt	r3, r3, r2
  109552:	18ed      	addgt	r5, r5, r3
  109554:	f04f 0900 	mov.w	r9, #0
  109558:	341a      	adds	r4, #26
  10955a:	454d      	cmp	r5, r9
  10955c:	d009      	beq.n	109572 <_printf_common+0xe6>
  10955e:	2301      	movs	r3, #1
  109560:	4622      	mov	r2, r4
  109562:	4639      	mov	r1, r7
  109564:	4630      	mov	r0, r6
  109566:	47c0      	blx	r8
  109568:	3001      	adds	r0, #1
  10956a:	d0d5      	beq.n	109518 <_printf_common+0x8c>
  10956c:	f109 0901 	add.w	r9, r9, #1
  109570:	e7f3      	b.n	10955a <_printf_common+0xce>
  109572:	2000      	movs	r0, #0
  109574:	e8bd 87f0 	ldmia.w	sp!, {r4, r5, r6, r7, r8, r9, r10, pc}

00109578 <_printf_i>:
  109578:	e92d 43f0 	stmdb	sp!, {r4, r5, r6, r7, r8, r9, lr}
  10957c:	4617      	mov	r7, r2
  10957e:	7e0a      	ldrb	r2, [r1, #24]
  109580:	b085      	sub	sp, #20
  109582:	2a6e      	cmp	r2, #110	; 0x6e
  109584:	4698      	mov	r8, r3
  109586:	4606      	mov	r6, r0
  109588:	460c      	mov	r4, r1
  10958a:	9b0c      	ldr	r3, [sp, #48]	; 0x30
  10958c:	f101 0e43 	add.w	lr, r1, #67	; 0x43
  109590:	f000 80ae 	beq.w	1096f0 <_printf_i+0x178>
  109594:	d811      	bhi.n	1095ba <_printf_i+0x42>
  109596:	2a63      	cmp	r2, #99	; 0x63
  109598:	d022      	beq.n	1095e0 <_printf_i+0x68>
  10959a:	d809      	bhi.n	1095b0 <_printf_i+0x38>
  10959c:	2a00      	cmp	r2, #0
  10959e:	f000 80bb 	beq.w	109718 <_printf_i+0x1a0>
  1095a2:	2a58      	cmp	r2, #88	; 0x58
  1095a4:	f040 80ca 	bne.w	10973c <_printf_i+0x1c4>
  1095a8:	f881 2045 	strb.w	r2, [r1, #69]	; 0x45
  1095ac:	4983      	ldr	r1, [pc, #524]	; (1097bc <_printf_i+0x244>)
  1095ae:	e055      	b.n	10965c <_printf_i+0xe4>
  1095b0:	2a64      	cmp	r2, #100	; 0x64
  1095b2:	d01e      	beq.n	1095f2 <_printf_i+0x7a>
  1095b4:	2a69      	cmp	r2, #105	; 0x69
  1095b6:	d01c      	beq.n	1095f2 <_printf_i+0x7a>
  1095b8:	e0c0      	b.n	10973c <_printf_i+0x1c4>
  1095ba:	2a73      	cmp	r2, #115	; 0x73
  1095bc:	f000 80b0 	beq.w	109720 <_printf_i+0x1a8>
  1095c0:	d809      	bhi.n	1095d6 <_printf_i+0x5e>
  1095c2:	2a6f      	cmp	r2, #111	; 0x6f
  1095c4:	d02e      	beq.n	109624 <_printf_i+0xac>
  1095c6:	2a70      	cmp	r2, #112	; 0x70
  1095c8:	f040 80b8 	bne.w	10973c <_printf_i+0x1c4>
  1095cc:	680a      	ldr	r2, [r1, #0]
  1095ce:	f042 0220 	orr.w	r2, r2, #32
  1095d2:	600a      	str	r2, [r1, #0]
  1095d4:	e03e      	b.n	109654 <_printf_i+0xdc>
  1095d6:	2a75      	cmp	r2, #117	; 0x75
  1095d8:	d024      	beq.n	109624 <_printf_i+0xac>
  1095da:	2a78      	cmp	r2, #120	; 0x78
  1095dc:	d03a      	beq.n	109654 <_printf_i+0xdc>
  1095de:	e0ad      	b.n	10973c <_printf_i+0x1c4>
  1095e0:	681a      	ldr	r2, [r3, #0]
  1095e2:	f101 0542 	add.w	r5, r1, #66	; 0x42
  1095e6:	1d11      	adds	r1, r2, #4
  1095e8:	6019      	str	r1, [r3, #0]
  1095ea:	6813      	ldr	r3, [r2, #0]
  1095ec:	f884 3042 	strb.w	r3, [r4, #66]	; 0x42
  1095f0:	e0a8      	b.n	109744 <_printf_i+0x1cc>
  1095f2:	6821      	ldr	r1, [r4, #0]
  1095f4:	681a      	ldr	r2, [r3, #0]
  1095f6:	f011 0f80 	tst.w	r1, #128	; 0x80
  1095fa:	d002      	beq.n	109602 <_printf_i+0x8a>
  1095fc:	1d11      	adds	r1, r2, #4
  1095fe:	6019      	str	r1, [r3, #0]
  109600:	e008      	b.n	109614 <_printf_i+0x9c>
  109602:	f011 0f40 	tst.w	r1, #64	; 0x40
  109606:	f102 0104 	add.w	r1, r2, #4
  10960a:	6019      	str	r1, [r3, #0]
  10960c:	d002      	beq.n	109614 <_printf_i+0x9c>
  10960e:	f9b2 3000 	ldrsh.w	r3, [r2]
  109612:	e000      	b.n	109616 <_printf_i+0x9e>
  109614:	6813      	ldr	r3, [r2, #0]
  109616:	2b00      	cmp	r3, #0
  109618:	da3c      	bge.n	109694 <_printf_i+0x11c>
  10961a:	222d      	movs	r2, #45	; 0x2d
  10961c:	425b      	negs	r3, r3
  10961e:	f884 2043 	strb.w	r2, [r4, #67]	; 0x43
  109622:	e037      	b.n	109694 <_printf_i+0x11c>
  109624:	6821      	ldr	r1, [r4, #0]
  109626:	681a      	ldr	r2, [r3, #0]
  109628:	f011 0f80 	tst.w	r1, #128	; 0x80
  10962c:	d002      	beq.n	109634 <_printf_i+0xbc>
  10962e:	1d11      	adds	r1, r2, #4
  109630:	6019      	str	r1, [r3, #0]
  109632:	e007      	b.n	109644 <_printf_i+0xcc>
  109634:	f011 0f40 	tst.w	r1, #64	; 0x40
  109638:	f102 0104 	add.w	r1, r2, #4
  10963c:	6019      	str	r1, [r3, #0]
  10963e:	d001      	beq.n	109644 <_printf_i+0xcc>
  109640:	8813      	ldrh	r3, [r2, #0]
  109642:	e000      	b.n	109646 <_printf_i+0xce>
  109644:	6813      	ldr	r3, [r2, #0]
  109646:	7e22      	ldrb	r2, [r4, #24]
  109648:	495c      	ldr	r1, [pc, #368]	; (1097bc <_printf_i+0x244>)
  10964a:	2a6f      	cmp	r2, #111	; 0x6f
  10964c:	bf14      	ite	ne
  10964e:	220a      	movne	r2, #10
  109650:	2208      	moveq	r2, #8
  109652:	e01b      	b.n	10968c <_printf_i+0x114>
  109654:	2278      	movs	r2, #120	; 0x78
  109656:	495a      	ldr	r1, [pc, #360]	; (1097c0 <_printf_i+0x248>)
  109658:	f884 2045 	strb.w	r2, [r4, #69]	; 0x45
  10965c:	6822      	ldr	r2, [r4, #0]
  10965e:	6818      	ldr	r0, [r3, #0]
  109660:	f012 0f80 	tst.w	r2, #128	; 0x80
  109664:	f100 0504 	add.w	r5, r0, #4
  109668:	601d      	str	r5, [r3, #0]
  10966a:	d103      	bne.n	109674 <_printf_i+0xfc>
  10966c:	0655      	lsls	r5, r2, #25
  10966e:	d501      	bpl.n	109674 <_printf_i+0xfc>
  109670:	8803      	ldrh	r3, [r0, #0]
  109672:	e000      	b.n	109676 <_printf_i+0xfe>
  109674:	6803      	ldr	r3, [r0, #0]
  109676:	07d0      	lsls	r0, r2, #31
  109678:	bf44      	itt	mi
  10967a:	f042 0220 	orrmi.w	r2, r2, #32
  10967e:	6022      	strmi	r2, [r4, #0]
  109680:	b91b      	cbnz	r3, 10968a <_printf_i+0x112>
  109682:	6822      	ldr	r2, [r4, #0]
  109684:	f022 0220 	bic.w	r2, r2, #32
  109688:	6022      	str	r2, [r4, #0]
  10968a:	2210      	movs	r2, #16
  10968c:	2000      	movs	r0, #0
  10968e:	f884 0043 	strb.w	r0, [r4, #67]	; 0x43
  109692:	e001      	b.n	109698 <_printf_i+0x120>
  109694:	4949      	ldr	r1, [pc, #292]	; (1097bc <_printf_i+0x244>)
  109696:	220a      	movs	r2, #10
  109698:	6865      	ldr	r5, [r4, #4]
  10969a:	2d00      	cmp	r5, #0
  10969c:	60a5      	str	r5, [r4, #8]
  10969e:	db08      	blt.n	1096b2 <_printf_i+0x13a>
  1096a0:	6820      	ldr	r0, [r4, #0]
  1096a2:	f020 0004 	bic.w	r0, r0, #4
  1096a6:	6020      	str	r0, [r4, #0]
  1096a8:	b92b      	cbnz	r3, 1096b6 <_printf_i+0x13e>
  1096aa:	2d00      	cmp	r5, #0
  1096ac:	d17d      	bne.n	1097aa <_printf_i+0x232>
  1096ae:	4675      	mov	r5, lr
  1096b0:	e00c      	b.n	1096cc <_printf_i+0x154>
  1096b2:	2b00      	cmp	r3, #0
  1096b4:	d079      	beq.n	1097aa <_printf_i+0x232>
  1096b6:	4675      	mov	r5, lr
  1096b8:	fbb3 f0f2 	udiv	r0, r3, r2
  1096bc:	fb02 3310 	mls	r3, r2, r0, r3
  1096c0:	5ccb      	ldrb	r3, [r1, r3]
  1096c2:	f805 3d01 	strb.w	r3, [r5, #-1]!
  1096c6:	4603      	mov	r3, r0
  1096c8:	2800      	cmp	r0, #0
  1096ca:	d1f5      	bne.n	1096b8 <_printf_i+0x140>
  1096cc:	2a08      	cmp	r2, #8
  1096ce:	d10b      	bne.n	1096e8 <_printf_i+0x170>
  1096d0:	6823      	ldr	r3, [r4, #0]
  1096d2:	07da      	lsls	r2, r3, #31
  1096d4:	d508      	bpl.n	1096e8 <_printf_i+0x170>
  1096d6:	6923      	ldr	r3, [r4, #16]
  1096d8:	6862      	ldr	r2, [r4, #4]
  1096da:	429a      	cmp	r2, r3
  1096dc:	bfde      	ittt	le
  1096de:	2330      	movle	r3, #48	; 0x30
  1096e0:	f805 3c01 	strble.w	r3, [r5, #-1]
  1096e4:	f105 35ff 	addle.w	r5, r5, #4294967295
  1096e8:	ebc5 030e 	rsb	r3, r5, lr
  1096ec:	6123      	str	r3, [r4, #16]
  1096ee:	e02e      	b.n	10974e <_printf_i+0x1d6>
  1096f0:	6808      	ldr	r0, [r1, #0]
  1096f2:	681a      	ldr	r2, [r3, #0]
  1096f4:	f010 0f80 	tst.w	r0, #128	; 0x80
  1096f8:	6949      	ldr	r1, [r1, #20]
  1096fa:	d003      	beq.n	109704 <_printf_i+0x18c>
  1096fc:	1d10      	adds	r0, r2, #4
  1096fe:	6018      	str	r0, [r3, #0]
  109700:	6813      	ldr	r3, [r2, #0]
  109702:	e008      	b.n	109716 <_printf_i+0x19e>
  109704:	f010 0f40 	tst.w	r0, #64	; 0x40
  109708:	f102 0004 	add.w	r0, r2, #4
  10970c:	6018      	str	r0, [r3, #0]
  10970e:	6813      	ldr	r3, [r2, #0]
  109710:	d001      	beq.n	109716 <_printf_i+0x19e>
  109712:	8019      	strh	r1, [r3, #0]
  109714:	e000      	b.n	109718 <_printf_i+0x1a0>
  109716:	6019      	str	r1, [r3, #0]
  109718:	2300      	movs	r3, #0
  10971a:	6123      	str	r3, [r4, #16]
  10971c:	4675      	mov	r5, lr
  10971e:	e016      	b.n	10974e <_printf_i+0x1d6>
  109720:	681a      	ldr	r2, [r3, #0]
  109722:	1d11      	adds	r1, r2, #4
  109724:	6019      	str	r1, [r3, #0]
  109726:	6815      	ldr	r5, [r2, #0]
  109728:	2100      	movs	r1, #0
  10972a:	6862      	ldr	r2, [r4, #4]
  10972c:	4628      	mov	r0, r5
  10972e:	f7ff f9c3 	bl	108ab8 <memchr>
  109732:	b108      	cbz	r0, 109738 <_printf_i+0x1c0>
  109734:	1b40      	subs	r0, r0, r5
  109736:	6060      	str	r0, [r4, #4]
  109738:	6863      	ldr	r3, [r4, #4]
  10973a:	e004      	b.n	109746 <_printf_i+0x1ce>
  10973c:	f104 0542 	add.w	r5, r4, #66	; 0x42
  109740:	f884 2042 	strb.w	r2, [r4, #66]	; 0x42
  109744:	2301      	movs	r3, #1
  109746:	6123      	str	r3, [r4, #16]
  109748:	2300      	movs	r3, #0
  10974a:	f884 3043 	strb.w	r3, [r4, #67]	; 0x43
  10974e:	f8cd 8000 	str.w	r8, [sp]
  109752:	463b      	mov	r3, r7
  109754:	aa03      	add	r2, sp, #12
  109756:	4621      	mov	r1, r4
  109758:	4630      	mov	r0, r6
  10975a:	f7ff fe97 	bl	10948c <_printf_common>
  10975e:	3001      	adds	r0, #1
  109760:	d102      	bne.n	109768 <_printf_i+0x1f0>
  109762:	f04f 30ff 	mov.w	r0, #4294967295
  109766:	e026      	b.n	1097b6 <_printf_i+0x23e>
  109768:	6923      	ldr	r3, [r4, #16]
  10976a:	462a      	mov	r2, r5
  10976c:	4639      	mov	r1, r7
  10976e:	4630      	mov	r0, r6
  109770:	47c0      	blx	r8
  109772:	3001      	adds	r0, #1
  109774:	d0f5      	beq.n	109762 <_printf_i+0x1ea>
  109776:	6823      	ldr	r3, [r4, #0]
  109778:	079b      	lsls	r3, r3, #30
  10977a:	d510      	bpl.n	10979e <_printf_i+0x226>
  10977c:	2500      	movs	r5, #0
  10977e:	f104 0919 	add.w	r9, r4, #25
  109782:	e007      	b.n	109794 <_printf_i+0x21c>
  109784:	2301      	movs	r3, #1
  109786:	464a      	mov	r2, r9
  109788:	4639      	mov	r1, r7
  10978a:	4630      	mov	r0, r6
  10978c:	47c0      	blx	r8
  10978e:	3001      	adds	r0, #1
  109790:	d0e7      	beq.n	109762 <_printf_i+0x1ea>
  109792:	3501      	adds	r5, #1
  109794:	68e3      	ldr	r3, [r4, #12]
  109796:	9a03      	ldr	r2, [sp, #12]
  109798:	1a9b      	subs	r3, r3, r2
  10979a:	429d      	cmp	r5, r3
  10979c:	dbf2      	blt.n	109784 <_printf_i+0x20c>
  10979e:	68e0      	ldr	r0, [r4, #12]
  1097a0:	9b03      	ldr	r3, [sp, #12]
  1097a2:	4298      	cmp	r0, r3
  1097a4:	bfb8      	it	lt
  1097a6:	4618      	movlt	r0, r3
  1097a8:	e005      	b.n	1097b6 <_printf_i+0x23e>
  1097aa:	780b      	ldrb	r3, [r1, #0]
  1097ac:	f104 0542 	add.w	r5, r4, #66	; 0x42
  1097b0:	f884 3042 	strb.w	r3, [r4, #66]	; 0x42
  1097b4:	e78a      	b.n	1096cc <_printf_i+0x154>
  1097b6:	b005      	add	sp, #20
  1097b8:	e8bd 83f0 	ldmia.w	sp!, {r4, r5, r6, r7, r8, r9, pc}
  1097bc:	0010e90d 	.word	0x0010e90d
  1097c0:	0010e91e 	.word	0x0010e91e

001097c4 <__svfiscanf_r>:
  1097c4:	e92d 4ff0 	stmdb	sp!, {r4, r5, r6, r7, r8, r9, r10, r11, lr}
  1097c8:	f8df 9290 	ldr.w	r9, [pc, #656]	; 109a5c <__svfiscanf_r+0x298>
  1097cc:	4607      	mov	r7, r0
  1097ce:	460c      	mov	r4, r1
  1097d0:	46ca      	mov	r10, r9
  1097d2:	f5ad 7d25 	sub.w	sp, sp, #660	; 0x294
  1097d6:	9301      	str	r3, [sp, #4]
  1097d8:	2300      	movs	r3, #0
  1097da:	9346      	str	r3, [sp, #280]	; 0x118
  1097dc:	9347      	str	r3, [sp, #284]	; 0x11c
  1097de:	4b9b      	ldr	r3, [pc, #620]	; (109a4c <__svfiscanf_r+0x288>)
  1097e0:	f10d 080c 	add.w	r8, sp, #12
  1097e4:	93a2      	str	r3, [sp, #648]	; 0x288
  1097e6:	4b9a      	ldr	r3, [pc, #616]	; (109a50 <__svfiscanf_r+0x28c>)
  1097e8:	f8df b268 	ldr.w	r11, [pc, #616]	; 109a54 <__svfiscanf_r+0x290>
  1097ec:	f8cd 8120 	str.w	r8, [sp, #288]	; 0x120
  1097f0:	93a3      	str	r3, [sp, #652]	; 0x28c
  1097f2:	7815      	ldrb	r5, [r2, #0]
  1097f4:	2d00      	cmp	r5, #0
  1097f6:	f000 8120 	beq.w	109a3a <__svfiscanf_r+0x276>
  1097fa:	f8d9 3000 	ldr.w	r3, [r9]
  1097fe:	442b      	add	r3, r5
  109800:	785b      	ldrb	r3, [r3, #1]
  109802:	f003 0308 	and.w	r3, r3, #8
  109806:	f003 01ff 	and.w	r1, r3, #255	; 0xff
  10980a:	b1f3      	cbz	r3, 10984a <__svfiscanf_r+0x86>
  10980c:	6863      	ldr	r3, [r4, #4]
  10980e:	2b00      	cmp	r3, #0
  109810:	dd10      	ble.n	109834 <__svfiscanf_r+0x70>
  109812:	6823      	ldr	r3, [r4, #0]
  109814:	f8da 0000 	ldr.w	r0, [r10]
  109818:	7819      	ldrb	r1, [r3, #0]
  10981a:	4401      	add	r1, r0
  10981c:	7849      	ldrb	r1, [r1, #1]
  10981e:	070d      	lsls	r5, r1, #28
  109820:	d510      	bpl.n	109844 <__svfiscanf_r+0x80>
  109822:	9947      	ldr	r1, [sp, #284]	; 0x11c
  109824:	3301      	adds	r3, #1
  109826:	3101      	adds	r1, #1
  109828:	9147      	str	r1, [sp, #284]	; 0x11c
  10982a:	6861      	ldr	r1, [r4, #4]
  10982c:	6023      	str	r3, [r4, #0]
  10982e:	3901      	subs	r1, #1
  109830:	6061      	str	r1, [r4, #4]
  109832:	e7eb      	b.n	10980c <__svfiscanf_r+0x48>
  109834:	9ba3      	ldr	r3, [sp, #652]	; 0x28c
  109836:	4621      	mov	r1, r4
  109838:	4638      	mov	r0, r7
  10983a:	9200      	str	r2, [sp, #0]
  10983c:	4798      	blx	r3
  10983e:	9a00      	ldr	r2, [sp, #0]
  109840:	2800      	cmp	r0, #0
  109842:	d0e6      	beq.n	109812 <__svfiscanf_r+0x4e>
  109844:	1c56      	adds	r6, r2, #1
  109846:	4632      	mov	r2, r6
  109848:	e7d3      	b.n	1097f2 <__svfiscanf_r+0x2e>
  10984a:	2d25      	cmp	r5, #37	; 0x25
  10984c:	f102 0601 	add.w	r6, r2, #1
  109850:	d14b      	bne.n	1098ea <__svfiscanf_r+0x126>
  109852:	9143      	str	r1, [sp, #268]	; 0x10c
  109854:	9145      	str	r1, [sp, #276]	; 0x114
  109856:	7853      	ldrb	r3, [r2, #1]
  109858:	2b2a      	cmp	r3, #42	; 0x2a
  10985a:	bf02      	ittt	eq
  10985c:	2310      	moveq	r3, #16
  10985e:	1c96      	addeq	r6, r2, #2
  109860:	9343      	streq	r3, [sp, #268]	; 0x10c
  109862:	220a      	movs	r2, #10
  109864:	7831      	ldrb	r1, [r6, #0]
  109866:	4635      	mov	r5, r6
  109868:	f1a1 0330 	sub.w	r3, r1, #48	; 0x30
  10986c:	2b09      	cmp	r3, #9
  10986e:	f106 0601 	add.w	r6, r6, #1
  109872:	d805      	bhi.n	109880 <__svfiscanf_r+0xbc>
  109874:	9b45      	ldr	r3, [sp, #276]	; 0x114
  109876:	fb02 1303 	mla	r3, r2, r3, r1
  10987a:	3b30      	subs	r3, #48	; 0x30
  10987c:	9345      	str	r3, [sp, #276]	; 0x114
  10987e:	e7f1      	b.n	109864 <__svfiscanf_r+0xa0>
  109880:	2203      	movs	r2, #3
  109882:	4874      	ldr	r0, [pc, #464]	; (109a54 <__svfiscanf_r+0x290>)
  109884:	f7ff f918 	bl	108ab8 <memchr>
  109888:	b140      	cbz	r0, 10989c <__svfiscanf_r+0xd8>
  10988a:	4635      	mov	r5, r6
  10988c:	2301      	movs	r3, #1
  10988e:	ebcb 0000 	rsb	r0, r11, r0
  109892:	fa03 f000 	lsl.w	r0, r3, r0
  109896:	9b43      	ldr	r3, [sp, #268]	; 0x10c
  109898:	4303      	orrs	r3, r0
  10989a:	9343      	str	r3, [sp, #268]	; 0x10c
  10989c:	1c6e      	adds	r6, r5, #1
  10989e:	782d      	ldrb	r5, [r5, #0]
  1098a0:	2d67      	cmp	r5, #103	; 0x67
  1098a2:	d80f      	bhi.n	1098c4 <__svfiscanf_r+0x100>
  1098a4:	2d65      	cmp	r5, #101	; 0x65
  1098a6:	d278      	bcs.n	10999a <__svfiscanf_r+0x1d6>
  1098a8:	2d5b      	cmp	r5, #91	; 0x5b
  1098aa:	d054      	beq.n	109956 <__svfiscanf_r+0x192>
  1098ac:	d805      	bhi.n	1098ba <__svfiscanf_r+0xf6>
  1098ae:	2d00      	cmp	r5, #0
  1098b0:	f000 80c5 	beq.w	109a3e <__svfiscanf_r+0x27a>
  1098b4:	2d25      	cmp	r5, #37	; 0x25
  1098b6:	d018      	beq.n	1098ea <__svfiscanf_r+0x126>
  1098b8:	e071      	b.n	10999e <__svfiscanf_r+0x1da>
  1098ba:	2d63      	cmp	r5, #99	; 0x63
  1098bc:	d057      	beq.n	10996e <__svfiscanf_r+0x1aa>
  1098be:	2d64      	cmp	r5, #100	; 0x64
  1098c0:	d03f      	beq.n	109942 <__svfiscanf_r+0x17e>
  1098c2:	e06c      	b.n	10999e <__svfiscanf_r+0x1da>
  1098c4:	2d70      	cmp	r5, #112	; 0x70
  1098c6:	d032      	beq.n	10992e <__svfiscanf_r+0x16a>
  1098c8:	d807      	bhi.n	1098da <__svfiscanf_r+0x116>
  1098ca:	2d6e      	cmp	r5, #110	; 0x6e
  1098cc:	d055      	beq.n	10997a <__svfiscanf_r+0x1b6>
  1098ce:	d83a      	bhi.n	109946 <__svfiscanf_r+0x182>
  1098d0:	2d69      	cmp	r5, #105	; 0x69
  1098d2:	d164      	bne.n	10999e <__svfiscanf_r+0x1da>
  1098d4:	2300      	movs	r3, #0
  1098d6:	9344      	str	r3, [sp, #272]	; 0x110
  1098d8:	e03b      	b.n	109952 <__svfiscanf_r+0x18e>
  1098da:	2d75      	cmp	r5, #117	; 0x75
  1098dc:	d031      	beq.n	109942 <__svfiscanf_r+0x17e>
  1098de:	2d78      	cmp	r5, #120	; 0x78
  1098e0:	d029      	beq.n	109936 <__svfiscanf_r+0x172>
  1098e2:	2d73      	cmp	r5, #115	; 0x73
  1098e4:	d15b      	bne.n	10999e <__svfiscanf_r+0x1da>
  1098e6:	2302      	movs	r3, #2
  1098e8:	e03f      	b.n	10996a <__svfiscanf_r+0x1a6>
  1098ea:	6863      	ldr	r3, [r4, #4]
  1098ec:	2b00      	cmp	r3, #0
  1098ee:	dd0d      	ble.n	10990c <__svfiscanf_r+0x148>
  1098f0:	6823      	ldr	r3, [r4, #0]
  1098f2:	781a      	ldrb	r2, [r3, #0]
  1098f4:	4295      	cmp	r5, r2
  1098f6:	f040 80a0 	bne.w	109a3a <__svfiscanf_r+0x276>
  1098fa:	3301      	adds	r3, #1
  1098fc:	6862      	ldr	r2, [r4, #4]
  1098fe:	6023      	str	r3, [r4, #0]
  109900:	9b47      	ldr	r3, [sp, #284]	; 0x11c
  109902:	3a01      	subs	r2, #1
  109904:	3301      	adds	r3, #1
  109906:	6062      	str	r2, [r4, #4]
  109908:	9347      	str	r3, [sp, #284]	; 0x11c
  10990a:	e79c      	b.n	109846 <__svfiscanf_r+0x82>
  10990c:	9ba3      	ldr	r3, [sp, #652]	; 0x28c
  10990e:	4621      	mov	r1, r4
  109910:	4638      	mov	r0, r7
  109912:	4798      	blx	r3
  109914:	2800      	cmp	r0, #0
  109916:	d0eb      	beq.n	1098f0 <__svfiscanf_r+0x12c>
  109918:	9846      	ldr	r0, [sp, #280]	; 0x118
  10991a:	2800      	cmp	r0, #0
  10991c:	f000 808f 	beq.w	109a3e <__svfiscanf_r+0x27a>
  109920:	89a3      	ldrh	r3, [r4, #12]
  109922:	f013 0f40 	tst.w	r3, #64	; 0x40
  109926:	bf18      	it	ne
  109928:	f04f 30ff 	movne.w	r0, #4294967295
  10992c:	e089      	b.n	109a42 <__svfiscanf_r+0x27e>
  10992e:	9b43      	ldr	r3, [sp, #268]	; 0x10c
  109930:	f043 0320 	orr.w	r3, r3, #32
  109934:	9343      	str	r3, [sp, #268]	; 0x10c
  109936:	9b43      	ldr	r3, [sp, #268]	; 0x10c
  109938:	f443 7300 	orr.w	r3, r3, #512	; 0x200
  10993c:	9343      	str	r3, [sp, #268]	; 0x10c
  10993e:	2310      	movs	r3, #16
  109940:	e002      	b.n	109948 <__svfiscanf_r+0x184>
  109942:	230a      	movs	r3, #10
  109944:	e000      	b.n	109948 <__svfiscanf_r+0x184>
  109946:	2308      	movs	r3, #8
  109948:	2d6e      	cmp	r5, #110	; 0x6e
  10994a:	9344      	str	r3, [sp, #272]	; 0x110
  10994c:	dd01      	ble.n	109952 <__svfiscanf_r+0x18e>
  10994e:	2304      	movs	r3, #4
  109950:	e00b      	b.n	10996a <__svfiscanf_r+0x1a6>
  109952:	2303      	movs	r3, #3
  109954:	e009      	b.n	10996a <__svfiscanf_r+0x1a6>
  109956:	4631      	mov	r1, r6
  109958:	4640      	mov	r0, r8
  10995a:	f000 fcbb 	bl	10a2d4 <__sccl>
  10995e:	4606      	mov	r6, r0
  109960:	9b43      	ldr	r3, [sp, #268]	; 0x10c
  109962:	f043 0340 	orr.w	r3, r3, #64	; 0x40
  109966:	9343      	str	r3, [sp, #268]	; 0x10c
  109968:	2301      	movs	r3, #1
  10996a:	9349      	str	r3, [sp, #292]	; 0x124
  10996c:	e01b      	b.n	1099a6 <__svfiscanf_r+0x1e2>
  10996e:	9b43      	ldr	r3, [sp, #268]	; 0x10c
  109970:	f043 0340 	orr.w	r3, r3, #64	; 0x40
  109974:	9343      	str	r3, [sp, #268]	; 0x10c
  109976:	2300      	movs	r3, #0
  109978:	e7f7      	b.n	10996a <__svfiscanf_r+0x1a6>
  10997a:	9a43      	ldr	r2, [sp, #268]	; 0x10c
  10997c:	06d0      	lsls	r0, r2, #27
  10997e:	f53f af62 	bmi.w	109846 <__svfiscanf_r+0x82>
  109982:	f012 0f01 	tst.w	r2, #1
  109986:	9a01      	ldr	r2, [sp, #4]
  109988:	9b47      	ldr	r3, [sp, #284]	; 0x11c
  10998a:	f102 0104 	add.w	r1, r2, #4
  10998e:	9101      	str	r1, [sp, #4]
  109990:	6812      	ldr	r2, [r2, #0]
  109992:	bf14      	ite	ne
  109994:	8013      	strhne	r3, [r2, #0]
  109996:	6013      	streq	r3, [r2, #0]
  109998:	e755      	b.n	109846 <__svfiscanf_r+0x82>
  10999a:	2305      	movs	r3, #5
  10999c:	e7e5      	b.n	10996a <__svfiscanf_r+0x1a6>
  10999e:	2303      	movs	r3, #3
  1099a0:	9349      	str	r3, [sp, #292]	; 0x124
  1099a2:	230a      	movs	r3, #10
  1099a4:	9344      	str	r3, [sp, #272]	; 0x110
  1099a6:	6863      	ldr	r3, [r4, #4]
  1099a8:	2b00      	cmp	r3, #0
  1099aa:	dd03      	ble.n	1099b4 <__svfiscanf_r+0x1f0>
  1099ac:	9b43      	ldr	r3, [sp, #268]	; 0x10c
  1099ae:	0659      	lsls	r1, r3, #25
  1099b0:	d511      	bpl.n	1099d6 <__svfiscanf_r+0x212>
  1099b2:	e018      	b.n	1099e6 <__svfiscanf_r+0x222>
  1099b4:	9ba3      	ldr	r3, [sp, #652]	; 0x28c
  1099b6:	4621      	mov	r1, r4
  1099b8:	4638      	mov	r0, r7
  1099ba:	4798      	blx	r3
  1099bc:	2800      	cmp	r0, #0
  1099be:	d0f5      	beq.n	1099ac <__svfiscanf_r+0x1e8>
  1099c0:	e7aa      	b.n	109918 <__svfiscanf_r+0x154>
  1099c2:	9a47      	ldr	r2, [sp, #284]	; 0x11c
  1099c4:	3201      	adds	r2, #1
  1099c6:	9247      	str	r2, [sp, #284]	; 0x11c
  1099c8:	6862      	ldr	r2, [r4, #4]
  1099ca:	3a01      	subs	r2, #1
  1099cc:	2a00      	cmp	r2, #0
  1099ce:	6062      	str	r2, [r4, #4]
  1099d0:	dd13      	ble.n	1099fa <__svfiscanf_r+0x236>
  1099d2:	3301      	adds	r3, #1
  1099d4:	6023      	str	r3, [r4, #0]
  1099d6:	6823      	ldr	r3, [r4, #0]
  1099d8:	f8da 1000 	ldr.w	r1, [r10]
  1099dc:	781a      	ldrb	r2, [r3, #0]
  1099de:	440a      	add	r2, r1
  1099e0:	7852      	ldrb	r2, [r2, #1]
  1099e2:	0712      	lsls	r2, r2, #28
  1099e4:	d4ed      	bmi.n	1099c2 <__svfiscanf_r+0x1fe>
  1099e6:	9b49      	ldr	r3, [sp, #292]	; 0x124
  1099e8:	2b02      	cmp	r3, #2
  1099ea:	dc0d      	bgt.n	109a08 <__svfiscanf_r+0x244>
  1099ec:	ab01      	add	r3, sp, #4
  1099ee:	4622      	mov	r2, r4
  1099f0:	a943      	add	r1, sp, #268	; 0x10c
  1099f2:	4638      	mov	r0, r7
  1099f4:	f000 fa3c 	bl	109e70 <_scanf_chars>
  1099f8:	e019      	b.n	109a2e <__svfiscanf_r+0x26a>
  1099fa:	9ba3      	ldr	r3, [sp, #652]	; 0x28c
  1099fc:	4621      	mov	r1, r4
  1099fe:	4638      	mov	r0, r7
  109a00:	4798      	blx	r3
  109a02:	2800      	cmp	r0, #0
  109a04:	d0e7      	beq.n	1099d6 <__svfiscanf_r+0x212>
  109a06:	e787      	b.n	109918 <__svfiscanf_r+0x154>
  109a08:	2b04      	cmp	r3, #4
  109a0a:	dc06      	bgt.n	109a1a <__svfiscanf_r+0x256>
  109a0c:	ab01      	add	r3, sp, #4
  109a0e:	4622      	mov	r2, r4
  109a10:	a943      	add	r1, sp, #268	; 0x10c
  109a12:	4638      	mov	r0, r7
  109a14:	f000 fa92 	bl	109f3c <_scanf_i>
  109a18:	e009      	b.n	109a2e <__svfiscanf_r+0x26a>
  109a1a:	4b0f      	ldr	r3, [pc, #60]	; (109a58 <__svfiscanf_r+0x294>)
  109a1c:	2b00      	cmp	r3, #0
  109a1e:	f43f af12 	beq.w	109846 <__svfiscanf_r+0x82>
  109a22:	ab01      	add	r3, sp, #4
  109a24:	4622      	mov	r2, r4
  109a26:	a943      	add	r1, sp, #268	; 0x10c
  109a28:	4638      	mov	r0, r7
  109a2a:	f000 f845 	bl	109ab8 <_scanf_float>
  109a2e:	2801      	cmp	r0, #1
  109a30:	d003      	beq.n	109a3a <__svfiscanf_r+0x276>
  109a32:	2802      	cmp	r0, #2
  109a34:	f47f af07 	bne.w	109846 <__svfiscanf_r+0x82>
  109a38:	e76e      	b.n	109918 <__svfiscanf_r+0x154>
  109a3a:	9846      	ldr	r0, [sp, #280]	; 0x118
  109a3c:	e001      	b.n	109a42 <__svfiscanf_r+0x27e>
  109a3e:	f04f 30ff 	mov.w	r0, #4294967295
  109a42:	f50d 7d25 	add.w	sp, sp, #660	; 0x294
  109a46:	e8bd 8ff0 	ldmia.w	sp!, {r4, r5, r6, r7, r8, r9, r10, r11, pc}
  109a4a:	bf00      	nop
  109a4c:	0010b4a5 	.word	0x0010b4a5
  109a50:	0010a159 	.word	0x0010a159
  109a54:	0010e8f2 	.word	0x0010e8f2
  109a58:	00109ab9 	.word	0x00109ab9
  109a5c:	3fff4160 	.word	0x3fff4160

00109a60 <vfiscanf>:
  109a60:	e92d 41f0 	stmdb	sp!, {r4, r5, r6, r7, r8, lr}
  109a64:	4604      	mov	r4, r0
  109a66:	4810      	ldr	r0, [pc, #64]	; (109aa8 <vfiscanf+0x48>)
  109a68:	460f      	mov	r7, r1
  109a6a:	6805      	ldr	r5, [r0, #0]
  109a6c:	4690      	mov	r8, r2
  109a6e:	4606      	mov	r6, r0
  109a70:	b125      	cbz	r5, 109a7c <vfiscanf+0x1c>
  109a72:	69ab      	ldr	r3, [r5, #24]
  109a74:	b913      	cbnz	r3, 109a7c <vfiscanf+0x1c>
  109a76:	4628      	mov	r0, r5
  109a78:	f7fe fe1a 	bl	1086b0 <__sinit>
  109a7c:	4b0b      	ldr	r3, [pc, #44]	; (109aac <vfiscanf+0x4c>)
  109a7e:	429c      	cmp	r4, r3
  109a80:	d101      	bne.n	109a86 <vfiscanf+0x26>
  109a82:	686c      	ldr	r4, [r5, #4]
  109a84:	e008      	b.n	109a98 <vfiscanf+0x38>
  109a86:	4b0a      	ldr	r3, [pc, #40]	; (109ab0 <vfiscanf+0x50>)
  109a88:	429c      	cmp	r4, r3
  109a8a:	d101      	bne.n	109a90 <vfiscanf+0x30>
  109a8c:	68ac      	ldr	r4, [r5, #8]
  109a8e:	e003      	b.n	109a98 <vfiscanf+0x38>
  109a90:	4b08      	ldr	r3, [pc, #32]	; (109ab4 <vfiscanf+0x54>)
  109a92:	429c      	cmp	r4, r3
  109a94:	bf08      	it	eq
  109a96:	68ec      	ldreq	r4, [r5, #12]
  109a98:	4643      	mov	r3, r8
  109a9a:	463a      	mov	r2, r7
  109a9c:	4621      	mov	r1, r4
  109a9e:	6830      	ldr	r0, [r6, #0]
  109aa0:	e8bd 41f0 	ldmia.w	sp!, {r4, r5, r6, r7, r8, lr}
  109aa4:	f7ff be8e 	b.w	1097c4 <__svfiscanf_r>
  109aa8:	3fff41c4 	.word	0x3fff41c4
  109aac:	0010e880 	.word	0x0010e880
  109ab0:	0010e8a0 	.word	0x0010e8a0
  109ab4:	0010e8c0 	.word	0x0010e8c0

00109ab8 <_scanf_float>:
  109ab8:	e92d 4ff0 	stmdb	sp!, {r4, r5, r6, r7, r8, r9, r10, r11, lr}
  109abc:	469a      	mov	r10, r3
  109abe:	688b      	ldr	r3, [r1, #8]
  109ac0:	4616      	mov	r6, r2
  109ac2:	1e5a      	subs	r2, r3, #1
  109ac4:	f5b2 7fae 	cmp.w	r2, #348	; 0x15c
  109ac8:	bf88      	it	hi
  109aca:	f46f 72ae 	mvnhi.w	r2, #348	; 0x15c
  109ace:	b087      	sub	sp, #28
  109ad0:	bf82      	ittt	hi
  109ad2:	189b      	addhi	r3, r3, r2
  109ad4:	9301      	strhi	r3, [sp, #4]
  109ad6:	f240 135d 	movwhi	r3, #349	; 0x15d
  109ada:	4688      	mov	r8, r1
  109adc:	bf96      	itet	ls
  109ade:	2300      	movls	r3, #0
  109ae0:	608b      	strhi	r3, [r1, #8]
  109ae2:	9301      	strls	r3, [sp, #4]
  109ae4:	680b      	ldr	r3, [r1, #0]
  109ae6:	f04f 0b00 	mov.w	r11, #0
  109aea:	f443 63f0 	orr.w	r3, r3, #1920	; 0x780
  109aee:	f848 3b1c 	str.w	r3, [r8], #28
  109af2:	4607      	mov	r7, r0
  109af4:	460c      	mov	r4, r1
  109af6:	4645      	mov	r5, r8
  109af8:	465a      	mov	r2, r11
  109afa:	46d9      	mov	r9, r11
  109afc:	f8cd b010 	str.w	r11, [sp, #16]
  109b00:	f8cd b00c 	str.w	r11, [sp, #12]
  109b04:	f8cd b008 	str.w	r11, [sp, #8]
  109b08:	68a1      	ldr	r1, [r4, #8]
  109b0a:	2900      	cmp	r1, #0
  109b0c:	f000 80e5 	beq.w	109cda <_scanf_float+0x222>
  109b10:	6833      	ldr	r3, [r6, #0]
  109b12:	781b      	ldrb	r3, [r3, #0]
  109b14:	2b49      	cmp	r3, #73	; 0x49
  109b16:	d070      	beq.n	109bfa <_scanf_float+0x142>
  109b18:	d816      	bhi.n	109b48 <_scanf_float+0x90>
  109b1a:	2b39      	cmp	r3, #57	; 0x39
  109b1c:	d80d      	bhi.n	109b3a <_scanf_float+0x82>
  109b1e:	2b31      	cmp	r3, #49	; 0x31
  109b20:	d240      	bcs.n	109ba4 <_scanf_float+0xec>
  109b22:	2b2d      	cmp	r3, #45	; 0x2d
  109b24:	d046      	beq.n	109bb4 <_scanf_float+0xfc>
  109b26:	d802      	bhi.n	109b2e <_scanf_float+0x76>
  109b28:	2b2b      	cmp	r3, #43	; 0x2b
  109b2a:	d043      	beq.n	109bb4 <_scanf_float+0xfc>
  109b2c:	e0d5      	b.n	109cda <_scanf_float+0x222>
  109b2e:	2b2e      	cmp	r3, #46	; 0x2e
  109b30:	f000 8092 	beq.w	109c58 <_scanf_float+0x1a0>
  109b34:	2b30      	cmp	r3, #48	; 0x30
  109b36:	d023      	beq.n	109b80 <_scanf_float+0xc8>
  109b38:	e0cf      	b.n	109cda <_scanf_float+0x222>
  109b3a:	2b45      	cmp	r3, #69	; 0x45
  109b3c:	f000 8095 	beq.w	109c6a <_scanf_float+0x1b2>
  109b40:	2b46      	cmp	r3, #70	; 0x46
  109b42:	d077      	beq.n	109c34 <_scanf_float+0x17c>
  109b44:	2b41      	cmp	r3, #65	; 0x41
  109b46:	e00c      	b.n	109b62 <_scanf_float+0xaa>
  109b48:	2b65      	cmp	r3, #101	; 0x65
  109b4a:	f000 808e 	beq.w	109c6a <_scanf_float+0x1b2>
  109b4e:	d80a      	bhi.n	109b66 <_scanf_float+0xae>
  109b50:	2b54      	cmp	r3, #84	; 0x54
  109b52:	d075      	beq.n	109c40 <_scanf_float+0x188>
  109b54:	d802      	bhi.n	109b5c <_scanf_float+0xa4>
  109b56:	2b4e      	cmp	r3, #78	; 0x4e
  109b58:	d034      	beq.n	109bc4 <_scanf_float+0x10c>
  109b5a:	e0be      	b.n	109cda <_scanf_float+0x222>
  109b5c:	2b59      	cmp	r3, #89	; 0x59
  109b5e:	d075      	beq.n	109c4c <_scanf_float+0x194>
  109b60:	2b61      	cmp	r3, #97	; 0x61
  109b62:	d046      	beq.n	109bf2 <_scanf_float+0x13a>
  109b64:	e0b9      	b.n	109cda <_scanf_float+0x222>
  109b66:	2b6e      	cmp	r3, #110	; 0x6e
  109b68:	d02c      	beq.n	109bc4 <_scanf_float+0x10c>
  109b6a:	d804      	bhi.n	109b76 <_scanf_float+0xbe>
  109b6c:	2b66      	cmp	r3, #102	; 0x66
  109b6e:	d061      	beq.n	109c34 <_scanf_float+0x17c>
  109b70:	2b69      	cmp	r3, #105	; 0x69
  109b72:	d042      	beq.n	109bfa <_scanf_float+0x142>
  109b74:	e0b1      	b.n	109cda <_scanf_float+0x222>
  109b76:	2b74      	cmp	r3, #116	; 0x74
  109b78:	d062      	beq.n	109c40 <_scanf_float+0x188>
  109b7a:	2b79      	cmp	r3, #121	; 0x79
  109b7c:	d066      	beq.n	109c4c <_scanf_float+0x194>
  109b7e:	e0ac      	b.n	109cda <_scanf_float+0x222>
  109b80:	6820      	ldr	r0, [r4, #0]
  109b82:	f410 7f80 	tst.w	r0, #256	; 0x100
  109b86:	d00d      	beq.n	109ba4 <_scanf_float+0xec>
  109b88:	9b01      	ldr	r3, [sp, #4]
  109b8a:	f020 0080 	bic.w	r0, r0, #128	; 0x80
  109b8e:	6020      	str	r0, [r4, #0]
  109b90:	f109 0901 	add.w	r9, r9, #1
  109b94:	2b00      	cmp	r3, #0
  109b96:	f000 8087 	beq.w	109ca8 <_scanf_float+0x1f0>
  109b9a:	3b01      	subs	r3, #1
  109b9c:	3101      	adds	r1, #1
  109b9e:	9301      	str	r3, [sp, #4]
  109ba0:	60a1      	str	r1, [r4, #8]
  109ba2:	e081      	b.n	109ca8 <_scanf_float+0x1f0>
  109ba4:	eb12 0f0b 	cmn.w	r2, r11
  109ba8:	f040 8097 	bne.w	109cda <_scanf_float+0x222>
  109bac:	6821      	ldr	r1, [r4, #0]
  109bae:	f421 71c0 	bic.w	r1, r1, #384	; 0x180
  109bb2:	e005      	b.n	109bc0 <_scanf_float+0x108>
  109bb4:	6821      	ldr	r1, [r4, #0]
  109bb6:	0608      	lsls	r0, r1, #24
  109bb8:	f140 808f 	bpl.w	109cda <_scanf_float+0x222>
  109bbc:	f021 0180 	bic.w	r1, r1, #128	; 0x80
  109bc0:	6021      	str	r1, [r4, #0]
  109bc2:	e06f      	b.n	109ca4 <_scanf_float+0x1ec>
  109bc4:	b96a      	cbnz	r2, 109be2 <_scanf_float+0x12a>
  109bc6:	f1b9 0f00 	cmp.w	r9, #0
  109bca:	d10c      	bne.n	109be6 <_scanf_float+0x12e>
  109bcc:	6821      	ldr	r1, [r4, #0]
  109bce:	f401 60e0 	and.w	r0, r1, #1792	; 0x700
  109bd2:	f5b0 6fe0 	cmp.w	r0, #1792	; 0x700
  109bd6:	d106      	bne.n	109be6 <_scanf_float+0x12e>
  109bd8:	f421 61f0 	bic.w	r1, r1, #1920	; 0x780
  109bdc:	6021      	str	r1, [r4, #0]
  109bde:	2201      	movs	r2, #1
  109be0:	e060      	b.n	109ca4 <_scanf_float+0x1ec>
  109be2:	2a02      	cmp	r2, #2
  109be4:	d05d      	beq.n	109ca2 <_scanf_float+0x1ea>
  109be6:	f1bb 0f01 	cmp.w	r11, #1
  109bea:	d01e      	beq.n	109c2a <_scanf_float+0x172>
  109bec:	f1bb 0f04 	cmp.w	r11, #4
  109bf0:	e01a      	b.n	109c28 <_scanf_float+0x170>
  109bf2:	2a01      	cmp	r2, #1
  109bf4:	d171      	bne.n	109cda <_scanf_float+0x222>
  109bf6:	2202      	movs	r2, #2
  109bf8:	e054      	b.n	109ca4 <_scanf_float+0x1ec>
  109bfa:	f1bb 0f00 	cmp.w	r11, #0
  109bfe:	d10e      	bne.n	109c1e <_scanf_float+0x166>
  109c00:	f1b9 0f00 	cmp.w	r9, #0
  109c04:	d16c      	bne.n	109ce0 <_scanf_float+0x228>
  109c06:	6821      	ldr	r1, [r4, #0]
  109c08:	f401 60e0 	and.w	r0, r1, #1792	; 0x700
  109c0c:	f5b0 6fe0 	cmp.w	r0, #1792	; 0x700
  109c10:	d16a      	bne.n	109ce8 <_scanf_float+0x230>
  109c12:	f421 61f0 	bic.w	r1, r1, #1920	; 0x780
  109c16:	6021      	str	r1, [r4, #0]
  109c18:	f04f 0b01 	mov.w	r11, #1
  109c1c:	e042      	b.n	109ca4 <_scanf_float+0x1ec>
  109c1e:	f1bb 0f03 	cmp.w	r11, #3
  109c22:	d002      	beq.n	109c2a <_scanf_float+0x172>
  109c24:	f1bb 0f05 	cmp.w	r11, #5
  109c28:	d157      	bne.n	109cda <_scanf_float+0x222>
  109c2a:	f10b 0b01 	add.w	r11, r11, #1
  109c2e:	fa5f fb8b 	uxtb.w	r11, r11
  109c32:	e037      	b.n	109ca4 <_scanf_float+0x1ec>
  109c34:	f1bb 0f02 	cmp.w	r11, #2
  109c38:	d14f      	bne.n	109cda <_scanf_float+0x222>
  109c3a:	f04f 0b03 	mov.w	r11, #3
  109c3e:	e031      	b.n	109ca4 <_scanf_float+0x1ec>
  109c40:	f1bb 0f06 	cmp.w	r11, #6
  109c44:	d149      	bne.n	109cda <_scanf_float+0x222>
  109c46:	f04f 0b07 	mov.w	r11, #7
  109c4a:	e02b      	b.n	109ca4 <_scanf_float+0x1ec>
  109c4c:	f1bb 0f07 	cmp.w	r11, #7
  109c50:	d143      	bne.n	109cda <_scanf_float+0x222>
  109c52:	f04f 0b08 	mov.w	r11, #8
  109c56:	e025      	b.n	109ca4 <_scanf_float+0x1ec>
  109c58:	6821      	ldr	r1, [r4, #0]
  109c5a:	0588      	lsls	r0, r1, #22
  109c5c:	d53d      	bpl.n	109cda <_scanf_float+0x222>
  109c5e:	f421 7120 	bic.w	r1, r1, #640	; 0x280
  109c62:	6021      	str	r1, [r4, #0]
  109c64:	f8cd 9008 	str.w	r9, [sp, #8]
  109c68:	e01c      	b.n	109ca4 <_scanf_float+0x1ec>
  109c6a:	6821      	ldr	r1, [r4, #0]
  109c6c:	f401 60a0 	and.w	r0, r1, #1280	; 0x500
  109c70:	f5b0 6f80 	cmp.w	r0, #1024	; 0x400
  109c74:	d004      	beq.n	109c80 <_scanf_float+0x1c8>
  109c76:	0548      	lsls	r0, r1, #21
  109c78:	d52f      	bpl.n	109cda <_scanf_float+0x222>
  109c7a:	f1b9 0f00 	cmp.w	r9, #0
  109c7e:	d033      	beq.n	109ce8 <_scanf_float+0x230>
  109c80:	0588      	lsls	r0, r1, #22
  109c82:	bf58      	it	pl
  109c84:	9802      	ldrpl	r0, [sp, #8]
  109c86:	f421 61f0 	bic.w	r1, r1, #1920	; 0x780
  109c8a:	bf58      	it	pl
  109c8c:	ebc0 0009 	rsbpl	r0, r0, r9
  109c90:	f441 71c0 	orr.w	r1, r1, #384	; 0x180
  109c94:	bf5c      	itt	pl
  109c96:	9003      	strpl	r0, [sp, #12]
  109c98:	9504      	strpl	r5, [sp, #16]
  109c9a:	6021      	str	r1, [r4, #0]
  109c9c:	f04f 0900 	mov.w	r9, #0
  109ca0:	e000      	b.n	109ca4 <_scanf_float+0x1ec>
  109ca2:	2203      	movs	r2, #3
  109ca4:	702b      	strb	r3, [r5, #0]
  109ca6:	3501      	adds	r5, #1
  109ca8:	68a3      	ldr	r3, [r4, #8]
  109caa:	3b01      	subs	r3, #1
  109cac:	60a3      	str	r3, [r4, #8]
  109cae:	6923      	ldr	r3, [r4, #16]
  109cb0:	3301      	adds	r3, #1
  109cb2:	6123      	str	r3, [r4, #16]
  109cb4:	6873      	ldr	r3, [r6, #4]
  109cb6:	3b01      	subs	r3, #1
  109cb8:	2b00      	cmp	r3, #0
  109cba:	6073      	str	r3, [r6, #4]
  109cbc:	dd03      	ble.n	109cc6 <_scanf_float+0x20e>
  109cbe:	6833      	ldr	r3, [r6, #0]
  109cc0:	3301      	adds	r3, #1
  109cc2:	6033      	str	r3, [r6, #0]
  109cc4:	e720      	b.n	109b08 <_scanf_float+0x50>
  109cc6:	f8d4 3180 	ldr.w	r3, [r4, #384]	; 0x180
  109cca:	4631      	mov	r1, r6
  109ccc:	4638      	mov	r0, r7
  109cce:	9205      	str	r2, [sp, #20]
  109cd0:	4798      	blx	r3
  109cd2:	9a05      	ldr	r2, [sp, #20]
  109cd4:	2800      	cmp	r0, #0
  109cd6:	f43f af17 	beq.w	109b08 <_scanf_float+0x50>
  109cda:	f1b9 0f00 	cmp.w	r9, #0
  109cde:	d003      	beq.n	109ce8 <_scanf_float+0x230>
  109ce0:	6823      	ldr	r3, [r4, #0]
  109ce2:	f423 7380 	bic.w	r3, r3, #256	; 0x100
  109ce6:	6023      	str	r3, [r4, #0]
  109ce8:	3a01      	subs	r2, #1
  109cea:	2a01      	cmp	r2, #1
  109cec:	d80e      	bhi.n	109d0c <_scanf_float+0x254>
  109cee:	4545      	cmp	r5, r8
  109cf0:	d90a      	bls.n	109d08 <_scanf_float+0x250>
  109cf2:	f8d4 317c 	ldr.w	r3, [r4, #380]	; 0x17c
  109cf6:	4632      	mov	r2, r6
  109cf8:	f815 1d01 	ldrb.w	r1, [r5, #-1]!
  109cfc:	4638      	mov	r0, r7
  109cfe:	4798      	blx	r3
  109d00:	6923      	ldr	r3, [r4, #16]
  109d02:	3b01      	subs	r3, #1
  109d04:	6123      	str	r3, [r4, #16]
  109d06:	e7f2      	b.n	109cee <_scanf_float+0x236>
  109d08:	2601      	movs	r6, #1
  109d0a:	e0aa      	b.n	109e62 <_scanf_float+0x3aa>
  109d0c:	f10b 33ff 	add.w	r3, r11, #4294967295
  109d10:	2b06      	cmp	r3, #6
  109d12:	d822      	bhi.n	109d5a <_scanf_float+0x2a2>
  109d14:	f1bb 0f02 	cmp.w	r11, #2
  109d18:	d912      	bls.n	109d40 <_scanf_float+0x288>
  109d1a:	f1ab 0b03 	sub.w	r11, r11, #3
  109d1e:	fa5f fb8b 	uxtb.w	r11, r11
  109d22:	ebcb 0b05 	rsb	r11, r11, r5
  109d26:	455d      	cmp	r5, r11
  109d28:	d017      	beq.n	109d5a <_scanf_float+0x2a2>
  109d2a:	f8d4 317c 	ldr.w	r3, [r4, #380]	; 0x17c
  109d2e:	4632      	mov	r2, r6
  109d30:	f815 1d01 	ldrb.w	r1, [r5, #-1]!
  109d34:	4638      	mov	r0, r7
  109d36:	4798      	blx	r3
  109d38:	6923      	ldr	r3, [r4, #16]
  109d3a:	3b01      	subs	r3, #1
  109d3c:	6123      	str	r3, [r4, #16]
  109d3e:	e7f2      	b.n	109d26 <_scanf_float+0x26e>
  109d40:	4545      	cmp	r5, r8
  109d42:	d9e1      	bls.n	109d08 <_scanf_float+0x250>
  109d44:	f8d4 317c 	ldr.w	r3, [r4, #380]	; 0x17c
  109d48:	4632      	mov	r2, r6
  109d4a:	f815 1d01 	ldrb.w	r1, [r5, #-1]!
  109d4e:	4638      	mov	r0, r7
  109d50:	4798      	blx	r3
  109d52:	6923      	ldr	r3, [r4, #16]
  109d54:	3b01      	subs	r3, #1
  109d56:	6123      	str	r3, [r4, #16]
  109d58:	e7f2      	b.n	109d40 <_scanf_float+0x288>
  109d5a:	6823      	ldr	r3, [r4, #0]
  109d5c:	05da      	lsls	r2, r3, #23
  109d5e:	d52c      	bpl.n	109dba <_scanf_float+0x302>
  109d60:	055b      	lsls	r3, r3, #21
  109d62:	d50c      	bpl.n	109d7e <_scanf_float+0x2c6>
  109d64:	4545      	cmp	r5, r8
  109d66:	d9cf      	bls.n	109d08 <_scanf_float+0x250>
  109d68:	f8d4 317c 	ldr.w	r3, [r4, #380]	; 0x17c
  109d6c:	4632      	mov	r2, r6
  109d6e:	f815 1d01 	ldrb.w	r1, [r5, #-1]!
  109d72:	4638      	mov	r0, r7
  109d74:	4798      	blx	r3
  109d76:	6923      	ldr	r3, [r4, #16]
  109d78:	3b01      	subs	r3, #1
  109d7a:	6123      	str	r3, [r4, #16]
  109d7c:	e7f2      	b.n	109d64 <_scanf_float+0x2ac>
  109d7e:	f815 1c01 	ldrb.w	r1, [r5, #-1]
  109d82:	6923      	ldr	r3, [r4, #16]
  109d84:	2965      	cmp	r1, #101	; 0x65
  109d86:	f103 33ff 	add.w	r3, r3, #4294967295
  109d8a:	f105 3bff 	add.w	r11, r5, #4294967295
  109d8e:	6123      	str	r3, [r4, #16]
  109d90:	d00d      	beq.n	109dae <_scanf_float+0x2f6>
  109d92:	2945      	cmp	r1, #69	; 0x45
  109d94:	d00b      	beq.n	109dae <_scanf_float+0x2f6>
  109d96:	f8d4 317c 	ldr.w	r3, [r4, #380]	; 0x17c
  109d9a:	4632      	mov	r2, r6
  109d9c:	4638      	mov	r0, r7
  109d9e:	4798      	blx	r3
  109da0:	6923      	ldr	r3, [r4, #16]
  109da2:	f815 1c02 	ldrb.w	r1, [r5, #-2]
  109da6:	3b01      	subs	r3, #1
  109da8:	f1a5 0b02 	sub.w	r11, r5, #2
  109dac:	6123      	str	r3, [r4, #16]
  109dae:	f8d4 317c 	ldr.w	r3, [r4, #380]	; 0x17c
  109db2:	4632      	mov	r2, r6
  109db4:	4638      	mov	r0, r7
  109db6:	4798      	blx	r3
  109db8:	465d      	mov	r5, r11
  109dba:	6826      	ldr	r6, [r4, #0]
  109dbc:	f016 0610 	ands.w	r6, r6, #16
  109dc0:	d14e      	bne.n	109e60 <_scanf_float+0x3a8>
  109dc2:	702e      	strb	r6, [r5, #0]
  109dc4:	6823      	ldr	r3, [r4, #0]
  109dc6:	f403 63c0 	and.w	r3, r3, #1536	; 0x600
  109dca:	f5b3 6f80 	cmp.w	r3, #1024	; 0x400
  109dce:	d105      	bne.n	109ddc <_scanf_float+0x324>
  109dd0:	9b02      	ldr	r3, [sp, #8]
  109dd2:	ebc3 0309 	rsb	r3, r3, r9
  109dd6:	425a      	negs	r2, r3
  109dd8:	b963      	cbnz	r3, 109df4 <_scanf_float+0x33c>
  109dda:	e015      	b.n	109e08 <_scanf_float+0x350>
  109ddc:	9b03      	ldr	r3, [sp, #12]
  109dde:	b19b      	cbz	r3, 109e08 <_scanf_float+0x350>
  109de0:	9904      	ldr	r1, [sp, #16]
  109de2:	230a      	movs	r3, #10
  109de4:	4632      	mov	r2, r6
  109de6:	3101      	adds	r1, #1
  109de8:	4638      	mov	r0, r7
  109dea:	f001 fa1d 	bl	10b228 <_strtol_r>
  109dee:	9b03      	ldr	r3, [sp, #12]
  109df0:	9d04      	ldr	r5, [sp, #16]
  109df2:	1ac2      	subs	r2, r0, r3
  109df4:	f204 136f 	addw	r3, r4, #367	; 0x16f
  109df8:	429d      	cmp	r5, r3
  109dfa:	bf28      	it	cs
  109dfc:	f504 75b7 	addcs.w	r5, r4, #366	; 0x16e
  109e00:	491a      	ldr	r1, [pc, #104]	; (109e6c <_scanf_float+0x3b4>)
  109e02:	4628      	mov	r0, r5
  109e04:	f000 fb2a 	bl	10a45c <siprintf>
  109e08:	2200      	movs	r2, #0
  109e0a:	4641      	mov	r1, r8
  109e0c:	4638      	mov	r0, r7
  109e0e:	f000 fc0b 	bl	10a628 <_strtod_r>
  109e12:	6822      	ldr	r2, [r4, #0]
  109e14:	4680      	mov	r8, r0
  109e16:	f012 0f02 	tst.w	r2, #2
  109e1a:	4689      	mov	r9, r1
  109e1c:	f8da 3000 	ldr.w	r3, [r10]
  109e20:	d003      	beq.n	109e2a <_scanf_float+0x372>
  109e22:	1d1a      	adds	r2, r3, #4
  109e24:	f8ca 2000 	str.w	r2, [r10]
  109e28:	e006      	b.n	109e38 <_scanf_float+0x380>
  109e2a:	f012 0f04 	tst.w	r2, #4
  109e2e:	f103 0204 	add.w	r2, r3, #4
  109e32:	f8ca 2000 	str.w	r2, [r10]
  109e36:	d003      	beq.n	109e40 <_scanf_float+0x388>
  109e38:	681b      	ldr	r3, [r3, #0]
  109e3a:	e9c3 8900 	strd	r8, r9, [r3]
  109e3e:	e00b      	b.n	109e58 <_scanf_float+0x3a0>
  109e40:	681d      	ldr	r5, [r3, #0]
  109e42:	f000 fa0f 	bl	10a264 <__fpclassifyd>
  109e46:	b910      	cbnz	r0, 109e4e <_scanf_float+0x396>
  109e48:	f000 fb04 	bl	10a454 <nanf>
  109e4c:	e003      	b.n	109e56 <_scanf_float+0x39e>
  109e4e:	4640      	mov	r0, r8
  109e50:	4649      	mov	r1, r9
  109e52:	f003 fd7d 	bl	10d950 <__aeabi_d2f>
  109e56:	6028      	str	r0, [r5, #0]
  109e58:	68e3      	ldr	r3, [r4, #12]
  109e5a:	3301      	adds	r3, #1
  109e5c:	60e3      	str	r3, [r4, #12]
  109e5e:	e000      	b.n	109e62 <_scanf_float+0x3aa>
  109e60:	2600      	movs	r6, #0
  109e62:	4630      	mov	r0, r6
  109e64:	b007      	add	sp, #28
  109e66:	e8bd 8ff0 	ldmia.w	sp!, {r4, r5, r6, r7, r8, r9, r10, r11, pc}
  109e6a:	bf00      	nop
  109e6c:	0010e92f 	.word	0x0010e92f

00109e70 <_scanf_chars>:
  109e70:	e92d 43f8 	stmdb	sp!, {r3, r4, r5, r6, r7, r8, r9, lr}
  109e74:	4615      	mov	r5, r2
  109e76:	688a      	ldr	r2, [r1, #8]
  109e78:	4680      	mov	r8, r0
  109e7a:	460c      	mov	r4, r1
  109e7c:	b932      	cbnz	r2, 109e8c <_scanf_chars+0x1c>
  109e7e:	698a      	ldr	r2, [r1, #24]
  109e80:	2a00      	cmp	r2, #0
  109e82:	bf0c      	ite	eq
  109e84:	2201      	moveq	r2, #1
  109e86:	f04f 32ff 	movne.w	r2, #4294967295
  109e8a:	608a      	str	r2, [r1, #8]
  109e8c:	6822      	ldr	r2, [r4, #0]
  109e8e:	f8df 90a8 	ldr.w	r9, [pc, #168]	; 109f38 <_scanf_chars+0xc8>
  109e92:	06d1      	lsls	r1, r2, #27
  109e94:	bf58      	it	pl
  109e96:	681a      	ldrpl	r2, [r3, #0]
  109e98:	f04f 0600 	mov.w	r6, #0
  109e9c:	bf5e      	ittt	pl
  109e9e:	1d11      	addpl	r1, r2, #4
  109ea0:	6019      	strpl	r1, [r3, #0]
  109ea2:	6817      	ldrpl	r7, [r2, #0]
  109ea4:	69a0      	ldr	r0, [r4, #24]
  109ea6:	b9f8      	cbnz	r0, 109ee8 <_scanf_chars+0x78>
  109ea8:	6823      	ldr	r3, [r4, #0]
  109eaa:	3601      	adds	r6, #1
  109eac:	06da      	lsls	r2, r3, #27
  109eae:	bf5e      	ittt	pl
  109eb0:	682b      	ldrpl	r3, [r5, #0]
  109eb2:	781b      	ldrbpl	r3, [r3, #0]
  109eb4:	703b      	strbpl	r3, [r7, #0]
  109eb6:	682a      	ldr	r2, [r5, #0]
  109eb8:	686b      	ldr	r3, [r5, #4]
  109eba:	f102 0201 	add.w	r2, r2, #1
  109ebe:	602a      	str	r2, [r5, #0]
  109ec0:	68a2      	ldr	r2, [r4, #8]
  109ec2:	f103 33ff 	add.w	r3, r3, #4294967295
  109ec6:	f102 32ff 	add.w	r2, r2, #4294967295
  109eca:	606b      	str	r3, [r5, #4]
  109ecc:	bf58      	it	pl
  109ece:	3701      	addpl	r7, #1
  109ed0:	60a2      	str	r2, [r4, #8]
  109ed2:	b1e2      	cbz	r2, 109f0e <_scanf_chars+0x9e>
  109ed4:	2b00      	cmp	r3, #0
  109ed6:	dce5      	bgt.n	109ea4 <_scanf_chars+0x34>
  109ed8:	f8d4 3180 	ldr.w	r3, [r4, #384]	; 0x180
  109edc:	4629      	mov	r1, r5
  109ede:	4640      	mov	r0, r8
  109ee0:	4798      	blx	r3
  109ee2:	2800      	cmp	r0, #0
  109ee4:	d0de      	beq.n	109ea4 <_scanf_chars+0x34>
  109ee6:	e012      	b.n	109f0e <_scanf_chars+0x9e>
  109ee8:	2801      	cmp	r0, #1
  109eea:	d106      	bne.n	109efa <_scanf_chars+0x8a>
  109eec:	682b      	ldr	r3, [r5, #0]
  109eee:	781a      	ldrb	r2, [r3, #0]
  109ef0:	6963      	ldr	r3, [r4, #20]
  109ef2:	5c9b      	ldrb	r3, [r3, r2]
  109ef4:	2b00      	cmp	r3, #0
  109ef6:	d1d7      	bne.n	109ea8 <_scanf_chars+0x38>
  109ef8:	e019      	b.n	109f2e <_scanf_chars+0xbe>
  109efa:	2802      	cmp	r0, #2
  109efc:	d107      	bne.n	109f0e <_scanf_chars+0x9e>
  109efe:	682b      	ldr	r3, [r5, #0]
  109f00:	f8d9 2000 	ldr.w	r2, [r9]
  109f04:	781b      	ldrb	r3, [r3, #0]
  109f06:	4413      	add	r3, r2
  109f08:	785b      	ldrb	r3, [r3, #1]
  109f0a:	071b      	lsls	r3, r3, #28
  109f0c:	d5cc      	bpl.n	109ea8 <_scanf_chars+0x38>
  109f0e:	6823      	ldr	r3, [r4, #0]
  109f10:	f013 0310 	ands.w	r3, r3, #16
  109f14:	d105      	bne.n	109f22 <_scanf_chars+0xb2>
  109f16:	68e2      	ldr	r2, [r4, #12]
  109f18:	3201      	adds	r2, #1
  109f1a:	60e2      	str	r2, [r4, #12]
  109f1c:	69a2      	ldr	r2, [r4, #24]
  109f1e:	b102      	cbz	r2, 109f22 <_scanf_chars+0xb2>
  109f20:	703b      	strb	r3, [r7, #0]
  109f22:	6923      	ldr	r3, [r4, #16]
  109f24:	2000      	movs	r0, #0
  109f26:	441e      	add	r6, r3
  109f28:	6126      	str	r6, [r4, #16]
  109f2a:	e8bd 83f8 	ldmia.w	sp!, {r3, r4, r5, r6, r7, r8, r9, pc}
  109f2e:	2e00      	cmp	r6, #0
  109f30:	d1ed      	bne.n	109f0e <_scanf_chars+0x9e>
  109f32:	e8bd 83f8 	ldmia.w	sp!, {r3, r4, r5, r6, r7, r8, r9, pc}
  109f36:	bf00      	nop
  109f38:	3fff4160 	.word	0x3fff4160

00109f3c <_scanf_i>:
  109f3c:	e92d 4ff0 	stmdb	sp!, {r4, r5, r6, r7, r8, r9, r10, r11, lr}
  109f40:	460c      	mov	r4, r1
  109f42:	469a      	mov	r10, r3
  109f44:	4b72      	ldr	r3, [pc, #456]	; (10a110 <_scanf_i+0x1d4>)
  109f46:	b087      	sub	sp, #28
  109f48:	4683      	mov	r11, r0
  109f4a:	4616      	mov	r6, r2
  109f4c:	e893 0007 	ldmia.w	r3, {r0, r1, r2}
  109f50:	ab03      	add	r3, sp, #12
  109f52:	68a7      	ldr	r7, [r4, #8]
  109f54:	e883 0007 	stmia.w	r3, {r0, r1, r2}
  109f58:	4b6e      	ldr	r3, [pc, #440]	; (10a114 <_scanf_i+0x1d8>)
  109f5a:	69a1      	ldr	r1, [r4, #24]
  109f5c:	4a6e      	ldr	r2, [pc, #440]	; (10a118 <_scanf_i+0x1dc>)
  109f5e:	f104 091c 	add.w	r9, r4, #28
  109f62:	2903      	cmp	r1, #3
  109f64:	bf18      	it	ne
  109f66:	461a      	movne	r2, r3
  109f68:	1e7b      	subs	r3, r7, #1
  109f6a:	f5b3 7fae 	cmp.w	r3, #348	; 0x15c
  109f6e:	bf84      	itt	hi
  109f70:	f240 135d 	movwhi	r3, #349	; 0x15d
  109f74:	60a3      	strhi	r3, [r4, #8]
  109f76:	6823      	ldr	r3, [r4, #0]
  109f78:	bf88      	it	hi
  109f7a:	f46f 75ae 	mvnhi.w	r5, #348	; 0x15c
  109f7e:	f443 6350 	orr.w	r3, r3, #3328	; 0xd00
  109f82:	6023      	str	r3, [r4, #0]
  109f84:	464b      	mov	r3, r9
  109f86:	9200      	str	r2, [sp, #0]
  109f88:	bf8c      	ite	hi
  109f8a:	197f      	addhi	r7, r7, r5
  109f8c:	2700      	movls	r7, #0
  109f8e:	f04f 0800 	mov.w	r8, #0
  109f92:	6831      	ldr	r1, [r6, #0]
  109f94:	9301      	str	r3, [sp, #4]
  109f96:	ab03      	add	r3, sp, #12
  109f98:	f853 0028 	ldr.w	r0, [r3, r8, lsl #2]
  109f9c:	2202      	movs	r2, #2
  109f9e:	7809      	ldrb	r1, [r1, #0]
  109fa0:	f7fe fd8a 	bl	108ab8 <memchr>
  109fa4:	9b01      	ldr	r3, [sp, #4]
  109fa6:	2800      	cmp	r0, #0
  109fa8:	d033      	beq.n	10a012 <_scanf_i+0xd6>
  109faa:	f1b8 0f01 	cmp.w	r8, #1
  109fae:	d10b      	bne.n	109fc8 <_scanf_i+0x8c>
  109fb0:	6862      	ldr	r2, [r4, #4]
  109fb2:	b92a      	cbnz	r2, 109fc0 <_scanf_i+0x84>
  109fb4:	2208      	movs	r2, #8
  109fb6:	6062      	str	r2, [r4, #4]
  109fb8:	6822      	ldr	r2, [r4, #0]
  109fba:	f442 7200 	orr.w	r2, r2, #512	; 0x200
  109fbe:	6022      	str	r2, [r4, #0]
  109fc0:	6822      	ldr	r2, [r4, #0]
  109fc2:	f422 62a0 	bic.w	r2, r2, #1280	; 0x500
  109fc6:	e00c      	b.n	109fe2 <_scanf_i+0xa6>
  109fc8:	f1b8 0f02 	cmp.w	r8, #2
  109fcc:	d10a      	bne.n	109fe4 <_scanf_i+0xa8>
  109fce:	6822      	ldr	r2, [r4, #0]
  109fd0:	f402 61c0 	and.w	r1, r2, #1536	; 0x600
  109fd4:	f5b1 7f00 	cmp.w	r1, #512	; 0x200
  109fd8:	d11b      	bne.n	10a012 <_scanf_i+0xd6>
  109fda:	2110      	movs	r1, #16
  109fdc:	6061      	str	r1, [r4, #4]
  109fde:	f442 7280 	orr.w	r2, r2, #256	; 0x100
  109fe2:	6022      	str	r2, [r4, #0]
  109fe4:	68a2      	ldr	r2, [r4, #8]
  109fe6:	1e51      	subs	r1, r2, #1
  109fe8:	60a1      	str	r1, [r4, #8]
  109fea:	b192      	cbz	r2, 10a012 <_scanf_i+0xd6>
  109fec:	6832      	ldr	r2, [r6, #0]
  109fee:	1c5d      	adds	r5, r3, #1
  109ff0:	1c51      	adds	r1, r2, #1
  109ff2:	6031      	str	r1, [r6, #0]
  109ff4:	7812      	ldrb	r2, [r2, #0]
  109ff6:	701a      	strb	r2, [r3, #0]
  109ff8:	6873      	ldr	r3, [r6, #4]
  109ffa:	3b01      	subs	r3, #1
  109ffc:	2b00      	cmp	r3, #0
  109ffe:	6073      	str	r3, [r6, #4]
  10a000:	dc06      	bgt.n	10a010 <_scanf_i+0xd4>
  10a002:	f8d4 3180 	ldr.w	r3, [r4, #384]	; 0x180
  10a006:	4631      	mov	r1, r6
  10a008:	4658      	mov	r0, r11
  10a00a:	4798      	blx	r3
  10a00c:	2800      	cmp	r0, #0
  10a00e:	d141      	bne.n	10a094 <_scanf_i+0x158>
  10a010:	462b      	mov	r3, r5
  10a012:	f108 0801 	add.w	r8, r8, #1
  10a016:	f1b8 0f03 	cmp.w	r8, #3
  10a01a:	d1ba      	bne.n	109f92 <_scanf_i+0x56>
  10a01c:	6862      	ldr	r2, [r4, #4]
  10a01e:	b90a      	cbnz	r2, 10a024 <_scanf_i+0xe8>
  10a020:	220a      	movs	r2, #10
  10a022:	6062      	str	r2, [r4, #4]
  10a024:	6862      	ldr	r2, [r4, #4]
  10a026:	493d      	ldr	r1, [pc, #244]	; (10a11c <_scanf_i+0x1e0>)
  10a028:	6960      	ldr	r0, [r4, #20]
  10a02a:	1a89      	subs	r1, r1, r2
  10a02c:	9301      	str	r3, [sp, #4]
  10a02e:	f000 f951 	bl	10a2d4 <__sccl>
  10a032:	9b01      	ldr	r3, [sp, #4]
  10a034:	f04f 0800 	mov.w	r8, #0
  10a038:	461d      	mov	r5, r3
  10a03a:	68a3      	ldr	r3, [r4, #8]
  10a03c:	b363      	cbz	r3, 10a098 <_scanf_i+0x15c>
  10a03e:	6831      	ldr	r1, [r6, #0]
  10a040:	6960      	ldr	r0, [r4, #20]
  10a042:	780a      	ldrb	r2, [r1, #0]
  10a044:	5c80      	ldrb	r0, [r0, r2]
  10a046:	b338      	cbz	r0, 10a098 <_scanf_i+0x15c>
  10a048:	2a30      	cmp	r2, #48	; 0x30
  10a04a:	6822      	ldr	r2, [r4, #0]
  10a04c:	d108      	bne.n	10a060 <_scanf_i+0x124>
  10a04e:	0510      	lsls	r0, r2, #20
  10a050:	d506      	bpl.n	10a060 <_scanf_i+0x124>
  10a052:	f108 0801 	add.w	r8, r8, #1
  10a056:	b157      	cbz	r7, 10a06e <_scanf_i+0x132>
  10a058:	3301      	adds	r3, #1
  10a05a:	3f01      	subs	r7, #1
  10a05c:	60a3      	str	r3, [r4, #8]
  10a05e:	e006      	b.n	10a06e <_scanf_i+0x132>
  10a060:	f422 6210 	bic.w	r2, r2, #2304	; 0x900
  10a064:	6022      	str	r2, [r4, #0]
  10a066:	780b      	ldrb	r3, [r1, #0]
  10a068:	3501      	adds	r5, #1
  10a06a:	f805 3c01 	strb.w	r3, [r5, #-1]
  10a06e:	6873      	ldr	r3, [r6, #4]
  10a070:	3b01      	subs	r3, #1
  10a072:	2b00      	cmp	r3, #0
  10a074:	6073      	str	r3, [r6, #4]
  10a076:	dd03      	ble.n	10a080 <_scanf_i+0x144>
  10a078:	6833      	ldr	r3, [r6, #0]
  10a07a:	3301      	adds	r3, #1
  10a07c:	6033      	str	r3, [r6, #0]
  10a07e:	e005      	b.n	10a08c <_scanf_i+0x150>
  10a080:	f8d4 3180 	ldr.w	r3, [r4, #384]	; 0x180
  10a084:	4631      	mov	r1, r6
  10a086:	4658      	mov	r0, r11
  10a088:	4798      	blx	r3
  10a08a:	b928      	cbnz	r0, 10a098 <_scanf_i+0x15c>
  10a08c:	68a3      	ldr	r3, [r4, #8]
  10a08e:	3b01      	subs	r3, #1
  10a090:	60a3      	str	r3, [r4, #8]
  10a092:	e7d2      	b.n	10a03a <_scanf_i+0xfe>
  10a094:	f04f 0800 	mov.w	r8, #0
  10a098:	6823      	ldr	r3, [r4, #0]
  10a09a:	05d9      	lsls	r1, r3, #23
  10a09c:	d50c      	bpl.n	10a0b8 <_scanf_i+0x17c>
  10a09e:	454d      	cmp	r5, r9
  10a0a0:	d908      	bls.n	10a0b4 <_scanf_i+0x178>
  10a0a2:	f815 1c01 	ldrb.w	r1, [r5, #-1]
  10a0a6:	1e6f      	subs	r7, r5, #1
  10a0a8:	f8d4 317c 	ldr.w	r3, [r4, #380]	; 0x17c
  10a0ac:	4632      	mov	r2, r6
  10a0ae:	4658      	mov	r0, r11
  10a0b0:	4798      	blx	r3
  10a0b2:	463d      	mov	r5, r7
  10a0b4:	454d      	cmp	r5, r9
  10a0b6:	d027      	beq.n	10a108 <_scanf_i+0x1cc>
  10a0b8:	6822      	ldr	r2, [r4, #0]
  10a0ba:	f012 0210 	ands.w	r2, r2, #16
  10a0be:	d11b      	bne.n	10a0f8 <_scanf_i+0x1bc>
  10a0c0:	702a      	strb	r2, [r5, #0]
  10a0c2:	6863      	ldr	r3, [r4, #4]
  10a0c4:	4649      	mov	r1, r9
  10a0c6:	4658      	mov	r0, r11
  10a0c8:	9e00      	ldr	r6, [sp, #0]
  10a0ca:	47b0      	blx	r6
  10a0cc:	6822      	ldr	r2, [r4, #0]
  10a0ce:	f8da 3000 	ldr.w	r3, [r10]
  10a0d2:	f012 0f20 	tst.w	r2, #32
  10a0d6:	d107      	bne.n	10a0e8 <_scanf_i+0x1ac>
  10a0d8:	07d2      	lsls	r2, r2, #31
  10a0da:	d505      	bpl.n	10a0e8 <_scanf_i+0x1ac>
  10a0dc:	1d1a      	adds	r2, r3, #4
  10a0de:	f8ca 2000 	str.w	r2, [r10]
  10a0e2:	681b      	ldr	r3, [r3, #0]
  10a0e4:	8018      	strh	r0, [r3, #0]
  10a0e6:	e004      	b.n	10a0f2 <_scanf_i+0x1b6>
  10a0e8:	1d1a      	adds	r2, r3, #4
  10a0ea:	f8ca 2000 	str.w	r2, [r10]
  10a0ee:	681b      	ldr	r3, [r3, #0]
  10a0f0:	6018      	str	r0, [r3, #0]
  10a0f2:	68e3      	ldr	r3, [r4, #12]
  10a0f4:	3301      	adds	r3, #1
  10a0f6:	60e3      	str	r3, [r4, #12]
  10a0f8:	6923      	ldr	r3, [r4, #16]
  10a0fa:	ebc9 0505 	rsb	r5, r9, r5
  10a0fe:	4445      	add	r5, r8
  10a100:	441d      	add	r5, r3
  10a102:	6125      	str	r5, [r4, #16]
  10a104:	2000      	movs	r0, #0
  10a106:	e000      	b.n	10a10a <_scanf_i+0x1ce>
  10a108:	2001      	movs	r0, #1
  10a10a:	b007      	add	sp, #28
  10a10c:	e8bd 8ff0 	ldmia.w	sp!, {r4, r5, r6, r7, r8, r9, r10, r11, pc}
  10a110:	0010e934 	.word	0x0010e934
  10a114:	0010b335 	.word	0x0010b335
  10a118:	0010b229 	.word	0x0010b229
  10a11c:	0010e950 	.word	0x0010e950

0010a120 <_open_r>:
  10a120:	b538      	push	{r3, r4, r5, lr}
  10a122:	4c07      	ldr	r4, [pc, #28]	; (10a140 <_open_r+0x20>)
  10a124:	4605      	mov	r5, r0
  10a126:	4608      	mov	r0, r1
  10a128:	4611      	mov	r1, r2
  10a12a:	2200      	movs	r2, #0
  10a12c:	6022      	str	r2, [r4, #0]
  10a12e:	461a      	mov	r2, r3
  10a130:	f7fc fe18 	bl	106d64 <_open>
  10a134:	1c43      	adds	r3, r0, #1
  10a136:	d102      	bne.n	10a13e <_open_r+0x1e>
  10a138:	6823      	ldr	r3, [r4, #0]
  10a13a:	b103      	cbz	r3, 10a13e <_open_r+0x1e>
  10a13c:	602b      	str	r3, [r5, #0]
  10a13e:	bd38      	pop	{r3, r4, r5, pc}
  10a140:	3fff60f0 	.word	0x3fff60f0

0010a144 <lflush>:
  10a144:	8983      	ldrh	r3, [r0, #12]
  10a146:	f003 0309 	and.w	r3, r3, #9
  10a14a:	2b09      	cmp	r3, #9
  10a14c:	d101      	bne.n	10a152 <lflush+0xe>
  10a14e:	f7fe ba5d 	b.w	10860c <fflush>
  10a152:	2000      	movs	r0, #0
  10a154:	4770      	bx	lr
	...

0010a158 <__srefill_r>:
  10a158:	b5f8      	push	{r3, r4, r5, r6, r7, lr}
  10a15a:	460c      	mov	r4, r1
  10a15c:	4605      	mov	r5, r0
  10a15e:	b118      	cbz	r0, 10a168 <__srefill_r+0x10>
  10a160:	6983      	ldr	r3, [r0, #24]
  10a162:	b90b      	cbnz	r3, 10a168 <__srefill_r+0x10>
  10a164:	f7fe faa4 	bl	1086b0 <__sinit>
  10a168:	4b39      	ldr	r3, [pc, #228]	; (10a250 <__srefill_r+0xf8>)
  10a16a:	429c      	cmp	r4, r3
  10a16c:	d101      	bne.n	10a172 <__srefill_r+0x1a>
  10a16e:	686c      	ldr	r4, [r5, #4]
  10a170:	e008      	b.n	10a184 <__srefill_r+0x2c>
  10a172:	4b38      	ldr	r3, [pc, #224]	; (10a254 <__srefill_r+0xfc>)
  10a174:	429c      	cmp	r4, r3
  10a176:	d101      	bne.n	10a17c <__srefill_r+0x24>
  10a178:	68ac      	ldr	r4, [r5, #8]
  10a17a:	e003      	b.n	10a184 <__srefill_r+0x2c>
  10a17c:	4b36      	ldr	r3, [pc, #216]	; (10a258 <__srefill_r+0x100>)
  10a17e:	429c      	cmp	r4, r3
  10a180:	bf08      	it	eq
  10a182:	68ec      	ldreq	r4, [r5, #12]
  10a184:	89a2      	ldrh	r2, [r4, #12]
  10a186:	2300      	movs	r3, #0
  10a188:	6063      	str	r3, [r4, #4]
  10a18a:	b293      	uxth	r3, r2
  10a18c:	069e      	lsls	r6, r3, #26
  10a18e:	d45a      	bmi.n	10a246 <__srefill_r+0xee>
  10a190:	0758      	lsls	r0, r3, #29
  10a192:	d41a      	bmi.n	10a1ca <__srefill_r+0x72>
  10a194:	06d9      	lsls	r1, r3, #27
  10a196:	d405      	bmi.n	10a1a4 <__srefill_r+0x4c>
  10a198:	2309      	movs	r3, #9
  10a19a:	f042 0240 	orr.w	r2, r2, #64	; 0x40
  10a19e:	602b      	str	r3, [r5, #0]
  10a1a0:	81a2      	strh	r2, [r4, #12]
  10a1a2:	e050      	b.n	10a246 <__srefill_r+0xee>
  10a1a4:	071a      	lsls	r2, r3, #28
  10a1a6:	d50b      	bpl.n	10a1c0 <__srefill_r+0x68>
  10a1a8:	4621      	mov	r1, r4
  10a1aa:	4628      	mov	r0, r5
  10a1ac:	f7fe fa04 	bl	1085b8 <_fflush_r>
  10a1b0:	2800      	cmp	r0, #0
  10a1b2:	d148      	bne.n	10a246 <__srefill_r+0xee>
  10a1b4:	89a3      	ldrh	r3, [r4, #12]
  10a1b6:	60a0      	str	r0, [r4, #8]
  10a1b8:	f023 0308 	bic.w	r3, r3, #8
  10a1bc:	81a3      	strh	r3, [r4, #12]
  10a1be:	61a0      	str	r0, [r4, #24]
  10a1c0:	89a3      	ldrh	r3, [r4, #12]
  10a1c2:	f043 0304 	orr.w	r3, r3, #4
  10a1c6:	81a3      	strh	r3, [r4, #12]
  10a1c8:	e010      	b.n	10a1ec <__srefill_r+0x94>
  10a1ca:	6b61      	ldr	r1, [r4, #52]	; 0x34
  10a1cc:	b171      	cbz	r1, 10a1ec <__srefill_r+0x94>
  10a1ce:	f104 0344 	add.w	r3, r4, #68	; 0x44
  10a1d2:	4299      	cmp	r1, r3
  10a1d4:	d002      	beq.n	10a1dc <__srefill_r+0x84>
  10a1d6:	4628      	mov	r0, r5
  10a1d8:	f7fc fc48 	bl	106a6c <__wrap__free_r>
  10a1dc:	6c23      	ldr	r3, [r4, #64]	; 0x40
  10a1de:	2000      	movs	r0, #0
  10a1e0:	6360      	str	r0, [r4, #52]	; 0x34
  10a1e2:	6063      	str	r3, [r4, #4]
  10a1e4:	b113      	cbz	r3, 10a1ec <__srefill_r+0x94>
  10a1e6:	6be3      	ldr	r3, [r4, #60]	; 0x3c
  10a1e8:	6023      	str	r3, [r4, #0]
  10a1ea:	bdf8      	pop	{r3, r4, r5, r6, r7, pc}
  10a1ec:	6923      	ldr	r3, [r4, #16]
  10a1ee:	b91b      	cbnz	r3, 10a1f8 <__srefill_r+0xa0>
  10a1f0:	4621      	mov	r1, r4
  10a1f2:	4628      	mov	r0, r5
  10a1f4:	f7fe fc04 	bl	108a00 <__smakebuf_r>
  10a1f8:	89a7      	ldrh	r7, [r4, #12]
  10a1fa:	b2be      	uxth	r6, r7
  10a1fc:	07b3      	lsls	r3, r6, #30
  10a1fe:	d00f      	beq.n	10a220 <__srefill_r+0xc8>
  10a200:	2301      	movs	r3, #1
  10a202:	81a3      	strh	r3, [r4, #12]
  10a204:	4b15      	ldr	r3, [pc, #84]	; (10a25c <__srefill_r+0x104>)
  10a206:	4916      	ldr	r1, [pc, #88]	; (10a260 <__srefill_r+0x108>)
  10a208:	6818      	ldr	r0, [r3, #0]
  10a20a:	f006 0609 	and.w	r6, r6, #9
  10a20e:	f7fe fb93 	bl	108938 <_fwalk>
  10a212:	2e09      	cmp	r6, #9
  10a214:	81a7      	strh	r7, [r4, #12]
  10a216:	d103      	bne.n	10a220 <__srefill_r+0xc8>
  10a218:	4621      	mov	r1, r4
  10a21a:	4628      	mov	r0, r5
  10a21c:	f7fe f946 	bl	1084ac <__sflush_r>
  10a220:	6922      	ldr	r2, [r4, #16]
  10a222:	6a66      	ldr	r6, [r4, #36]	; 0x24
  10a224:	6022      	str	r2, [r4, #0]
  10a226:	6963      	ldr	r3, [r4, #20]
  10a228:	6a21      	ldr	r1, [r4, #32]
  10a22a:	4628      	mov	r0, r5
  10a22c:	47b0      	blx	r6
  10a22e:	2800      	cmp	r0, #0
  10a230:	6060      	str	r0, [r4, #4]
  10a232:	dc0b      	bgt.n	10a24c <__srefill_r+0xf4>
  10a234:	89a3      	ldrh	r3, [r4, #12]
  10a236:	bf17      	itett	ne
  10a238:	2200      	movne	r2, #0
  10a23a:	f043 0320 	orreq.w	r3, r3, #32
  10a23e:	f043 0340 	orrne.w	r3, r3, #64	; 0x40
  10a242:	6062      	strne	r2, [r4, #4]
  10a244:	81a3      	strh	r3, [r4, #12]
  10a246:	f04f 30ff 	mov.w	r0, #4294967295
  10a24a:	bdf8      	pop	{r3, r4, r5, r6, r7, pc}
  10a24c:	2000      	movs	r0, #0
  10a24e:	bdf8      	pop	{r3, r4, r5, r6, r7, pc}
  10a250:	0010e880 	.word	0x0010e880
  10a254:	0010e8a0 	.word	0x0010e8a0
  10a258:	0010e8c0 	.word	0x0010e8c0
  10a25c:	0010e8e0 	.word	0x0010e8e0
  10a260:	0010a145 	.word	0x0010a145

0010a264 <__fpclassifyd>:
  10a264:	f031 4300 	bics.w	r3, r1, #2147483648	; 0x80000000
  10a268:	b510      	push	{r4, lr}
  10a26a:	d01b      	beq.n	10a2a4 <__fpclassifyd+0x40>
  10a26c:	4a0f      	ldr	r2, [pc, #60]	; (10a2ac <__fpclassifyd+0x48>)
  10a26e:	f5a1 1480 	sub.w	r4, r1, #1048576	; 0x100000
  10a272:	4294      	cmp	r4, r2
  10a274:	d910      	bls.n	10a298 <__fpclassifyd+0x34>
  10a276:	f101 41ff 	add.w	r1, r1, #2139095040	; 0x7f800000
  10a27a:	4a0c      	ldr	r2, [pc, #48]	; (10a2ac <__fpclassifyd+0x48>)
  10a27c:	f501 01e0 	add.w	r1, r1, #7340032	; 0x700000
  10a280:	4291      	cmp	r1, r2
  10a282:	d909      	bls.n	10a298 <__fpclassifyd+0x34>
  10a284:	f5b3 1f80 	cmp.w	r3, #1048576	; 0x100000
  10a288:	d308      	bcc.n	10a29c <__fpclassifyd+0x38>
  10a28a:	4a09      	ldr	r2, [pc, #36]	; (10a2b0 <__fpclassifyd+0x4c>)
  10a28c:	4293      	cmp	r3, r2
  10a28e:	d107      	bne.n	10a2a0 <__fpclassifyd+0x3c>
  10a290:	fab0 f080 	clz	r0, r0
  10a294:	0940      	lsrs	r0, r0, #5
  10a296:	bd10      	pop	{r4, pc}
  10a298:	2004      	movs	r0, #4
  10a29a:	bd10      	pop	{r4, pc}
  10a29c:	2003      	movs	r0, #3
  10a29e:	bd10      	pop	{r4, pc}
  10a2a0:	2000      	movs	r0, #0
  10a2a2:	bd10      	pop	{r4, pc}
  10a2a4:	2800      	cmp	r0, #0
  10a2a6:	d1e6      	bne.n	10a276 <__fpclassifyd+0x12>
  10a2a8:	2002      	movs	r0, #2
  10a2aa:	bd10      	pop	{r4, pc}
  10a2ac:	7fdfffff 	.word	0x7fdfffff
  10a2b0:	7ff00000 	.word	0x7ff00000

0010a2b4 <_sbrk_r>:
  10a2b4:	b538      	push	{r3, r4, r5, lr}
  10a2b6:	4c06      	ldr	r4, [pc, #24]	; (10a2d0 <_sbrk_r+0x1c>)
  10a2b8:	2300      	movs	r3, #0
  10a2ba:	4605      	mov	r5, r0
  10a2bc:	4608      	mov	r0, r1
  10a2be:	6023      	str	r3, [r4, #0]
  10a2c0:	f7fc fcde 	bl	106c80 <_sbrk>
  10a2c4:	1c43      	adds	r3, r0, #1
  10a2c6:	d102      	bne.n	10a2ce <_sbrk_r+0x1a>
  10a2c8:	6823      	ldr	r3, [r4, #0]
  10a2ca:	b103      	cbz	r3, 10a2ce <_sbrk_r+0x1a>
  10a2cc:	602b      	str	r3, [r5, #0]
  10a2ce:	bd38      	pop	{r3, r4, r5, pc}
  10a2d0:	3fff60f0 	.word	0x3fff60f0

0010a2d4 <__sccl>:
  10a2d4:	b570      	push	{r4, r5, r6, lr}
  10a2d6:	780b      	ldrb	r3, [r1, #0]
  10a2d8:	1e44      	subs	r4, r0, #1
  10a2da:	2b5e      	cmp	r3, #94	; 0x5e
  10a2dc:	bf13      	iteet	ne
  10a2de:	1c4a      	addne	r2, r1, #1
  10a2e0:	1c8a      	addeq	r2, r1, #2
  10a2e2:	784b      	ldrbeq	r3, [r1, #1]
  10a2e4:	2100      	movne	r1, #0
  10a2e6:	bf08      	it	eq
  10a2e8:	2101      	moveq	r1, #1
  10a2ea:	f100 05ff 	add.w	r5, r0, #255	; 0xff
  10a2ee:	f804 1f01 	strb.w	r1, [r4, #1]!
  10a2f2:	42ac      	cmp	r4, r5
  10a2f4:	d1fb      	bne.n	10a2ee <__sccl+0x1a>
  10a2f6:	b90b      	cbnz	r3, 10a2fc <__sccl+0x28>
  10a2f8:	1e50      	subs	r0, r2, #1
  10a2fa:	bd70      	pop	{r4, r5, r6, pc}
  10a2fc:	f081 0401 	eor.w	r4, r1, #1
  10a300:	4611      	mov	r1, r2
  10a302:	54c4      	strb	r4, [r0, r3]
  10a304:	780d      	ldrb	r5, [r1, #0]
  10a306:	1c4a      	adds	r2, r1, #1
  10a308:	2d2d      	cmp	r5, #45	; 0x2d
  10a30a:	d006      	beq.n	10a31a <__sccl+0x46>
  10a30c:	2d5d      	cmp	r5, #93	; 0x5d
  10a30e:	d00f      	beq.n	10a330 <__sccl+0x5c>
  10a310:	b10d      	cbz	r5, 10a316 <__sccl+0x42>
  10a312:	462b      	mov	r3, r5
  10a314:	e7f4      	b.n	10a300 <__sccl+0x2c>
  10a316:	4608      	mov	r0, r1
  10a318:	bd70      	pop	{r4, r5, r6, pc}
  10a31a:	784e      	ldrb	r6, [r1, #1]
  10a31c:	2e5d      	cmp	r6, #93	; 0x5d
  10a31e:	d0f8      	beq.n	10a312 <__sccl+0x3e>
  10a320:	42b3      	cmp	r3, r6
  10a322:	dcf6      	bgt.n	10a312 <__sccl+0x3e>
  10a324:	3102      	adds	r1, #2
  10a326:	3301      	adds	r3, #1
  10a328:	429e      	cmp	r6, r3
  10a32a:	54c4      	strb	r4, [r0, r3]
  10a32c:	dcfb      	bgt.n	10a326 <__sccl+0x52>
  10a32e:	e7e9      	b.n	10a304 <__sccl+0x30>
  10a330:	4610      	mov	r0, r2
  10a332:	bd70      	pop	{r4, r5, r6, pc}

0010a334 <setbuf>:
  10a334:	2900      	cmp	r1, #0
  10a336:	f44f 6380 	mov.w	r3, #1024	; 0x400
  10a33a:	bf0c      	ite	eq
  10a33c:	2202      	moveq	r2, #2
  10a33e:	2200      	movne	r2, #0
  10a340:	f000 b800 	b.w	10a344 <setvbuf>

0010a344 <setvbuf>:
  10a344:	e92d 41f0 	stmdb	sp!, {r4, r5, r6, r7, r8, lr}
  10a348:	461d      	mov	r5, r3
  10a34a:	4b3d      	ldr	r3, [pc, #244]	; (10a440 <setvbuf+0xfc>)
  10a34c:	4604      	mov	r4, r0
  10a34e:	681e      	ldr	r6, [r3, #0]
  10a350:	460f      	mov	r7, r1
  10a352:	4690      	mov	r8, r2
  10a354:	b126      	cbz	r6, 10a360 <setvbuf+0x1c>
  10a356:	69b3      	ldr	r3, [r6, #24]
  10a358:	b913      	cbnz	r3, 10a360 <setvbuf+0x1c>
  10a35a:	4630      	mov	r0, r6
  10a35c:	f7fe f9a8 	bl	1086b0 <__sinit>
  10a360:	4b38      	ldr	r3, [pc, #224]	; (10a444 <setvbuf+0x100>)
  10a362:	429c      	cmp	r4, r3
  10a364:	d101      	bne.n	10a36a <setvbuf+0x26>
  10a366:	6874      	ldr	r4, [r6, #4]
  10a368:	e008      	b.n	10a37c <setvbuf+0x38>
  10a36a:	4b37      	ldr	r3, [pc, #220]	; (10a448 <setvbuf+0x104>)
  10a36c:	429c      	cmp	r4, r3
  10a36e:	d101      	bne.n	10a374 <setvbuf+0x30>
  10a370:	68b4      	ldr	r4, [r6, #8]
  10a372:	e003      	b.n	10a37c <setvbuf+0x38>
  10a374:	4b35      	ldr	r3, [pc, #212]	; (10a44c <setvbuf+0x108>)
  10a376:	429c      	cmp	r4, r3
  10a378:	bf08      	it	eq
  10a37a:	68f4      	ldreq	r4, [r6, #12]
  10a37c:	f1b8 0f02 	cmp.w	r8, #2
  10a380:	d859      	bhi.n	10a436 <setvbuf+0xf2>
  10a382:	2d00      	cmp	r5, #0
  10a384:	db57      	blt.n	10a436 <setvbuf+0xf2>
  10a386:	4621      	mov	r1, r4
  10a388:	4630      	mov	r0, r6
  10a38a:	f7fe f915 	bl	1085b8 <_fflush_r>
  10a38e:	2300      	movs	r3, #0
  10a390:	6063      	str	r3, [r4, #4]
  10a392:	61a3      	str	r3, [r4, #24]
  10a394:	89a3      	ldrh	r3, [r4, #12]
  10a396:	061b      	lsls	r3, r3, #24
  10a398:	d503      	bpl.n	10a3a2 <setvbuf+0x5e>
  10a39a:	6921      	ldr	r1, [r4, #16]
  10a39c:	4630      	mov	r0, r6
  10a39e:	f7fc fb65 	bl	106a6c <__wrap__free_r>
  10a3a2:	89a3      	ldrh	r3, [r4, #12]
  10a3a4:	f1b8 0f02 	cmp.w	r8, #2
  10a3a8:	f023 0383 	bic.w	r3, r3, #131	; 0x83
  10a3ac:	81a3      	strh	r3, [r4, #12]
  10a3ae:	d012      	beq.n	10a3d6 <setvbuf+0x92>
  10a3b0:	bb37      	cbnz	r7, 10a400 <setvbuf+0xbc>
  10a3b2:	2d00      	cmp	r5, #0
  10a3b4:	bf08      	it	eq
  10a3b6:	f44f 6580 	moveq.w	r5, #1024	; 0x400
  10a3ba:	4628      	mov	r0, r5
  10a3bc:	f7fe fb6c 	bl	108a98 <malloc>
  10a3c0:	4607      	mov	r7, r0
  10a3c2:	b9c8      	cbnz	r0, 10a3f8 <setvbuf+0xb4>
  10a3c4:	f44f 6080 	mov.w	r0, #1024	; 0x400
  10a3c8:	f7fe fb66 	bl	108a98 <malloc>
  10a3cc:	4607      	mov	r7, r0
  10a3ce:	b988      	cbnz	r0, 10a3f4 <setvbuf+0xb0>
  10a3d0:	f04f 30ff 	mov.w	r0, #4294967295
  10a3d4:	e000      	b.n	10a3d8 <setvbuf+0x94>
  10a3d6:	2000      	movs	r0, #0
  10a3d8:	89a3      	ldrh	r3, [r4, #12]
  10a3da:	f043 0302 	orr.w	r3, r3, #2
  10a3de:	81a3      	strh	r3, [r4, #12]
  10a3e0:	2300      	movs	r3, #0
  10a3e2:	60a3      	str	r3, [r4, #8]
  10a3e4:	f104 0347 	add.w	r3, r4, #71	; 0x47
  10a3e8:	6023      	str	r3, [r4, #0]
  10a3ea:	6123      	str	r3, [r4, #16]
  10a3ec:	2301      	movs	r3, #1
  10a3ee:	6163      	str	r3, [r4, #20]
  10a3f0:	e8bd 81f0 	ldmia.w	sp!, {r4, r5, r6, r7, r8, pc}
  10a3f4:	f44f 6580 	mov.w	r5, #1024	; 0x400
  10a3f8:	89a3      	ldrh	r3, [r4, #12]
  10a3fa:	f043 0380 	orr.w	r3, r3, #128	; 0x80
  10a3fe:	81a3      	strh	r3, [r4, #12]
  10a400:	f1b8 0f01 	cmp.w	r8, #1
  10a404:	d105      	bne.n	10a412 <setvbuf+0xce>
  10a406:	89a3      	ldrh	r3, [r4, #12]
  10a408:	f043 0301 	orr.w	r3, r3, #1
  10a40c:	81a3      	strh	r3, [r4, #12]
  10a40e:	426b      	negs	r3, r5
  10a410:	61a3      	str	r3, [r4, #24]
  10a412:	4b0f      	ldr	r3, [pc, #60]	; (10a450 <setvbuf+0x10c>)
  10a414:	62b3      	str	r3, [r6, #40]	; 0x28
  10a416:	89a3      	ldrh	r3, [r4, #12]
  10a418:	6027      	str	r7, [r4, #0]
  10a41a:	f003 0008 	and.w	r0, r3, #8
  10a41e:	b280      	uxth	r0, r0
  10a420:	6127      	str	r7, [r4, #16]
  10a422:	6165      	str	r5, [r4, #20]
  10a424:	b148      	cbz	r0, 10a43a <setvbuf+0xf6>
  10a426:	f013 0f03 	tst.w	r3, #3
  10a42a:	bf18      	it	ne
  10a42c:	2500      	movne	r5, #0
  10a42e:	60a5      	str	r5, [r4, #8]
  10a430:	2000      	movs	r0, #0
  10a432:	e8bd 81f0 	ldmia.w	sp!, {r4, r5, r6, r7, r8, pc}
  10a436:	f04f 30ff 	mov.w	r0, #4294967295
  10a43a:	e8bd 81f0 	ldmia.w	sp!, {r4, r5, r6, r7, r8, pc}
  10a43e:	bf00      	nop
  10a440:	3fff41c4 	.word	0x3fff41c4
  10a444:	0010e880 	.word	0x0010e880
  10a448:	0010e8a0 	.word	0x0010e8a0
  10a44c:	0010e8c0 	.word	0x0010e8c0
  10a450:	00108631 	.word	0x00108631

0010a454 <nanf>:
  10a454:	4800      	ldr	r0, [pc, #0]	; (10a458 <nanf+0x4>)
  10a456:	4770      	bx	lr
  10a458:	7fc00000 	.word	0x7fc00000

0010a45c <siprintf>:
  10a45c:	b40e      	push	{r1, r2, r3}
  10a45e:	b500      	push	{lr}
  10a460:	f44f 7102 	mov.w	r1, #520	; 0x208
  10a464:	b09c      	sub	sp, #112	; 0x70
  10a466:	f8ad 1014 	strh.w	r1, [sp, #20]
  10a46a:	f06f 4100 	mvn.w	r1, #2147483648	; 0x80000000
  10a46e:	9104      	str	r1, [sp, #16]
  10a470:	9107      	str	r1, [sp, #28]
  10a472:	f64f 71ff 	movw	r1, #65535	; 0xffff
  10a476:	ab1d      	add	r3, sp, #116	; 0x74
  10a478:	9002      	str	r0, [sp, #8]
  10a47a:	9006      	str	r0, [sp, #24]
  10a47c:	4808      	ldr	r0, [pc, #32]	; (10a4a0 <siprintf+0x44>)
  10a47e:	f853 2b04 	ldr.w	r2, [r3], #4
  10a482:	f8ad 1016 	strh.w	r1, [sp, #22]
  10a486:	6800      	ldr	r0, [r0, #0]
  10a488:	a902      	add	r1, sp, #8
  10a48a:	9301      	str	r3, [sp, #4]
  10a48c:	f002 ff88 	bl	10d3a0 <_svfiprintf_r>
  10a490:	9b02      	ldr	r3, [sp, #8]
  10a492:	2200      	movs	r2, #0
  10a494:	701a      	strb	r2, [r3, #0]
  10a496:	b01c      	add	sp, #112	; 0x70
  10a498:	f85d eb04 	ldr.w	lr, [sp], #4
  10a49c:	b003      	add	sp, #12
  10a49e:	4770      	bx	lr
  10a4a0:	3fff41c4 	.word	0x3fff41c4

0010a4a4 <siscanf>:
  10a4a4:	b40e      	push	{r1, r2, r3}
  10a4a6:	b530      	push	{r4, r5, lr}
  10a4a8:	b09c      	sub	sp, #112	; 0x70
  10a4aa:	ac1f      	add	r4, sp, #124	; 0x7c
  10a4ac:	f44f 7201 	mov.w	r2, #516	; 0x204
  10a4b0:	f854 5b04 	ldr.w	r5, [r4], #4
  10a4b4:	f8ad 2014 	strh.w	r2, [sp, #20]
  10a4b8:	9002      	str	r0, [sp, #8]
  10a4ba:	9006      	str	r0, [sp, #24]
  10a4bc:	f000 f873 	bl	10a5a6 <strlen>
  10a4c0:	4b0b      	ldr	r3, [pc, #44]	; (10a4f0 <siscanf+0x4c>)
  10a4c2:	9003      	str	r0, [sp, #12]
  10a4c4:	930b      	str	r3, [sp, #44]	; 0x2c
  10a4c6:	2300      	movs	r3, #0
  10a4c8:	930f      	str	r3, [sp, #60]	; 0x3c
  10a4ca:	9314      	str	r3, [sp, #80]	; 0x50
  10a4cc:	f64f 73ff 	movw	r3, #65535	; 0xffff
  10a4d0:	9007      	str	r0, [sp, #28]
  10a4d2:	4808      	ldr	r0, [pc, #32]	; (10a4f4 <siscanf+0x50>)
  10a4d4:	f8ad 3016 	strh.w	r3, [sp, #22]
  10a4d8:	462a      	mov	r2, r5
  10a4da:	4623      	mov	r3, r4
  10a4dc:	a902      	add	r1, sp, #8
  10a4de:	6800      	ldr	r0, [r0, #0]
  10a4e0:	9401      	str	r4, [sp, #4]
  10a4e2:	f003 f8ad 	bl	10d640 <__ssvfiscanf_r>
  10a4e6:	b01c      	add	sp, #112	; 0x70
  10a4e8:	e8bd 4030 	ldmia.w	sp!, {r4, r5, lr}
  10a4ec:	b003      	add	sp, #12
  10a4ee:	4770      	bx	lr
  10a4f0:	0010a51b 	.word	0x0010a51b
  10a4f4:	3fff41c4 	.word	0x3fff41c4

0010a4f8 <__sread>:
  10a4f8:	b510      	push	{r4, lr}
  10a4fa:	460c      	mov	r4, r1
  10a4fc:	f9b1 100e 	ldrsh.w	r1, [r1, #14]
  10a500:	f003 f9ec 	bl	10d8dc <_read_r>
  10a504:	2800      	cmp	r0, #0
  10a506:	bfab      	itete	ge
  10a508:	6d63      	ldrge	r3, [r4, #84]	; 0x54
  10a50a:	89a3      	ldrhlt	r3, [r4, #12]
  10a50c:	181b      	addge	r3, r3, r0
  10a50e:	f423 5380 	biclt.w	r3, r3, #4096	; 0x1000
  10a512:	bfac      	ite	ge
  10a514:	6563      	strge	r3, [r4, #84]	; 0x54
  10a516:	81a3      	strhlt	r3, [r4, #12]
  10a518:	bd10      	pop	{r4, pc}

0010a51a <__seofread>:
  10a51a:	2000      	movs	r0, #0
  10a51c:	4770      	bx	lr

0010a51e <__swrite>:
  10a51e:	e92d 41f0 	stmdb	sp!, {r4, r5, r6, r7, r8, lr}
  10a522:	461f      	mov	r7, r3
  10a524:	898b      	ldrh	r3, [r1, #12]
  10a526:	4605      	mov	r5, r0
  10a528:	05db      	lsls	r3, r3, #23
  10a52a:	460c      	mov	r4, r1
  10a52c:	4616      	mov	r6, r2
  10a52e:	d505      	bpl.n	10a53c <__swrite+0x1e>
  10a530:	2302      	movs	r3, #2
  10a532:	2200      	movs	r2, #0
  10a534:	f9b1 100e 	ldrsh.w	r1, [r1, #14]
  10a538:	f002 fade 	bl	10caf8 <_lseek_r>
  10a53c:	89a3      	ldrh	r3, [r4, #12]
  10a53e:	4632      	mov	r2, r6
  10a540:	f423 5380 	bic.w	r3, r3, #4096	; 0x1000
  10a544:	81a3      	strh	r3, [r4, #12]
  10a546:	f9b4 100e 	ldrsh.w	r1, [r4, #14]
  10a54a:	463b      	mov	r3, r7
  10a54c:	4628      	mov	r0, r5
  10a54e:	e8bd 41f0 	ldmia.w	sp!, {r4, r5, r6, r7, r8, lr}
  10a552:	f001 b8a7 	b.w	10b6a4 <_write_r>

0010a556 <__sseek>:
  10a556:	b510      	push	{r4, lr}
  10a558:	460c      	mov	r4, r1
  10a55a:	f9b1 100e 	ldrsh.w	r1, [r1, #14]
  10a55e:	f002 facb 	bl	10caf8 <_lseek_r>
  10a562:	1c43      	adds	r3, r0, #1
  10a564:	89a3      	ldrh	r3, [r4, #12]
  10a566:	bf15      	itete	ne
  10a568:	6560      	strne	r0, [r4, #84]	; 0x54
  10a56a:	f423 5380 	biceq.w	r3, r3, #4096	; 0x1000
  10a56e:	f443 5380 	orrne.w	r3, r3, #4096	; 0x1000
  10a572:	81a3      	strheq	r3, [r4, #12]
  10a574:	bf18      	it	ne
  10a576:	81a3      	strhne	r3, [r4, #12]
  10a578:	bd10      	pop	{r4, pc}

0010a57a <__sclose>:
  10a57a:	f9b1 100e 	ldrsh.w	r1, [r1, #14]
  10a57e:	f001 b90f 	b.w	10b7a0 <_close_r>

0010a582 <strcmp>:
  10a582:	f810 2b01 	ldrb.w	r2, [r0], #1
  10a586:	f811 3b01 	ldrb.w	r3, [r1], #1
  10a58a:	2a01      	cmp	r2, #1
  10a58c:	bf28      	it	cs
  10a58e:	429a      	cmpcs	r2, r3
  10a590:	d0f7      	beq.n	10a582 <strcmp>
  10a592:	1ad0      	subs	r0, r2, r3
  10a594:	4770      	bx	lr

0010a596 <strcpy>:
  10a596:	4603      	mov	r3, r0
  10a598:	f811 2b01 	ldrb.w	r2, [r1], #1
  10a59c:	f803 2b01 	strb.w	r2, [r3], #1
  10a5a0:	2a00      	cmp	r2, #0
  10a5a2:	d1f9      	bne.n	10a598 <strcpy+0x2>
  10a5a4:	4770      	bx	lr

0010a5a6 <strlen>:
  10a5a6:	4603      	mov	r3, r0
  10a5a8:	f813 2b01 	ldrb.w	r2, [r3], #1
  10a5ac:	2a00      	cmp	r2, #0
  10a5ae:	d1fb      	bne.n	10a5a8 <strlen+0x2>
  10a5b0:	1a18      	subs	r0, r3, r0
  10a5b2:	3801      	subs	r0, #1
  10a5b4:	4770      	bx	lr

0010a5b6 <strncmp>:
  10a5b6:	b530      	push	{r4, r5, lr}
  10a5b8:	b182      	cbz	r2, 10a5dc <strncmp+0x26>
  10a5ba:	1e45      	subs	r5, r0, #1
  10a5bc:	3901      	subs	r1, #1
  10a5be:	f815 3f01 	ldrb.w	r3, [r5, #1]!
  10a5c2:	f811 4f01 	ldrb.w	r4, [r1, #1]!
  10a5c6:	42a3      	cmp	r3, r4
  10a5c8:	d106      	bne.n	10a5d8 <strncmp+0x22>
  10a5ca:	43ec      	mvns	r4, r5
  10a5cc:	4414      	add	r4, r2
  10a5ce:	42e0      	cmn	r0, r4
  10a5d0:	d001      	beq.n	10a5d6 <strncmp+0x20>
  10a5d2:	2b00      	cmp	r3, #0
  10a5d4:	d1f3      	bne.n	10a5be <strncmp+0x8>
  10a5d6:	461c      	mov	r4, r3
  10a5d8:	1b18      	subs	r0, r3, r4
  10a5da:	bd30      	pop	{r4, r5, pc}
  10a5dc:	4610      	mov	r0, r2
  10a5de:	bd30      	pop	{r4, r5, pc}

0010a5e0 <sulp>:
  10a5e0:	e92d 41f0 	stmdb	sp!, {r4, r5, r6, r7, r8, lr}
  10a5e4:	460f      	mov	r7, r1
  10a5e6:	4690      	mov	r8, r2
  10a5e8:	f002 fd5e 	bl	10d0a8 <__ulp>
  10a5ec:	4604      	mov	r4, r0
  10a5ee:	460d      	mov	r5, r1
  10a5f0:	f1b8 0f00 	cmp.w	r8, #0
  10a5f4:	d011      	beq.n	10a61a <sulp+0x3a>
  10a5f6:	f3c7 530a 	ubfx	r3, r7, #20, #11
  10a5fa:	f1c3 036b 	rsb	r3, r3, #107	; 0x6b
  10a5fe:	2b00      	cmp	r3, #0
  10a600:	dd0b      	ble.n	10a61a <sulp+0x3a>
  10a602:	051b      	lsls	r3, r3, #20
  10a604:	f103 557f 	add.w	r5, r3, #1069547520	; 0x3fc00000
  10a608:	2400      	movs	r4, #0
  10a60a:	f505 1540 	add.w	r5, r5, #3145728	; 0x300000
  10a60e:	4622      	mov	r2, r4
  10a610:	462b      	mov	r3, r5
  10a612:	f7fd fcb9 	bl	107f88 <__aeabi_dmul>
  10a616:	e8bd 81f0 	ldmia.w	sp!, {r4, r5, r6, r7, r8, pc}
  10a61a:	4620      	mov	r0, r4
  10a61c:	4629      	mov	r1, r5
  10a61e:	e8bd 81f0 	ldmia.w	sp!, {r4, r5, r6, r7, r8, pc}
  10a622:	0000      	movs	r0, r0
  10a624:	0000      	movs	r0, r0
	...

0010a628 <_strtod_r>:
  10a628:	e92d 4ff0 	stmdb	sp!, {r4, r5, r6, r7, r8, r9, r10, r11, lr}
  10a62c:	4682      	mov	r10, r0
  10a62e:	460c      	mov	r4, r1
  10a630:	b09d      	sub	sp, #116	; 0x74
  10a632:	2300      	movs	r3, #0
  10a634:	9213      	str	r2, [sp, #76]	; 0x4c
  10a636:	9318      	str	r3, [sp, #96]	; 0x60
  10a638:	f04f 0800 	mov.w	r8, #0
  10a63c:	f04f 0900 	mov.w	r9, #0
  10a640:	9117      	str	r1, [sp, #92]	; 0x5c
  10a642:	9b17      	ldr	r3, [sp, #92]	; 0x5c
  10a644:	781a      	ldrb	r2, [r3, #0]
  10a646:	2a0d      	cmp	r2, #13
  10a648:	d805      	bhi.n	10a656 <_strtod_r+0x2e>
  10a64a:	2a09      	cmp	r2, #9
  10a64c:	d213      	bcs.n	10a676 <_strtod_r+0x4e>
  10a64e:	2a00      	cmp	r2, #0
  10a650:	f000 81ad 	beq.w	10a9ae <_strtod_r+0x386>
  10a654:	e012      	b.n	10a67c <_strtod_r+0x54>
  10a656:	2a2b      	cmp	r2, #43	; 0x2b
  10a658:	d004      	beq.n	10a664 <_strtod_r+0x3c>
  10a65a:	2a2d      	cmp	r2, #45	; 0x2d
  10a65c:	d004      	beq.n	10a668 <_strtod_r+0x40>
  10a65e:	2a20      	cmp	r2, #32
  10a660:	d10c      	bne.n	10a67c <_strtod_r+0x54>
  10a662:	e008      	b.n	10a676 <_strtod_r+0x4e>
  10a664:	2200      	movs	r2, #0
  10a666:	e000      	b.n	10a66a <_strtod_r+0x42>
  10a668:	2201      	movs	r2, #1
  10a66a:	920c      	str	r2, [sp, #48]	; 0x30
  10a66c:	1c5a      	adds	r2, r3, #1
  10a66e:	9217      	str	r2, [sp, #92]	; 0x5c
  10a670:	785b      	ldrb	r3, [r3, #1]
  10a672:	b92b      	cbnz	r3, 10a680 <_strtod_r+0x58>
  10a674:	e19b      	b.n	10a9ae <_strtod_r+0x386>
  10a676:	3301      	adds	r3, #1
  10a678:	9317      	str	r3, [sp, #92]	; 0x5c
  10a67a:	e7e2      	b.n	10a642 <_strtod_r+0x1a>
  10a67c:	2300      	movs	r3, #0
  10a67e:	930c      	str	r3, [sp, #48]	; 0x30
  10a680:	9d17      	ldr	r5, [sp, #92]	; 0x5c
  10a682:	782b      	ldrb	r3, [r5, #0]
  10a684:	2b30      	cmp	r3, #48	; 0x30
  10a686:	d15c      	bne.n	10a742 <_strtod_r+0x11a>
  10a688:	786b      	ldrb	r3, [r5, #1]
  10a68a:	2b58      	cmp	r3, #88	; 0x58
  10a68c:	d001      	beq.n	10a692 <_strtod_r+0x6a>
  10a68e:	2b78      	cmp	r3, #120	; 0x78
  10a690:	d14c      	bne.n	10a72c <_strtod_r+0x104>
  10a692:	9b0c      	ldr	r3, [sp, #48]	; 0x30
  10a694:	4aa8      	ldr	r2, [pc, #672]	; (10a938 <_strtod_r+0x310>)
  10a696:	9301      	str	r3, [sp, #4]
  10a698:	ab18      	add	r3, sp, #96	; 0x60
  10a69a:	9300      	str	r3, [sp, #0]
  10a69c:	a917      	add	r1, sp, #92	; 0x5c
  10a69e:	ab19      	add	r3, sp, #100	; 0x64
  10a6a0:	4650      	mov	r0, r10
  10a6a2:	f001 ff46 	bl	10c532 <__gethex>
  10a6a6:	f010 0607 	ands.w	r6, r0, #7
  10a6aa:	4604      	mov	r4, r0
  10a6ac:	f000 8585 	beq.w	10b1ba <_strtod_r+0xb92>
  10a6b0:	2e06      	cmp	r6, #6
  10a6b2:	d105      	bne.n	10a6c0 <_strtod_r+0x98>
  10a6b4:	3501      	adds	r5, #1
  10a6b6:	2300      	movs	r3, #0
  10a6b8:	9517      	str	r5, [sp, #92]	; 0x5c
  10a6ba:	930c      	str	r3, [sp, #48]	; 0x30
  10a6bc:	f000 bd7d 	b.w	10b1ba <_strtod_r+0xb92>
  10a6c0:	9a18      	ldr	r2, [sp, #96]	; 0x60
  10a6c2:	b13a      	cbz	r2, 10a6d4 <_strtod_r+0xac>
  10a6c4:	2135      	movs	r1, #53	; 0x35
  10a6c6:	a81a      	add	r0, sp, #104	; 0x68
  10a6c8:	f002 fdd5 	bl	10d276 <__copybits>
  10a6cc:	9918      	ldr	r1, [sp, #96]	; 0x60
  10a6ce:	4650      	mov	r0, r10
  10a6d0:	f002 fa59 	bl	10cb86 <_Bfree>
  10a6d4:	2e06      	cmp	r6, #6
  10a6d6:	d822      	bhi.n	10a71e <_strtod_r+0xf6>
  10a6d8:	e8df f006 	tbb	[pc, r6]
  10a6dc:	18080d04 	.word	0x18080d04
  10a6e0:	0d1d      	.short	0x0d1d
  10a6e2:	04          	.byte	0x04
  10a6e3:	00          	.byte	0x00
  10a6e4:	f04f 0900 	mov.w	r9, #0
  10a6e8:	46c8      	mov	r8, r9
  10a6ea:	e018      	b.n	10a71e <_strtod_r+0xf6>
  10a6ec:	f8dd 8068 	ldr.w	r8, [sp, #104]	; 0x68
  10a6f0:	f8dd 906c 	ldr.w	r9, [sp, #108]	; 0x6c
  10a6f4:	e013      	b.n	10a71e <_strtod_r+0xf6>
  10a6f6:	9b1b      	ldr	r3, [sp, #108]	; 0x6c
  10a6f8:	9a19      	ldr	r2, [sp, #100]	; 0x64
  10a6fa:	f423 1380 	bic.w	r3, r3, #1048576	; 0x100000
  10a6fe:	f202 4233 	addw	r2, r2, #1075	; 0x433
  10a702:	f8dd 8068 	ldr.w	r8, [sp, #104]	; 0x68
  10a706:	ea43 5902 	orr.w	r9, r3, r2, lsl #20
  10a70a:	e008      	b.n	10a71e <_strtod_r+0xf6>
  10a70c:	f8df 922c 	ldr.w	r9, [pc, #556]	; 10a93c <_strtod_r+0x314>
  10a710:	f04f 0800 	mov.w	r8, #0
  10a714:	e003      	b.n	10a71e <_strtod_r+0xf6>
  10a716:	f06f 4900 	mvn.w	r9, #2147483648	; 0x80000000
  10a71a:	f04f 38ff 	mov.w	r8, #4294967295
  10a71e:	0721      	lsls	r1, r4, #28
  10a720:	f140 854b 	bpl.w	10b1ba <_strtod_r+0xb92>
  10a724:	f049 4900 	orr.w	r9, r9, #2147483648	; 0x80000000
  10a728:	f000 bd47 	b.w	10b1ba <_strtod_r+0xb92>
  10a72c:	9b17      	ldr	r3, [sp, #92]	; 0x5c
  10a72e:	1c5a      	adds	r2, r3, #1
  10a730:	9217      	str	r2, [sp, #92]	; 0x5c
  10a732:	785b      	ldrb	r3, [r3, #1]
  10a734:	2b30      	cmp	r3, #48	; 0x30
  10a736:	d0f9      	beq.n	10a72c <_strtod_r+0x104>
  10a738:	2b00      	cmp	r3, #0
  10a73a:	f000 853e 	beq.w	10b1ba <_strtod_r+0xb92>
  10a73e:	2301      	movs	r3, #1
  10a740:	e000      	b.n	10a744 <_strtod_r+0x11c>
  10a742:	2300      	movs	r3, #0
  10a744:	9305      	str	r3, [sp, #20]
  10a746:	9b17      	ldr	r3, [sp, #92]	; 0x5c
  10a748:	220a      	movs	r2, #10
  10a74a:	9306      	str	r3, [sp, #24]
  10a74c:	2300      	movs	r3, #0
  10a74e:	469b      	mov	r11, r3
  10a750:	9302      	str	r3, [sp, #8]
  10a752:	9304      	str	r3, [sp, #16]
  10a754:	9d17      	ldr	r5, [sp, #92]	; 0x5c
  10a756:	782e      	ldrb	r6, [r5, #0]
  10a758:	f1a6 0330 	sub.w	r3, r6, #48	; 0x30
  10a75c:	b2d9      	uxtb	r1, r3
  10a75e:	2909      	cmp	r1, #9
  10a760:	d811      	bhi.n	10a786 <_strtod_r+0x15e>
  10a762:	f1bb 0f08 	cmp.w	r11, #8
  10a766:	bfd5      	itete	le
  10a768:	9904      	ldrle	r1, [sp, #16]
  10a76a:	9902      	ldrgt	r1, [sp, #8]
  10a76c:	fb02 3301 	mlale	r3, r2, r1, r3
  10a770:	fb02 3301 	mlagt	r3, r2, r1, r3
  10a774:	f105 0501 	add.w	r5, r5, #1
  10a778:	bfd4      	ite	le
  10a77a:	9304      	strle	r3, [sp, #16]
  10a77c:	9302      	strgt	r3, [sp, #8]
  10a77e:	f10b 0b01 	add.w	r11, r11, #1
  10a782:	9517      	str	r5, [sp, #92]	; 0x5c
  10a784:	e7e6      	b.n	10a754 <_strtod_r+0x12c>
  10a786:	4650      	mov	r0, r10
  10a788:	f7fe f936 	bl	1089f8 <_localeconv_r>
  10a78c:	6807      	ldr	r7, [r0, #0]
  10a78e:	4650      	mov	r0, r10
  10a790:	f7fe f932 	bl	1089f8 <_localeconv_r>
  10a794:	6800      	ldr	r0, [r0, #0]
  10a796:	f7ff ff06 	bl	10a5a6 <strlen>
  10a79a:	4639      	mov	r1, r7
  10a79c:	4602      	mov	r2, r0
  10a79e:	4628      	mov	r0, r5
  10a7a0:	f7ff ff09 	bl	10a5b6 <strncmp>
  10a7a4:	4607      	mov	r7, r0
  10a7a6:	b128      	cbz	r0, 10a7b4 <_strtod_r+0x18c>
  10a7a8:	2000      	movs	r0, #0
  10a7aa:	4633      	mov	r3, r6
  10a7ac:	465d      	mov	r5, r11
  10a7ae:	4602      	mov	r2, r0
  10a7b0:	4601      	mov	r1, r0
  10a7b2:	e05a      	b.n	10a86a <_strtod_r+0x242>
  10a7b4:	4650      	mov	r0, r10
  10a7b6:	f7fe f91f 	bl	1089f8 <_localeconv_r>
  10a7ba:	6800      	ldr	r0, [r0, #0]
  10a7bc:	f7ff fef3 	bl	10a5a6 <strlen>
  10a7c0:	9b17      	ldr	r3, [sp, #92]	; 0x5c
  10a7c2:	181a      	adds	r2, r3, r0
  10a7c4:	9217      	str	r2, [sp, #92]	; 0x5c
  10a7c6:	5c1b      	ldrb	r3, [r3, r0]
  10a7c8:	f1bb 0f00 	cmp.w	r11, #0
  10a7cc:	d145      	bne.n	10a85a <_strtod_r+0x232>
  10a7ce:	4658      	mov	r0, r11
  10a7d0:	2b30      	cmp	r3, #48	; 0x30
  10a7d2:	d105      	bne.n	10a7e0 <_strtod_r+0x1b8>
  10a7d4:	9b17      	ldr	r3, [sp, #92]	; 0x5c
  10a7d6:	3001      	adds	r0, #1
  10a7d8:	1c5a      	adds	r2, r3, #1
  10a7da:	9217      	str	r2, [sp, #92]	; 0x5c
  10a7dc:	785b      	ldrb	r3, [r3, #1]
  10a7de:	e7f7      	b.n	10a7d0 <_strtod_r+0x1a8>
  10a7e0:	f1a3 0231 	sub.w	r2, r3, #49	; 0x31
  10a7e4:	2a08      	cmp	r2, #8
  10a7e6:	d846      	bhi.n	10a876 <_strtod_r+0x24e>
  10a7e8:	9a17      	ldr	r2, [sp, #92]	; 0x5c
  10a7ea:	9206      	str	r2, [sp, #24]
  10a7ec:	4602      	mov	r2, r0
  10a7ee:	2000      	movs	r0, #0
  10a7f0:	4605      	mov	r5, r0
  10a7f2:	3b30      	subs	r3, #48	; 0x30
  10a7f4:	f100 0101 	add.w	r1, r0, #1
  10a7f8:	d029      	beq.n	10a84e <_strtod_r+0x226>
  10a7fa:	440a      	add	r2, r1
  10a7fc:	4629      	mov	r1, r5
  10a7fe:	eb05 0c00 	add.w	r12, r5, r0
  10a802:	260a      	movs	r6, #10
  10a804:	4561      	cmp	r1, r12
  10a806:	d00f      	beq.n	10a828 <_strtod_r+0x200>
  10a808:	3101      	adds	r1, #1
  10a80a:	f101 3eff 	add.w	lr, r1, #4294967295
  10a80e:	f1be 0f08 	cmp.w	lr, #8
  10a812:	dc03      	bgt.n	10a81c <_strtod_r+0x1f4>
  10a814:	9f04      	ldr	r7, [sp, #16]
  10a816:	4377      	muls	r7, r6
  10a818:	9704      	str	r7, [sp, #16]
  10a81a:	e7f3      	b.n	10a804 <_strtod_r+0x1dc>
  10a81c:	2910      	cmp	r1, #16
  10a81e:	bfde      	ittt	le
  10a820:	9f02      	ldrle	r7, [sp, #8]
  10a822:	4377      	mulle	r7, r6
  10a824:	9702      	strle	r7, [sp, #8]
  10a826:	e7ed      	b.n	10a804 <_strtod_r+0x1dc>
  10a828:	4428      	add	r0, r5
  10a82a:	2808      	cmp	r0, #8
  10a82c:	f100 0501 	add.w	r5, r0, #1
  10a830:	dc05      	bgt.n	10a83e <_strtod_r+0x216>
  10a832:	9804      	ldr	r0, [sp, #16]
  10a834:	210a      	movs	r1, #10
  10a836:	fb01 3300 	mla	r3, r1, r0, r3
  10a83a:	9304      	str	r3, [sp, #16]
  10a83c:	e006      	b.n	10a84c <_strtod_r+0x224>
  10a83e:	2d10      	cmp	r5, #16
  10a840:	bfdf      	itttt	le
  10a842:	9802      	ldrle	r0, [sp, #8]
  10a844:	210a      	movle	r1, #10
  10a846:	fb01 3300 	mlale	r3, r1, r0, r3
  10a84a:	9302      	strle	r3, [sp, #8]
  10a84c:	2100      	movs	r1, #0
  10a84e:	9b17      	ldr	r3, [sp, #92]	; 0x5c
  10a850:	1c58      	adds	r0, r3, #1
  10a852:	9017      	str	r0, [sp, #92]	; 0x5c
  10a854:	785b      	ldrb	r3, [r3, #1]
  10a856:	4608      	mov	r0, r1
  10a858:	e002      	b.n	10a860 <_strtod_r+0x238>
  10a85a:	465d      	mov	r5, r11
  10a85c:	4638      	mov	r0, r7
  10a85e:	463a      	mov	r2, r7
  10a860:	f1a3 0130 	sub.w	r1, r3, #48	; 0x30
  10a864:	2909      	cmp	r1, #9
  10a866:	d9c4      	bls.n	10a7f2 <_strtod_r+0x1ca>
  10a868:	2101      	movs	r1, #1
  10a86a:	2b65      	cmp	r3, #101	; 0x65
  10a86c:	d001      	beq.n	10a872 <_strtod_r+0x24a>
  10a86e:	2b45      	cmp	r3, #69	; 0x45
  10a870:	d14f      	bne.n	10a912 <_strtod_r+0x2ea>
  10a872:	b96d      	cbnz	r5, 10a890 <_strtod_r+0x268>
  10a874:	e004      	b.n	10a880 <_strtod_r+0x258>
  10a876:	2b65      	cmp	r3, #101	; 0x65
  10a878:	f040 84ad 	bne.w	10b1d6 <_strtod_r+0xbae>
  10a87c:	2200      	movs	r2, #0
  10a87e:	2101      	movs	r1, #1
  10a880:	b928      	cbnz	r0, 10a88e <_strtod_r+0x266>
  10a882:	9b05      	ldr	r3, [sp, #20]
  10a884:	2b00      	cmp	r3, #0
  10a886:	f000 8092 	beq.w	10a9ae <_strtod_r+0x386>
  10a88a:	4605      	mov	r5, r0
  10a88c:	e000      	b.n	10a890 <_strtod_r+0x268>
  10a88e:	2500      	movs	r5, #0
  10a890:	9c17      	ldr	r4, [sp, #92]	; 0x5c
  10a892:	1c63      	adds	r3, r4, #1
  10a894:	9317      	str	r3, [sp, #92]	; 0x5c
  10a896:	7863      	ldrb	r3, [r4, #1]
  10a898:	2b2b      	cmp	r3, #43	; 0x2b
  10a89a:	d006      	beq.n	10a8aa <_strtod_r+0x282>
  10a89c:	2b2d      	cmp	r3, #45	; 0x2d
  10a89e:	d002      	beq.n	10a8a6 <_strtod_r+0x27e>
  10a8a0:	2600      	movs	r6, #0
  10a8a2:	9603      	str	r6, [sp, #12]
  10a8a4:	e006      	b.n	10a8b4 <_strtod_r+0x28c>
  10a8a6:	2301      	movs	r3, #1
  10a8a8:	e000      	b.n	10a8ac <_strtod_r+0x284>
  10a8aa:	2300      	movs	r3, #0
  10a8ac:	9303      	str	r3, [sp, #12]
  10a8ae:	1ca3      	adds	r3, r4, #2
  10a8b0:	9317      	str	r3, [sp, #92]	; 0x5c
  10a8b2:	78a3      	ldrb	r3, [r4, #2]
  10a8b4:	f1a3 0630 	sub.w	r6, r3, #48	; 0x30
  10a8b8:	2e09      	cmp	r6, #9
  10a8ba:	d829      	bhi.n	10a910 <_strtod_r+0x2e8>
  10a8bc:	2b30      	cmp	r3, #48	; 0x30
  10a8be:	d104      	bne.n	10a8ca <_strtod_r+0x2a2>
  10a8c0:	9b17      	ldr	r3, [sp, #92]	; 0x5c
  10a8c2:	1c5e      	adds	r6, r3, #1
  10a8c4:	9617      	str	r6, [sp, #92]	; 0x5c
  10a8c6:	785b      	ldrb	r3, [r3, #1]
  10a8c8:	e7f8      	b.n	10a8bc <_strtod_r+0x294>
  10a8ca:	f1a3 0631 	sub.w	r6, r3, #49	; 0x31
  10a8ce:	2e08      	cmp	r6, #8
  10a8d0:	d81f      	bhi.n	10a912 <_strtod_r+0x2ea>
  10a8d2:	f1a3 0e30 	sub.w	lr, r3, #48	; 0x30
  10a8d6:	9b17      	ldr	r3, [sp, #92]	; 0x5c
  10a8d8:	461f      	mov	r7, r3
  10a8da:	9b17      	ldr	r3, [sp, #92]	; 0x5c
  10a8dc:	1c5e      	adds	r6, r3, #1
  10a8de:	9617      	str	r6, [sp, #92]	; 0x5c
  10a8e0:	785b      	ldrb	r3, [r3, #1]
  10a8e2:	f1a3 0c30 	sub.w	r12, r3, #48	; 0x30
  10a8e6:	f1bc 0f09 	cmp.w	r12, #9
  10a8ea:	d805      	bhi.n	10a8f8 <_strtod_r+0x2d0>
  10a8ec:	260a      	movs	r6, #10
  10a8ee:	fb06 3e0e 	mla	lr, r6, lr, r3
  10a8f2:	f1ae 0e30 	sub.w	lr, lr, #48	; 0x30
  10a8f6:	e7f0      	b.n	10a8da <_strtod_r+0x2b2>
  10a8f8:	1bf6      	subs	r6, r6, r7
  10a8fa:	2e08      	cmp	r6, #8
  10a8fc:	f644 661f 	movw	r6, #19999	; 0x4e1f
  10a900:	dc02      	bgt.n	10a908 <_strtod_r+0x2e0>
  10a902:	4576      	cmp	r6, lr
  10a904:	bfa8      	it	ge
  10a906:	4676      	movge	r6, lr
  10a908:	9f03      	ldr	r7, [sp, #12]
  10a90a:	b11f      	cbz	r7, 10a914 <_strtod_r+0x2ec>
  10a90c:	4276      	negs	r6, r6
  10a90e:	e001      	b.n	10a914 <_strtod_r+0x2ec>
  10a910:	9417      	str	r4, [sp, #92]	; 0x5c
  10a912:	2600      	movs	r6, #0
  10a914:	2d00      	cmp	r5, #0
  10a916:	d152      	bne.n	10a9be <_strtod_r+0x396>
  10a918:	2800      	cmp	r0, #0
  10a91a:	f040 844e 	bne.w	10b1ba <_strtod_r+0xb92>
  10a91e:	9a05      	ldr	r2, [sp, #20]
  10a920:	2a00      	cmp	r2, #0
  10a922:	f040 844a 	bne.w	10b1ba <_strtod_r+0xb92>
  10a926:	2900      	cmp	r1, #0
  10a928:	d141      	bne.n	10a9ae <_strtod_r+0x386>
  10a92a:	2b4e      	cmp	r3, #78	; 0x4e
  10a92c:	d020      	beq.n	10a970 <_strtod_r+0x348>
  10a92e:	dc07      	bgt.n	10a940 <_strtod_r+0x318>
  10a930:	2b49      	cmp	r3, #73	; 0x49
  10a932:	d00a      	beq.n	10a94a <_strtod_r+0x322>
  10a934:	e03b      	b.n	10a9ae <_strtod_r+0x386>
  10a936:	bf00      	nop
  10a938:	0010e970 	.word	0x0010e970
  10a93c:	7ff00000 	.word	0x7ff00000
  10a940:	2b69      	cmp	r3, #105	; 0x69
  10a942:	d002      	beq.n	10a94a <_strtod_r+0x322>
  10a944:	2b6e      	cmp	r3, #110	; 0x6e
  10a946:	d013      	beq.n	10a970 <_strtod_r+0x348>
  10a948:	e031      	b.n	10a9ae <_strtod_r+0x386>
  10a94a:	49aa      	ldr	r1, [pc, #680]	; (10abf4 <_strtod_r+0x5cc>)
  10a94c:	a817      	add	r0, sp, #92	; 0x5c
  10a94e:	f002 f821 	bl	10c994 <__match>
  10a952:	b360      	cbz	r0, 10a9ae <_strtod_r+0x386>
  10a954:	9b17      	ldr	r3, [sp, #92]	; 0x5c
  10a956:	49a8      	ldr	r1, [pc, #672]	; (10abf8 <_strtod_r+0x5d0>)
  10a958:	3b01      	subs	r3, #1
  10a95a:	a817      	add	r0, sp, #92	; 0x5c
  10a95c:	9317      	str	r3, [sp, #92]	; 0x5c
  10a95e:	f002 f819 	bl	10c994 <__match>
  10a962:	b910      	cbnz	r0, 10a96a <_strtod_r+0x342>
  10a964:	9b17      	ldr	r3, [sp, #92]	; 0x5c
  10a966:	3301      	adds	r3, #1
  10a968:	9317      	str	r3, [sp, #92]	; 0x5c
  10a96a:	f8df 92a8 	ldr.w	r9, [pc, #680]	; 10ac14 <_strtod_r+0x5ec>
  10a96e:	e01a      	b.n	10a9a6 <_strtod_r+0x37e>
  10a970:	49a2      	ldr	r1, [pc, #648]	; (10abfc <_strtod_r+0x5d4>)
  10a972:	a817      	add	r0, sp, #92	; 0x5c
  10a974:	f002 f80e 	bl	10c994 <__match>
  10a978:	b1c8      	cbz	r0, 10a9ae <_strtod_r+0x386>
  10a97a:	9b17      	ldr	r3, [sp, #92]	; 0x5c
  10a97c:	781b      	ldrb	r3, [r3, #0]
  10a97e:	2b28      	cmp	r3, #40	; 0x28
  10a980:	d10f      	bne.n	10a9a2 <_strtod_r+0x37a>
  10a982:	aa1a      	add	r2, sp, #104	; 0x68
  10a984:	499e      	ldr	r1, [pc, #632]	; (10ac00 <_strtod_r+0x5d8>)
  10a986:	a817      	add	r0, sp, #92	; 0x5c
  10a988:	f002 f817 	bl	10c9ba <__hexnan>
  10a98c:	2805      	cmp	r0, #5
  10a98e:	d108      	bne.n	10a9a2 <_strtod_r+0x37a>
  10a990:	9b1b      	ldr	r3, [sp, #108]	; 0x6c
  10a992:	f8dd 8068 	ldr.w	r8, [sp, #104]	; 0x68
  10a996:	f043 49ff 	orr.w	r9, r3, #2139095040	; 0x7f800000
  10a99a:	f449 09e0 	orr.w	r9, r9, #7340032	; 0x700000
  10a99e:	f000 bc0c 	b.w	10b1ba <_strtod_r+0xb92>
  10a9a2:	f8df 9274 	ldr.w	r9, [pc, #628]	; 10ac18 <_strtod_r+0x5f0>
  10a9a6:	f04f 0800 	mov.w	r8, #0
  10a9aa:	f000 bc06 	b.w	10b1ba <_strtod_r+0xb92>
  10a9ae:	9b13      	ldr	r3, [sp, #76]	; 0x4c
  10a9b0:	9417      	str	r4, [sp, #92]	; 0x5c
  10a9b2:	2b00      	cmp	r3, #0
  10a9b4:	f000 840c 	beq.w	10b1d0 <_strtod_r+0xba8>
  10a9b8:	2300      	movs	r3, #0
  10a9ba:	930c      	str	r3, [sp, #48]	; 0x30
  10a9bc:	e3ff      	b.n	10b1be <_strtod_r+0xb96>
  10a9be:	462c      	mov	r4, r5
  10a9c0:	f1bb 0f00 	cmp.w	r11, #0
  10a9c4:	bf08      	it	eq
  10a9c6:	46ab      	moveq	r11, r5
  10a9c8:	9804      	ldr	r0, [sp, #16]
  10a9ca:	2d10      	cmp	r5, #16
  10a9cc:	bfa8      	it	ge
  10a9ce:	2410      	movge	r4, #16
  10a9d0:	1ab7      	subs	r7, r6, r2
  10a9d2:	f7fc feaf 	bl	107734 <__aeabi_ui2d>
  10a9d6:	2c09      	cmp	r4, #9
  10a9d8:	4680      	mov	r8, r0
  10a9da:	4689      	mov	r9, r1
  10a9dc:	dd13      	ble.n	10aa06 <_strtod_r+0x3de>
  10a9de:	4b89      	ldr	r3, [pc, #548]	; (10ac04 <_strtod_r+0x5dc>)
  10a9e0:	eb03 03c4 	add.w	r3, r3, r4, lsl #3
  10a9e4:	e953 2312 	ldrd	r2, r3, [r3, #-72]	; 0x48
  10a9e8:	f7fd face 	bl	107f88 <__aeabi_dmul>
  10a9ec:	4680      	mov	r8, r0
  10a9ee:	9802      	ldr	r0, [sp, #8]
  10a9f0:	4689      	mov	r9, r1
  10a9f2:	f7fc fe9f 	bl	107734 <__aeabi_ui2d>
  10a9f6:	4602      	mov	r2, r0
  10a9f8:	460b      	mov	r3, r1
  10a9fa:	4640      	mov	r0, r8
  10a9fc:	4649      	mov	r1, r9
  10a9fe:	f7fc fd5d 	bl	1074bc <__adddf3>
  10aa02:	4680      	mov	r8, r0
  10aa04:	4689      	mov	r9, r1
  10aa06:	2d0f      	cmp	r5, #15
  10aa08:	dc33      	bgt.n	10aa72 <_strtod_r+0x44a>
  10aa0a:	2f00      	cmp	r7, #0
  10aa0c:	f000 83d5 	beq.w	10b1ba <_strtod_r+0xb92>
  10aa10:	dd22      	ble.n	10aa58 <_strtod_r+0x430>
  10aa12:	2f16      	cmp	r7, #22
  10aa14:	dc07      	bgt.n	10aa26 <_strtod_r+0x3fe>
  10aa16:	4d7b      	ldr	r5, [pc, #492]	; (10ac04 <_strtod_r+0x5dc>)
  10aa18:	4642      	mov	r2, r8
  10aa1a:	eb05 01c7 	add.w	r1, r5, r7, lsl #3
  10aa1e:	464b      	mov	r3, r9
  10aa20:	e9d1 0100 	ldrd	r0, r1, [r1]
  10aa24:	e013      	b.n	10aa4e <_strtod_r+0x426>
  10aa26:	f1c5 0325 	rsb	r3, r5, #37	; 0x25
  10aa2a:	429f      	cmp	r7, r3
  10aa2c:	dc21      	bgt.n	10aa72 <_strtod_r+0x44a>
  10aa2e:	4c75      	ldr	r4, [pc, #468]	; (10ac04 <_strtod_r+0x5dc>)
  10aa30:	f1c5 050f 	rsb	r5, r5, #15
  10aa34:	eb04 01c5 	add.w	r1, r4, r5, lsl #3
  10aa38:	1b7d      	subs	r5, r7, r5
  10aa3a:	4642      	mov	r2, r8
  10aa3c:	e9d1 0100 	ldrd	r0, r1, [r1]
  10aa40:	464b      	mov	r3, r9
  10aa42:	eb04 04c5 	add.w	r4, r4, r5, lsl #3
  10aa46:	f7fd fa9f 	bl	107f88 <__aeabi_dmul>
  10aa4a:	e9d4 2300 	ldrd	r2, r3, [r4]
  10aa4e:	f7fd fa9b 	bl	107f88 <__aeabi_dmul>
  10aa52:	4680      	mov	r8, r0
  10aa54:	4689      	mov	r9, r1
  10aa56:	e3b0      	b.n	10b1ba <_strtod_r+0xb92>
  10aa58:	f117 0f16 	cmn.w	r7, #22
  10aa5c:	db09      	blt.n	10aa72 <_strtod_r+0x44a>
  10aa5e:	4d69      	ldr	r5, [pc, #420]	; (10ac04 <_strtod_r+0x5dc>)
  10aa60:	4640      	mov	r0, r8
  10aa62:	eba5 03c7 	sub.w	r3, r5, r7, lsl #3
  10aa66:	e9d3 2300 	ldrd	r2, r3, [r3]
  10aa6a:	4649      	mov	r1, r9
  10aa6c:	f7fd fbb6 	bl	1081dc <__aeabi_ddiv>
  10aa70:	e7ef      	b.n	10aa52 <_strtod_r+0x42a>
  10aa72:	1b2c      	subs	r4, r5, r4
  10aa74:	443c      	add	r4, r7
  10aa76:	2c00      	cmp	r4, #0
  10aa78:	dd5d      	ble.n	10ab36 <_strtod_r+0x50e>
  10aa7a:	f014 010f 	ands.w	r1, r4, #15
  10aa7e:	d00a      	beq.n	10aa96 <_strtod_r+0x46e>
  10aa80:	4b60      	ldr	r3, [pc, #384]	; (10ac04 <_strtod_r+0x5dc>)
  10aa82:	4642      	mov	r2, r8
  10aa84:	eb03 01c1 	add.w	r1, r3, r1, lsl #3
  10aa88:	e9d1 0100 	ldrd	r0, r1, [r1]
  10aa8c:	464b      	mov	r3, r9
  10aa8e:	f7fd fa7b 	bl	107f88 <__aeabi_dmul>
  10aa92:	4680      	mov	r8, r0
  10aa94:	4689      	mov	r9, r1
  10aa96:	f034 040f 	bics.w	r4, r4, #15
  10aa9a:	f000 80c1 	beq.w	10ac20 <_strtod_r+0x5f8>
  10aa9e:	f5b4 7f9a 	cmp.w	r4, #308	; 0x134
  10aaa2:	dd0f      	ble.n	10aac4 <_strtod_r+0x49c>
  10aaa4:	f04f 0b00 	mov.w	r11, #0
  10aaa8:	f8cd b008 	str.w	r11, [sp, #8]
  10aaac:	f8cd b014 	str.w	r11, [sp, #20]
  10aab0:	f8cd b010 	str.w	r11, [sp, #16]
  10aab4:	2322      	movs	r3, #34	; 0x22
  10aab6:	f8ca 3000 	str.w	r3, [r10]
  10aaba:	f8df 9158 	ldr.w	r9, [pc, #344]	; 10ac14 <_strtod_r+0x5ec>
  10aabe:	f04f 0800 	mov.w	r8, #0
  10aac2:	e189      	b.n	10add8 <_strtod_r+0x7b0>
  10aac4:	4640      	mov	r0, r8
  10aac6:	4649      	mov	r1, r9
  10aac8:	2300      	movs	r3, #0
  10aaca:	4e4f      	ldr	r6, [pc, #316]	; (10ac08 <_strtod_r+0x5e0>)
  10aacc:	1124      	asrs	r4, r4, #4
  10aace:	9302      	str	r3, [sp, #8]
  10aad0:	2c01      	cmp	r4, #1
  10aad2:	dd0c      	ble.n	10aaee <_strtod_r+0x4c6>
  10aad4:	07e2      	lsls	r2, r4, #31
  10aad6:	d504      	bpl.n	10aae2 <_strtod_r+0x4ba>
  10aad8:	e9d6 2300 	ldrd	r2, r3, [r6]
  10aadc:	f7fd fa54 	bl	107f88 <__aeabi_dmul>
  10aae0:	2301      	movs	r3, #1
  10aae2:	9a02      	ldr	r2, [sp, #8]
  10aae4:	1064      	asrs	r4, r4, #1
  10aae6:	3201      	adds	r2, #1
  10aae8:	9202      	str	r2, [sp, #8]
  10aaea:	3608      	adds	r6, #8
  10aaec:	e7f0      	b.n	10aad0 <_strtod_r+0x4a8>
  10aaee:	b10b      	cbz	r3, 10aaf4 <_strtod_r+0x4cc>
  10aaf0:	4680      	mov	r8, r0
  10aaf2:	4689      	mov	r9, r1
  10aaf4:	4b44      	ldr	r3, [pc, #272]	; (10ac08 <_strtod_r+0x5e0>)
  10aaf6:	9a02      	ldr	r2, [sp, #8]
  10aaf8:	f1a9 7954 	sub.w	r9, r9, #55574528	; 0x3500000
  10aafc:	eb03 01c2 	add.w	r1, r3, r2, lsl #3
  10ab00:	e9d1 0100 	ldrd	r0, r1, [r1]
  10ab04:	4642      	mov	r2, r8
  10ab06:	464b      	mov	r3, r9
  10ab08:	f7fd fa3e 	bl	107f88 <__aeabi_dmul>
  10ab0c:	f021 4300 	bic.w	r3, r1, #2147483648	; 0x80000000
  10ab10:	4689      	mov	r9, r1
  10ab12:	460a      	mov	r2, r1
  10ab14:	0d1b      	lsrs	r3, r3, #20
  10ab16:	493d      	ldr	r1, [pc, #244]	; (10ac0c <_strtod_r+0x5e4>)
  10ab18:	051b      	lsls	r3, r3, #20
  10ab1a:	428b      	cmp	r3, r1
  10ab1c:	4680      	mov	r8, r0
  10ab1e:	d8c1      	bhi.n	10aaa4 <_strtod_r+0x47c>
  10ab20:	f5a1 1180 	sub.w	r1, r1, #1048576	; 0x100000
  10ab24:	428b      	cmp	r3, r1
  10ab26:	bf86      	itte	hi
  10ab28:	f8df 90f0 	ldrhi.w	r9, [pc, #240]	; 10ac1c <_strtod_r+0x5f4>
  10ab2c:	f04f 38ff 	movhi.w	r8, #4294967295
  10ab30:	f102 7954 	addls.w	r9, r2, #55574528	; 0x3500000
  10ab34:	e074      	b.n	10ac20 <_strtod_r+0x5f8>
  10ab36:	d073      	beq.n	10ac20 <_strtod_r+0x5f8>
  10ab38:	4264      	negs	r4, r4
  10ab3a:	f014 020f 	ands.w	r2, r4, #15
  10ab3e:	d00a      	beq.n	10ab56 <_strtod_r+0x52e>
  10ab40:	4b30      	ldr	r3, [pc, #192]	; (10ac04 <_strtod_r+0x5dc>)
  10ab42:	4640      	mov	r0, r8
  10ab44:	eb03 03c2 	add.w	r3, r3, r2, lsl #3
  10ab48:	4649      	mov	r1, r9
  10ab4a:	e9d3 2300 	ldrd	r2, r3, [r3]
  10ab4e:	f7fd fb45 	bl	1081dc <__aeabi_ddiv>
  10ab52:	4680      	mov	r8, r0
  10ab54:	4689      	mov	r9, r1
  10ab56:	1124      	asrs	r4, r4, #4
  10ab58:	d062      	beq.n	10ac20 <_strtod_r+0x5f8>
  10ab5a:	2c1f      	cmp	r4, #31
  10ab5c:	dd08      	ble.n	10ab70 <_strtod_r+0x548>
  10ab5e:	f04f 0b00 	mov.w	r11, #0
  10ab62:	f8cd b008 	str.w	r11, [sp, #8]
  10ab66:	f8cd b014 	str.w	r11, [sp, #20]
  10ab6a:	f8cd b010 	str.w	r11, [sp, #16]
  10ab6e:	e12c      	b.n	10adca <_strtod_r+0x7a2>
  10ab70:	4640      	mov	r0, r8
  10ab72:	4649      	mov	r1, r9
  10ab74:	f014 0f10 	tst.w	r4, #16
  10ab78:	bf0c      	ite	eq
  10ab7a:	2300      	moveq	r3, #0
  10ab7c:	236a      	movne	r3, #106	; 0x6a
  10ab7e:	4e24      	ldr	r6, [pc, #144]	; (10ac10 <_strtod_r+0x5e8>)
  10ab80:	9303      	str	r3, [sp, #12]
  10ab82:	2300      	movs	r3, #0
  10ab84:	2c00      	cmp	r4, #0
  10ab86:	dd09      	ble.n	10ab9c <_strtod_r+0x574>
  10ab88:	07e2      	lsls	r2, r4, #31
  10ab8a:	d504      	bpl.n	10ab96 <_strtod_r+0x56e>
  10ab8c:	e9d6 2300 	ldrd	r2, r3, [r6]
  10ab90:	f7fd f9fa 	bl	107f88 <__aeabi_dmul>
  10ab94:	2301      	movs	r3, #1
  10ab96:	1064      	asrs	r4, r4, #1
  10ab98:	3608      	adds	r6, #8
  10ab9a:	e7f3      	b.n	10ab84 <_strtod_r+0x55c>
  10ab9c:	b10b      	cbz	r3, 10aba2 <_strtod_r+0x57a>
  10ab9e:	4680      	mov	r8, r0
  10aba0:	4689      	mov	r9, r1
  10aba2:	9b03      	ldr	r3, [sp, #12]
  10aba4:	b1eb      	cbz	r3, 10abe2 <_strtod_r+0x5ba>
  10aba6:	f3c9 530a 	ubfx	r3, r9, #20, #11
  10abaa:	f1c3 036b 	rsb	r3, r3, #107	; 0x6b
  10abae:	2b00      	cmp	r3, #0
  10abb0:	4649      	mov	r1, r9
  10abb2:	dd16      	ble.n	10abe2 <_strtod_r+0x5ba>
  10abb4:	2b1f      	cmp	r3, #31
  10abb6:	dd0e      	ble.n	10abd6 <_strtod_r+0x5ae>
  10abb8:	2b34      	cmp	r3, #52	; 0x34
  10abba:	bfde      	ittt	le
  10abbc:	3b20      	suble	r3, #32
  10abbe:	f04f 32ff 	movle.w	r2, #4294967295
  10abc2:	fa02 f303 	lslle.w	r3, r2, r3
  10abc6:	f04f 0800 	mov.w	r8, #0
  10abca:	bfcc      	ite	gt
  10abcc:	f04f 795c 	movgt.w	r9, #57671680	; 0x3700000
  10abd0:	ea03 0901 	andle.w	r9, r3, r1
  10abd4:	e005      	b.n	10abe2 <_strtod_r+0x5ba>
  10abd6:	f04f 32ff 	mov.w	r2, #4294967295
  10abda:	fa02 f303 	lsl.w	r3, r2, r3
  10abde:	ea03 0808 	and.w	r8, r3, r8
  10abe2:	2200      	movs	r2, #0
  10abe4:	2300      	movs	r3, #0
  10abe6:	4640      	mov	r0, r8
  10abe8:	4649      	mov	r1, r9
  10abea:	f7fc fe6f 	bl	1078cc <__aeabi_dcmpeq>
  10abee:	2800      	cmp	r0, #0
  10abf0:	d1b5      	bne.n	10ab5e <_strtod_r+0x536>
  10abf2:	e017      	b.n	10ac24 <_strtod_r+0x5fc>
  10abf4:	0010e902 	.word	0x0010e902
  10abf8:	0010e9b3 	.word	0x0010e9b3
  10abfc:	0010e90a 	.word	0x0010e90a
  10ac00:	0010e95c 	.word	0x0010e95c
  10ac04:	0010e9c0 	.word	0x0010e9c0
  10ac08:	0010ea98 	.word	0x0010ea98
  10ac0c:	7ca00000 	.word	0x7ca00000
  10ac10:	0010e988 	.word	0x0010e988
  10ac14:	7ff00000 	.word	0x7ff00000
  10ac18:	fff80000 	.word	0xfff80000
  10ac1c:	7fefffff 	.word	0x7fefffff
  10ac20:	2300      	movs	r3, #0
  10ac22:	9303      	str	r3, [sp, #12]
  10ac24:	9b04      	ldr	r3, [sp, #16]
  10ac26:	465a      	mov	r2, r11
  10ac28:	9300      	str	r3, [sp, #0]
  10ac2a:	9906      	ldr	r1, [sp, #24]
  10ac2c:	462b      	mov	r3, r5
  10ac2e:	4650      	mov	r0, r10
  10ac30:	f001 fffb 	bl	10cc2a <__s2b>
  10ac34:	9005      	str	r0, [sp, #20]
  10ac36:	2800      	cmp	r0, #0
  10ac38:	f43f af34 	beq.w	10aaa4 <_strtod_r+0x47c>
  10ac3c:	2f00      	cmp	r7, #0
  10ac3e:	f1c7 0300 	rsb	r3, r7, #0
  10ac42:	bfa8      	it	ge
  10ac44:	2300      	movge	r3, #0
  10ac46:	930d      	str	r3, [sp, #52]	; 0x34
  10ac48:	f04f 0b00 	mov.w	r11, #0
  10ac4c:	ea27 73e7 	bic.w	r3, r7, r7, asr #31
  10ac50:	9312      	str	r3, [sp, #72]	; 0x48
  10ac52:	f8cd b008 	str.w	r11, [sp, #8]
  10ac56:	9b05      	ldr	r3, [sp, #20]
  10ac58:	4650      	mov	r0, r10
  10ac5a:	6859      	ldr	r1, [r3, #4]
  10ac5c:	f001 ff5e 	bl	10cb1c <_Balloc>
  10ac60:	9004      	str	r0, [sp, #16]
  10ac62:	2800      	cmp	r0, #0
  10ac64:	f43f af26 	beq.w	10aab4 <_strtod_r+0x48c>
  10ac68:	9b05      	ldr	r3, [sp, #20]
  10ac6a:	300c      	adds	r0, #12
  10ac6c:	691a      	ldr	r2, [r3, #16]
  10ac6e:	f103 010c 	add.w	r1, r3, #12
  10ac72:	3202      	adds	r2, #2
  10ac74:	0092      	lsls	r2, r2, #2
  10ac76:	f7fd ff2d 	bl	108ad4 <memcpy>
  10ac7a:	ab1a      	add	r3, sp, #104	; 0x68
  10ac7c:	9301      	str	r3, [sp, #4]
  10ac7e:	ab19      	add	r3, sp, #100	; 0x64
  10ac80:	9300      	str	r3, [sp, #0]
  10ac82:	4642      	mov	r2, r8
  10ac84:	464b      	mov	r3, r9
  10ac86:	4650      	mov	r0, r10
  10ac88:	e9cd 8908 	strd	r8, r9, [sp, #32]
  10ac8c:	f002 fa7d 	bl	10d18a <__d2b>
  10ac90:	9018      	str	r0, [sp, #96]	; 0x60
  10ac92:	2800      	cmp	r0, #0
  10ac94:	f43f af0e 	beq.w	10aab4 <_strtod_r+0x48c>
  10ac98:	2101      	movs	r1, #1
  10ac9a:	4650      	mov	r0, r10
  10ac9c:	f002 f850 	bl	10cd40 <__i2b>
  10aca0:	9002      	str	r0, [sp, #8]
  10aca2:	2800      	cmp	r0, #0
  10aca4:	f43f af06 	beq.w	10aab4 <_strtod_r+0x48c>
  10aca8:	9b19      	ldr	r3, [sp, #100]	; 0x64
  10acaa:	9903      	ldr	r1, [sp, #12]
  10acac:	2b00      	cmp	r3, #0
  10acae:	bfac      	ite	ge
  10acb0:	9a0d      	ldrge	r2, [sp, #52]	; 0x34
  10acb2:	9a12      	ldrlt	r2, [sp, #72]	; 0x48
  10acb4:	9c1a      	ldr	r4, [sp, #104]	; 0x68
  10acb6:	bfac      	ite	ge
  10acb8:	18d6      	addge	r6, r2, r3
  10acba:	1ad2      	sublt	r2, r2, r3
  10acbc:	eba3 0301 	sub.w	r3, r3, r1
  10acc0:	4423      	add	r3, r4
  10acc2:	49b1      	ldr	r1, [pc, #708]	; (10af88 <_strtod_r+0x960>)
  10acc4:	f103 33ff 	add.w	r3, r3, #4294967295
  10acc8:	bfac      	ite	ge
  10acca:	9a12      	ldrge	r2, [sp, #72]	; 0x48
  10accc:	9e0d      	ldrlt	r6, [sp, #52]	; 0x34
  10acce:	428b      	cmp	r3, r1
  10acd0:	f1c4 0436 	rsb	r4, r4, #54	; 0x36
  10acd4:	f280 8085 	bge.w	10ade2 <_strtod_r+0x7ba>
  10acd8:	1ac9      	subs	r1, r1, r3
  10acda:	291f      	cmp	r1, #31
  10acdc:	bfc8      	it	gt
  10acde:	4dab      	ldrgt	r5, [pc, #684]	; (10af8c <_strtod_r+0x964>)
  10ace0:	f04f 0701 	mov.w	r7, #1
  10ace4:	bfd4      	ite	le
  10ace6:	fa07 f301 	lslle.w	r3, r7, r1
  10acea:	1aed      	subgt	r5, r5, r3
  10acec:	eba4 0401 	sub.w	r4, r4, r1
  10acf0:	bfd9      	ittee	le
  10acf2:	9307      	strle	r3, [sp, #28]
  10acf4:	2500      	movle	r5, #0
  10acf6:	fa07 f505 	lslgt.w	r5, r7, r5
  10acfa:	9707      	strgt	r7, [sp, #28]
  10acfc:	1937      	adds	r7, r6, r4
  10acfe:	9b03      	ldr	r3, [sp, #12]
  10ad00:	42be      	cmp	r6, r7
  10ad02:	4414      	add	r4, r2
  10ad04:	441c      	add	r4, r3
  10ad06:	4633      	mov	r3, r6
  10ad08:	bfa8      	it	ge
  10ad0a:	463b      	movge	r3, r7
  10ad0c:	42a3      	cmp	r3, r4
  10ad0e:	bfa8      	it	ge
  10ad10:	4623      	movge	r3, r4
  10ad12:	2b00      	cmp	r3, #0
  10ad14:	bfc2      	ittt	gt
  10ad16:	1aff      	subgt	r7, r7, r3
  10ad18:	1ae4      	subgt	r4, r4, r3
  10ad1a:	1af6      	subgt	r6, r6, r3
  10ad1c:	9b0d      	ldr	r3, [sp, #52]	; 0x34
  10ad1e:	2b00      	cmp	r3, #0
  10ad20:	d163      	bne.n	10adea <_strtod_r+0x7c2>
  10ad22:	2f00      	cmp	r7, #0
  10ad24:	dc7a      	bgt.n	10ae1c <_strtod_r+0x7f4>
  10ad26:	9b12      	ldr	r3, [sp, #72]	; 0x48
  10ad28:	2b00      	cmp	r3, #0
  10ad2a:	f040 8081 	bne.w	10ae30 <_strtod_r+0x808>
  10ad2e:	2c00      	cmp	r4, #0
  10ad30:	f300 8088 	bgt.w	10ae44 <_strtod_r+0x81c>
  10ad34:	2e00      	cmp	r6, #0
  10ad36:	f300 808f 	bgt.w	10ae58 <_strtod_r+0x830>
  10ad3a:	9a04      	ldr	r2, [sp, #16]
  10ad3c:	9918      	ldr	r1, [sp, #96]	; 0x60
  10ad3e:	4650      	mov	r0, r10
  10ad40:	f002 f953 	bl	10cfea <__mdiff>
  10ad44:	4683      	mov	r11, r0
  10ad46:	2800      	cmp	r0, #0
  10ad48:	f43f aeb4 	beq.w	10aab4 <_strtod_r+0x48c>
  10ad4c:	68c3      	ldr	r3, [r0, #12]
  10ad4e:	2400      	movs	r4, #0
  10ad50:	60c4      	str	r4, [r0, #12]
  10ad52:	9902      	ldr	r1, [sp, #8]
  10ad54:	9306      	str	r3, [sp, #24]
  10ad56:	f002 f92c 	bl	10cfb2 <__mcmp>
  10ad5a:	42a0      	cmp	r0, r4
  10ad5c:	f280 808b 	bge.w	10ae76 <_strtod_r+0x84e>
  10ad60:	9b06      	ldr	r3, [sp, #24]
  10ad62:	2b00      	cmp	r3, #0
  10ad64:	f040 8202 	bne.w	10b16c <_strtod_r+0xb44>
  10ad68:	f1b8 0f00 	cmp.w	r8, #0
  10ad6c:	f040 81fe 	bne.w	10b16c <_strtod_r+0xb44>
  10ad70:	f3c9 0313 	ubfx	r3, r9, #0, #20
  10ad74:	2b00      	cmp	r3, #0
  10ad76:	f040 81f9 	bne.w	10b16c <_strtod_r+0xb44>
  10ad7a:	f029 4300 	bic.w	r3, r9, #2147483648	; 0x80000000
  10ad7e:	0d1b      	lsrs	r3, r3, #20
  10ad80:	051b      	lsls	r3, r3, #20
  10ad82:	f1b3 6fd6 	cmp.w	r3, #112197632	; 0x6b00000
  10ad86:	f240 81f1 	bls.w	10b16c <_strtod_r+0xb44>
  10ad8a:	f8db 3014 	ldr.w	r3, [r11, #20]
  10ad8e:	2b00      	cmp	r3, #0
  10ad90:	d06c      	beq.n	10ae6c <_strtod_r+0x844>
  10ad92:	4659      	mov	r1, r11
  10ad94:	2201      	movs	r2, #1
  10ad96:	4650      	mov	r0, r10
  10ad98:	f002 f8ba 	bl	10cf10 <__lshift>
  10ad9c:	9902      	ldr	r1, [sp, #8]
  10ad9e:	4683      	mov	r11, r0
  10ada0:	f002 f907 	bl	10cfb2 <__mcmp>
  10ada4:	2800      	cmp	r0, #0
  10ada6:	f340 81e1 	ble.w	10b16c <_strtod_r+0xb44>
  10adaa:	f029 4300 	bic.w	r3, r9, #2147483648	; 0x80000000
  10adae:	9a03      	ldr	r2, [sp, #12]
  10adb0:	0d1b      	lsrs	r3, r3, #20
  10adb2:	051b      	lsls	r3, r3, #20
  10adb4:	2a00      	cmp	r2, #0
  10adb6:	f000 808d 	beq.w	10aed4 <_strtod_r+0x8ac>
  10adba:	f1b3 6fd6 	cmp.w	r3, #112197632	; 0x6b00000
  10adbe:	f300 8089 	bgt.w	10aed4 <_strtod_r+0x8ac>
  10adc2:	f1b3 7f5c 	cmp.w	r3, #57671680	; 0x3700000
  10adc6:	f300 81d3 	bgt.w	10b170 <_strtod_r+0xb48>
  10adca:	2322      	movs	r3, #34	; 0x22
  10adcc:	f04f 0800 	mov.w	r8, #0
  10add0:	f04f 0900 	mov.w	r9, #0
  10add4:	f8ca 3000 	str.w	r3, [r10]
  10add8:	9b05      	ldr	r3, [sp, #20]
  10adda:	2b00      	cmp	r3, #0
  10addc:	f040 81d9 	bne.w	10b192 <_strtod_r+0xb6a>
  10ade0:	e1eb      	b.n	10b1ba <_strtod_r+0xb92>
  10ade2:	2301      	movs	r3, #1
  10ade4:	2500      	movs	r5, #0
  10ade6:	9307      	str	r3, [sp, #28]
  10ade8:	e788      	b.n	10acfc <_strtod_r+0x6d4>
  10adea:	461a      	mov	r2, r3
  10adec:	9902      	ldr	r1, [sp, #8]
  10adee:	4650      	mov	r0, r10
  10adf0:	f002 f840 	bl	10ce74 <__pow5mult>
  10adf4:	9002      	str	r0, [sp, #8]
  10adf6:	2800      	cmp	r0, #0
  10adf8:	f43f ae5c 	beq.w	10aab4 <_strtod_r+0x48c>
  10adfc:	4601      	mov	r1, r0
  10adfe:	9a18      	ldr	r2, [sp, #96]	; 0x60
  10ae00:	4650      	mov	r0, r10
  10ae02:	f001 ffa6 	bl	10cd52 <__multiply>
  10ae06:	9006      	str	r0, [sp, #24]
  10ae08:	2800      	cmp	r0, #0
  10ae0a:	f43f ae53 	beq.w	10aab4 <_strtod_r+0x48c>
  10ae0e:	9918      	ldr	r1, [sp, #96]	; 0x60
  10ae10:	4650      	mov	r0, r10
  10ae12:	f001 feb8 	bl	10cb86 <_Bfree>
  10ae16:	9b06      	ldr	r3, [sp, #24]
  10ae18:	9318      	str	r3, [sp, #96]	; 0x60
  10ae1a:	e782      	b.n	10ad22 <_strtod_r+0x6fa>
  10ae1c:	463a      	mov	r2, r7
  10ae1e:	9918      	ldr	r1, [sp, #96]	; 0x60
  10ae20:	4650      	mov	r0, r10
  10ae22:	f002 f875 	bl	10cf10 <__lshift>
  10ae26:	9018      	str	r0, [sp, #96]	; 0x60
  10ae28:	2800      	cmp	r0, #0
  10ae2a:	f47f af7c 	bne.w	10ad26 <_strtod_r+0x6fe>
  10ae2e:	e641      	b.n	10aab4 <_strtod_r+0x48c>
  10ae30:	9a12      	ldr	r2, [sp, #72]	; 0x48
  10ae32:	9904      	ldr	r1, [sp, #16]
  10ae34:	4650      	mov	r0, r10
  10ae36:	f002 f81d 	bl	10ce74 <__pow5mult>
  10ae3a:	9004      	str	r0, [sp, #16]
  10ae3c:	2800      	cmp	r0, #0
  10ae3e:	f47f af76 	bne.w	10ad2e <_strtod_r+0x706>
  10ae42:	e637      	b.n	10aab4 <_strtod_r+0x48c>
  10ae44:	4622      	mov	r2, r4
  10ae46:	9904      	ldr	r1, [sp, #16]
  10ae48:	4650      	mov	r0, r10
  10ae4a:	f002 f861 	bl	10cf10 <__lshift>
  10ae4e:	9004      	str	r0, [sp, #16]
  10ae50:	2800      	cmp	r0, #0
  10ae52:	f47f af6f 	bne.w	10ad34 <_strtod_r+0x70c>
  10ae56:	e62d      	b.n	10aab4 <_strtod_r+0x48c>
  10ae58:	4632      	mov	r2, r6
  10ae5a:	9902      	ldr	r1, [sp, #8]
  10ae5c:	4650      	mov	r0, r10
  10ae5e:	f002 f857 	bl	10cf10 <__lshift>
  10ae62:	9002      	str	r0, [sp, #8]
  10ae64:	2800      	cmp	r0, #0
  10ae66:	f47f af68 	bne.w	10ad3a <_strtod_r+0x712>
  10ae6a:	e623      	b.n	10aab4 <_strtod_r+0x48c>
  10ae6c:	f8db 3010 	ldr.w	r3, [r11, #16]
  10ae70:	2b01      	cmp	r3, #1
  10ae72:	dc8e      	bgt.n	10ad92 <_strtod_r+0x76a>
  10ae74:	e17a      	b.n	10b16c <_strtod_r+0xb44>
  10ae76:	d161      	bne.n	10af3c <_strtod_r+0x914>
  10ae78:	9a06      	ldr	r2, [sp, #24]
  10ae7a:	f3c9 0313 	ubfx	r3, r9, #0, #20
  10ae7e:	b322      	cbz	r2, 10aeca <_strtod_r+0x8a2>
  10ae80:	4943      	ldr	r1, [pc, #268]	; (10af90 <_strtod_r+0x968>)
  10ae82:	464a      	mov	r2, r9
  10ae84:	428b      	cmp	r3, r1
  10ae86:	d12e      	bne.n	10aee6 <_strtod_r+0x8be>
  10ae88:	9b03      	ldr	r3, [sp, #12]
  10ae8a:	4641      	mov	r1, r8
  10ae8c:	b163      	cbz	r3, 10aea8 <_strtod_r+0x880>
  10ae8e:	4b41      	ldr	r3, [pc, #260]	; (10af94 <_strtod_r+0x96c>)
  10ae90:	4013      	ands	r3, r2
  10ae92:	f1b3 6fd4 	cmp.w	r3, #111149056	; 0x6a00000
  10ae96:	d807      	bhi.n	10aea8 <_strtod_r+0x880>
  10ae98:	0d1b      	lsrs	r3, r3, #20
  10ae9a:	f1c3 036b 	rsb	r3, r3, #107	; 0x6b
  10ae9e:	f04f 30ff 	mov.w	r0, #4294967295
  10aea2:	fa00 f303 	lsl.w	r3, r0, r3
  10aea6:	e001      	b.n	10aeac <_strtod_r+0x884>
  10aea8:	f04f 33ff 	mov.w	r3, #4294967295
  10aeac:	428b      	cmp	r3, r1
  10aeae:	d11a      	bne.n	10aee6 <_strtod_r+0x8be>
  10aeb0:	4939      	ldr	r1, [pc, #228]	; (10af98 <_strtod_r+0x970>)
  10aeb2:	428a      	cmp	r2, r1
  10aeb4:	d102      	bne.n	10aebc <_strtod_r+0x894>
  10aeb6:	3301      	adds	r3, #1
  10aeb8:	f43f adfc 	beq.w	10aab4 <_strtod_r+0x48c>
  10aebc:	4b35      	ldr	r3, [pc, #212]	; (10af94 <_strtod_r+0x96c>)
  10aebe:	f04f 0800 	mov.w	r8, #0
  10aec2:	4013      	ands	r3, r2
  10aec4:	f503 1980 	add.w	r9, r3, #1048576	; 0x100000
  10aec8:	e150      	b.n	10b16c <_strtod_r+0xb44>
  10aeca:	b963      	cbnz	r3, 10aee6 <_strtod_r+0x8be>
  10aecc:	f1b8 0f00 	cmp.w	r8, #0
  10aed0:	d109      	bne.n	10aee6 <_strtod_r+0x8be>
  10aed2:	e76a      	b.n	10adaa <_strtod_r+0x782>
  10aed4:	f5a3 1380 	sub.w	r3, r3, #1048576	; 0x100000
  10aed8:	ea6f 5913 	mvn.w	r9, r3, lsr #20
  10aedc:	f04f 38ff 	mov.w	r8, #4294967295
  10aee0:	ea6f 5909 	mvn.w	r9, r9, lsl #20
  10aee4:	e142      	b.n	10b16c <_strtod_r+0xb44>
  10aee6:	b115      	cbz	r5, 10aeee <_strtod_r+0x8c6>
  10aee8:	ea15 0f09 	tst.w	r5, r9
  10aeec:	e002      	b.n	10aef4 <_strtod_r+0x8cc>
  10aeee:	9b07      	ldr	r3, [sp, #28]
  10aef0:	ea13 0f08 	tst.w	r3, r8
  10aef4:	f000 813a 	beq.w	10b16c <_strtod_r+0xb44>
  10aef8:	9b06      	ldr	r3, [sp, #24]
  10aefa:	9a03      	ldr	r2, [sp, #12]
  10aefc:	4640      	mov	r0, r8
  10aefe:	4649      	mov	r1, r9
  10af00:	b153      	cbz	r3, 10af18 <_strtod_r+0x8f0>
  10af02:	f7ff fb6d 	bl	10a5e0 <sulp>
  10af06:	4602      	mov	r2, r0
  10af08:	460b      	mov	r3, r1
  10af0a:	e9dd 0108 	ldrd	r0, r1, [sp, #32]
  10af0e:	f7fc fad5 	bl	1074bc <__adddf3>
  10af12:	4680      	mov	r8, r0
  10af14:	4689      	mov	r9, r1
  10af16:	e129      	b.n	10b16c <_strtod_r+0xb44>
  10af18:	f7ff fb62 	bl	10a5e0 <sulp>
  10af1c:	4602      	mov	r2, r0
  10af1e:	460b      	mov	r3, r1
  10af20:	e9dd 0108 	ldrd	r0, r1, [sp, #32]
  10af24:	f7fc fac8 	bl	1074b8 <__aeabi_dsub>
  10af28:	2200      	movs	r2, #0
  10af2a:	2300      	movs	r3, #0
  10af2c:	4680      	mov	r8, r0
  10af2e:	4689      	mov	r9, r1
  10af30:	f7fc fccc 	bl	1078cc <__aeabi_dcmpeq>
  10af34:	2800      	cmp	r0, #0
  10af36:	f47f af48 	bne.w	10adca <_strtod_r+0x7a2>
  10af3a:	e117      	b.n	10b16c <_strtod_r+0xb44>
  10af3c:	9902      	ldr	r1, [sp, #8]
  10af3e:	4658      	mov	r0, r11
  10af40:	f002 f971 	bl	10d226 <__ratio>
  10af44:	2200      	movs	r2, #0
  10af46:	f04f 4380 	mov.w	r3, #1073741824	; 0x40000000
  10af4a:	4606      	mov	r6, r0
  10af4c:	460f      	mov	r7, r1
  10af4e:	f7fc fcd1 	bl	1078f4 <__aeabi_dcmple>
  10af52:	2800      	cmp	r0, #0
  10af54:	d03f      	beq.n	10afd6 <_strtod_r+0x9ae>
  10af56:	9b06      	ldr	r3, [sp, #24]
  10af58:	b113      	cbz	r3, 10af60 <_strtod_r+0x938>
  10af5a:	2600      	movs	r6, #0
  10af5c:	4f0f      	ldr	r7, [pc, #60]	; (10af9c <_strtod_r+0x974>)
  10af5e:	e010      	b.n	10af82 <_strtod_r+0x95a>
  10af60:	f1b8 0f00 	cmp.w	r8, #0
  10af64:	d103      	bne.n	10af6e <_strtod_r+0x946>
  10af66:	f3c9 0313 	ubfx	r3, r9, #0, #20
  10af6a:	b93b      	cbnz	r3, 10af7c <_strtod_r+0x954>
  10af6c:	e01a      	b.n	10afa4 <_strtod_r+0x97c>
  10af6e:	f1b8 0f01 	cmp.w	r8, #1
  10af72:	d103      	bne.n	10af7c <_strtod_r+0x954>
  10af74:	f1b9 0f00 	cmp.w	r9, #0
  10af78:	f43f af27 	beq.w	10adca <_strtod_r+0x7a2>
  10af7c:	4f08      	ldr	r7, [pc, #32]	; (10afa0 <_strtod_r+0x978>)
  10af7e:	2600      	movs	r6, #0
  10af80:	2400      	movs	r4, #0
  10af82:	4d06      	ldr	r5, [pc, #24]	; (10af9c <_strtod_r+0x974>)
  10af84:	e03c      	b.n	10b000 <_strtod_r+0x9d8>
  10af86:	bf00      	nop
  10af88:	fffffc02 	.word	0xfffffc02
  10af8c:	fffffbe2 	.word	0xfffffbe2
  10af90:	000fffff 	.word	0x000fffff
  10af94:	7ff00000 	.word	0x7ff00000
  10af98:	7fefffff 	.word	0x7fefffff
  10af9c:	3ff00000 	.word	0x3ff00000
  10afa0:	bff00000 	.word	0xbff00000
  10afa4:	2200      	movs	r2, #0
  10afa6:	4b9a      	ldr	r3, [pc, #616]	; (10b210 <_strtod_r+0xbe8>)
  10afa8:	4630      	mov	r0, r6
  10afaa:	4639      	mov	r1, r7
  10afac:	f7fc fc98 	bl	1078e0 <__aeabi_dcmplt>
  10afb0:	b940      	cbnz	r0, 10afc4 <_strtod_r+0x99c>
  10afb2:	2200      	movs	r2, #0
  10afb4:	4b97      	ldr	r3, [pc, #604]	; (10b214 <_strtod_r+0xbec>)
  10afb6:	4630      	mov	r0, r6
  10afb8:	4639      	mov	r1, r7
  10afba:	f7fc ffe5 	bl	107f88 <__aeabi_dmul>
  10afbe:	4604      	mov	r4, r0
  10afc0:	460d      	mov	r5, r1
  10afc2:	e001      	b.n	10afc8 <_strtod_r+0x9a0>
  10afc4:	9c06      	ldr	r4, [sp, #24]
  10afc6:	4d93      	ldr	r5, [pc, #588]	; (10b214 <_strtod_r+0xbec>)
  10afc8:	f105 4300 	add.w	r3, r5, #2147483648	; 0x80000000
  10afcc:	9414      	str	r4, [sp, #80]	; 0x50
  10afce:	9315      	str	r3, [sp, #84]	; 0x54
  10afd0:	e9dd 6714 	ldrd	r6, r7, [sp, #80]	; 0x50
  10afd4:	e014      	b.n	10b000 <_strtod_r+0x9d8>
  10afd6:	4b8f      	ldr	r3, [pc, #572]	; (10b214 <_strtod_r+0xbec>)
  10afd8:	2200      	movs	r2, #0
  10afda:	4630      	mov	r0, r6
  10afdc:	4639      	mov	r1, r7
  10afde:	f7fc ffd3 	bl	107f88 <__aeabi_dmul>
  10afe2:	9b06      	ldr	r3, [sp, #24]
  10afe4:	4604      	mov	r4, r0
  10afe6:	460d      	mov	r5, r1
  10afe8:	b923      	cbnz	r3, 10aff4 <_strtod_r+0x9cc>
  10afea:	f101 4300 	add.w	r3, r1, #2147483648	; 0x80000000
  10afee:	900e      	str	r0, [sp, #56]	; 0x38
  10aff0:	930f      	str	r3, [sp, #60]	; 0x3c
  10aff2:	e003      	b.n	10affc <_strtod_r+0x9d4>
  10aff4:	4602      	mov	r2, r0
  10aff6:	460b      	mov	r3, r1
  10aff8:	e9cd 230e 	strd	r2, r3, [sp, #56]	; 0x38
  10affc:	e9dd 670e 	ldrd	r6, r7, [sp, #56]	; 0x38
  10b000:	f029 4300 	bic.w	r3, r9, #2147483648	; 0x80000000
  10b004:	0d1b      	lsrs	r3, r3, #20
  10b006:	051b      	lsls	r3, r3, #20
  10b008:	9307      	str	r3, [sp, #28]
  10b00a:	9a07      	ldr	r2, [sp, #28]
  10b00c:	4b82      	ldr	r3, [pc, #520]	; (10b218 <_strtod_r+0xbf0>)
  10b00e:	429a      	cmp	r2, r3
  10b010:	d12b      	bne.n	10b06a <_strtod_r+0xa42>
  10b012:	e9dd 2308 	ldrd	r2, r3, [sp, #32]
  10b016:	f1a9 7954 	sub.w	r9, r9, #55574528	; 0x3500000
  10b01a:	4640      	mov	r0, r8
  10b01c:	4649      	mov	r1, r9
  10b01e:	e9cd 230a 	strd	r2, r3, [sp, #40]	; 0x28
  10b022:	f002 f841 	bl	10d0a8 <__ulp>
  10b026:	4602      	mov	r2, r0
  10b028:	460b      	mov	r3, r1
  10b02a:	4630      	mov	r0, r6
  10b02c:	4639      	mov	r1, r7
  10b02e:	f7fc ffab 	bl	107f88 <__aeabi_dmul>
  10b032:	4642      	mov	r2, r8
  10b034:	464b      	mov	r3, r9
  10b036:	f7fc fa41 	bl	1074bc <__adddf3>
  10b03a:	f021 4300 	bic.w	r3, r1, #2147483648	; 0x80000000
  10b03e:	0d1b      	lsrs	r3, r3, #20
  10b040:	4a76      	ldr	r2, [pc, #472]	; (10b21c <_strtod_r+0xbf4>)
  10b042:	051b      	lsls	r3, r3, #20
  10b044:	4293      	cmp	r3, r2
  10b046:	4680      	mov	r8, r0
  10b048:	d90c      	bls.n	10b064 <_strtod_r+0xa3c>
  10b04a:	4b75      	ldr	r3, [pc, #468]	; (10b220 <_strtod_r+0xbf8>)
  10b04c:	9a0b      	ldr	r2, [sp, #44]	; 0x2c
  10b04e:	429a      	cmp	r2, r3
  10b050:	d103      	bne.n	10b05a <_strtod_r+0xa32>
  10b052:	9b0a      	ldr	r3, [sp, #40]	; 0x28
  10b054:	3301      	adds	r3, #1
  10b056:	f43f ad2d 	beq.w	10aab4 <_strtod_r+0x48c>
  10b05a:	f8df 91c4 	ldr.w	r9, [pc, #452]	; 10b220 <_strtod_r+0xbf8>
  10b05e:	f04f 38ff 	mov.w	r8, #4294967295
  10b062:	e072      	b.n	10b14a <_strtod_r+0xb22>
  10b064:	f101 7954 	add.w	r9, r1, #55574528	; 0x3500000
  10b068:	e039      	b.n	10b0de <_strtod_r+0xab6>
  10b06a:	9b03      	ldr	r3, [sp, #12]
  10b06c:	b33b      	cbz	r3, 10b0be <_strtod_r+0xa96>
  10b06e:	9b07      	ldr	r3, [sp, #28]
  10b070:	f1b3 6fd4 	cmp.w	r3, #111149056	; 0x6a00000
  10b074:	d823      	bhi.n	10b0be <_strtod_r+0xa96>
  10b076:	a35e      	add	r3, pc, #376	; (adr r3, 10b1f0 <_strtod_r+0xbc8>)
  10b078:	e9d3 2300 	ldrd	r2, r3, [r3]
  10b07c:	4620      	mov	r0, r4
  10b07e:	4629      	mov	r1, r5
  10b080:	f7fc fc38 	bl	1078f4 <__aeabi_dcmple>
  10b084:	b1b8      	cbz	r0, 10b0b6 <_strtod_r+0xa8e>
  10b086:	4629      	mov	r1, r5
  10b088:	4620      	mov	r0, r4
  10b08a:	f7fd f98f 	bl	1083ac <__aeabi_d2uiz>
  10b08e:	2800      	cmp	r0, #0
  10b090:	bf08      	it	eq
  10b092:	2001      	moveq	r0, #1
  10b094:	f7fc fb4e 	bl	107734 <__aeabi_ui2d>
  10b098:	9b06      	ldr	r3, [sp, #24]
  10b09a:	4604      	mov	r4, r0
  10b09c:	460d      	mov	r5, r1
  10b09e:	b923      	cbnz	r3, 10b0aa <_strtod_r+0xa82>
  10b0a0:	f101 4300 	add.w	r3, r1, #2147483648	; 0x80000000
  10b0a4:	9010      	str	r0, [sp, #64]	; 0x40
  10b0a6:	9311      	str	r3, [sp, #68]	; 0x44
  10b0a8:	e003      	b.n	10b0b2 <_strtod_r+0xa8a>
  10b0aa:	4602      	mov	r2, r0
  10b0ac:	460b      	mov	r3, r1
  10b0ae:	e9cd 2310 	strd	r2, r3, [sp, #64]	; 0x40
  10b0b2:	e9dd 6710 	ldrd	r6, r7, [sp, #64]	; 0x40
  10b0b6:	9a07      	ldr	r2, [sp, #28]
  10b0b8:	f107 63d6 	add.w	r3, r7, #112197632	; 0x6b00000
  10b0bc:	1a9f      	subs	r7, r3, r2
  10b0be:	e9dd 0108 	ldrd	r0, r1, [sp, #32]
  10b0c2:	f001 fff1 	bl	10d0a8 <__ulp>
  10b0c6:	4602      	mov	r2, r0
  10b0c8:	460b      	mov	r3, r1
  10b0ca:	4630      	mov	r0, r6
  10b0cc:	4639      	mov	r1, r7
  10b0ce:	f7fc ff5b 	bl	107f88 <__aeabi_dmul>
  10b0d2:	e9dd 2308 	ldrd	r2, r3, [sp, #32]
  10b0d6:	f7fc f9f1 	bl	1074bc <__adddf3>
  10b0da:	4680      	mov	r8, r0
  10b0dc:	4689      	mov	r9, r1
  10b0de:	9b03      	ldr	r3, [sp, #12]
  10b0e0:	bb9b      	cbnz	r3, 10b14a <_strtod_r+0xb22>
  10b0e2:	f029 4300 	bic.w	r3, r9, #2147483648	; 0x80000000
  10b0e6:	0d1b      	lsrs	r3, r3, #20
  10b0e8:	9a07      	ldr	r2, [sp, #28]
  10b0ea:	051b      	lsls	r3, r3, #20
  10b0ec:	429a      	cmp	r2, r3
  10b0ee:	464e      	mov	r6, r9
  10b0f0:	d12b      	bne.n	10b14a <_strtod_r+0xb22>
  10b0f2:	4629      	mov	r1, r5
  10b0f4:	4620      	mov	r0, r4
  10b0f6:	f002 fc03 	bl	10d900 <__aeabi_d2iz>
  10b0fa:	f7fc fb2b 	bl	107754 <__aeabi_i2d>
  10b0fe:	460b      	mov	r3, r1
  10b100:	4602      	mov	r2, r0
  10b102:	4629      	mov	r1, r5
  10b104:	4620      	mov	r0, r4
  10b106:	f7fc f9d7 	bl	1074b8 <__aeabi_dsub>
  10b10a:	9b06      	ldr	r3, [sp, #24]
  10b10c:	4604      	mov	r4, r0
  10b10e:	460d      	mov	r5, r1
  10b110:	b92b      	cbnz	r3, 10b11e <_strtod_r+0xaf6>
  10b112:	f1b8 0f00 	cmp.w	r8, #0
  10b116:	d102      	bne.n	10b11e <_strtod_r+0xaf6>
  10b118:	f3c9 0613 	ubfx	r6, r9, #0, #20
  10b11c:	b17e      	cbz	r6, 10b13e <_strtod_r+0xb16>
  10b11e:	a336      	add	r3, pc, #216	; (adr r3, 10b1f8 <_strtod_r+0xbd0>)
  10b120:	e9d3 2300 	ldrd	r2, r3, [r3]
  10b124:	4620      	mov	r0, r4
  10b126:	4629      	mov	r1, r5
  10b128:	f7fc fbda 	bl	1078e0 <__aeabi_dcmplt>
  10b12c:	bb88      	cbnz	r0, 10b192 <_strtod_r+0xb6a>
  10b12e:	a334      	add	r3, pc, #208	; (adr r3, 10b200 <_strtod_r+0xbd8>)
  10b130:	e9d3 2300 	ldrd	r2, r3, [r3]
  10b134:	4620      	mov	r0, r4
  10b136:	4629      	mov	r1, r5
  10b138:	f7fc fbf0 	bl	10791c <__aeabi_dcmpgt>
  10b13c:	e004      	b.n	10b148 <_strtod_r+0xb20>
  10b13e:	a332      	add	r3, pc, #200	; (adr r3, 10b208 <_strtod_r+0xbe0>)
  10b140:	e9d3 2300 	ldrd	r2, r3, [r3]
  10b144:	f7fc fbcc 	bl	1078e0 <__aeabi_dcmplt>
  10b148:	bb18      	cbnz	r0, 10b192 <_strtod_r+0xb6a>
  10b14a:	9918      	ldr	r1, [sp, #96]	; 0x60
  10b14c:	4650      	mov	r0, r10
  10b14e:	f001 fd1a 	bl	10cb86 <_Bfree>
  10b152:	9904      	ldr	r1, [sp, #16]
  10b154:	4650      	mov	r0, r10
  10b156:	f001 fd16 	bl	10cb86 <_Bfree>
  10b15a:	9902      	ldr	r1, [sp, #8]
  10b15c:	4650      	mov	r0, r10
  10b15e:	f001 fd12 	bl	10cb86 <_Bfree>
  10b162:	4659      	mov	r1, r11
  10b164:	4650      	mov	r0, r10
  10b166:	f001 fd0e 	bl	10cb86 <_Bfree>
  10b16a:	e574      	b.n	10ac56 <_strtod_r+0x62e>
  10b16c:	9b03      	ldr	r3, [sp, #12]
  10b16e:	b183      	cbz	r3, 10b192 <_strtod_r+0xb6a>
  10b170:	4b2c      	ldr	r3, [pc, #176]	; (10b224 <_strtod_r+0xbfc>)
  10b172:	4640      	mov	r0, r8
  10b174:	930b      	str	r3, [sp, #44]	; 0x2c
  10b176:	2300      	movs	r3, #0
  10b178:	930a      	str	r3, [sp, #40]	; 0x28
  10b17a:	4649      	mov	r1, r9
  10b17c:	e9dd 230a 	ldrd	r2, r3, [sp, #40]	; 0x28
  10b180:	f7fc ff02 	bl	107f88 <__aeabi_dmul>
  10b184:	4680      	mov	r8, r0
  10b186:	4689      	mov	r9, r1
  10b188:	b919      	cbnz	r1, 10b192 <_strtod_r+0xb6a>
  10b18a:	b910      	cbnz	r0, 10b192 <_strtod_r+0xb6a>
  10b18c:	2322      	movs	r3, #34	; 0x22
  10b18e:	f8ca 3000 	str.w	r3, [r10]
  10b192:	9918      	ldr	r1, [sp, #96]	; 0x60
  10b194:	4650      	mov	r0, r10
  10b196:	f001 fcf6 	bl	10cb86 <_Bfree>
  10b19a:	9904      	ldr	r1, [sp, #16]
  10b19c:	4650      	mov	r0, r10
  10b19e:	f001 fcf2 	bl	10cb86 <_Bfree>
  10b1a2:	9902      	ldr	r1, [sp, #8]
  10b1a4:	4650      	mov	r0, r10
  10b1a6:	f001 fcee 	bl	10cb86 <_Bfree>
  10b1aa:	9905      	ldr	r1, [sp, #20]
  10b1ac:	4650      	mov	r0, r10
  10b1ae:	f001 fcea 	bl	10cb86 <_Bfree>
  10b1b2:	4659      	mov	r1, r11
  10b1b4:	4650      	mov	r0, r10
  10b1b6:	f001 fce6 	bl	10cb86 <_Bfree>
  10b1ba:	9b13      	ldr	r3, [sp, #76]	; 0x4c
  10b1bc:	b113      	cbz	r3, 10b1c4 <_strtod_r+0xb9c>
  10b1be:	9b17      	ldr	r3, [sp, #92]	; 0x5c
  10b1c0:	9a13      	ldr	r2, [sp, #76]	; 0x4c
  10b1c2:	6013      	str	r3, [r2, #0]
  10b1c4:	9b0c      	ldr	r3, [sp, #48]	; 0x30
  10b1c6:	b11b      	cbz	r3, 10b1d0 <_strtod_r+0xba8>
  10b1c8:	4642      	mov	r2, r8
  10b1ca:	f109 4300 	add.w	r3, r9, #2147483648	; 0x80000000
  10b1ce:	e007      	b.n	10b1e0 <_strtod_r+0xbb8>
  10b1d0:	4642      	mov	r2, r8
  10b1d2:	464b      	mov	r3, r9
  10b1d4:	e004      	b.n	10b1e0 <_strtod_r+0xbb8>
  10b1d6:	2500      	movs	r5, #0
  10b1d8:	462a      	mov	r2, r5
  10b1da:	2101      	movs	r1, #1
  10b1dc:	f7ff bb47 	b.w	10a86e <_strtod_r+0x246>
  10b1e0:	4610      	mov	r0, r2
  10b1e2:	4619      	mov	r1, r3
  10b1e4:	b01d      	add	sp, #116	; 0x74
  10b1e6:	e8bd 8ff0 	ldmia.w	sp!, {r4, r5, r6, r7, r8, r9, r10, r11, pc}
  10b1ea:	bf00      	nop
  10b1ec:	f3af 8000 	nop.w
  10b1f0:	ffc00000 	.word	0xffc00000
  10b1f4:	41dfffff 	.word	0x41dfffff
  10b1f8:	94a03595 	.word	0x94a03595
  10b1fc:	3fdfffff 	.word	0x3fdfffff
  10b200:	35afe535 	.word	0x35afe535
  10b204:	3fe00000 	.word	0x3fe00000
  10b208:	94a03595 	.word	0x94a03595
  10b20c:	3fcfffff 	.word	0x3fcfffff
  10b210:	3ff00000 	.word	0x3ff00000
  10b214:	3fe00000 	.word	0x3fe00000
  10b218:	7fe00000 	.word	0x7fe00000
  10b21c:	7c9fffff 	.word	0x7c9fffff
  10b220:	7fefffff 	.word	0x7fefffff
  10b224:	39500000 	.word	0x39500000

0010b228 <_strtol_r>:
  10b228:	e92d 47f0 	stmdb	sp!, {r4, r5, r6, r7, r8, r9, r10, lr}
  10b22c:	460f      	mov	r7, r1
  10b22e:	4680      	mov	r8, r0
  10b230:	483f      	ldr	r0, [pc, #252]	; (10b330 <_strtol_r+0x108>)
  10b232:	f8d0 9000 	ldr.w	r9, [r0]
  10b236:	463d      	mov	r5, r7
  10b238:	f815 4b01 	ldrb.w	r4, [r5], #1
  10b23c:	eb09 0004 	add.w	r0, r9, r4
  10b240:	7840      	ldrb	r0, [r0, #1]
  10b242:	f000 0008 	and.w	r0, r0, #8
  10b246:	f000 06ff 	and.w	r6, r0, #255	; 0xff
  10b24a:	b108      	cbz	r0, 10b250 <_strtol_r+0x28>
  10b24c:	462f      	mov	r7, r5
  10b24e:	e7f2      	b.n	10b236 <_strtol_r+0xe>
  10b250:	2c2d      	cmp	r4, #45	; 0x2d
  10b252:	d103      	bne.n	10b25c <_strtol_r+0x34>
  10b254:	1cbd      	adds	r5, r7, #2
  10b256:	787c      	ldrb	r4, [r7, #1]
  10b258:	2601      	movs	r6, #1
  10b25a:	e003      	b.n	10b264 <_strtol_r+0x3c>
  10b25c:	2c2b      	cmp	r4, #43	; 0x2b
  10b25e:	bf04      	itt	eq
  10b260:	787c      	ldrbeq	r4, [r7, #1]
  10b262:	1cbd      	addeq	r5, r7, #2
  10b264:	b113      	cbz	r3, 10b26c <_strtol_r+0x44>
  10b266:	2b10      	cmp	r3, #16
  10b268:	d10a      	bne.n	10b280 <_strtol_r+0x58>
  10b26a:	e05b      	b.n	10b324 <_strtol_r+0xfc>
  10b26c:	2c30      	cmp	r4, #48	; 0x30
  10b26e:	d157      	bne.n	10b320 <_strtol_r+0xf8>
  10b270:	7828      	ldrb	r0, [r5, #0]
  10b272:	f000 00df 	and.w	r0, r0, #223	; 0xdf
  10b276:	2858      	cmp	r0, #88	; 0x58
  10b278:	d14d      	bne.n	10b316 <_strtol_r+0xee>
  10b27a:	786c      	ldrb	r4, [r5, #1]
  10b27c:	2310      	movs	r3, #16
  10b27e:	3502      	adds	r5, #2
  10b280:	2e00      	cmp	r6, #0
  10b282:	bf14      	ite	ne
  10b284:	f04f 4c00 	movne.w	r12, #2147483648	; 0x80000000
  10b288:	f06f 4c00 	mvneq.w	r12, #2147483648	; 0x80000000
  10b28c:	fbbc faf3 	udiv	r10, r12, r3
  10b290:	2700      	movs	r7, #0
  10b292:	4638      	mov	r0, r7
  10b294:	fb03 cc1a 	mls	r12, r3, r10, r12
  10b298:	eb09 0e04 	add.w	lr, r9, r4
  10b29c:	f89e e001 	ldrb.w	lr, [lr, #1]
  10b2a0:	f01e 0f04 	tst.w	lr, #4
  10b2a4:	d001      	beq.n	10b2aa <_strtol_r+0x82>
  10b2a6:	3c30      	subs	r4, #48	; 0x30
  10b2a8:	e00b      	b.n	10b2c2 <_strtol_r+0x9a>
  10b2aa:	f01e 0e03 	ands.w	lr, lr, #3
  10b2ae:	d01b      	beq.n	10b2e8 <_strtol_r+0xc0>
  10b2b0:	f1be 0f01 	cmp.w	lr, #1
  10b2b4:	bf0c      	ite	eq
  10b2b6:	f04f 0e37 	moveq.w	lr, #55	; 0x37
  10b2ba:	f04f 0e57 	movne.w	lr, #87	; 0x57
  10b2be:	ebce 0404 	rsb	r4, lr, r4
  10b2c2:	42a3      	cmp	r3, r4
  10b2c4:	dd10      	ble.n	10b2e8 <_strtol_r+0xc0>
  10b2c6:	f1b7 3fff 	cmp.w	r7, #4294967295
  10b2ca:	d00a      	beq.n	10b2e2 <_strtol_r+0xba>
  10b2cc:	4550      	cmp	r0, r10
  10b2ce:	d806      	bhi.n	10b2de <_strtol_r+0xb6>
  10b2d0:	d101      	bne.n	10b2d6 <_strtol_r+0xae>
  10b2d2:	4564      	cmp	r4, r12
  10b2d4:	dc03      	bgt.n	10b2de <_strtol_r+0xb6>
  10b2d6:	fb03 4000 	mla	r0, r3, r0, r4
  10b2da:	2701      	movs	r7, #1
  10b2dc:	e001      	b.n	10b2e2 <_strtol_r+0xba>
  10b2de:	f04f 37ff 	mov.w	r7, #4294967295
  10b2e2:	f815 4b01 	ldrb.w	r4, [r5], #1
  10b2e6:	e7d7      	b.n	10b298 <_strtol_r+0x70>
  10b2e8:	1c7b      	adds	r3, r7, #1
  10b2ea:	d10c      	bne.n	10b306 <_strtol_r+0xde>
  10b2ec:	2e00      	cmp	r6, #0
  10b2ee:	f04f 0322 	mov.w	r3, #34	; 0x22
  10b2f2:	bf14      	ite	ne
  10b2f4:	f04f 4000 	movne.w	r0, #2147483648	; 0x80000000
  10b2f8:	f06f 4000 	mvneq.w	r0, #2147483648	; 0x80000000
  10b2fc:	f8c8 3000 	str.w	r3, [r8]
  10b300:	b92a      	cbnz	r2, 10b30e <_strtol_r+0xe6>
  10b302:	e8bd 87f0 	ldmia.w	sp!, {r4, r5, r6, r7, r8, r9, r10, pc}
  10b306:	b106      	cbz	r6, 10b30a <_strtol_r+0xe2>
  10b308:	4240      	negs	r0, r0
  10b30a:	b172      	cbz	r2, 10b32a <_strtol_r+0x102>
  10b30c:	b107      	cbz	r7, 10b310 <_strtol_r+0xe8>
  10b30e:	1e69      	subs	r1, r5, #1
  10b310:	6011      	str	r1, [r2, #0]
  10b312:	e8bd 87f0 	ldmia.w	sp!, {r4, r5, r6, r7, r8, r9, r10, pc}
  10b316:	2430      	movs	r4, #48	; 0x30
  10b318:	2b00      	cmp	r3, #0
  10b31a:	d1b1      	bne.n	10b280 <_strtol_r+0x58>
  10b31c:	2308      	movs	r3, #8
  10b31e:	e7af      	b.n	10b280 <_strtol_r+0x58>
  10b320:	230a      	movs	r3, #10
  10b322:	e7ad      	b.n	10b280 <_strtol_r+0x58>
  10b324:	2c30      	cmp	r4, #48	; 0x30
  10b326:	d0a3      	beq.n	10b270 <_strtol_r+0x48>
  10b328:	e7aa      	b.n	10b280 <_strtol_r+0x58>
  10b32a:	e8bd 87f0 	ldmia.w	sp!, {r4, r5, r6, r7, r8, r9, r10, pc}
  10b32e:	bf00      	nop
  10b330:	3fff4160 	.word	0x3fff4160

0010b334 <_strtoul_r>:
  10b334:	e92d 47f0 	stmdb	sp!, {r4, r5, r6, r7, r8, r9, r10, lr}
  10b338:	460e      	mov	r6, r1
  10b33a:	4680      	mov	r8, r0
  10b33c:	483b      	ldr	r0, [pc, #236]	; (10b42c <_strtoul_r+0xf8>)
  10b33e:	f8d0 9000 	ldr.w	r9, [r0]
  10b342:	4635      	mov	r5, r6
  10b344:	f815 4b01 	ldrb.w	r4, [r5], #1
  10b348:	eb09 0004 	add.w	r0, r9, r4
  10b34c:	7840      	ldrb	r0, [r0, #1]
  10b34e:	f000 0008 	and.w	r0, r0, #8
  10b352:	f000 07ff 	and.w	r7, r0, #255	; 0xff
  10b356:	b108      	cbz	r0, 10b35c <_strtoul_r+0x28>
  10b358:	462e      	mov	r6, r5
  10b35a:	e7f2      	b.n	10b342 <_strtoul_r+0xe>
  10b35c:	2c2d      	cmp	r4, #45	; 0x2d
  10b35e:	d103      	bne.n	10b368 <_strtoul_r+0x34>
  10b360:	1cb5      	adds	r5, r6, #2
  10b362:	7874      	ldrb	r4, [r6, #1]
  10b364:	2701      	movs	r7, #1
  10b366:	e003      	b.n	10b370 <_strtoul_r+0x3c>
  10b368:	2c2b      	cmp	r4, #43	; 0x2b
  10b36a:	bf04      	itt	eq
  10b36c:	7874      	ldrbeq	r4, [r6, #1]
  10b36e:	1cb5      	addeq	r5, r6, #2
  10b370:	b113      	cbz	r3, 10b378 <_strtoul_r+0x44>
  10b372:	2b10      	cmp	r3, #16
  10b374:	d10a      	bne.n	10b38c <_strtoul_r+0x58>
  10b376:	e053      	b.n	10b420 <_strtoul_r+0xec>
  10b378:	2c30      	cmp	r4, #48	; 0x30
  10b37a:	d14f      	bne.n	10b41c <_strtoul_r+0xe8>
  10b37c:	7828      	ldrb	r0, [r5, #0]
  10b37e:	f000 00df 	and.w	r0, r0, #223	; 0xdf
  10b382:	2858      	cmp	r0, #88	; 0x58
  10b384:	d145      	bne.n	10b412 <_strtoul_r+0xde>
  10b386:	786c      	ldrb	r4, [r5, #1]
  10b388:	2310      	movs	r3, #16
  10b38a:	3502      	adds	r5, #2
  10b38c:	f04f 3cff 	mov.w	r12, #4294967295
  10b390:	fbbc fcf3 	udiv	r12, r12, r3
  10b394:	fb03 fa0c 	mul.w	r10, r3, r12
  10b398:	2600      	movs	r6, #0
  10b39a:	ea6f 0a0a 	mvn.w	r10, r10
  10b39e:	4630      	mov	r0, r6
  10b3a0:	eb09 0e04 	add.w	lr, r9, r4
  10b3a4:	f89e e001 	ldrb.w	lr, [lr, #1]
  10b3a8:	f01e 0f04 	tst.w	lr, #4
  10b3ac:	d001      	beq.n	10b3b2 <_strtoul_r+0x7e>
  10b3ae:	3c30      	subs	r4, #48	; 0x30
  10b3b0:	e00b      	b.n	10b3ca <_strtoul_r+0x96>
  10b3b2:	f01e 0e03 	ands.w	lr, lr, #3
  10b3b6:	d01a      	beq.n	10b3ee <_strtoul_r+0xba>
  10b3b8:	f1be 0f01 	cmp.w	lr, #1
  10b3bc:	bf0c      	ite	eq
  10b3be:	f04f 0e37 	moveq.w	lr, #55	; 0x37
  10b3c2:	f04f 0e57 	movne.w	lr, #87	; 0x57
  10b3c6:	ebce 0404 	rsb	r4, lr, r4
  10b3ca:	42a3      	cmp	r3, r4
  10b3cc:	dd0f      	ble.n	10b3ee <_strtoul_r+0xba>
  10b3ce:	2e00      	cmp	r6, #0
  10b3d0:	db08      	blt.n	10b3e4 <_strtoul_r+0xb0>
  10b3d2:	4560      	cmp	r0, r12
  10b3d4:	d806      	bhi.n	10b3e4 <_strtoul_r+0xb0>
  10b3d6:	d101      	bne.n	10b3dc <_strtoul_r+0xa8>
  10b3d8:	4554      	cmp	r4, r10
  10b3da:	dc03      	bgt.n	10b3e4 <_strtoul_r+0xb0>
  10b3dc:	fb03 4000 	mla	r0, r3, r0, r4
  10b3e0:	2601      	movs	r6, #1
  10b3e2:	e001      	b.n	10b3e8 <_strtoul_r+0xb4>
  10b3e4:	f04f 36ff 	mov.w	r6, #4294967295
  10b3e8:	f815 4b01 	ldrb.w	r4, [r5], #1
  10b3ec:	e7d8      	b.n	10b3a0 <_strtoul_r+0x6c>
  10b3ee:	2e00      	cmp	r6, #0
  10b3f0:	da07      	bge.n	10b402 <_strtoul_r+0xce>
  10b3f2:	2322      	movs	r3, #34	; 0x22
  10b3f4:	f8c8 3000 	str.w	r3, [r8]
  10b3f8:	f04f 30ff 	mov.w	r0, #4294967295
  10b3fc:	b92a      	cbnz	r2, 10b40a <_strtoul_r+0xd6>
  10b3fe:	e8bd 87f0 	ldmia.w	sp!, {r4, r5, r6, r7, r8, r9, r10, pc}
  10b402:	b107      	cbz	r7, 10b406 <_strtoul_r+0xd2>
  10b404:	4240      	negs	r0, r0
  10b406:	b172      	cbz	r2, 10b426 <_strtoul_r+0xf2>
  10b408:	b106      	cbz	r6, 10b40c <_strtoul_r+0xd8>
  10b40a:	1e69      	subs	r1, r5, #1
  10b40c:	6011      	str	r1, [r2, #0]
  10b40e:	e8bd 87f0 	ldmia.w	sp!, {r4, r5, r6, r7, r8, r9, r10, pc}
  10b412:	2430      	movs	r4, #48	; 0x30
  10b414:	2b00      	cmp	r3, #0
  10b416:	d1b9      	bne.n	10b38c <_strtoul_r+0x58>
  10b418:	2308      	movs	r3, #8
  10b41a:	e7b7      	b.n	10b38c <_strtoul_r+0x58>
  10b41c:	230a      	movs	r3, #10
  10b41e:	e7b5      	b.n	10b38c <_strtoul_r+0x58>
  10b420:	2c30      	cmp	r4, #48	; 0x30
  10b422:	d0ab      	beq.n	10b37c <_strtoul_r+0x48>
  10b424:	e7b2      	b.n	10b38c <_strtoul_r+0x58>
  10b426:	e8bd 87f0 	ldmia.w	sp!, {r4, r5, r6, r7, r8, r9, r10, pc}
  10b42a:	bf00      	nop
  10b42c:	3fff4160 	.word	0x3fff4160

0010b430 <__submore>:
  10b430:	e92d 41f0 	stmdb	sp!, {r4, r5, r6, r7, r8, lr}
  10b434:	460c      	mov	r4, r1
  10b436:	6b49      	ldr	r1, [r1, #52]	; 0x34
  10b438:	f104 0344 	add.w	r3, r4, #68	; 0x44
  10b43c:	4299      	cmp	r1, r3
  10b43e:	d11a      	bne.n	10b476 <__submore+0x46>
  10b440:	f44f 6180 	mov.w	r1, #1024	; 0x400
  10b444:	f7fb fae0 	bl	106a08 <__wrap__malloc_r>
  10b448:	b918      	cbnz	r0, 10b452 <__submore+0x22>
  10b44a:	f04f 30ff 	mov.w	r0, #4294967295
  10b44e:	e8bd 81f0 	ldmia.w	sp!, {r4, r5, r6, r7, r8, pc}
  10b452:	f44f 6380 	mov.w	r3, #1024	; 0x400
  10b456:	63a3      	str	r3, [r4, #56]	; 0x38
  10b458:	f894 3046 	ldrb.w	r3, [r4, #70]	; 0x46
  10b45c:	6360      	str	r0, [r4, #52]	; 0x34
  10b45e:	f880 33ff 	strb.w	r3, [r0, #1023]	; 0x3ff
  10b462:	f894 3045 	ldrb.w	r3, [r4, #69]	; 0x45
  10b466:	f200 30fd 	addw	r0, r0, #1021	; 0x3fd
  10b46a:	7043      	strb	r3, [r0, #1]
  10b46c:	f894 3044 	ldrb.w	r3, [r4, #68]	; 0x44
  10b470:	7003      	strb	r3, [r0, #0]
  10b472:	6020      	str	r0, [r4, #0]
  10b474:	e012      	b.n	10b49c <__submore+0x6c>
  10b476:	6ba6      	ldr	r6, [r4, #56]	; 0x38
  10b478:	0077      	lsls	r7, r6, #1
  10b47a:	463a      	mov	r2, r7
  10b47c:	f7fb fa99 	bl	1069b2 <__wrap__realloc_r>
  10b480:	4605      	mov	r5, r0
  10b482:	2800      	cmp	r0, #0
  10b484:	d0e1      	beq.n	10b44a <__submore+0x1a>
  10b486:	eb00 0806 	add.w	r8, r0, r6
  10b48a:	4601      	mov	r1, r0
  10b48c:	4632      	mov	r2, r6
  10b48e:	4640      	mov	r0, r8
  10b490:	f7fd fb20 	bl	108ad4 <memcpy>
  10b494:	f8c4 8000 	str.w	r8, [r4]
  10b498:	6365      	str	r5, [r4, #52]	; 0x34
  10b49a:	63a7      	str	r7, [r4, #56]	; 0x38
  10b49c:	2000      	movs	r0, #0
  10b49e:	e8bd 81f0 	ldmia.w	sp!, {r4, r5, r6, r7, r8, pc}
	...

0010b4a4 <_ungetc_r>:
  10b4a4:	b5f8      	push	{r3, r4, r5, r6, r7, lr}
  10b4a6:	1c4d      	adds	r5, r1, #1
  10b4a8:	4606      	mov	r6, r0
  10b4aa:	460f      	mov	r7, r1
  10b4ac:	4614      	mov	r4, r2
  10b4ae:	d102      	bne.n	10b4b6 <_ungetc_r+0x12>
  10b4b0:	f04f 30ff 	mov.w	r0, #4294967295
  10b4b4:	bdf8      	pop	{r3, r4, r5, r6, r7, pc}
  10b4b6:	b118      	cbz	r0, 10b4c0 <_ungetc_r+0x1c>
  10b4b8:	6983      	ldr	r3, [r0, #24]
  10b4ba:	b90b      	cbnz	r3, 10b4c0 <_ungetc_r+0x1c>
  10b4bc:	f7fd f8f8 	bl	1086b0 <__sinit>
  10b4c0:	4b2e      	ldr	r3, [pc, #184]	; (10b57c <_ungetc_r+0xd8>)
  10b4c2:	429c      	cmp	r4, r3
  10b4c4:	d101      	bne.n	10b4ca <_ungetc_r+0x26>
  10b4c6:	6874      	ldr	r4, [r6, #4]
  10b4c8:	e008      	b.n	10b4dc <_ungetc_r+0x38>
  10b4ca:	4b2d      	ldr	r3, [pc, #180]	; (10b580 <_ungetc_r+0xdc>)
  10b4cc:	429c      	cmp	r4, r3
  10b4ce:	d101      	bne.n	10b4d4 <_ungetc_r+0x30>
  10b4d0:	68b4      	ldr	r4, [r6, #8]
  10b4d2:	e003      	b.n	10b4dc <_ungetc_r+0x38>
  10b4d4:	4b2b      	ldr	r3, [pc, #172]	; (10b584 <_ungetc_r+0xe0>)
  10b4d6:	429c      	cmp	r4, r3
  10b4d8:	bf08      	it	eq
  10b4da:	68f4      	ldreq	r4, [r6, #12]
  10b4dc:	89a3      	ldrh	r3, [r4, #12]
  10b4de:	f023 0320 	bic.w	r3, r3, #32
  10b4e2:	b29b      	uxth	r3, r3
  10b4e4:	81a3      	strh	r3, [r4, #12]
  10b4e6:	b29b      	uxth	r3, r3
  10b4e8:	0759      	lsls	r1, r3, #29
  10b4ea:	d413      	bmi.n	10b514 <_ungetc_r+0x70>
  10b4ec:	06da      	lsls	r2, r3, #27
  10b4ee:	d5df      	bpl.n	10b4b0 <_ungetc_r+0xc>
  10b4f0:	071b      	lsls	r3, r3, #28
  10b4f2:	d50b      	bpl.n	10b50c <_ungetc_r+0x68>
  10b4f4:	4621      	mov	r1, r4
  10b4f6:	4630      	mov	r0, r6
  10b4f8:	f7fd f85e 	bl	1085b8 <_fflush_r>
  10b4fc:	2800      	cmp	r0, #0
  10b4fe:	d1d7      	bne.n	10b4b0 <_ungetc_r+0xc>
  10b500:	89a3      	ldrh	r3, [r4, #12]
  10b502:	60a0      	str	r0, [r4, #8]
  10b504:	f023 0308 	bic.w	r3, r3, #8
  10b508:	81a3      	strh	r3, [r4, #12]
  10b50a:	61a0      	str	r0, [r4, #24]
  10b50c:	89a3      	ldrh	r3, [r4, #12]
  10b50e:	f043 0304 	orr.w	r3, r3, #4
  10b512:	81a3      	strh	r3, [r4, #12]
  10b514:	6b63      	ldr	r3, [r4, #52]	; 0x34
  10b516:	b2fd      	uxtb	r5, r7
  10b518:	6862      	ldr	r2, [r4, #4]
  10b51a:	b18b      	cbz	r3, 10b540 <_ungetc_r+0x9c>
  10b51c:	6ba3      	ldr	r3, [r4, #56]	; 0x38
  10b51e:	429a      	cmp	r2, r3
  10b520:	da07      	bge.n	10b532 <_ungetc_r+0x8e>
  10b522:	6823      	ldr	r3, [r4, #0]
  10b524:	1e5a      	subs	r2, r3, #1
  10b526:	6022      	str	r2, [r4, #0]
  10b528:	f803 7c01 	strb.w	r7, [r3, #-1]
  10b52c:	6863      	ldr	r3, [r4, #4]
  10b52e:	3301      	adds	r3, #1
  10b530:	e020      	b.n	10b574 <_ungetc_r+0xd0>
  10b532:	4621      	mov	r1, r4
  10b534:	4630      	mov	r0, r6
  10b536:	f7ff ff7b 	bl	10b430 <__submore>
  10b53a:	2800      	cmp	r0, #0
  10b53c:	d0f1      	beq.n	10b522 <_ungetc_r+0x7e>
  10b53e:	e7b7      	b.n	10b4b0 <_ungetc_r+0xc>
  10b540:	6921      	ldr	r1, [r4, #16]
  10b542:	6823      	ldr	r3, [r4, #0]
  10b544:	b151      	cbz	r1, 10b55c <_ungetc_r+0xb8>
  10b546:	4299      	cmp	r1, r3
  10b548:	d208      	bcs.n	10b55c <_ungetc_r+0xb8>
  10b54a:	f813 1c01 	ldrb.w	r1, [r3, #-1]
  10b54e:	428d      	cmp	r5, r1
  10b550:	d104      	bne.n	10b55c <_ungetc_r+0xb8>
  10b552:	3b01      	subs	r3, #1
  10b554:	3201      	adds	r2, #1
  10b556:	6023      	str	r3, [r4, #0]
  10b558:	6062      	str	r2, [r4, #4]
  10b55a:	e00c      	b.n	10b576 <_ungetc_r+0xd2>
  10b55c:	63e3      	str	r3, [r4, #60]	; 0x3c
  10b55e:	f104 0344 	add.w	r3, r4, #68	; 0x44
  10b562:	6363      	str	r3, [r4, #52]	; 0x34
  10b564:	2303      	movs	r3, #3
  10b566:	63a3      	str	r3, [r4, #56]	; 0x38
  10b568:	4623      	mov	r3, r4
  10b56a:	6422      	str	r2, [r4, #64]	; 0x40
  10b56c:	f803 7f46 	strb.w	r7, [r3, #70]!
  10b570:	6023      	str	r3, [r4, #0]
  10b572:	2301      	movs	r3, #1
  10b574:	6063      	str	r3, [r4, #4]
  10b576:	4628      	mov	r0, r5
  10b578:	bdf8      	pop	{r3, r4, r5, r6, r7, pc}
  10b57a:	bf00      	nop
  10b57c:	0010e880 	.word	0x0010e880
  10b580:	0010e8a0 	.word	0x0010e8a0
  10b584:	0010e8c0 	.word	0x0010e8c0

0010b588 <_vsniprintf_r>:
  10b588:	b530      	push	{r4, r5, lr}
  10b58a:	1e14      	subs	r4, r2, #0
  10b58c:	4605      	mov	r5, r0
  10b58e:	b09b      	sub	sp, #108	; 0x6c
  10b590:	4618      	mov	r0, r3
  10b592:	da04      	bge.n	10b59e <_vsniprintf_r+0x16>
  10b594:	238b      	movs	r3, #139	; 0x8b
  10b596:	602b      	str	r3, [r5, #0]
  10b598:	f04f 30ff 	mov.w	r0, #4294967295
  10b59c:	e01d      	b.n	10b5da <_vsniprintf_r+0x52>
  10b59e:	f44f 7302 	mov.w	r3, #520	; 0x208
  10b5a2:	f8ad 300c 	strh.w	r3, [sp, #12]
  10b5a6:	bf0c      	ite	eq
  10b5a8:	4623      	moveq	r3, r4
  10b5aa:	f104 33ff 	addne.w	r3, r4, #4294967295
  10b5ae:	9302      	str	r3, [sp, #8]
  10b5b0:	9305      	str	r3, [sp, #20]
  10b5b2:	f64f 73ff 	movw	r3, #65535	; 0xffff
  10b5b6:	9100      	str	r1, [sp, #0]
  10b5b8:	9104      	str	r1, [sp, #16]
  10b5ba:	f8ad 300e 	strh.w	r3, [sp, #14]
  10b5be:	4602      	mov	r2, r0
  10b5c0:	9b1e      	ldr	r3, [sp, #120]	; 0x78
  10b5c2:	4669      	mov	r1, sp
  10b5c4:	4628      	mov	r0, r5
  10b5c6:	f001 feeb 	bl	10d3a0 <_svfiprintf_r>
  10b5ca:	1c43      	adds	r3, r0, #1
  10b5cc:	bfbc      	itt	lt
  10b5ce:	238b      	movlt	r3, #139	; 0x8b
  10b5d0:	602b      	strlt	r3, [r5, #0]
  10b5d2:	b114      	cbz	r4, 10b5da <_vsniprintf_r+0x52>
  10b5d4:	9b00      	ldr	r3, [sp, #0]
  10b5d6:	2200      	movs	r2, #0
  10b5d8:	701a      	strb	r2, [r3, #0]
  10b5da:	b01b      	add	sp, #108	; 0x6c
  10b5dc:	bd30      	pop	{r4, r5, pc}
	...

0010b5e0 <vsniprintf>:
  10b5e0:	b507      	push	{r0, r1, r2, lr}
  10b5e2:	9300      	str	r3, [sp, #0]
  10b5e4:	4613      	mov	r3, r2
  10b5e6:	460a      	mov	r2, r1
  10b5e8:	4601      	mov	r1, r0
  10b5ea:	4803      	ldr	r0, [pc, #12]	; (10b5f8 <vsniprintf+0x18>)
  10b5ec:	6800      	ldr	r0, [r0, #0]
  10b5ee:	f7ff ffcb 	bl	10b588 <_vsniprintf_r>
  10b5f2:	b003      	add	sp, #12
  10b5f4:	f85d fb04 	ldr.w	pc, [sp], #4
  10b5f8:	3fff41c4 	.word	0x3fff41c4

0010b5fc <__swbuf_r>:
  10b5fc:	b5f8      	push	{r3, r4, r5, r6, r7, lr}
  10b5fe:	460f      	mov	r7, r1
  10b600:	4614      	mov	r4, r2
  10b602:	4606      	mov	r6, r0
  10b604:	b118      	cbz	r0, 10b60e <__swbuf_r+0x12>
  10b606:	6983      	ldr	r3, [r0, #24]
  10b608:	b90b      	cbnz	r3, 10b60e <__swbuf_r+0x12>
  10b60a:	f7fd f851 	bl	1086b0 <__sinit>
  10b60e:	4b22      	ldr	r3, [pc, #136]	; (10b698 <__swbuf_r+0x9c>)
  10b610:	429c      	cmp	r4, r3
  10b612:	d101      	bne.n	10b618 <__swbuf_r+0x1c>
  10b614:	6874      	ldr	r4, [r6, #4]
  10b616:	e008      	b.n	10b62a <__swbuf_r+0x2e>
  10b618:	4b20      	ldr	r3, [pc, #128]	; (10b69c <__swbuf_r+0xa0>)
  10b61a:	429c      	cmp	r4, r3
  10b61c:	d101      	bne.n	10b622 <__swbuf_r+0x26>
  10b61e:	68b4      	ldr	r4, [r6, #8]
  10b620:	e003      	b.n	10b62a <__swbuf_r+0x2e>
  10b622:	4b1f      	ldr	r3, [pc, #124]	; (10b6a0 <__swbuf_r+0xa4>)
  10b624:	429c      	cmp	r4, r3
  10b626:	bf08      	it	eq
  10b628:	68f4      	ldreq	r4, [r6, #12]
  10b62a:	69a3      	ldr	r3, [r4, #24]
  10b62c:	60a3      	str	r3, [r4, #8]
  10b62e:	89a3      	ldrh	r3, [r4, #12]
  10b630:	071a      	lsls	r2, r3, #28
  10b632:	d509      	bpl.n	10b648 <__swbuf_r+0x4c>
  10b634:	6923      	ldr	r3, [r4, #16]
  10b636:	b13b      	cbz	r3, 10b648 <__swbuf_r+0x4c>
  10b638:	6823      	ldr	r3, [r4, #0]
  10b63a:	6920      	ldr	r0, [r4, #16]
  10b63c:	b2fd      	uxtb	r5, r7
  10b63e:	1a18      	subs	r0, r3, r0
  10b640:	6963      	ldr	r3, [r4, #20]
  10b642:	4298      	cmp	r0, r3
  10b644:	db0f      	blt.n	10b666 <__swbuf_r+0x6a>
  10b646:	e008      	b.n	10b65a <__swbuf_r+0x5e>
  10b648:	4621      	mov	r1, r4
  10b64a:	4630      	mov	r0, r6
  10b64c:	f000 f83c 	bl	10b6c8 <__swsetup_r>
  10b650:	2800      	cmp	r0, #0
  10b652:	d0f1      	beq.n	10b638 <__swbuf_r+0x3c>
  10b654:	f04f 30ff 	mov.w	r0, #4294967295
  10b658:	bdf8      	pop	{r3, r4, r5, r6, r7, pc}
  10b65a:	4621      	mov	r1, r4
  10b65c:	4630      	mov	r0, r6
  10b65e:	f7fc ffab 	bl	1085b8 <_fflush_r>
  10b662:	2800      	cmp	r0, #0
  10b664:	d1f6      	bne.n	10b654 <__swbuf_r+0x58>
  10b666:	68a3      	ldr	r3, [r4, #8]
  10b668:	3b01      	subs	r3, #1
  10b66a:	60a3      	str	r3, [r4, #8]
  10b66c:	6823      	ldr	r3, [r4, #0]
  10b66e:	1c5a      	adds	r2, r3, #1
  10b670:	6022      	str	r2, [r4, #0]
  10b672:	701f      	strb	r7, [r3, #0]
  10b674:	6962      	ldr	r2, [r4, #20]
  10b676:	1c43      	adds	r3, r0, #1
  10b678:	4293      	cmp	r3, r2
  10b67a:	d004      	beq.n	10b686 <__swbuf_r+0x8a>
  10b67c:	89a3      	ldrh	r3, [r4, #12]
  10b67e:	07db      	lsls	r3, r3, #31
  10b680:	d507      	bpl.n	10b692 <__swbuf_r+0x96>
  10b682:	2d0a      	cmp	r5, #10
  10b684:	d105      	bne.n	10b692 <__swbuf_r+0x96>
  10b686:	4621      	mov	r1, r4
  10b688:	4630      	mov	r0, r6
  10b68a:	f7fc ff95 	bl	1085b8 <_fflush_r>
  10b68e:	2800      	cmp	r0, #0
  10b690:	d1e0      	bne.n	10b654 <__swbuf_r+0x58>
  10b692:	4628      	mov	r0, r5
  10b694:	bdf8      	pop	{r3, r4, r5, r6, r7, pc}
  10b696:	bf00      	nop
  10b698:	0010e880 	.word	0x0010e880
  10b69c:	0010e8a0 	.word	0x0010e8a0
  10b6a0:	0010e8c0 	.word	0x0010e8c0

0010b6a4 <_write_r>:
  10b6a4:	b538      	push	{r3, r4, r5, lr}
  10b6a6:	4c07      	ldr	r4, [pc, #28]	; (10b6c4 <_write_r+0x20>)
  10b6a8:	4605      	mov	r5, r0
  10b6aa:	4608      	mov	r0, r1
  10b6ac:	4611      	mov	r1, r2
  10b6ae:	2200      	movs	r2, #0
  10b6b0:	6022      	str	r2, [r4, #0]
  10b6b2:	461a      	mov	r2, r3
  10b6b4:	f7fb fa36 	bl	106b24 <_write>
  10b6b8:	1c43      	adds	r3, r0, #1
  10b6ba:	d102      	bne.n	10b6c2 <_write_r+0x1e>
  10b6bc:	6823      	ldr	r3, [r4, #0]
  10b6be:	b103      	cbz	r3, 10b6c2 <_write_r+0x1e>
  10b6c0:	602b      	str	r3, [r5, #0]
  10b6c2:	bd38      	pop	{r3, r4, r5, pc}
  10b6c4:	3fff60f0 	.word	0x3fff60f0

0010b6c8 <__swsetup_r>:
  10b6c8:	4b31      	ldr	r3, [pc, #196]	; (10b790 <__swsetup_r+0xc8>)
  10b6ca:	b570      	push	{r4, r5, r6, lr}
  10b6cc:	681d      	ldr	r5, [r3, #0]
  10b6ce:	4606      	mov	r6, r0
  10b6d0:	460c      	mov	r4, r1
  10b6d2:	b125      	cbz	r5, 10b6de <__swsetup_r+0x16>
  10b6d4:	69ab      	ldr	r3, [r5, #24]
  10b6d6:	b913      	cbnz	r3, 10b6de <__swsetup_r+0x16>
  10b6d8:	4628      	mov	r0, r5
  10b6da:	f7fc ffe9 	bl	1086b0 <__sinit>
  10b6de:	4b2d      	ldr	r3, [pc, #180]	; (10b794 <__swsetup_r+0xcc>)
  10b6e0:	429c      	cmp	r4, r3
  10b6e2:	d101      	bne.n	10b6e8 <__swsetup_r+0x20>
  10b6e4:	686c      	ldr	r4, [r5, #4]
  10b6e6:	e008      	b.n	10b6fa <__swsetup_r+0x32>
  10b6e8:	4b2b      	ldr	r3, [pc, #172]	; (10b798 <__swsetup_r+0xd0>)
  10b6ea:	429c      	cmp	r4, r3
  10b6ec:	d101      	bne.n	10b6f2 <__swsetup_r+0x2a>
  10b6ee:	68ac      	ldr	r4, [r5, #8]
  10b6f0:	e003      	b.n	10b6fa <__swsetup_r+0x32>
  10b6f2:	4b2a      	ldr	r3, [pc, #168]	; (10b79c <__swsetup_r+0xd4>)
  10b6f4:	429c      	cmp	r4, r3
  10b6f6:	bf08      	it	eq
  10b6f8:	68ec      	ldreq	r4, [r5, #12]
  10b6fa:	89a3      	ldrh	r3, [r4, #12]
  10b6fc:	b29a      	uxth	r2, r3
  10b6fe:	0711      	lsls	r1, r2, #28
  10b700:	d41d      	bmi.n	10b73e <__swsetup_r+0x76>
  10b702:	06d5      	lsls	r5, r2, #27
  10b704:	d402      	bmi.n	10b70c <__swsetup_r+0x44>
  10b706:	2209      	movs	r2, #9
  10b708:	6032      	str	r2, [r6, #0]
  10b70a:	e038      	b.n	10b77e <__swsetup_r+0xb6>
  10b70c:	0750      	lsls	r0, r2, #29
  10b70e:	d512      	bpl.n	10b736 <__swsetup_r+0x6e>
  10b710:	6b61      	ldr	r1, [r4, #52]	; 0x34
  10b712:	b141      	cbz	r1, 10b726 <__swsetup_r+0x5e>
  10b714:	f104 0344 	add.w	r3, r4, #68	; 0x44
  10b718:	4299      	cmp	r1, r3
  10b71a:	d002      	beq.n	10b722 <__swsetup_r+0x5a>
  10b71c:	4630      	mov	r0, r6
  10b71e:	f7fb f9a5 	bl	106a6c <__wrap__free_r>
  10b722:	2300      	movs	r3, #0
  10b724:	6363      	str	r3, [r4, #52]	; 0x34
  10b726:	89a3      	ldrh	r3, [r4, #12]
  10b728:	f023 0324 	bic.w	r3, r3, #36	; 0x24
  10b72c:	81a3      	strh	r3, [r4, #12]
  10b72e:	2300      	movs	r3, #0
  10b730:	6063      	str	r3, [r4, #4]
  10b732:	6923      	ldr	r3, [r4, #16]
  10b734:	6023      	str	r3, [r4, #0]
  10b736:	89a3      	ldrh	r3, [r4, #12]
  10b738:	f043 0308 	orr.w	r3, r3, #8
  10b73c:	81a3      	strh	r3, [r4, #12]
  10b73e:	6923      	ldr	r3, [r4, #16]
  10b740:	b94b      	cbnz	r3, 10b756 <__swsetup_r+0x8e>
  10b742:	89a3      	ldrh	r3, [r4, #12]
  10b744:	f403 7320 	and.w	r3, r3, #640	; 0x280
  10b748:	f5b3 7f00 	cmp.w	r3, #512	; 0x200
  10b74c:	d003      	beq.n	10b756 <__swsetup_r+0x8e>
  10b74e:	4621      	mov	r1, r4
  10b750:	4630      	mov	r0, r6
  10b752:	f7fd f955 	bl	108a00 <__smakebuf_r>
  10b756:	89a3      	ldrh	r3, [r4, #12]
  10b758:	f013 0201 	ands.w	r2, r3, #1
  10b75c:	d005      	beq.n	10b76a <__swsetup_r+0xa2>
  10b75e:	2200      	movs	r2, #0
  10b760:	60a2      	str	r2, [r4, #8]
  10b762:	6962      	ldr	r2, [r4, #20]
  10b764:	4252      	negs	r2, r2
  10b766:	61a2      	str	r2, [r4, #24]
  10b768:	e003      	b.n	10b772 <__swsetup_r+0xaa>
  10b76a:	0799      	lsls	r1, r3, #30
  10b76c:	bf58      	it	pl
  10b76e:	6962      	ldrpl	r2, [r4, #20]
  10b770:	60a2      	str	r2, [r4, #8]
  10b772:	6922      	ldr	r2, [r4, #16]
  10b774:	b94a      	cbnz	r2, 10b78a <__swsetup_r+0xc2>
  10b776:	f003 0080 	and.w	r0, r3, #128	; 0x80
  10b77a:	b280      	uxth	r0, r0
  10b77c:	b130      	cbz	r0, 10b78c <__swsetup_r+0xc4>
  10b77e:	f043 0340 	orr.w	r3, r3, #64	; 0x40
  10b782:	81a3      	strh	r3, [r4, #12]
  10b784:	f04f 30ff 	mov.w	r0, #4294967295
  10b788:	bd70      	pop	{r4, r5, r6, pc}
  10b78a:	2000      	movs	r0, #0
  10b78c:	bd70      	pop	{r4, r5, r6, pc}
  10b78e:	bf00      	nop
  10b790:	3fff41c4 	.word	0x3fff41c4
  10b794:	0010e880 	.word	0x0010e880
  10b798:	0010e8a0 	.word	0x0010e8a0
  10b79c:	0010e8c0 	.word	0x0010e8c0

0010b7a0 <_close_r>:
  10b7a0:	b538      	push	{r3, r4, r5, lr}
  10b7a2:	4c06      	ldr	r4, [pc, #24]	; (10b7bc <_close_r+0x1c>)
  10b7a4:	2300      	movs	r3, #0
  10b7a6:	4605      	mov	r5, r0
  10b7a8:	4608      	mov	r0, r1
  10b7aa:	6023      	str	r3, [r4, #0]
  10b7ac:	f7fb f99a 	bl	106ae4 <_close>
  10b7b0:	1c43      	adds	r3, r0, #1
  10b7b2:	d102      	bne.n	10b7ba <_close_r+0x1a>
  10b7b4:	6823      	ldr	r3, [r4, #0]
  10b7b6:	b103      	cbz	r3, 10b7ba <_close_r+0x1a>
  10b7b8:	602b      	str	r3, [r5, #0]
  10b7ba:	bd38      	pop	{r3, r4, r5, pc}
  10b7bc:	3fff60f0 	.word	0x3fff60f0

0010b7c0 <quorem>:
  10b7c0:	e92d 4ff7 	stmdb	sp!, {r0, r1, r2, r4, r5, r6, r7, r8, r9, r10, r11, lr}
  10b7c4:	6903      	ldr	r3, [r0, #16]
  10b7c6:	690c      	ldr	r4, [r1, #16]
  10b7c8:	4680      	mov	r8, r0
  10b7ca:	429c      	cmp	r4, r3
  10b7cc:	dc7f      	bgt.n	10b8ce <quorem+0x10e>
  10b7ce:	3c01      	subs	r4, #1
  10b7d0:	f101 0714 	add.w	r7, r1, #20
  10b7d4:	ea4f 0e84 	mov.w	lr, r4, lsl #2
  10b7d8:	f100 0614 	add.w	r6, r0, #20
  10b7dc:	eb06 030e 	add.w	r3, r6, lr
  10b7e0:	f857 5024 	ldr.w	r5, [r7, r4, lsl #2]
  10b7e4:	9301      	str	r3, [sp, #4]
  10b7e6:	f856 3024 	ldr.w	r3, [r6, r4, lsl #2]
  10b7ea:	3501      	adds	r5, #1
  10b7ec:	fbb3 f5f5 	udiv	r5, r3, r5
  10b7f0:	eb07 090e 	add.w	r9, r7, lr
  10b7f4:	b3c5      	cbz	r5, 10b868 <quorem+0xa8>
  10b7f6:	f04f 0a00 	mov.w	r10, #0
  10b7fa:	4638      	mov	r0, r7
  10b7fc:	46b4      	mov	r12, r6
  10b7fe:	46d3      	mov	r11, r10
  10b800:	f850 3b04 	ldr.w	r3, [r0], #4
  10b804:	b29a      	uxth	r2, r3
  10b806:	fb05 a202 	mla	r2, r5, r2, r10
  10b80a:	0c1b      	lsrs	r3, r3, #16
  10b80c:	ea4f 4a12 	mov.w	r10, r2, lsr #16
  10b810:	fb05 a303 	mla	r3, r5, r3, r10
  10b814:	b292      	uxth	r2, r2
  10b816:	ebc2 0b0b 	rsb	r11, r2, r11
  10b81a:	f8bc 2000 	ldrh.w	r2, [r12]
  10b81e:	ea4f 4a13 	mov.w	r10, r3, lsr #16
  10b822:	445a      	add	r2, r11
  10b824:	fa1f fb83 	uxth.w	r11, r3
  10b828:	f8dc 3000 	ldr.w	r3, [r12]
  10b82c:	4581      	cmp	r9, r0
  10b82e:	ebcb 4313 	rsb	r3, r11, r3, lsr #16
  10b832:	eb03 4322 	add.w	r3, r3, r2, asr #16
  10b836:	b292      	uxth	r2, r2
  10b838:	ea42 4203 	orr.w	r2, r2, r3, lsl #16
  10b83c:	ea4f 4b23 	mov.w	r11, r3, asr #16
  10b840:	f84c 2b04 	str.w	r2, [r12], #4
  10b844:	d2dc      	bcs.n	10b800 <quorem+0x40>
  10b846:	f856 300e 	ldr.w	r3, [r6, lr]
  10b84a:	b96b      	cbnz	r3, 10b868 <quorem+0xa8>
  10b84c:	9b01      	ldr	r3, [sp, #4]
  10b84e:	3b04      	subs	r3, #4
  10b850:	429e      	cmp	r6, r3
  10b852:	461a      	mov	r2, r3
  10b854:	d302      	bcc.n	10b85c <quorem+0x9c>
  10b856:	f8c8 4010 	str.w	r4, [r8, #16]
  10b85a:	e005      	b.n	10b868 <quorem+0xa8>
  10b85c:	6812      	ldr	r2, [r2, #0]
  10b85e:	3b04      	subs	r3, #4
  10b860:	2a00      	cmp	r2, #0
  10b862:	d1f8      	bne.n	10b856 <quorem+0x96>
  10b864:	3c01      	subs	r4, #1
  10b866:	e7f3      	b.n	10b850 <quorem+0x90>
  10b868:	4640      	mov	r0, r8
  10b86a:	f001 fba2 	bl	10cfb2 <__mcmp>
  10b86e:	2800      	cmp	r0, #0
  10b870:	db2b      	blt.n	10b8ca <quorem+0x10a>
  10b872:	4630      	mov	r0, r6
  10b874:	3501      	adds	r5, #1
  10b876:	f04f 0e00 	mov.w	lr, #0
  10b87a:	f857 2b04 	ldr.w	r2, [r7], #4
  10b87e:	6803      	ldr	r3, [r0, #0]
  10b880:	b291      	uxth	r1, r2
  10b882:	ebc1 0e0e 	rsb	lr, r1, lr
  10b886:	0c12      	lsrs	r2, r2, #16
  10b888:	b299      	uxth	r1, r3
  10b88a:	4471      	add	r1, lr
  10b88c:	ebc2 4313 	rsb	r3, r2, r3, lsr #16
  10b890:	eb03 4321 	add.w	r3, r3, r1, asr #16
  10b894:	b289      	uxth	r1, r1
  10b896:	ea4f 4e23 	mov.w	lr, r3, asr #16
  10b89a:	45b9      	cmp	r9, r7
  10b89c:	ea41 4303 	orr.w	r3, r1, r3, lsl #16
  10b8a0:	f840 3b04 	str.w	r3, [r0], #4
  10b8a4:	d2e9      	bcs.n	10b87a <quorem+0xba>
  10b8a6:	f856 2024 	ldr.w	r2, [r6, r4, lsl #2]
  10b8aa:	eb06 0384 	add.w	r3, r6, r4, lsl #2
  10b8ae:	b962      	cbnz	r2, 10b8ca <quorem+0x10a>
  10b8b0:	3b04      	subs	r3, #4
  10b8b2:	429e      	cmp	r6, r3
  10b8b4:	461a      	mov	r2, r3
  10b8b6:	d302      	bcc.n	10b8be <quorem+0xfe>
  10b8b8:	f8c8 4010 	str.w	r4, [r8, #16]
  10b8bc:	e005      	b.n	10b8ca <quorem+0x10a>
  10b8be:	6812      	ldr	r2, [r2, #0]
  10b8c0:	3b04      	subs	r3, #4
  10b8c2:	2a00      	cmp	r2, #0
  10b8c4:	d1f8      	bne.n	10b8b8 <quorem+0xf8>
  10b8c6:	3c01      	subs	r4, #1
  10b8c8:	e7f3      	b.n	10b8b2 <quorem+0xf2>
  10b8ca:	4628      	mov	r0, r5
  10b8cc:	e000      	b.n	10b8d0 <quorem+0x110>
  10b8ce:	2000      	movs	r0, #0
  10b8d0:	b003      	add	sp, #12
  10b8d2:	e8bd 8ff0 	ldmia.w	sp!, {r4, r5, r6, r7, r8, r9, r10, r11, pc}
	...

0010b8d8 <_dtoa_r>:
  10b8d8:	e92d 4ff0 	stmdb	sp!, {r4, r5, r6, r7, r8, r9, r10, r11, lr}
  10b8dc:	6a45      	ldr	r5, [r0, #36]	; 0x24
  10b8de:	b095      	sub	sp, #84	; 0x54
  10b8e0:	4682      	mov	r10, r0
  10b8e2:	9c21      	ldr	r4, [sp, #132]	; 0x84
  10b8e4:	e9cd 2302 	strd	r2, r3, [sp, #8]
  10b8e8:	b945      	cbnz	r5, 10b8fc <_dtoa_r+0x24>
  10b8ea:	2010      	movs	r0, #16
  10b8ec:	f7fd f8d4 	bl	108a98 <malloc>
  10b8f0:	f8ca 0024 	str.w	r0, [r10, #36]	; 0x24
  10b8f4:	6045      	str	r5, [r0, #4]
  10b8f6:	6085      	str	r5, [r0, #8]
  10b8f8:	6005      	str	r5, [r0, #0]
  10b8fa:	60c5      	str	r5, [r0, #12]
  10b8fc:	f8da 3024 	ldr.w	r3, [r10, #36]	; 0x24
  10b900:	6819      	ldr	r1, [r3, #0]
  10b902:	b159      	cbz	r1, 10b91c <_dtoa_r+0x44>
  10b904:	685a      	ldr	r2, [r3, #4]
  10b906:	2301      	movs	r3, #1
  10b908:	4093      	lsls	r3, r2
  10b90a:	604a      	str	r2, [r1, #4]
  10b90c:	608b      	str	r3, [r1, #8]
  10b90e:	4650      	mov	r0, r10
  10b910:	f001 f939 	bl	10cb86 <_Bfree>
  10b914:	f8da 3024 	ldr.w	r3, [r10, #36]	; 0x24
  10b918:	2200      	movs	r2, #0
  10b91a:	601a      	str	r2, [r3, #0]
  10b91c:	9b03      	ldr	r3, [sp, #12]
  10b91e:	4aa0      	ldr	r2, [pc, #640]	; (10bba0 <_dtoa_r+0x2c8>)
  10b920:	2b00      	cmp	r3, #0
  10b922:	bfbd      	ittte	lt
  10b924:	2301      	movlt	r3, #1
  10b926:	6023      	strlt	r3, [r4, #0]
  10b928:	9b03      	ldrlt	r3, [sp, #12]
  10b92a:	2300      	movge	r3, #0
  10b92c:	bfbc      	itt	lt
  10b92e:	f023 4300 	biclt.w	r3, r3, #2147483648	; 0x80000000
  10b932:	9303      	strlt	r3, [sp, #12]
  10b934:	f8dd 800c 	ldr.w	r8, [sp, #12]
  10b938:	bfa8      	it	ge
  10b93a:	6023      	strge	r3, [r4, #0]
  10b93c:	f028 4300 	bic.w	r3, r8, #2147483648	; 0x80000000
  10b940:	0d1b      	lsrs	r3, r3, #20
  10b942:	051b      	lsls	r3, r3, #20
  10b944:	4293      	cmp	r3, r2
  10b946:	d11d      	bne.n	10b984 <_dtoa_r+0xac>
  10b948:	f242 730f 	movw	r3, #9999	; 0x270f
  10b94c:	9a20      	ldr	r2, [sp, #128]	; 0x80
  10b94e:	6013      	str	r3, [r2, #0]
  10b950:	9b02      	ldr	r3, [sp, #8]
  10b952:	b943      	cbnz	r3, 10b966 <_dtoa_r+0x8e>
  10b954:	4a93      	ldr	r2, [pc, #588]	; (10bba4 <_dtoa_r+0x2cc>)
  10b956:	4b94      	ldr	r3, [pc, #592]	; (10bba8 <_dtoa_r+0x2d0>)
  10b958:	f3c8 0013 	ubfx	r0, r8, #0, #20
  10b95c:	2800      	cmp	r0, #0
  10b95e:	bf14      	ite	ne
  10b960:	4618      	movne	r0, r3
  10b962:	4610      	moveq	r0, r2
  10b964:	e000      	b.n	10b968 <_dtoa_r+0x90>
  10b966:	4890      	ldr	r0, [pc, #576]	; (10bba8 <_dtoa_r+0x2d0>)
  10b968:	9b22      	ldr	r3, [sp, #136]	; 0x88
  10b96a:	2b00      	cmp	r3, #0
  10b96c:	f000 8546 	beq.w	10c3fc <_dtoa_r+0xb24>
  10b970:	78c3      	ldrb	r3, [r0, #3]
  10b972:	b113      	cbz	r3, 10b97a <_dtoa_r+0xa2>
  10b974:	f100 0308 	add.w	r3, r0, #8
  10b978:	e000      	b.n	10b97c <_dtoa_r+0xa4>
  10b97a:	1cc3      	adds	r3, r0, #3
  10b97c:	9a22      	ldr	r2, [sp, #136]	; 0x88
  10b97e:	6013      	str	r3, [r2, #0]
  10b980:	f000 bd3c 	b.w	10c3fc <_dtoa_r+0xb24>
  10b984:	e9dd 4502 	ldrd	r4, r5, [sp, #8]
  10b988:	2200      	movs	r2, #0
  10b98a:	2300      	movs	r3, #0
  10b98c:	4620      	mov	r0, r4
  10b98e:	4629      	mov	r1, r5
  10b990:	f7fb ff9c 	bl	1078cc <__aeabi_dcmpeq>
  10b994:	4607      	mov	r7, r0
  10b996:	b158      	cbz	r0, 10b9b0 <_dtoa_r+0xd8>
  10b998:	9a20      	ldr	r2, [sp, #128]	; 0x80
  10b99a:	2301      	movs	r3, #1
  10b99c:	6013      	str	r3, [r2, #0]
  10b99e:	9b22      	ldr	r3, [sp, #136]	; 0x88
  10b9a0:	2b00      	cmp	r3, #0
  10b9a2:	f000 851e 	beq.w	10c3e2 <_dtoa_r+0xb0a>
  10b9a6:	4881      	ldr	r0, [pc, #516]	; (10bbac <_dtoa_r+0x2d4>)
  10b9a8:	6018      	str	r0, [r3, #0]
  10b9aa:	3801      	subs	r0, #1
  10b9ac:	f000 bd26 	b.w	10c3fc <_dtoa_r+0xb24>
  10b9b0:	ab12      	add	r3, sp, #72	; 0x48
  10b9b2:	9301      	str	r3, [sp, #4]
  10b9b4:	ab13      	add	r3, sp, #76	; 0x4c
  10b9b6:	9300      	str	r3, [sp, #0]
  10b9b8:	4622      	mov	r2, r4
  10b9ba:	462b      	mov	r3, r5
  10b9bc:	4650      	mov	r0, r10
  10b9be:	f001 fbe4 	bl	10d18a <__d2b>
  10b9c2:	f3c8 560a 	ubfx	r6, r8, #20, #11
  10b9c6:	9004      	str	r0, [sp, #16]
  10b9c8:	b156      	cbz	r6, 10b9e0 <_dtoa_r+0x108>
  10b9ca:	f3c5 0313 	ubfx	r3, r5, #0, #20
  10b9ce:	f043 517f 	orr.w	r1, r3, #1069547520	; 0x3fc00000
  10b9d2:	4620      	mov	r0, r4
  10b9d4:	f441 1140 	orr.w	r1, r1, #3145728	; 0x300000
  10b9d8:	f2a6 36ff 	subw	r6, r6, #1023	; 0x3ff
  10b9dc:	9711      	str	r7, [sp, #68]	; 0x44
  10b9de:	e01d      	b.n	10ba1c <_dtoa_r+0x144>
  10b9e0:	9b13      	ldr	r3, [sp, #76]	; 0x4c
  10b9e2:	9e12      	ldr	r6, [sp, #72]	; 0x48
  10b9e4:	441e      	add	r6, r3
  10b9e6:	f206 4332 	addw	r3, r6, #1074	; 0x432
  10b9ea:	2b20      	cmp	r3, #32
  10b9ec:	dd0a      	ble.n	10ba04 <_dtoa_r+0x12c>
  10b9ee:	9a02      	ldr	r2, [sp, #8]
  10b9f0:	f206 4012 	addw	r0, r6, #1042	; 0x412
  10b9f4:	f1c3 0340 	rsb	r3, r3, #64	; 0x40
  10b9f8:	fa22 f000 	lsr.w	r0, r2, r0
  10b9fc:	fa08 f303 	lsl.w	r3, r8, r3
  10ba00:	4318      	orrs	r0, r3
  10ba02:	e004      	b.n	10ba0e <_dtoa_r+0x136>
  10ba04:	f1c3 0020 	rsb	r0, r3, #32
  10ba08:	9b02      	ldr	r3, [sp, #8]
  10ba0a:	fa03 f000 	lsl.w	r0, r3, r0
  10ba0e:	f7fb fe91 	bl	107734 <__aeabi_ui2d>
  10ba12:	2301      	movs	r3, #1
  10ba14:	f1a1 71f8 	sub.w	r1, r1, #32505856	; 0x1f00000
  10ba18:	3e01      	subs	r6, #1
  10ba1a:	9311      	str	r3, [sp, #68]	; 0x44
  10ba1c:	2200      	movs	r2, #0
  10ba1e:	4b64      	ldr	r3, [pc, #400]	; (10bbb0 <_dtoa_r+0x2d8>)
  10ba20:	f7fb fd4a 	bl	1074b8 <__aeabi_dsub>
  10ba24:	a358      	add	r3, pc, #352	; (adr r3, 10bb88 <_dtoa_r+0x2b0>)
  10ba26:	e9d3 2300 	ldrd	r2, r3, [r3]
  10ba2a:	f7fc faad 	bl	107f88 <__aeabi_dmul>
  10ba2e:	a358      	add	r3, pc, #352	; (adr r3, 10bb90 <_dtoa_r+0x2b8>)
  10ba30:	e9d3 2300 	ldrd	r2, r3, [r3]
  10ba34:	f7fb fd42 	bl	1074bc <__adddf3>
  10ba38:	4604      	mov	r4, r0
  10ba3a:	4630      	mov	r0, r6
  10ba3c:	460d      	mov	r5, r1
  10ba3e:	f7fb fe89 	bl	107754 <__aeabi_i2d>
  10ba42:	a355      	add	r3, pc, #340	; (adr r3, 10bb98 <_dtoa_r+0x2c0>)
  10ba44:	e9d3 2300 	ldrd	r2, r3, [r3]
  10ba48:	f7fc fa9e 	bl	107f88 <__aeabi_dmul>
  10ba4c:	4602      	mov	r2, r0
  10ba4e:	460b      	mov	r3, r1
  10ba50:	4620      	mov	r0, r4
  10ba52:	4629      	mov	r1, r5
  10ba54:	f7fb fd32 	bl	1074bc <__adddf3>
  10ba58:	4604      	mov	r4, r0
  10ba5a:	460d      	mov	r5, r1
  10ba5c:	f001 ff50 	bl	10d900 <__aeabi_d2iz>
  10ba60:	2200      	movs	r2, #0
  10ba62:	4683      	mov	r11, r0
  10ba64:	2300      	movs	r3, #0
  10ba66:	4620      	mov	r0, r4
  10ba68:	4629      	mov	r1, r5
  10ba6a:	f7fb ff39 	bl	1078e0 <__aeabi_dcmplt>
  10ba6e:	b158      	cbz	r0, 10ba88 <_dtoa_r+0x1b0>
  10ba70:	4658      	mov	r0, r11
  10ba72:	f7fb fe6f 	bl	107754 <__aeabi_i2d>
  10ba76:	4602      	mov	r2, r0
  10ba78:	460b      	mov	r3, r1
  10ba7a:	4620      	mov	r0, r4
  10ba7c:	4629      	mov	r1, r5
  10ba7e:	f7fb ff25 	bl	1078cc <__aeabi_dcmpeq>
  10ba82:	b908      	cbnz	r0, 10ba88 <_dtoa_r+0x1b0>
  10ba84:	f10b 3bff 	add.w	r11, r11, #4294967295
  10ba88:	f1bb 0f16 	cmp.w	r11, #22
  10ba8c:	d80d      	bhi.n	10baaa <_dtoa_r+0x1d2>
  10ba8e:	e9dd 2302 	ldrd	r2, r3, [sp, #8]
  10ba92:	4948      	ldr	r1, [pc, #288]	; (10bbb4 <_dtoa_r+0x2dc>)
  10ba94:	eb01 01cb 	add.w	r1, r1, r11, lsl #3
  10ba98:	e9d1 0100 	ldrd	r0, r1, [r1]
  10ba9c:	f7fb ff3e 	bl	10791c <__aeabi_dcmpgt>
  10baa0:	b130      	cbz	r0, 10bab0 <_dtoa_r+0x1d8>
  10baa2:	f10b 3bff 	add.w	r11, r11, #4294967295
  10baa6:	2300      	movs	r3, #0
  10baa8:	e000      	b.n	10baac <_dtoa_r+0x1d4>
  10baaa:	2301      	movs	r3, #1
  10baac:	9310      	str	r3, [sp, #64]	; 0x40
  10baae:	e000      	b.n	10bab2 <_dtoa_r+0x1da>
  10bab0:	9010      	str	r0, [sp, #64]	; 0x40
  10bab2:	9b12      	ldr	r3, [sp, #72]	; 0x48
  10bab4:	1b9e      	subs	r6, r3, r6
  10bab6:	1e73      	subs	r3, r6, #1
  10bab8:	9307      	str	r3, [sp, #28]
  10baba:	bf43      	ittte	mi
  10babc:	f1c3 0800 	rsbmi	r8, r3, #0
  10bac0:	2300      	movmi	r3, #0
  10bac2:	9307      	strmi	r3, [sp, #28]
  10bac4:	f04f 0800 	movpl.w	r8, #0
  10bac8:	f1bb 0f00 	cmp.w	r11, #0
  10bacc:	db06      	blt.n	10badc <_dtoa_r+0x204>
  10bace:	9b07      	ldr	r3, [sp, #28]
  10bad0:	f8cd b02c 	str.w	r11, [sp, #44]	; 0x2c
  10bad4:	445b      	add	r3, r11
  10bad6:	9307      	str	r3, [sp, #28]
  10bad8:	2700      	movs	r7, #0
  10bada:	e005      	b.n	10bae8 <_dtoa_r+0x210>
  10badc:	2300      	movs	r3, #0
  10bade:	ebcb 0808 	rsb	r8, r11, r8
  10bae2:	f1cb 0700 	rsb	r7, r11, #0
  10bae6:	930b      	str	r3, [sp, #44]	; 0x2c
  10bae8:	9b1e      	ldr	r3, [sp, #120]	; 0x78
  10baea:	2b09      	cmp	r3, #9
  10baec:	d828      	bhi.n	10bb40 <_dtoa_r+0x268>
  10baee:	2b05      	cmp	r3, #5
  10baf0:	bfc4      	itt	gt
  10baf2:	3b04      	subgt	r3, #4
  10baf4:	931e      	strgt	r3, [sp, #120]	; 0x78
  10baf6:	9b1e      	ldr	r3, [sp, #120]	; 0x78
  10baf8:	bfc8      	it	gt
  10bafa:	2500      	movgt	r5, #0
  10bafc:	f1a3 0302 	sub.w	r3, r3, #2
  10bb00:	bfd8      	it	le
  10bb02:	2501      	movle	r5, #1
  10bb04:	2b03      	cmp	r3, #3
  10bb06:	d820      	bhi.n	10bb4a <_dtoa_r+0x272>
  10bb08:	e8df f003 	tbb	[pc, r3]
  10bb0c:	04020e06 	.word	0x04020e06
  10bb10:	2301      	movs	r3, #1
  10bb12:	e002      	b.n	10bb1a <_dtoa_r+0x242>
  10bb14:	2301      	movs	r3, #1
  10bb16:	e008      	b.n	10bb2a <_dtoa_r+0x252>
  10bb18:	2300      	movs	r3, #0
  10bb1a:	930a      	str	r3, [sp, #40]	; 0x28
  10bb1c:	9b1f      	ldr	r3, [sp, #124]	; 0x7c
  10bb1e:	2b00      	cmp	r3, #0
  10bb20:	dd1d      	ble.n	10bb5e <_dtoa_r+0x286>
  10bb22:	4699      	mov	r9, r3
  10bb24:	9305      	str	r3, [sp, #20]
  10bb26:	e021      	b.n	10bb6c <_dtoa_r+0x294>
  10bb28:	2300      	movs	r3, #0
  10bb2a:	930a      	str	r3, [sp, #40]	; 0x28
  10bb2c:	9b1f      	ldr	r3, [sp, #124]	; 0x7c
  10bb2e:	eb0b 0903 	add.w	r9, r11, r3
  10bb32:	f109 0301 	add.w	r3, r9, #1
  10bb36:	2b01      	cmp	r3, #1
  10bb38:	9305      	str	r3, [sp, #20]
  10bb3a:	bfb8      	it	lt
  10bb3c:	2301      	movlt	r3, #1
  10bb3e:	e015      	b.n	10bb6c <_dtoa_r+0x294>
  10bb40:	2501      	movs	r5, #1
  10bb42:	2300      	movs	r3, #0
  10bb44:	931e      	str	r3, [sp, #120]	; 0x78
  10bb46:	950a      	str	r5, [sp, #40]	; 0x28
  10bb48:	e001      	b.n	10bb4e <_dtoa_r+0x276>
  10bb4a:	2301      	movs	r3, #1
  10bb4c:	930a      	str	r3, [sp, #40]	; 0x28
  10bb4e:	f04f 39ff 	mov.w	r9, #4294967295
  10bb52:	2200      	movs	r2, #0
  10bb54:	f8cd 9014 	str.w	r9, [sp, #20]
  10bb58:	2312      	movs	r3, #18
  10bb5a:	921f      	str	r2, [sp, #124]	; 0x7c
  10bb5c:	e006      	b.n	10bb6c <_dtoa_r+0x294>
  10bb5e:	f04f 0901 	mov.w	r9, #1
  10bb62:	464b      	mov	r3, r9
  10bb64:	f8cd 9014 	str.w	r9, [sp, #20]
  10bb68:	f8cd 907c 	str.w	r9, [sp, #124]	; 0x7c
  10bb6c:	f8da 4024 	ldr.w	r4, [r10, #36]	; 0x24
  10bb70:	2200      	movs	r2, #0
  10bb72:	6062      	str	r2, [r4, #4]
  10bb74:	2104      	movs	r1, #4
  10bb76:	f101 0214 	add.w	r2, r1, #20
  10bb7a:	429a      	cmp	r2, r3
  10bb7c:	d81c      	bhi.n	10bbb8 <_dtoa_r+0x2e0>
  10bb7e:	6862      	ldr	r2, [r4, #4]
  10bb80:	0049      	lsls	r1, r1, #1
  10bb82:	3201      	adds	r2, #1
  10bb84:	6062      	str	r2, [r4, #4]
  10bb86:	e7f6      	b.n	10bb76 <_dtoa_r+0x29e>
  10bb88:	636f4361 	.word	0x636f4361
  10bb8c:	3fd287a7 	.word	0x3fd287a7
  10bb90:	8b60c8b3 	.word	0x8b60c8b3
  10bb94:	3fc68a28 	.word	0x3fc68a28
  10bb98:	509f79fb 	.word	0x509f79fb
  10bb9c:	3fd34413 	.word	0x3fd34413
  10bba0:	7ff00000 	.word	0x7ff00000
  10bba4:	0010e9b0 	.word	0x0010e9b0
  10bba8:	0010e9b9 	.word	0x0010e9b9
  10bbac:	0010e957 	.word	0x0010e957
  10bbb0:	3ff80000 	.word	0x3ff80000
  10bbb4:	0010e9c0 	.word	0x0010e9c0
  10bbb8:	6861      	ldr	r1, [r4, #4]
  10bbba:	4650      	mov	r0, r10
  10bbbc:	f000 ffae 	bl	10cb1c <_Balloc>
  10bbc0:	f8da 3024 	ldr.w	r3, [r10, #36]	; 0x24
  10bbc4:	6020      	str	r0, [r4, #0]
  10bbc6:	681b      	ldr	r3, [r3, #0]
  10bbc8:	9306      	str	r3, [sp, #24]
  10bbca:	9b05      	ldr	r3, [sp, #20]
  10bbcc:	2b0e      	cmp	r3, #14
  10bbce:	f200 815b 	bhi.w	10be88 <_dtoa_r+0x5b0>
  10bbd2:	2d00      	cmp	r5, #0
  10bbd4:	f000 8158 	beq.w	10be88 <_dtoa_r+0x5b0>
  10bbd8:	e9dd 3402 	ldrd	r3, r4, [sp, #8]
  10bbdc:	f1bb 0f00 	cmp.w	r11, #0
  10bbe0:	e9cd 340e 	strd	r3, r4, [sp, #56]	; 0x38
  10bbe4:	dd30      	ble.n	10bc48 <_dtoa_r+0x370>
  10bbe6:	4a9f      	ldr	r2, [pc, #636]	; (10be64 <_dtoa_r+0x58c>)
  10bbe8:	f00b 030f 	and.w	r3, r11, #15
  10bbec:	ea4f 152b 	mov.w	r5, r11, asr #4
  10bbf0:	eb02 03c3 	add.w	r3, r2, r3, lsl #3
  10bbf4:	06e8      	lsls	r0, r5, #27
  10bbf6:	cb18      	ldmia	r3, {r3, r4}
  10bbf8:	e9cd 3408 	strd	r3, r4, [sp, #32]
  10bbfc:	d50c      	bpl.n	10bc18 <_dtoa_r+0x340>
  10bbfe:	e9dd 010e 	ldrd	r0, r1, [sp, #56]	; 0x38
  10bc02:	4b99      	ldr	r3, [pc, #612]	; (10be68 <_dtoa_r+0x590>)
  10bc04:	f005 050f 	and.w	r5, r5, #15
  10bc08:	e9d3 2308 	ldrd	r2, r3, [r3, #32]
  10bc0c:	f7fc fae6 	bl	1081dc <__aeabi_ddiv>
  10bc10:	2403      	movs	r4, #3
  10bc12:	e9cd 0102 	strd	r0, r1, [sp, #8]
  10bc16:	e000      	b.n	10bc1a <_dtoa_r+0x342>
  10bc18:	2402      	movs	r4, #2
  10bc1a:	4e93      	ldr	r6, [pc, #588]	; (10be68 <_dtoa_r+0x590>)
  10bc1c:	b16d      	cbz	r5, 10bc3a <_dtoa_r+0x362>
  10bc1e:	07e9      	lsls	r1, r5, #31
  10bc20:	d508      	bpl.n	10bc34 <_dtoa_r+0x35c>
  10bc22:	e9dd 0108 	ldrd	r0, r1, [sp, #32]
  10bc26:	e9d6 2300 	ldrd	r2, r3, [r6]
  10bc2a:	f7fc f9ad 	bl	107f88 <__aeabi_dmul>
  10bc2e:	e9cd 0108 	strd	r0, r1, [sp, #32]
  10bc32:	3401      	adds	r4, #1
  10bc34:	106d      	asrs	r5, r5, #1
  10bc36:	3608      	adds	r6, #8
  10bc38:	e7f0      	b.n	10bc1c <_dtoa_r+0x344>
  10bc3a:	e9dd 2308 	ldrd	r2, r3, [sp, #32]
  10bc3e:	e9dd 0102 	ldrd	r0, r1, [sp, #8]
  10bc42:	f7fc facb 	bl	1081dc <__aeabi_ddiv>
  10bc46:	e020      	b.n	10bc8a <_dtoa_r+0x3b2>
  10bc48:	f1cb 0500 	rsb	r5, r11, #0
  10bc4c:	b305      	cbz	r5, 10bc90 <_dtoa_r+0x3b8>
  10bc4e:	e9dd 010e 	ldrd	r0, r1, [sp, #56]	; 0x38
  10bc52:	4b84      	ldr	r3, [pc, #528]	; (10be64 <_dtoa_r+0x58c>)
  10bc54:	f005 020f 	and.w	r2, r5, #15
  10bc58:	eb03 03c2 	add.w	r3, r3, r2, lsl #3
  10bc5c:	e9d3 2300 	ldrd	r2, r3, [r3]
  10bc60:	f7fc f992 	bl	107f88 <__aeabi_dmul>
  10bc64:	e9cd 0102 	strd	r0, r1, [sp, #8]
  10bc68:	4e7f      	ldr	r6, [pc, #508]	; (10be68 <_dtoa_r+0x590>)
  10bc6a:	112d      	asrs	r5, r5, #4
  10bc6c:	2300      	movs	r3, #0
  10bc6e:	2402      	movs	r4, #2
  10bc70:	b155      	cbz	r5, 10bc88 <_dtoa_r+0x3b0>
  10bc72:	07ea      	lsls	r2, r5, #31
  10bc74:	d505      	bpl.n	10bc82 <_dtoa_r+0x3aa>
  10bc76:	e9d6 2300 	ldrd	r2, r3, [r6]
  10bc7a:	f7fc f985 	bl	107f88 <__aeabi_dmul>
  10bc7e:	3401      	adds	r4, #1
  10bc80:	2301      	movs	r3, #1
  10bc82:	106d      	asrs	r5, r5, #1
  10bc84:	3608      	adds	r6, #8
  10bc86:	e7f3      	b.n	10bc70 <_dtoa_r+0x398>
  10bc88:	b11b      	cbz	r3, 10bc92 <_dtoa_r+0x3ba>
  10bc8a:	e9cd 0102 	strd	r0, r1, [sp, #8]
  10bc8e:	e000      	b.n	10bc92 <_dtoa_r+0x3ba>
  10bc90:	2402      	movs	r4, #2
  10bc92:	9b10      	ldr	r3, [sp, #64]	; 0x40
  10bc94:	b1e3      	cbz	r3, 10bcd0 <_dtoa_r+0x3f8>
  10bc96:	e9dd 5602 	ldrd	r5, r6, [sp, #8]
  10bc9a:	2200      	movs	r2, #0
  10bc9c:	4b73      	ldr	r3, [pc, #460]	; (10be6c <_dtoa_r+0x594>)
  10bc9e:	4628      	mov	r0, r5
  10bca0:	4631      	mov	r1, r6
  10bca2:	f7fb fe1d 	bl	1078e0 <__aeabi_dcmplt>
  10bca6:	b198      	cbz	r0, 10bcd0 <_dtoa_r+0x3f8>
  10bca8:	9b05      	ldr	r3, [sp, #20]
  10bcaa:	b18b      	cbz	r3, 10bcd0 <_dtoa_r+0x3f8>
  10bcac:	f1b9 0f00 	cmp.w	r9, #0
  10bcb0:	f340 80e6 	ble.w	10be80 <_dtoa_r+0x5a8>
  10bcb4:	f10b 33ff 	add.w	r3, r11, #4294967295
  10bcb8:	9308      	str	r3, [sp, #32]
  10bcba:	4631      	mov	r1, r6
  10bcbc:	2200      	movs	r2, #0
  10bcbe:	4b6c      	ldr	r3, [pc, #432]	; (10be70 <_dtoa_r+0x598>)
  10bcc0:	4628      	mov	r0, r5
  10bcc2:	f7fc f961 	bl	107f88 <__aeabi_dmul>
  10bcc6:	3401      	adds	r4, #1
  10bcc8:	e9cd 0102 	strd	r0, r1, [sp, #8]
  10bccc:	464e      	mov	r6, r9
  10bcce:	e002      	b.n	10bcd6 <_dtoa_r+0x3fe>
  10bcd0:	9e05      	ldr	r6, [sp, #20]
  10bcd2:	f8cd b020 	str.w	r11, [sp, #32]
  10bcd6:	4620      	mov	r0, r4
  10bcd8:	f7fb fd3c 	bl	107754 <__aeabi_i2d>
  10bcdc:	e9dd 2302 	ldrd	r2, r3, [sp, #8]
  10bce0:	f7fc f952 	bl	107f88 <__aeabi_dmul>
  10bce4:	4b63      	ldr	r3, [pc, #396]	; (10be74 <_dtoa_r+0x59c>)
  10bce6:	2200      	movs	r2, #0
  10bce8:	f7fb fbe8 	bl	1074bc <__adddf3>
  10bcec:	f1a1 7350 	sub.w	r3, r1, #54525952	; 0x3400000
  10bcf0:	4604      	mov	r4, r0
  10bcf2:	930c      	str	r3, [sp, #48]	; 0x30
  10bcf4:	461d      	mov	r5, r3
  10bcf6:	b9d6      	cbnz	r6, 10bd2e <_dtoa_r+0x456>
  10bcf8:	e9dd 0102 	ldrd	r0, r1, [sp, #8]
  10bcfc:	2200      	movs	r2, #0
  10bcfe:	4b5e      	ldr	r3, [pc, #376]	; (10be78 <_dtoa_r+0x5a0>)
  10bd00:	f7fb fbda 	bl	1074b8 <__aeabi_dsub>
  10bd04:	4622      	mov	r2, r4
  10bd06:	9b0c      	ldr	r3, [sp, #48]	; 0x30
  10bd08:	e9cd 0102 	strd	r0, r1, [sp, #8]
  10bd0c:	f7fb fe06 	bl	10791c <__aeabi_dcmpgt>
  10bd10:	2800      	cmp	r0, #0
  10bd12:	f040 823f 	bne.w	10c194 <_dtoa_r+0x8bc>
  10bd16:	990c      	ldr	r1, [sp, #48]	; 0x30
  10bd18:	4622      	mov	r2, r4
  10bd1a:	f101 4300 	add.w	r3, r1, #2147483648	; 0x80000000
  10bd1e:	e9dd 0102 	ldrd	r0, r1, [sp, #8]
  10bd22:	f7fb fddd 	bl	1078e0 <__aeabi_dcmplt>
  10bd26:	2800      	cmp	r0, #0
  10bd28:	f040 822b 	bne.w	10c182 <_dtoa_r+0x8aa>
  10bd2c:	e0a8      	b.n	10be80 <_dtoa_r+0x5a8>
  10bd2e:	9a0a      	ldr	r2, [sp, #40]	; 0x28
  10bd30:	4b4c      	ldr	r3, [pc, #304]	; (10be64 <_dtoa_r+0x58c>)
  10bd32:	1e71      	subs	r1, r6, #1
  10bd34:	2a00      	cmp	r2, #0
  10bd36:	d049      	beq.n	10bdcc <_dtoa_r+0x4f4>
  10bd38:	eb03 03c1 	add.w	r3, r3, r1, lsl #3
  10bd3c:	e9d3 2300 	ldrd	r2, r3, [r3]
  10bd40:	2000      	movs	r0, #0
  10bd42:	494e      	ldr	r1, [pc, #312]	; (10be7c <_dtoa_r+0x5a4>)
  10bd44:	f7fc fa4a 	bl	1081dc <__aeabi_ddiv>
  10bd48:	4622      	mov	r2, r4
  10bd4a:	462b      	mov	r3, r5
  10bd4c:	f7fb fbb4 	bl	1074b8 <__aeabi_dsub>
  10bd50:	e9cd 010c 	strd	r0, r1, [sp, #48]	; 0x30
  10bd54:	9c06      	ldr	r4, [sp, #24]
  10bd56:	e9dd 0102 	ldrd	r0, r1, [sp, #8]
  10bd5a:	f001 fdd1 	bl	10d900 <__aeabi_d2iz>
  10bd5e:	4605      	mov	r5, r0
  10bd60:	f7fb fcf8 	bl	107754 <__aeabi_i2d>
  10bd64:	4602      	mov	r2, r0
  10bd66:	460b      	mov	r3, r1
  10bd68:	e9dd 0102 	ldrd	r0, r1, [sp, #8]
  10bd6c:	f7fb fba4 	bl	1074b8 <__aeabi_dsub>
  10bd70:	e9dd 230c 	ldrd	r2, r3, [sp, #48]	; 0x30
  10bd74:	3530      	adds	r5, #48	; 0x30
  10bd76:	f804 5b01 	strb.w	r5, [r4], #1
  10bd7a:	e9cd 0102 	strd	r0, r1, [sp, #8]
  10bd7e:	f7fb fdaf 	bl	1078e0 <__aeabi_dcmplt>
  10bd82:	2800      	cmp	r0, #0
  10bd84:	f040 831d 	bne.w	10c3c2 <_dtoa_r+0xaea>
  10bd88:	e9dd 2302 	ldrd	r2, r3, [sp, #8]
  10bd8c:	2000      	movs	r0, #0
  10bd8e:	4937      	ldr	r1, [pc, #220]	; (10be6c <_dtoa_r+0x594>)
  10bd90:	f7fb fb92 	bl	1074b8 <__aeabi_dsub>
  10bd94:	e9dd 230c 	ldrd	r2, r3, [sp, #48]	; 0x30
  10bd98:	f7fb fda2 	bl	1078e0 <__aeabi_dcmplt>
  10bd9c:	2800      	cmp	r0, #0
  10bd9e:	f040 80d1 	bne.w	10bf44 <_dtoa_r+0x66c>
  10bda2:	9b06      	ldr	r3, [sp, #24]
  10bda4:	1ae3      	subs	r3, r4, r3
  10bda6:	42b3      	cmp	r3, r6
  10bda8:	da6a      	bge.n	10be80 <_dtoa_r+0x5a8>
  10bdaa:	e9dd 010c 	ldrd	r0, r1, [sp, #48]	; 0x30
  10bdae:	2200      	movs	r2, #0
  10bdb0:	4b2f      	ldr	r3, [pc, #188]	; (10be70 <_dtoa_r+0x598>)
  10bdb2:	f7fc f8e9 	bl	107f88 <__aeabi_dmul>
  10bdb6:	2200      	movs	r2, #0
  10bdb8:	e9cd 010c 	strd	r0, r1, [sp, #48]	; 0x30
  10bdbc:	e9dd 0102 	ldrd	r0, r1, [sp, #8]
  10bdc0:	4b2b      	ldr	r3, [pc, #172]	; (10be70 <_dtoa_r+0x598>)
  10bdc2:	f7fc f8e1 	bl	107f88 <__aeabi_dmul>
  10bdc6:	e9cd 0102 	strd	r0, r1, [sp, #8]
  10bdca:	e7c4      	b.n	10bd56 <_dtoa_r+0x47e>
  10bdcc:	eb03 01c1 	add.w	r1, r3, r1, lsl #3
  10bdd0:	4622      	mov	r2, r4
  10bdd2:	e9d1 0100 	ldrd	r0, r1, [r1]
  10bdd6:	462b      	mov	r3, r5
  10bdd8:	f7fc f8d6 	bl	107f88 <__aeabi_dmul>
  10bddc:	9b06      	ldr	r3, [sp, #24]
  10bdde:	e9cd 010c 	strd	r0, r1, [sp, #48]	; 0x30
  10bde2:	461d      	mov	r5, r3
  10bde4:	199c      	adds	r4, r3, r6
  10bde6:	e9dd 0102 	ldrd	r0, r1, [sp, #8]
  10bdea:	f001 fd89 	bl	10d900 <__aeabi_d2iz>
  10bdee:	4606      	mov	r6, r0
  10bdf0:	f7fb fcb0 	bl	107754 <__aeabi_i2d>
  10bdf4:	4602      	mov	r2, r0
  10bdf6:	460b      	mov	r3, r1
  10bdf8:	e9dd 0102 	ldrd	r0, r1, [sp, #8]
  10bdfc:	f7fb fb5c 	bl	1074b8 <__aeabi_dsub>
  10be00:	3630      	adds	r6, #48	; 0x30
  10be02:	f805 6b01 	strb.w	r6, [r5], #1
  10be06:	42ac      	cmp	r4, r5
  10be08:	e9cd 0102 	strd	r0, r1, [sp, #8]
  10be0c:	f04f 0200 	mov.w	r2, #0
  10be10:	d122      	bne.n	10be58 <_dtoa_r+0x580>
  10be12:	4b1a      	ldr	r3, [pc, #104]	; (10be7c <_dtoa_r+0x5a4>)
  10be14:	e9dd 010c 	ldrd	r0, r1, [sp, #48]	; 0x30
  10be18:	f7fb fb50 	bl	1074bc <__adddf3>
  10be1c:	4602      	mov	r2, r0
  10be1e:	460b      	mov	r3, r1
  10be20:	e9dd 0102 	ldrd	r0, r1, [sp, #8]
  10be24:	f7fb fd7a 	bl	10791c <__aeabi_dcmpgt>
  10be28:	2800      	cmp	r0, #0
  10be2a:	f040 808b 	bne.w	10bf44 <_dtoa_r+0x66c>
  10be2e:	e9dd 230c 	ldrd	r2, r3, [sp, #48]	; 0x30
  10be32:	2000      	movs	r0, #0
  10be34:	4911      	ldr	r1, [pc, #68]	; (10be7c <_dtoa_r+0x5a4>)
  10be36:	f7fb fb3f 	bl	1074b8 <__aeabi_dsub>
  10be3a:	4602      	mov	r2, r0
  10be3c:	460b      	mov	r3, r1
  10be3e:	e9dd 0102 	ldrd	r0, r1, [sp, #8]
  10be42:	f7fb fd4d 	bl	1078e0 <__aeabi_dcmplt>
  10be46:	b1d8      	cbz	r0, 10be80 <_dtoa_r+0x5a8>
  10be48:	f814 3c01 	ldrb.w	r3, [r4, #-1]
  10be4c:	1e62      	subs	r2, r4, #1
  10be4e:	2b30      	cmp	r3, #48	; 0x30
  10be50:	f040 82b7 	bne.w	10c3c2 <_dtoa_r+0xaea>
  10be54:	4614      	mov	r4, r2
  10be56:	e7f7      	b.n	10be48 <_dtoa_r+0x570>
  10be58:	4b05      	ldr	r3, [pc, #20]	; (10be70 <_dtoa_r+0x598>)
  10be5a:	f7fc f895 	bl	107f88 <__aeabi_dmul>
  10be5e:	e9cd 0102 	strd	r0, r1, [sp, #8]
  10be62:	e7c0      	b.n	10bde6 <_dtoa_r+0x50e>
  10be64:	0010e9c0 	.word	0x0010e9c0
  10be68:	0010ea98 	.word	0x0010ea98
  10be6c:	3ff00000 	.word	0x3ff00000
  10be70:	40240000 	.word	0x40240000
  10be74:	401c0000 	.word	0x401c0000
  10be78:	40140000 	.word	0x40140000
  10be7c:	3fe00000 	.word	0x3fe00000
  10be80:	e9dd 340e 	ldrd	r3, r4, [sp, #56]	; 0x38
  10be84:	e9cd 3402 	strd	r3, r4, [sp, #8]
  10be88:	9b13      	ldr	r3, [sp, #76]	; 0x4c
  10be8a:	2b00      	cmp	r3, #0
  10be8c:	db7c      	blt.n	10bf88 <_dtoa_r+0x6b0>
  10be8e:	f1bb 0f0e 	cmp.w	r11, #14
  10be92:	dc79      	bgt.n	10bf88 <_dtoa_r+0x6b0>
  10be94:	4bab      	ldr	r3, [pc, #684]	; (10c144 <_dtoa_r+0x86c>)
  10be96:	eb03 03cb 	add.w	r3, r3, r11, lsl #3
  10be9a:	e9d3 6700 	ldrd	r6, r7, [r3]
  10be9e:	9b1f      	ldr	r3, [sp, #124]	; 0x7c
  10bea0:	2b00      	cmp	r3, #0
  10bea2:	da14      	bge.n	10bece <_dtoa_r+0x5f6>
  10bea4:	9b05      	ldr	r3, [sp, #20]
  10bea6:	2b00      	cmp	r3, #0
  10bea8:	dc11      	bgt.n	10bece <_dtoa_r+0x5f6>
  10beaa:	f040 816c 	bne.w	10c186 <_dtoa_r+0x8ae>
  10beae:	2200      	movs	r2, #0
  10beb0:	4ba5      	ldr	r3, [pc, #660]	; (10c148 <_dtoa_r+0x870>)
  10beb2:	4630      	mov	r0, r6
  10beb4:	4639      	mov	r1, r7
  10beb6:	f7fc f867 	bl	107f88 <__aeabi_dmul>
  10beba:	e9dd 2302 	ldrd	r2, r3, [sp, #8]
  10bebe:	f7fb fd23 	bl	107908 <__aeabi_dcmpge>
  10bec2:	9d05      	ldr	r5, [sp, #20]
  10bec4:	462e      	mov	r6, r5
  10bec6:	2800      	cmp	r0, #0
  10bec8:	f040 815f 	bne.w	10c18a <_dtoa_r+0x8b2>
  10becc:	e165      	b.n	10c19a <_dtoa_r+0x8c2>
  10bece:	9c06      	ldr	r4, [sp, #24]
  10bed0:	e9dd 8902 	ldrd	r8, r9, [sp, #8]
  10bed4:	4632      	mov	r2, r6
  10bed6:	463b      	mov	r3, r7
  10bed8:	4640      	mov	r0, r8
  10beda:	4649      	mov	r1, r9
  10bedc:	f7fc f97e 	bl	1081dc <__aeabi_ddiv>
  10bee0:	f001 fd0e 	bl	10d900 <__aeabi_d2iz>
  10bee4:	4605      	mov	r5, r0
  10bee6:	f7fb fc35 	bl	107754 <__aeabi_i2d>
  10beea:	4632      	mov	r2, r6
  10beec:	463b      	mov	r3, r7
  10beee:	f7fc f84b 	bl	107f88 <__aeabi_dmul>
  10bef2:	460b      	mov	r3, r1
  10bef4:	4602      	mov	r2, r0
  10bef6:	4649      	mov	r1, r9
  10bef8:	4640      	mov	r0, r8
  10befa:	f7fb fadd 	bl	1074b8 <__aeabi_dsub>
  10befe:	f105 0e30 	add.w	lr, r5, #48	; 0x30
  10bf02:	9b06      	ldr	r3, [sp, #24]
  10bf04:	f804 eb01 	strb.w	lr, [r4], #1
  10bf08:	ebc3 0e04 	rsb	lr, r3, r4
  10bf0c:	9b05      	ldr	r3, [sp, #20]
  10bf0e:	4573      	cmp	r3, lr
  10bf10:	d12d      	bne.n	10bf6e <_dtoa_r+0x696>
  10bf12:	4602      	mov	r2, r0
  10bf14:	460b      	mov	r3, r1
  10bf16:	f7fb fad1 	bl	1074bc <__adddf3>
  10bf1a:	4680      	mov	r8, r0
  10bf1c:	4689      	mov	r9, r1
  10bf1e:	4602      	mov	r2, r0
  10bf20:	460b      	mov	r3, r1
  10bf22:	4630      	mov	r0, r6
  10bf24:	4639      	mov	r1, r7
  10bf26:	f7fb fcdb 	bl	1078e0 <__aeabi_dcmplt>
  10bf2a:	b978      	cbnz	r0, 10bf4c <_dtoa_r+0x674>
  10bf2c:	4642      	mov	r2, r8
  10bf2e:	464b      	mov	r3, r9
  10bf30:	4630      	mov	r0, r6
  10bf32:	4639      	mov	r1, r7
  10bf34:	f7fb fcca 	bl	1078cc <__aeabi_dcmpeq>
  10bf38:	2800      	cmp	r0, #0
  10bf3a:	f000 8244 	beq.w	10c3c6 <_dtoa_r+0xaee>
  10bf3e:	07eb      	lsls	r3, r5, #31
  10bf40:	d404      	bmi.n	10bf4c <_dtoa_r+0x674>
  10bf42:	e240      	b.n	10c3c6 <_dtoa_r+0xaee>
  10bf44:	f8dd b020 	ldr.w	r11, [sp, #32]
  10bf48:	e000      	b.n	10bf4c <_dtoa_r+0x674>
  10bf4a:	461c      	mov	r4, r3
  10bf4c:	f814 2c01 	ldrb.w	r2, [r4, #-1]
  10bf50:	1e63      	subs	r3, r4, #1
  10bf52:	2a39      	cmp	r2, #57	; 0x39
  10bf54:	d107      	bne.n	10bf66 <_dtoa_r+0x68e>
  10bf56:	9a06      	ldr	r2, [sp, #24]
  10bf58:	429a      	cmp	r2, r3
  10bf5a:	d1f6      	bne.n	10bf4a <_dtoa_r+0x672>
  10bf5c:	9906      	ldr	r1, [sp, #24]
  10bf5e:	2230      	movs	r2, #48	; 0x30
  10bf60:	f10b 0b01 	add.w	r11, r11, #1
  10bf64:	700a      	strb	r2, [r1, #0]
  10bf66:	781a      	ldrb	r2, [r3, #0]
  10bf68:	3201      	adds	r2, #1
  10bf6a:	701a      	strb	r2, [r3, #0]
  10bf6c:	e22b      	b.n	10c3c6 <_dtoa_r+0xaee>
  10bf6e:	2200      	movs	r2, #0
  10bf70:	4b76      	ldr	r3, [pc, #472]	; (10c14c <_dtoa_r+0x874>)
  10bf72:	f7fc f809 	bl	107f88 <__aeabi_dmul>
  10bf76:	2200      	movs	r2, #0
  10bf78:	2300      	movs	r3, #0
  10bf7a:	4680      	mov	r8, r0
  10bf7c:	4689      	mov	r9, r1
  10bf7e:	f7fb fca5 	bl	1078cc <__aeabi_dcmpeq>
  10bf82:	2800      	cmp	r0, #0
  10bf84:	d0a6      	beq.n	10bed4 <_dtoa_r+0x5fc>
  10bf86:	e21e      	b.n	10c3c6 <_dtoa_r+0xaee>
  10bf88:	9a0a      	ldr	r2, [sp, #40]	; 0x28
  10bf8a:	2a00      	cmp	r2, #0
  10bf8c:	d02b      	beq.n	10bfe6 <_dtoa_r+0x70e>
  10bf8e:	9a1e      	ldr	r2, [sp, #120]	; 0x78
  10bf90:	2a01      	cmp	r2, #1
  10bf92:	dc0a      	bgt.n	10bfaa <_dtoa_r+0x6d2>
  10bf94:	9a11      	ldr	r2, [sp, #68]	; 0x44
  10bf96:	b112      	cbz	r2, 10bf9e <_dtoa_r+0x6c6>
  10bf98:	f203 4333 	addw	r3, r3, #1075	; 0x433
  10bf9c:	e002      	b.n	10bfa4 <_dtoa_r+0x6cc>
  10bf9e:	9b12      	ldr	r3, [sp, #72]	; 0x48
  10bfa0:	f1c3 0336 	rsb	r3, r3, #54	; 0x36
  10bfa4:	463d      	mov	r5, r7
  10bfa6:	4644      	mov	r4, r8
  10bfa8:	e013      	b.n	10bfd2 <_dtoa_r+0x6fa>
  10bfaa:	9b05      	ldr	r3, [sp, #20]
  10bfac:	1e5d      	subs	r5, r3, #1
  10bfae:	42af      	cmp	r7, r5
  10bfb0:	bfbf      	itttt	lt
  10bfb2:	9b0b      	ldrlt	r3, [sp, #44]	; 0x2c
  10bfb4:	1bea      	sublt	r2, r5, r7
  10bfb6:	189b      	addlt	r3, r3, r2
  10bfb8:	930b      	strlt	r3, [sp, #44]	; 0x2c
  10bfba:	9b05      	ldr	r3, [sp, #20]
  10bfbc:	bfb6      	itet	lt
  10bfbe:	462f      	movlt	r7, r5
  10bfc0:	1b7d      	subge	r5, r7, r5
  10bfc2:	2500      	movlt	r5, #0
  10bfc4:	2b00      	cmp	r3, #0
  10bfc6:	bfa7      	ittee	ge
  10bfc8:	4644      	movge	r4, r8
  10bfca:	9b05      	ldrge	r3, [sp, #20]
  10bfcc:	ebc3 0408 	rsblt	r4, r3, r8
  10bfd0:	2300      	movlt	r3, #0
  10bfd2:	9a07      	ldr	r2, [sp, #28]
  10bfd4:	2101      	movs	r1, #1
  10bfd6:	441a      	add	r2, r3
  10bfd8:	4650      	mov	r0, r10
  10bfda:	4498      	add	r8, r3
  10bfdc:	9207      	str	r2, [sp, #28]
  10bfde:	f000 feaf 	bl	10cd40 <__i2b>
  10bfe2:	4606      	mov	r6, r0
  10bfe4:	e002      	b.n	10bfec <_dtoa_r+0x714>
  10bfe6:	463d      	mov	r5, r7
  10bfe8:	4644      	mov	r4, r8
  10bfea:	9e0a      	ldr	r6, [sp, #40]	; 0x28
  10bfec:	b15c      	cbz	r4, 10c006 <_dtoa_r+0x72e>
  10bfee:	9b07      	ldr	r3, [sp, #28]
  10bff0:	2b00      	cmp	r3, #0
  10bff2:	dd08      	ble.n	10c006 <_dtoa_r+0x72e>
  10bff4:	42a3      	cmp	r3, r4
  10bff6:	bfa8      	it	ge
  10bff8:	4623      	movge	r3, r4
  10bffa:	9a07      	ldr	r2, [sp, #28]
  10bffc:	ebc3 0808 	rsb	r8, r3, r8
  10c000:	1ae4      	subs	r4, r4, r3
  10c002:	1ad3      	subs	r3, r2, r3
  10c004:	9307      	str	r3, [sp, #28]
  10c006:	2f00      	cmp	r7, #0
  10c008:	dd1d      	ble.n	10c046 <_dtoa_r+0x76e>
  10c00a:	9b0a      	ldr	r3, [sp, #40]	; 0x28
  10c00c:	b1ab      	cbz	r3, 10c03a <_dtoa_r+0x762>
  10c00e:	b18d      	cbz	r5, 10c034 <_dtoa_r+0x75c>
  10c010:	4631      	mov	r1, r6
  10c012:	462a      	mov	r2, r5
  10c014:	4650      	mov	r0, r10
  10c016:	f000 ff2d 	bl	10ce74 <__pow5mult>
  10c01a:	9a04      	ldr	r2, [sp, #16]
  10c01c:	4601      	mov	r1, r0
  10c01e:	4606      	mov	r6, r0
  10c020:	4650      	mov	r0, r10
  10c022:	f000 fe96 	bl	10cd52 <__multiply>
  10c026:	9904      	ldr	r1, [sp, #16]
  10c028:	9008      	str	r0, [sp, #32]
  10c02a:	4650      	mov	r0, r10
  10c02c:	f000 fdab 	bl	10cb86 <_Bfree>
  10c030:	9b08      	ldr	r3, [sp, #32]
  10c032:	9304      	str	r3, [sp, #16]
  10c034:	1b7a      	subs	r2, r7, r5
  10c036:	d006      	beq.n	10c046 <_dtoa_r+0x76e>
  10c038:	e000      	b.n	10c03c <_dtoa_r+0x764>
  10c03a:	463a      	mov	r2, r7
  10c03c:	9904      	ldr	r1, [sp, #16]
  10c03e:	4650      	mov	r0, r10
  10c040:	f000 ff18 	bl	10ce74 <__pow5mult>
  10c044:	9004      	str	r0, [sp, #16]
  10c046:	2101      	movs	r1, #1
  10c048:	4650      	mov	r0, r10
  10c04a:	f000 fe79 	bl	10cd40 <__i2b>
  10c04e:	9b0b      	ldr	r3, [sp, #44]	; 0x2c
  10c050:	4605      	mov	r5, r0
  10c052:	b35b      	cbz	r3, 10c0ac <_dtoa_r+0x7d4>
  10c054:	461a      	mov	r2, r3
  10c056:	4601      	mov	r1, r0
  10c058:	4650      	mov	r0, r10
  10c05a:	f000 ff0b 	bl	10ce74 <__pow5mult>
  10c05e:	9b1e      	ldr	r3, [sp, #120]	; 0x78
  10c060:	4605      	mov	r5, r0
  10c062:	2b01      	cmp	r3, #1
  10c064:	dc18      	bgt.n	10c098 <_dtoa_r+0x7c0>
  10c066:	9b02      	ldr	r3, [sp, #8]
  10c068:	b983      	cbnz	r3, 10c08c <_dtoa_r+0x7b4>
  10c06a:	9b03      	ldr	r3, [sp, #12]
  10c06c:	f3c3 0313 	ubfx	r3, r3, #0, #20
  10c070:	b973      	cbnz	r3, 10c090 <_dtoa_r+0x7b8>
  10c072:	9b03      	ldr	r3, [sp, #12]
  10c074:	f023 4700 	bic.w	r7, r3, #2147483648	; 0x80000000
  10c078:	0d3f      	lsrs	r7, r7, #20
  10c07a:	053f      	lsls	r7, r7, #20
  10c07c:	b14f      	cbz	r7, 10c092 <_dtoa_r+0x7ba>
  10c07e:	9b07      	ldr	r3, [sp, #28]
  10c080:	f108 0801 	add.w	r8, r8, #1
  10c084:	3301      	adds	r3, #1
  10c086:	9307      	str	r3, [sp, #28]
  10c088:	2701      	movs	r7, #1
  10c08a:	e002      	b.n	10c092 <_dtoa_r+0x7ba>
  10c08c:	2700      	movs	r7, #0
  10c08e:	e000      	b.n	10c092 <_dtoa_r+0x7ba>
  10c090:	9f02      	ldr	r7, [sp, #8]
  10c092:	9b0b      	ldr	r3, [sp, #44]	; 0x2c
  10c094:	b173      	cbz	r3, 10c0b4 <_dtoa_r+0x7dc>
  10c096:	e000      	b.n	10c09a <_dtoa_r+0x7c2>
  10c098:	2700      	movs	r7, #0
  10c09a:	692b      	ldr	r3, [r5, #16]
  10c09c:	eb05 0383 	add.w	r3, r5, r3, lsl #2
  10c0a0:	6918      	ldr	r0, [r3, #16]
  10c0a2:	f000 fe00 	bl	10cca6 <__hi0bits>
  10c0a6:	f1c0 0020 	rsb	r0, r0, #32
  10c0aa:	e004      	b.n	10c0b6 <_dtoa_r+0x7de>
  10c0ac:	9b1e      	ldr	r3, [sp, #120]	; 0x78
  10c0ae:	2b01      	cmp	r3, #1
  10c0b0:	ddd9      	ble.n	10c066 <_dtoa_r+0x78e>
  10c0b2:	9f0b      	ldr	r7, [sp, #44]	; 0x2c
  10c0b4:	2001      	movs	r0, #1
  10c0b6:	9b07      	ldr	r3, [sp, #28]
  10c0b8:	4418      	add	r0, r3
  10c0ba:	f010 001f 	ands.w	r0, r0, #31
  10c0be:	d008      	beq.n	10c0d2 <_dtoa_r+0x7fa>
  10c0c0:	f1c0 0320 	rsb	r3, r0, #32
  10c0c4:	2b04      	cmp	r3, #4
  10c0c6:	dd02      	ble.n	10c0ce <_dtoa_r+0x7f6>
  10c0c8:	f1c0 001c 	rsb	r0, r0, #28
  10c0cc:	e002      	b.n	10c0d4 <_dtoa_r+0x7fc>
  10c0ce:	d006      	beq.n	10c0de <_dtoa_r+0x806>
  10c0d0:	4618      	mov	r0, r3
  10c0d2:	301c      	adds	r0, #28
  10c0d4:	9b07      	ldr	r3, [sp, #28]
  10c0d6:	4480      	add	r8, r0
  10c0d8:	4403      	add	r3, r0
  10c0da:	4404      	add	r4, r0
  10c0dc:	9307      	str	r3, [sp, #28]
  10c0de:	f1b8 0f00 	cmp.w	r8, #0
  10c0e2:	dd05      	ble.n	10c0f0 <_dtoa_r+0x818>
  10c0e4:	4642      	mov	r2, r8
  10c0e6:	9904      	ldr	r1, [sp, #16]
  10c0e8:	4650      	mov	r0, r10
  10c0ea:	f000 ff11 	bl	10cf10 <__lshift>
  10c0ee:	9004      	str	r0, [sp, #16]
  10c0f0:	9b07      	ldr	r3, [sp, #28]
  10c0f2:	2b00      	cmp	r3, #0
  10c0f4:	dd05      	ble.n	10c102 <_dtoa_r+0x82a>
  10c0f6:	4629      	mov	r1, r5
  10c0f8:	461a      	mov	r2, r3
  10c0fa:	4650      	mov	r0, r10
  10c0fc:	f000 ff08 	bl	10cf10 <__lshift>
  10c100:	4605      	mov	r5, r0
  10c102:	9b10      	ldr	r3, [sp, #64]	; 0x40
  10c104:	b323      	cbz	r3, 10c150 <_dtoa_r+0x878>
  10c106:	4629      	mov	r1, r5
  10c108:	9804      	ldr	r0, [sp, #16]
  10c10a:	f000 ff52 	bl	10cfb2 <__mcmp>
  10c10e:	2800      	cmp	r0, #0
  10c110:	da1e      	bge.n	10c150 <_dtoa_r+0x878>
  10c112:	2300      	movs	r3, #0
  10c114:	220a      	movs	r2, #10
  10c116:	9904      	ldr	r1, [sp, #16]
  10c118:	4650      	mov	r0, r10
  10c11a:	f000 fd4b 	bl	10cbb4 <__multadd>
  10c11e:	9b0a      	ldr	r3, [sp, #40]	; 0x28
  10c120:	f10b 3bff 	add.w	r11, r11, #4294967295
  10c124:	9004      	str	r0, [sp, #16]
  10c126:	2b00      	cmp	r3, #0
  10c128:	f000 815f 	beq.w	10c3ea <_dtoa_r+0xb12>
  10c12c:	4631      	mov	r1, r6
  10c12e:	2300      	movs	r3, #0
  10c130:	220a      	movs	r2, #10
  10c132:	4650      	mov	r0, r10
  10c134:	f000 fd3e 	bl	10cbb4 <__multadd>
  10c138:	f1b9 0f00 	cmp.w	r9, #0
  10c13c:	4606      	mov	r6, r0
  10c13e:	dc3f      	bgt.n	10c1c0 <_dtoa_r+0x8e8>
  10c140:	e03b      	b.n	10c1ba <_dtoa_r+0x8e2>
  10c142:	bf00      	nop
  10c144:	0010e9c0 	.word	0x0010e9c0
  10c148:	40140000 	.word	0x40140000
  10c14c:	40240000 	.word	0x40240000
  10c150:	9b05      	ldr	r3, [sp, #20]
  10c152:	2b00      	cmp	r3, #0
  10c154:	dc2b      	bgt.n	10c1ae <_dtoa_r+0x8d6>
  10c156:	9b1e      	ldr	r3, [sp, #120]	; 0x78
  10c158:	2b02      	cmp	r3, #2
  10c15a:	dd28      	ble.n	10c1ae <_dtoa_r+0x8d6>
  10c15c:	f8dd 9014 	ldr.w	r9, [sp, #20]
  10c160:	f1b9 0f00 	cmp.w	r9, #0
  10c164:	d111      	bne.n	10c18a <_dtoa_r+0x8b2>
  10c166:	4629      	mov	r1, r5
  10c168:	464b      	mov	r3, r9
  10c16a:	2205      	movs	r2, #5
  10c16c:	4650      	mov	r0, r10
  10c16e:	f000 fd21 	bl	10cbb4 <__multadd>
  10c172:	4601      	mov	r1, r0
  10c174:	4605      	mov	r5, r0
  10c176:	9804      	ldr	r0, [sp, #16]
  10c178:	f000 ff1b 	bl	10cfb2 <__mcmp>
  10c17c:	2800      	cmp	r0, #0
  10c17e:	dc0c      	bgt.n	10c19a <_dtoa_r+0x8c2>
  10c180:	e003      	b.n	10c18a <_dtoa_r+0x8b2>
  10c182:	4635      	mov	r5, r6
  10c184:	e000      	b.n	10c188 <_dtoa_r+0x8b0>
  10c186:	2500      	movs	r5, #0
  10c188:	462e      	mov	r6, r5
  10c18a:	9b1f      	ldr	r3, [sp, #124]	; 0x7c
  10c18c:	9c06      	ldr	r4, [sp, #24]
  10c18e:	ea6f 0b03 	mvn.w	r11, r3
  10c192:	e009      	b.n	10c1a8 <_dtoa_r+0x8d0>
  10c194:	4635      	mov	r5, r6
  10c196:	f8dd b020 	ldr.w	r11, [sp, #32]
  10c19a:	9b06      	ldr	r3, [sp, #24]
  10c19c:	9a06      	ldr	r2, [sp, #24]
  10c19e:	1c5c      	adds	r4, r3, #1
  10c1a0:	2331      	movs	r3, #49	; 0x31
  10c1a2:	7013      	strb	r3, [r2, #0]
  10c1a4:	f10b 0b01 	add.w	r11, r11, #1
  10c1a8:	9605      	str	r6, [sp, #20]
  10c1aa:	2600      	movs	r6, #0
  10c1ac:	e0f7      	b.n	10c39e <_dtoa_r+0xac6>
  10c1ae:	9b0a      	ldr	r3, [sp, #40]	; 0x28
  10c1b0:	f8dd 9014 	ldr.w	r9, [sp, #20]
  10c1b4:	b923      	cbnz	r3, 10c1c0 <_dtoa_r+0x8e8>
  10c1b6:	9c06      	ldr	r4, [sp, #24]
  10c1b8:	e0b2      	b.n	10c320 <_dtoa_r+0xa48>
  10c1ba:	9b1e      	ldr	r3, [sp, #120]	; 0x78
  10c1bc:	2b02      	cmp	r3, #2
  10c1be:	dccf      	bgt.n	10c160 <_dtoa_r+0x888>
  10c1c0:	2c00      	cmp	r4, #0
  10c1c2:	dd05      	ble.n	10c1d0 <_dtoa_r+0x8f8>
  10c1c4:	4631      	mov	r1, r6
  10c1c6:	4622      	mov	r2, r4
  10c1c8:	4650      	mov	r0, r10
  10c1ca:	f000 fea1 	bl	10cf10 <__lshift>
  10c1ce:	4606      	mov	r6, r0
  10c1d0:	b19f      	cbz	r7, 10c1fa <_dtoa_r+0x922>
  10c1d2:	6871      	ldr	r1, [r6, #4]
  10c1d4:	4650      	mov	r0, r10
  10c1d6:	f000 fca1 	bl	10cb1c <_Balloc>
  10c1da:	4604      	mov	r4, r0
  10c1dc:	6932      	ldr	r2, [r6, #16]
  10c1de:	f106 010c 	add.w	r1, r6, #12
  10c1e2:	3202      	adds	r2, #2
  10c1e4:	0092      	lsls	r2, r2, #2
  10c1e6:	300c      	adds	r0, #12
  10c1e8:	f7fc fc74 	bl	108ad4 <memcpy>
  10c1ec:	2201      	movs	r2, #1
  10c1ee:	4621      	mov	r1, r4
  10c1f0:	4650      	mov	r0, r10
  10c1f2:	f000 fe8d 	bl	10cf10 <__lshift>
  10c1f6:	9005      	str	r0, [sp, #20]
  10c1f8:	e000      	b.n	10c1fc <_dtoa_r+0x924>
  10c1fa:	9605      	str	r6, [sp, #20]
  10c1fc:	9b02      	ldr	r3, [sp, #8]
  10c1fe:	9f06      	ldr	r7, [sp, #24]
  10c200:	f003 0301 	and.w	r3, r3, #1
  10c204:	9307      	str	r3, [sp, #28]
  10c206:	4629      	mov	r1, r5
  10c208:	9804      	ldr	r0, [sp, #16]
  10c20a:	f7ff fad9 	bl	10b7c0 <quorem>
  10c20e:	4631      	mov	r1, r6
  10c210:	4604      	mov	r4, r0
  10c212:	f100 0830 	add.w	r8, r0, #48	; 0x30
  10c216:	9804      	ldr	r0, [sp, #16]
  10c218:	f000 fecb 	bl	10cfb2 <__mcmp>
  10c21c:	9a05      	ldr	r2, [sp, #20]
  10c21e:	9002      	str	r0, [sp, #8]
  10c220:	4629      	mov	r1, r5
  10c222:	4650      	mov	r0, r10
  10c224:	f000 fee1 	bl	10cfea <__mdiff>
  10c228:	68c3      	ldr	r3, [r0, #12]
  10c22a:	4602      	mov	r2, r0
  10c22c:	b93b      	cbnz	r3, 10c23e <_dtoa_r+0x966>
  10c22e:	4601      	mov	r1, r0
  10c230:	900a      	str	r0, [sp, #40]	; 0x28
  10c232:	9804      	ldr	r0, [sp, #16]
  10c234:	f000 febd 	bl	10cfb2 <__mcmp>
  10c238:	9a0a      	ldr	r2, [sp, #40]	; 0x28
  10c23a:	4603      	mov	r3, r0
  10c23c:	e000      	b.n	10c240 <_dtoa_r+0x968>
  10c23e:	2301      	movs	r3, #1
  10c240:	4611      	mov	r1, r2
  10c242:	4650      	mov	r0, r10
  10c244:	930a      	str	r3, [sp, #40]	; 0x28
  10c246:	f000 fc9e 	bl	10cb86 <_Bfree>
  10c24a:	9b0a      	ldr	r3, [sp, #40]	; 0x28
  10c24c:	b953      	cbnz	r3, 10c264 <_dtoa_r+0x98c>
  10c24e:	9a1e      	ldr	r2, [sp, #120]	; 0x78
  10c250:	b942      	cbnz	r2, 10c264 <_dtoa_r+0x98c>
  10c252:	9a07      	ldr	r2, [sp, #28]
  10c254:	b932      	cbnz	r2, 10c264 <_dtoa_r+0x98c>
  10c256:	f1b8 0f39 	cmp.w	r8, #57	; 0x39
  10c25a:	d02a      	beq.n	10c2b2 <_dtoa_r+0x9da>
  10c25c:	9b02      	ldr	r3, [sp, #8]
  10c25e:	2b00      	cmp	r3, #0
  10c260:	dc1c      	bgt.n	10c29c <_dtoa_r+0x9c4>
  10c262:	e01d      	b.n	10c2a0 <_dtoa_r+0x9c8>
  10c264:	9a02      	ldr	r2, [sp, #8]
  10c266:	2a00      	cmp	r2, #0
  10c268:	db04      	blt.n	10c274 <_dtoa_r+0x99c>
  10c26a:	d11b      	bne.n	10c2a4 <_dtoa_r+0x9cc>
  10c26c:	9a1e      	ldr	r2, [sp, #120]	; 0x78
  10c26e:	b9ca      	cbnz	r2, 10c2a4 <_dtoa_r+0x9cc>
  10c270:	9a07      	ldr	r2, [sp, #28]
  10c272:	b9ba      	cbnz	r2, 10c2a4 <_dtoa_r+0x9cc>
  10c274:	2b00      	cmp	r3, #0
  10c276:	dd13      	ble.n	10c2a0 <_dtoa_r+0x9c8>
  10c278:	2201      	movs	r2, #1
  10c27a:	9904      	ldr	r1, [sp, #16]
  10c27c:	4650      	mov	r0, r10
  10c27e:	f000 fe47 	bl	10cf10 <__lshift>
  10c282:	4629      	mov	r1, r5
  10c284:	9004      	str	r0, [sp, #16]
  10c286:	f000 fe94 	bl	10cfb2 <__mcmp>
  10c28a:	2800      	cmp	r0, #0
  10c28c:	dc03      	bgt.n	10c296 <_dtoa_r+0x9be>
  10c28e:	d107      	bne.n	10c2a0 <_dtoa_r+0x9c8>
  10c290:	f018 0f01 	tst.w	r8, #1
  10c294:	d004      	beq.n	10c2a0 <_dtoa_r+0x9c8>
  10c296:	f1b8 0f39 	cmp.w	r8, #57	; 0x39
  10c29a:	d00a      	beq.n	10c2b2 <_dtoa_r+0x9da>
  10c29c:	f104 0831 	add.w	r8, r4, #49	; 0x31
  10c2a0:	1c7c      	adds	r4, r7, #1
  10c2a2:	e00c      	b.n	10c2be <_dtoa_r+0x9e6>
  10c2a4:	2b00      	cmp	r3, #0
  10c2a6:	f107 0401 	add.w	r4, r7, #1
  10c2aa:	dd0b      	ble.n	10c2c4 <_dtoa_r+0x9ec>
  10c2ac:	f1b8 0f39 	cmp.w	r8, #57	; 0x39
  10c2b0:	d103      	bne.n	10c2ba <_dtoa_r+0x9e2>
  10c2b2:	2339      	movs	r3, #57	; 0x39
  10c2b4:	703b      	strb	r3, [r7, #0]
  10c2b6:	3701      	adds	r7, #1
  10c2b8:	e056      	b.n	10c368 <_dtoa_r+0xa90>
  10c2ba:	f108 0801 	add.w	r8, r8, #1
  10c2be:	f887 8000 	strb.w	r8, [r7]
  10c2c2:	e06c      	b.n	10c39e <_dtoa_r+0xac6>
  10c2c4:	9b06      	ldr	r3, [sp, #24]
  10c2c6:	4627      	mov	r7, r4
  10c2c8:	1ae3      	subs	r3, r4, r3
  10c2ca:	454b      	cmp	r3, r9
  10c2cc:	f804 8c01 	strb.w	r8, [r4, #-1]
  10c2d0:	d03b      	beq.n	10c34a <_dtoa_r+0xa72>
  10c2d2:	2300      	movs	r3, #0
  10c2d4:	220a      	movs	r2, #10
  10c2d6:	9904      	ldr	r1, [sp, #16]
  10c2d8:	4650      	mov	r0, r10
  10c2da:	f000 fc6b 	bl	10cbb4 <__multadd>
  10c2de:	9b05      	ldr	r3, [sp, #20]
  10c2e0:	9004      	str	r0, [sp, #16]
  10c2e2:	429e      	cmp	r6, r3
  10c2e4:	f04f 020a 	mov.w	r2, #10
  10c2e8:	f04f 0300 	mov.w	r3, #0
  10c2ec:	4631      	mov	r1, r6
  10c2ee:	4650      	mov	r0, r10
  10c2f0:	d104      	bne.n	10c2fc <_dtoa_r+0xa24>
  10c2f2:	f000 fc5f 	bl	10cbb4 <__multadd>
  10c2f6:	4606      	mov	r6, r0
  10c2f8:	9005      	str	r0, [sp, #20]
  10c2fa:	e784      	b.n	10c206 <_dtoa_r+0x92e>
  10c2fc:	f000 fc5a 	bl	10cbb4 <__multadd>
  10c300:	2300      	movs	r3, #0
  10c302:	4606      	mov	r6, r0
  10c304:	220a      	movs	r2, #10
  10c306:	9905      	ldr	r1, [sp, #20]
  10c308:	4650      	mov	r0, r10
  10c30a:	f000 fc53 	bl	10cbb4 <__multadd>
  10c30e:	9005      	str	r0, [sp, #20]
  10c310:	e779      	b.n	10c206 <_dtoa_r+0x92e>
  10c312:	2300      	movs	r3, #0
  10c314:	220a      	movs	r2, #10
  10c316:	9904      	ldr	r1, [sp, #16]
  10c318:	4650      	mov	r0, r10
  10c31a:	f000 fc4b 	bl	10cbb4 <__multadd>
  10c31e:	9004      	str	r0, [sp, #16]
  10c320:	4629      	mov	r1, r5
  10c322:	9804      	ldr	r0, [sp, #16]
  10c324:	f7ff fa4c 	bl	10b7c0 <quorem>
  10c328:	9b06      	ldr	r3, [sp, #24]
  10c32a:	f100 0830 	add.w	r8, r0, #48	; 0x30
  10c32e:	f804 8b01 	strb.w	r8, [r4], #1
  10c332:	1ae3      	subs	r3, r4, r3
  10c334:	454b      	cmp	r3, r9
  10c336:	dbec      	blt.n	10c312 <_dtoa_r+0xa3a>
  10c338:	9b06      	ldr	r3, [sp, #24]
  10c33a:	9605      	str	r6, [sp, #20]
  10c33c:	f1b9 0f01 	cmp.w	r9, #1
  10c340:	bfac      	ite	ge
  10c342:	444b      	addge	r3, r9
  10c344:	3301      	addlt	r3, #1
  10c346:	461f      	mov	r7, r3
  10c348:	2600      	movs	r6, #0
  10c34a:	2201      	movs	r2, #1
  10c34c:	9904      	ldr	r1, [sp, #16]
  10c34e:	4650      	mov	r0, r10
  10c350:	f000 fdde 	bl	10cf10 <__lshift>
  10c354:	4629      	mov	r1, r5
  10c356:	9004      	str	r0, [sp, #16]
  10c358:	f000 fe2b 	bl	10cfb2 <__mcmp>
  10c35c:	2800      	cmp	r0, #0
  10c35e:	dc03      	bgt.n	10c368 <_dtoa_r+0xa90>
  10c360:	d115      	bne.n	10c38e <_dtoa_r+0xab6>
  10c362:	f018 0f01 	tst.w	r8, #1
  10c366:	d012      	beq.n	10c38e <_dtoa_r+0xab6>
  10c368:	463c      	mov	r4, r7
  10c36a:	f814 3c01 	ldrb.w	r3, [r4, #-1]
  10c36e:	1e62      	subs	r2, r4, #1
  10c370:	2b39      	cmp	r3, #57	; 0x39
  10c372:	d109      	bne.n	10c388 <_dtoa_r+0xab0>
  10c374:	9b06      	ldr	r3, [sp, #24]
  10c376:	4293      	cmp	r3, r2
  10c378:	d104      	bne.n	10c384 <_dtoa_r+0xaac>
  10c37a:	f10b 0b01 	add.w	r11, r11, #1
  10c37e:	2331      	movs	r3, #49	; 0x31
  10c380:	9a06      	ldr	r2, [sp, #24]
  10c382:	e002      	b.n	10c38a <_dtoa_r+0xab2>
  10c384:	4614      	mov	r4, r2
  10c386:	e7f0      	b.n	10c36a <_dtoa_r+0xa92>
  10c388:	3301      	adds	r3, #1
  10c38a:	7013      	strb	r3, [r2, #0]
  10c38c:	e007      	b.n	10c39e <_dtoa_r+0xac6>
  10c38e:	463c      	mov	r4, r7
  10c390:	f814 3c01 	ldrb.w	r3, [r4, #-1]
  10c394:	1e62      	subs	r2, r4, #1
  10c396:	2b30      	cmp	r3, #48	; 0x30
  10c398:	d101      	bne.n	10c39e <_dtoa_r+0xac6>
  10c39a:	4614      	mov	r4, r2
  10c39c:	e7f8      	b.n	10c390 <_dtoa_r+0xab8>
  10c39e:	4629      	mov	r1, r5
  10c3a0:	4650      	mov	r0, r10
  10c3a2:	f000 fbf0 	bl	10cb86 <_Bfree>
  10c3a6:	9b05      	ldr	r3, [sp, #20]
  10c3a8:	b16b      	cbz	r3, 10c3c6 <_dtoa_r+0xaee>
  10c3aa:	b12e      	cbz	r6, 10c3b8 <_dtoa_r+0xae0>
  10c3ac:	429e      	cmp	r6, r3
  10c3ae:	d003      	beq.n	10c3b8 <_dtoa_r+0xae0>
  10c3b0:	4631      	mov	r1, r6
  10c3b2:	4650      	mov	r0, r10
  10c3b4:	f000 fbe7 	bl	10cb86 <_Bfree>
  10c3b8:	9905      	ldr	r1, [sp, #20]
  10c3ba:	4650      	mov	r0, r10
  10c3bc:	f000 fbe3 	bl	10cb86 <_Bfree>
  10c3c0:	e001      	b.n	10c3c6 <_dtoa_r+0xaee>
  10c3c2:	f8dd b020 	ldr.w	r11, [sp, #32]
  10c3c6:	9904      	ldr	r1, [sp, #16]
  10c3c8:	4650      	mov	r0, r10
  10c3ca:	f000 fbdc 	bl	10cb86 <_Bfree>
  10c3ce:	2300      	movs	r3, #0
  10c3d0:	9a20      	ldr	r2, [sp, #128]	; 0x80
  10c3d2:	7023      	strb	r3, [r4, #0]
  10c3d4:	f10b 0301 	add.w	r3, r11, #1
  10c3d8:	6013      	str	r3, [r2, #0]
  10c3da:	9b22      	ldr	r3, [sp, #136]	; 0x88
  10c3dc:	b11b      	cbz	r3, 10c3e6 <_dtoa_r+0xb0e>
  10c3de:	601c      	str	r4, [r3, #0]
  10c3e0:	e001      	b.n	10c3e6 <_dtoa_r+0xb0e>
  10c3e2:	4808      	ldr	r0, [pc, #32]	; (10c404 <_dtoa_r+0xb2c>)
  10c3e4:	e00a      	b.n	10c3fc <_dtoa_r+0xb24>
  10c3e6:	9806      	ldr	r0, [sp, #24]
  10c3e8:	e008      	b.n	10c3fc <_dtoa_r+0xb24>
  10c3ea:	f1b9 0f00 	cmp.w	r9, #0
  10c3ee:	f73f aee2 	bgt.w	10c1b6 <_dtoa_r+0x8de>
  10c3f2:	9b1e      	ldr	r3, [sp, #120]	; 0x78
  10c3f4:	2b02      	cmp	r3, #2
  10c3f6:	f77f aede 	ble.w	10c1b6 <_dtoa_r+0x8de>
  10c3fa:	e6b1      	b.n	10c160 <_dtoa_r+0x888>
  10c3fc:	b015      	add	sp, #84	; 0x54
  10c3fe:	e8bd 8ff0 	ldmia.w	sp!, {r4, r5, r6, r7, r8, r9, r10, r11, pc}
  10c402:	bf00      	nop
  10c404:	0010e956 	.word	0x0010e956

0010c408 <__sflags>:
  10c408:	780b      	ldrb	r3, [r1, #0]
  10c40a:	b530      	push	{r4, r5, lr}
  10c40c:	2b72      	cmp	r3, #114	; 0x72
  10c40e:	d00e      	beq.n	10c42e <__sflags+0x26>
  10c410:	2b77      	cmp	r3, #119	; 0x77
  10c412:	d007      	beq.n	10c424 <__sflags+0x1c>
  10c414:	2b61      	cmp	r3, #97	; 0x61
  10c416:	d10e      	bne.n	10c436 <__sflags+0x2e>
  10c418:	f44f 7402 	mov.w	r4, #520	; 0x208
  10c41c:	2301      	movs	r3, #1
  10c41e:	f44f 7084 	mov.w	r0, #264	; 0x108
  10c422:	e01a      	b.n	10c45a <__sflags+0x52>
  10c424:	f44f 64c0 	mov.w	r4, #1536	; 0x600
  10c428:	2301      	movs	r3, #1
  10c42a:	2008      	movs	r0, #8
  10c42c:	e015      	b.n	10c45a <__sflags+0x52>
  10c42e:	2400      	movs	r4, #0
  10c430:	4623      	mov	r3, r4
  10c432:	2004      	movs	r0, #4
  10c434:	e011      	b.n	10c45a <__sflags+0x52>
  10c436:	2316      	movs	r3, #22
  10c438:	6003      	str	r3, [r0, #0]
  10c43a:	2000      	movs	r0, #0
  10c43c:	bd30      	pop	{r4, r5, pc}
  10c43e:	2d62      	cmp	r5, #98	; 0x62
  10c440:	d010      	beq.n	10c464 <__sflags+0x5c>
  10c442:	2d78      	cmp	r5, #120	; 0x78
  10c444:	d011      	beq.n	10c46a <__sflags+0x62>
  10c446:	2d2b      	cmp	r5, #43	; 0x2b
  10c448:	d107      	bne.n	10c45a <__sflags+0x52>
  10c44a:	f020 001c 	bic.w	r0, r0, #28
  10c44e:	f023 0303 	bic.w	r3, r3, #3
  10c452:	f040 0010 	orr.w	r0, r0, #16
  10c456:	f043 0302 	orr.w	r3, r3, #2
  10c45a:	f811 5f01 	ldrb.w	r5, [r1, #1]!
  10c45e:	2d00      	cmp	r5, #0
  10c460:	d1ed      	bne.n	10c43e <__sflags+0x36>
  10c462:	e005      	b.n	10c470 <__sflags+0x68>
  10c464:	f443 3380 	orr.w	r3, r3, #65536	; 0x10000
  10c468:	e7f7      	b.n	10c45a <__sflags+0x52>
  10c46a:	f443 6300 	orr.w	r3, r3, #2048	; 0x800
  10c46e:	e7f4      	b.n	10c45a <__sflags+0x52>
  10c470:	4323      	orrs	r3, r4
  10c472:	6013      	str	r3, [r2, #0]
  10c474:	bd30      	pop	{r4, r5, pc}
	...

0010c478 <_fstat_r>:
  10c478:	b538      	push	{r3, r4, r5, lr}
  10c47a:	4c07      	ldr	r4, [pc, #28]	; (10c498 <_fstat_r+0x20>)
  10c47c:	2300      	movs	r3, #0
  10c47e:	4605      	mov	r5, r0
  10c480:	4608      	mov	r0, r1
  10c482:	4611      	mov	r1, r2
  10c484:	6023      	str	r3, [r4, #0]
  10c486:	f7fa fbeb 	bl	106c60 <_fstat>
  10c48a:	1c43      	adds	r3, r0, #1
  10c48c:	d102      	bne.n	10c494 <_fstat_r+0x1c>
  10c48e:	6823      	ldr	r3, [r4, #0]
  10c490:	b103      	cbz	r3, 10c494 <_fstat_r+0x1c>
  10c492:	602b      	str	r3, [r5, #0]
  10c494:	bd38      	pop	{r3, r4, r5, pc}
  10c496:	bf00      	nop
  10c498:	3fff60f0 	.word	0x3fff60f0

0010c49c <rshift>:
  10c49c:	b5f0      	push	{r4, r5, r6, r7, lr}
  10c49e:	6906      	ldr	r6, [r0, #16]
  10c4a0:	114b      	asrs	r3, r1, #5
  10c4a2:	42b3      	cmp	r3, r6
  10c4a4:	f100 0514 	add.w	r5, r0, #20
  10c4a8:	da27      	bge.n	10c4fa <rshift+0x5e>
  10c4aa:	f011 011f 	ands.w	r1, r1, #31
  10c4ae:	eb05 0686 	add.w	r6, r5, r6, lsl #2
  10c4b2:	eb05 0283 	add.w	r2, r5, r3, lsl #2
  10c4b6:	d101      	bne.n	10c4bc <rshift+0x20>
  10c4b8:	4629      	mov	r1, r5
  10c4ba:	e016      	b.n	10c4ea <rshift+0x4e>
  10c4bc:	1d14      	adds	r4, r2, #4
  10c4be:	f855 2023 	ldr.w	r2, [r5, r3, lsl #2]
  10c4c2:	462b      	mov	r3, r5
  10c4c4:	f1c1 0e20 	rsb	lr, r1, #32
  10c4c8:	40ca      	lsrs	r2, r1
  10c4ca:	42b4      	cmp	r4, r6
  10c4cc:	d209      	bcs.n	10c4e2 <rshift+0x46>
  10c4ce:	6827      	ldr	r7, [r4, #0]
  10c4d0:	fa07 f70e 	lsl.w	r7, r7, lr
  10c4d4:	433a      	orrs	r2, r7
  10c4d6:	f843 2b04 	str.w	r2, [r3], #4
  10c4da:	f854 2b04 	ldr.w	r2, [r4], #4
  10c4de:	40ca      	lsrs	r2, r1
  10c4e0:	e7f3      	b.n	10c4ca <rshift+0x2e>
  10c4e2:	601a      	str	r2, [r3, #0]
  10c4e4:	b152      	cbz	r2, 10c4fc <rshift+0x60>
  10c4e6:	3304      	adds	r3, #4
  10c4e8:	e008      	b.n	10c4fc <rshift+0x60>
  10c4ea:	42b2      	cmp	r2, r6
  10c4ec:	460b      	mov	r3, r1
  10c4ee:	d205      	bcs.n	10c4fc <rshift+0x60>
  10c4f0:	f852 3b04 	ldr.w	r3, [r2], #4
  10c4f4:	f841 3b04 	str.w	r3, [r1], #4
  10c4f8:	e7f7      	b.n	10c4ea <rshift+0x4e>
  10c4fa:	462b      	mov	r3, r5
  10c4fc:	1b5b      	subs	r3, r3, r5
  10c4fe:	109b      	asrs	r3, r3, #2
  10c500:	6103      	str	r3, [r0, #16]
  10c502:	b903      	cbnz	r3, 10c506 <rshift+0x6a>
  10c504:	6143      	str	r3, [r0, #20]
  10c506:	bdf0      	pop	{r4, r5, r6, r7, pc}

0010c508 <__hexdig_fun>:
  10c508:	f1a0 0330 	sub.w	r3, r0, #48	; 0x30
  10c50c:	2b09      	cmp	r3, #9
  10c50e:	d801      	bhi.n	10c514 <__hexdig_fun+0xc>
  10c510:	3820      	subs	r0, #32
  10c512:	e00a      	b.n	10c52a <__hexdig_fun+0x22>
  10c514:	f1a0 0361 	sub.w	r3, r0, #97	; 0x61
  10c518:	2b05      	cmp	r3, #5
  10c51a:	d801      	bhi.n	10c520 <__hexdig_fun+0x18>
  10c51c:	3847      	subs	r0, #71	; 0x47
  10c51e:	e004      	b.n	10c52a <__hexdig_fun+0x22>
  10c520:	f1a0 0341 	sub.w	r3, r0, #65	; 0x41
  10c524:	2b05      	cmp	r3, #5
  10c526:	d802      	bhi.n	10c52e <__hexdig_fun+0x26>
  10c528:	3827      	subs	r0, #39	; 0x27
  10c52a:	b2c0      	uxtb	r0, r0
  10c52c:	4770      	bx	lr
  10c52e:	2000      	movs	r0, #0
  10c530:	4770      	bx	lr

0010c532 <__gethex>:
  10c532:	e92d 4ff0 	stmdb	sp!, {r4, r5, r6, r7, r8, r9, r10, r11, lr}
  10c536:	b08b      	sub	sp, #44	; 0x2c
  10c538:	468a      	mov	r10, r1
  10c53a:	4690      	mov	r8, r2
  10c53c:	9306      	str	r3, [sp, #24]
  10c53e:	9002      	str	r0, [sp, #8]
  10c540:	f7fc fa5a 	bl	1089f8 <_localeconv_r>
  10c544:	6803      	ldr	r3, [r0, #0]
  10c546:	f04f 0b00 	mov.w	r11, #0
  10c54a:	4618      	mov	r0, r3
  10c54c:	9303      	str	r3, [sp, #12]
  10c54e:	f7fe f82a 	bl	10a5a6 <strlen>
  10c552:	9b03      	ldr	r3, [sp, #12]
  10c554:	9001      	str	r0, [sp, #4]
  10c556:	4403      	add	r3, r0
  10c558:	f813 3c01 	ldrb.w	r3, [r3, #-1]
  10c55c:	9307      	str	r3, [sp, #28]
  10c55e:	f8da 3000 	ldr.w	r3, [r10]
  10c562:	3302      	adds	r3, #2
  10c564:	461f      	mov	r7, r3
  10c566:	f813 0b01 	ldrb.w	r0, [r3], #1
  10c56a:	2830      	cmp	r0, #48	; 0x30
  10c56c:	d102      	bne.n	10c574 <__gethex+0x42>
  10c56e:	f10b 0b01 	add.w	r11, r11, #1
  10c572:	e7f7      	b.n	10c564 <__gethex+0x32>
  10c574:	f7ff ffc8 	bl	10c508 <__hexdig_fun>
  10c578:	4604      	mov	r4, r0
  10c57a:	b9e0      	cbnz	r0, 10c5b6 <__gethex+0x84>
  10c57c:	9a01      	ldr	r2, [sp, #4]
  10c57e:	9903      	ldr	r1, [sp, #12]
  10c580:	4638      	mov	r0, r7
  10c582:	f7fe f818 	bl	10a5b6 <strncmp>
  10c586:	2800      	cmp	r0, #0
  10c588:	d134      	bne.n	10c5f4 <__gethex+0xc2>
  10c58a:	9b01      	ldr	r3, [sp, #4]
  10c58c:	5cf8      	ldrb	r0, [r7, r3]
  10c58e:	18fe      	adds	r6, r7, r3
  10c590:	f7ff ffba 	bl	10c508 <__hexdig_fun>
  10c594:	b380      	cbz	r0, 10c5f8 <__gethex+0xc6>
  10c596:	4633      	mov	r3, r6
  10c598:	7818      	ldrb	r0, [r3, #0]
  10c59a:	461f      	mov	r7, r3
  10c59c:	2830      	cmp	r0, #48	; 0x30
  10c59e:	f103 0301 	add.w	r3, r3, #1
  10c5a2:	d0f9      	beq.n	10c598 <__gethex+0x66>
  10c5a4:	f7ff ffb0 	bl	10c508 <__hexdig_fun>
  10c5a8:	fab0 f580 	clz	r5, r0
  10c5ac:	4634      	mov	r4, r6
  10c5ae:	096d      	lsrs	r5, r5, #5
  10c5b0:	f04f 0b01 	mov.w	r11, #1
  10c5b4:	e001      	b.n	10c5ba <__gethex+0x88>
  10c5b6:	2500      	movs	r5, #0
  10c5b8:	462c      	mov	r4, r5
  10c5ba:	463a      	mov	r2, r7
  10c5bc:	4616      	mov	r6, r2
  10c5be:	7830      	ldrb	r0, [r6, #0]
  10c5c0:	3201      	adds	r2, #1
  10c5c2:	f7ff ffa1 	bl	10c508 <__hexdig_fun>
  10c5c6:	2800      	cmp	r0, #0
  10c5c8:	d1f8      	bne.n	10c5bc <__gethex+0x8a>
  10c5ca:	9a01      	ldr	r2, [sp, #4]
  10c5cc:	9903      	ldr	r1, [sp, #12]
  10c5ce:	4630      	mov	r0, r6
  10c5d0:	f7fd fff1 	bl	10a5b6 <strncmp>
  10c5d4:	b950      	cbnz	r0, 10c5ec <__gethex+0xba>
  10c5d6:	b954      	cbnz	r4, 10c5ee <__gethex+0xbc>
  10c5d8:	9b01      	ldr	r3, [sp, #4]
  10c5da:	18f4      	adds	r4, r6, r3
  10c5dc:	4622      	mov	r2, r4
  10c5de:	4616      	mov	r6, r2
  10c5e0:	7830      	ldrb	r0, [r6, #0]
  10c5e2:	3201      	adds	r2, #1
  10c5e4:	f7ff ff90 	bl	10c508 <__hexdig_fun>
  10c5e8:	2800      	cmp	r0, #0
  10c5ea:	d1f8      	bne.n	10c5de <__gethex+0xac>
  10c5ec:	b134      	cbz	r4, 10c5fc <__gethex+0xca>
  10c5ee:	1ba4      	subs	r4, r4, r6
  10c5f0:	00a4      	lsls	r4, r4, #2
  10c5f2:	e003      	b.n	10c5fc <__gethex+0xca>
  10c5f4:	463e      	mov	r6, r7
  10c5f6:	e000      	b.n	10c5fa <__gethex+0xc8>
  10c5f8:	4604      	mov	r4, r0
  10c5fa:	2501      	movs	r5, #1
  10c5fc:	7833      	ldrb	r3, [r6, #0]
  10c5fe:	2b50      	cmp	r3, #80	; 0x50
  10c600:	d001      	beq.n	10c606 <__gethex+0xd4>
  10c602:	2b70      	cmp	r3, #112	; 0x70
  10c604:	d12a      	bne.n	10c65c <__gethex+0x12a>
  10c606:	7873      	ldrb	r3, [r6, #1]
  10c608:	2b2b      	cmp	r3, #43	; 0x2b
  10c60a:	d008      	beq.n	10c61e <__gethex+0xec>
  10c60c:	2b2d      	cmp	r3, #45	; 0x2d
  10c60e:	d003      	beq.n	10c618 <__gethex+0xe6>
  10c610:	1c71      	adds	r1, r6, #1
  10c612:	f04f 0900 	mov.w	r9, #0
  10c616:	e005      	b.n	10c624 <__gethex+0xf2>
  10c618:	f04f 0901 	mov.w	r9, #1
  10c61c:	e001      	b.n	10c622 <__gethex+0xf0>
  10c61e:	f04f 0900 	mov.w	r9, #0
  10c622:	1cb1      	adds	r1, r6, #2
  10c624:	7808      	ldrb	r0, [r1, #0]
  10c626:	f7ff ff6f 	bl	10c508 <__hexdig_fun>
  10c62a:	1e43      	subs	r3, r0, #1
  10c62c:	b2db      	uxtb	r3, r3
  10c62e:	2b18      	cmp	r3, #24
  10c630:	d814      	bhi.n	10c65c <__gethex+0x12a>
  10c632:	f1a0 0210 	sub.w	r2, r0, #16
  10c636:	f811 0f01 	ldrb.w	r0, [r1, #1]!
  10c63a:	f7ff ff65 	bl	10c508 <__hexdig_fun>
  10c63e:	1e43      	subs	r3, r0, #1
  10c640:	b2db      	uxtb	r3, r3
  10c642:	2b18      	cmp	r3, #24
  10c644:	d804      	bhi.n	10c650 <__gethex+0x11e>
  10c646:	230a      	movs	r3, #10
  10c648:	fb03 0202 	mla	r2, r3, r2, r0
  10c64c:	3a10      	subs	r2, #16
  10c64e:	e7f2      	b.n	10c636 <__gethex+0x104>
  10c650:	f1b9 0f00 	cmp.w	r9, #0
  10c654:	d000      	beq.n	10c658 <__gethex+0x126>
  10c656:	4252      	negs	r2, r2
  10c658:	4414      	add	r4, r2
  10c65a:	e000      	b.n	10c65e <__gethex+0x12c>
  10c65c:	4631      	mov	r1, r6
  10c65e:	f8ca 1000 	str.w	r1, [r10]
  10c662:	b12d      	cbz	r5, 10c670 <__gethex+0x13e>
  10c664:	f1bb 0f00 	cmp.w	r11, #0
  10c668:	bf14      	ite	ne
  10c66a:	2000      	movne	r0, #0
  10c66c:	2006      	moveq	r0, #6
  10c66e:	e17c      	b.n	10c96a <__gethex+0x438>
  10c670:	4629      	mov	r1, r5
  10c672:	1bf3      	subs	r3, r6, r7
  10c674:	3b01      	subs	r3, #1
  10c676:	2b07      	cmp	r3, #7
  10c678:	dd02      	ble.n	10c680 <__gethex+0x14e>
  10c67a:	3101      	adds	r1, #1
  10c67c:	105b      	asrs	r3, r3, #1
  10c67e:	e7fa      	b.n	10c676 <__gethex+0x144>
  10c680:	9802      	ldr	r0, [sp, #8]
  10c682:	f000 fa4b 	bl	10cb1c <_Balloc>
  10c686:	f04f 0900 	mov.w	r9, #0
  10c68a:	4605      	mov	r5, r0
  10c68c:	46cb      	mov	r11, r9
  10c68e:	9b01      	ldr	r3, [sp, #4]
  10c690:	f100 0a14 	add.w	r10, r0, #20
  10c694:	f1c3 0301 	rsb	r3, r3, #1
  10c698:	f8cd a010 	str.w	r10, [sp, #16]
  10c69c:	9308      	str	r3, [sp, #32]
  10c69e:	42b7      	cmp	r7, r6
  10c6a0:	d22f      	bcs.n	10c702 <__gethex+0x1d0>
  10c6a2:	1e73      	subs	r3, r6, #1
  10c6a4:	9305      	str	r3, [sp, #20]
  10c6a6:	9a07      	ldr	r2, [sp, #28]
  10c6a8:	f816 3c01 	ldrb.w	r3, [r6, #-1]
  10c6ac:	4293      	cmp	r3, r2
  10c6ae:	d00b      	beq.n	10c6c8 <__gethex+0x196>
  10c6b0:	f1bb 0f20 	cmp.w	r11, #32
  10c6b4:	d116      	bne.n	10c6e4 <__gethex+0x1b2>
  10c6b6:	9b04      	ldr	r3, [sp, #16]
  10c6b8:	f8c3 9000 	str.w	r9, [r3]
  10c6bc:	3304      	adds	r3, #4
  10c6be:	f04f 0900 	mov.w	r9, #0
  10c6c2:	9304      	str	r3, [sp, #16]
  10c6c4:	46cb      	mov	r11, r9
  10c6c6:	e00d      	b.n	10c6e4 <__gethex+0x1b2>
  10c6c8:	9b05      	ldr	r3, [sp, #20]
  10c6ca:	9a08      	ldr	r2, [sp, #32]
  10c6cc:	4413      	add	r3, r2
  10c6ce:	429f      	cmp	r7, r3
  10c6d0:	d8ee      	bhi.n	10c6b0 <__gethex+0x17e>
  10c6d2:	4618      	mov	r0, r3
  10c6d4:	9a01      	ldr	r2, [sp, #4]
  10c6d6:	9903      	ldr	r1, [sp, #12]
  10c6d8:	9309      	str	r3, [sp, #36]	; 0x24
  10c6da:	f7fd ff6c 	bl	10a5b6 <strncmp>
  10c6de:	9b09      	ldr	r3, [sp, #36]	; 0x24
  10c6e0:	b168      	cbz	r0, 10c6fe <__gethex+0x1cc>
  10c6e2:	e7e5      	b.n	10c6b0 <__gethex+0x17e>
  10c6e4:	f816 0c01 	ldrb.w	r0, [r6, #-1]
  10c6e8:	f7ff ff0e 	bl	10c508 <__hexdig_fun>
  10c6ec:	f000 000f 	and.w	r0, r0, #15
  10c6f0:	fa00 f00b 	lsl.w	r0, r0, r11
  10c6f4:	9b05      	ldr	r3, [sp, #20]
  10c6f6:	ea49 0900 	orr.w	r9, r9, r0
  10c6fa:	f10b 0b04 	add.w	r11, r11, #4
  10c6fe:	461e      	mov	r6, r3
  10c700:	e7cd      	b.n	10c69e <__gethex+0x16c>
  10c702:	9804      	ldr	r0, [sp, #16]
  10c704:	f840 9b04 	str.w	r9, [r0], #4
  10c708:	ebca 0000 	rsb	r0, r10, r0
  10c70c:	1080      	asrs	r0, r0, #2
  10c70e:	6128      	str	r0, [r5, #16]
  10c710:	0147      	lsls	r7, r0, #5
  10c712:	4648      	mov	r0, r9
  10c714:	f000 fac7 	bl	10cca6 <__hi0bits>
  10c718:	f8d8 6000 	ldr.w	r6, [r8]
  10c71c:	1a38      	subs	r0, r7, r0
  10c71e:	42b0      	cmp	r0, r6
  10c720:	dd26      	ble.n	10c770 <__gethex+0x23e>
  10c722:	1b87      	subs	r7, r0, r6
  10c724:	4639      	mov	r1, r7
  10c726:	4628      	mov	r0, r5
  10c728:	f000 fdbf 	bl	10d2aa <__any_on>
  10c72c:	b1c8      	cbz	r0, 10c762 <__gethex+0x230>
  10c72e:	1e7b      	subs	r3, r7, #1
  10c730:	1159      	asrs	r1, r3, #5
  10c732:	f003 021f 	and.w	r2, r3, #31
  10c736:	f04f 0901 	mov.w	r9, #1
  10c73a:	f85a 1021 	ldr.w	r1, [r10, r1, lsl #2]
  10c73e:	fa09 f202 	lsl.w	r2, r9, r2
  10c742:	420a      	tst	r2, r1
  10c744:	d00e      	beq.n	10c764 <__gethex+0x232>
  10c746:	454b      	cmp	r3, r9
  10c748:	dc02      	bgt.n	10c750 <__gethex+0x21e>
  10c74a:	f04f 0902 	mov.w	r9, #2
  10c74e:	e009      	b.n	10c764 <__gethex+0x232>
  10c750:	1eb9      	subs	r1, r7, #2
  10c752:	4628      	mov	r0, r5
  10c754:	f000 fda9 	bl	10d2aa <__any_on>
  10c758:	2800      	cmp	r0, #0
  10c75a:	d0f6      	beq.n	10c74a <__gethex+0x218>
  10c75c:	f04f 0903 	mov.w	r9, #3
  10c760:	e000      	b.n	10c764 <__gethex+0x232>
  10c762:	4681      	mov	r9, r0
  10c764:	4639      	mov	r1, r7
  10c766:	4628      	mov	r0, r5
  10c768:	f7ff fe98 	bl	10c49c <rshift>
  10c76c:	443c      	add	r4, r7
  10c76e:	e00c      	b.n	10c78a <__gethex+0x258>
  10c770:	da09      	bge.n	10c786 <__gethex+0x254>
  10c772:	1a37      	subs	r7, r6, r0
  10c774:	4629      	mov	r1, r5
  10c776:	463a      	mov	r2, r7
  10c778:	9802      	ldr	r0, [sp, #8]
  10c77a:	f000 fbc9 	bl	10cf10 <__lshift>
  10c77e:	4605      	mov	r5, r0
  10c780:	1be4      	subs	r4, r4, r7
  10c782:	f100 0a14 	add.w	r10, r0, #20
  10c786:	f04f 0900 	mov.w	r9, #0
  10c78a:	f8d8 3008 	ldr.w	r3, [r8, #8]
  10c78e:	429c      	cmp	r4, r3
  10c790:	dd08      	ble.n	10c7a4 <__gethex+0x272>
  10c792:	9802      	ldr	r0, [sp, #8]
  10c794:	4629      	mov	r1, r5
  10c796:	f000 f9f6 	bl	10cb86 <_Bfree>
  10c79a:	9a14      	ldr	r2, [sp, #80]	; 0x50
  10c79c:	2300      	movs	r3, #0
  10c79e:	6013      	str	r3, [r2, #0]
  10c7a0:	20a3      	movs	r0, #163	; 0xa3
  10c7a2:	e0e2      	b.n	10c96a <__gethex+0x438>
  10c7a4:	f8d8 0004 	ldr.w	r0, [r8, #4]
  10c7a8:	4284      	cmp	r4, r0
  10c7aa:	da53      	bge.n	10c854 <__gethex+0x322>
  10c7ac:	1b04      	subs	r4, r0, r4
  10c7ae:	42a6      	cmp	r6, r4
  10c7b0:	dc2e      	bgt.n	10c810 <__gethex+0x2de>
  10c7b2:	f8d8 300c 	ldr.w	r3, [r8, #12]
  10c7b6:	2b02      	cmp	r3, #2
  10c7b8:	d01a      	beq.n	10c7f0 <__gethex+0x2be>
  10c7ba:	2b03      	cmp	r3, #3
  10c7bc:	d01c      	beq.n	10c7f8 <__gethex+0x2c6>
  10c7be:	2b01      	cmp	r3, #1
  10c7c0:	d11d      	bne.n	10c7fe <__gethex+0x2cc>
  10c7c2:	42a6      	cmp	r6, r4
  10c7c4:	d11b      	bne.n	10c7fe <__gethex+0x2cc>
  10c7c6:	2e01      	cmp	r6, #1
  10c7c8:	dc0b      	bgt.n	10c7e2 <__gethex+0x2b0>
  10c7ca:	f8d8 3004 	ldr.w	r3, [r8, #4]
  10c7ce:	9a06      	ldr	r2, [sp, #24]
  10c7d0:	2062      	movs	r0, #98	; 0x62
  10c7d2:	6013      	str	r3, [r2, #0]
  10c7d4:	2301      	movs	r3, #1
  10c7d6:	612b      	str	r3, [r5, #16]
  10c7d8:	f8ca 3000 	str.w	r3, [r10]
  10c7dc:	9b14      	ldr	r3, [sp, #80]	; 0x50
  10c7de:	601d      	str	r5, [r3, #0]
  10c7e0:	e0c3      	b.n	10c96a <__gethex+0x438>
  10c7e2:	1e71      	subs	r1, r6, #1
  10c7e4:	4628      	mov	r0, r5
  10c7e6:	f000 fd60 	bl	10d2aa <__any_on>
  10c7ea:	2800      	cmp	r0, #0
  10c7ec:	d1ed      	bne.n	10c7ca <__gethex+0x298>
  10c7ee:	e006      	b.n	10c7fe <__gethex+0x2cc>
  10c7f0:	9b15      	ldr	r3, [sp, #84]	; 0x54
  10c7f2:	2b00      	cmp	r3, #0
  10c7f4:	d0e9      	beq.n	10c7ca <__gethex+0x298>
  10c7f6:	e002      	b.n	10c7fe <__gethex+0x2cc>
  10c7f8:	9b15      	ldr	r3, [sp, #84]	; 0x54
  10c7fa:	2b00      	cmp	r3, #0
  10c7fc:	d1e5      	bne.n	10c7ca <__gethex+0x298>
  10c7fe:	9802      	ldr	r0, [sp, #8]
  10c800:	4629      	mov	r1, r5
  10c802:	f000 f9c0 	bl	10cb86 <_Bfree>
  10c806:	9a14      	ldr	r2, [sp, #80]	; 0x50
  10c808:	2300      	movs	r3, #0
  10c80a:	6013      	str	r3, [r2, #0]
  10c80c:	2050      	movs	r0, #80	; 0x50
  10c80e:	e0ac      	b.n	10c96a <__gethex+0x438>
  10c810:	1e67      	subs	r7, r4, #1
  10c812:	f1b9 0f00 	cmp.w	r9, #0
  10c816:	d106      	bne.n	10c826 <__gethex+0x2f4>
  10c818:	b13f      	cbz	r7, 10c82a <__gethex+0x2f8>
  10c81a:	4639      	mov	r1, r7
  10c81c:	4628      	mov	r0, r5
  10c81e:	f000 fd44 	bl	10d2aa <__any_on>
  10c822:	4681      	mov	r9, r0
  10c824:	e001      	b.n	10c82a <__gethex+0x2f8>
  10c826:	f04f 0901 	mov.w	r9, #1
  10c82a:	117a      	asrs	r2, r7, #5
  10c82c:	2301      	movs	r3, #1
  10c82e:	f007 071f 	and.w	r7, r7, #31
  10c832:	fa03 f707 	lsl.w	r7, r3, r7
  10c836:	f85a 3022 	ldr.w	r3, [r10, r2, lsl #2]
  10c83a:	4621      	mov	r1, r4
  10c83c:	421f      	tst	r7, r3
  10c83e:	4628      	mov	r0, r5
  10c840:	bf18      	it	ne
  10c842:	f049 0902 	orrne.w	r9, r9, #2
  10c846:	1b36      	subs	r6, r6, r4
  10c848:	f7ff fe28 	bl	10c49c <rshift>
  10c84c:	2702      	movs	r7, #2
  10c84e:	f8d8 4004 	ldr.w	r4, [r8, #4]
  10c852:	e000      	b.n	10c856 <__gethex+0x324>
  10c854:	2701      	movs	r7, #1
  10c856:	f1b9 0f00 	cmp.w	r9, #0
  10c85a:	f000 8081 	beq.w	10c960 <__gethex+0x42e>
  10c85e:	f8d8 300c 	ldr.w	r3, [r8, #12]
  10c862:	2b02      	cmp	r3, #2
  10c864:	d00e      	beq.n	10c884 <__gethex+0x352>
  10c866:	2b03      	cmp	r3, #3
  10c868:	d010      	beq.n	10c88c <__gethex+0x35a>
  10c86a:	2b01      	cmp	r3, #1
  10c86c:	d176      	bne.n	10c95c <__gethex+0x42a>
  10c86e:	f019 0f02 	tst.w	r9, #2
  10c872:	d073      	beq.n	10c95c <__gethex+0x42a>
  10c874:	f8da 0000 	ldr.w	r0, [r10]
  10c878:	ea49 0900 	orr.w	r9, r9, r0
  10c87c:	f019 0f01 	tst.w	r9, #1
  10c880:	d107      	bne.n	10c892 <__gethex+0x360>
  10c882:	e06b      	b.n	10c95c <__gethex+0x42a>
  10c884:	9b15      	ldr	r3, [sp, #84]	; 0x54
  10c886:	f1c3 0301 	rsb	r3, r3, #1
  10c88a:	9315      	str	r3, [sp, #84]	; 0x54
  10c88c:	9b15      	ldr	r3, [sp, #84]	; 0x54
  10c88e:	2b00      	cmp	r3, #0
  10c890:	d064      	beq.n	10c95c <__gethex+0x42a>
  10c892:	f8d5 a010 	ldr.w	r10, [r5, #16]
  10c896:	f105 0314 	add.w	r3, r5, #20
  10c89a:	ea4f 098a 	mov.w	r9, r10, lsl #2
  10c89e:	eb03 0109 	add.w	r1, r3, r9
  10c8a2:	2000      	movs	r0, #0
  10c8a4:	681a      	ldr	r2, [r3, #0]
  10c8a6:	f1b2 3fff 	cmp.w	r2, #4294967295
  10c8aa:	d002      	beq.n	10c8b2 <__gethex+0x380>
  10c8ac:	3201      	adds	r2, #1
  10c8ae:	601a      	str	r2, [r3, #0]
  10c8b0:	e020      	b.n	10c8f4 <__gethex+0x3c2>
  10c8b2:	f843 0b04 	str.w	r0, [r3], #4
  10c8b6:	4299      	cmp	r1, r3
  10c8b8:	d8f4      	bhi.n	10c8a4 <__gethex+0x372>
  10c8ba:	68ab      	ldr	r3, [r5, #8]
  10c8bc:	459a      	cmp	r10, r3
  10c8be:	db12      	blt.n	10c8e6 <__gethex+0x3b4>
  10c8c0:	6869      	ldr	r1, [r5, #4]
  10c8c2:	9802      	ldr	r0, [sp, #8]
  10c8c4:	3101      	adds	r1, #1
  10c8c6:	f000 f929 	bl	10cb1c <_Balloc>
  10c8ca:	4683      	mov	r11, r0
  10c8cc:	692a      	ldr	r2, [r5, #16]
  10c8ce:	f105 010c 	add.w	r1, r5, #12
  10c8d2:	3202      	adds	r2, #2
  10c8d4:	0092      	lsls	r2, r2, #2
  10c8d6:	300c      	adds	r0, #12
  10c8d8:	f7fc f8fc 	bl	108ad4 <memcpy>
  10c8dc:	4629      	mov	r1, r5
  10c8de:	9802      	ldr	r0, [sp, #8]
  10c8e0:	f000 f951 	bl	10cb86 <_Bfree>
  10c8e4:	465d      	mov	r5, r11
  10c8e6:	692b      	ldr	r3, [r5, #16]
  10c8e8:	1c5a      	adds	r2, r3, #1
  10c8ea:	612a      	str	r2, [r5, #16]
  10c8ec:	eb05 0383 	add.w	r3, r5, r3, lsl #2
  10c8f0:	2201      	movs	r2, #1
  10c8f2:	615a      	str	r2, [r3, #20]
  10c8f4:	2f02      	cmp	r7, #2
  10c8f6:	f105 0214 	add.w	r2, r5, #20
  10c8fa:	d111      	bne.n	10c920 <__gethex+0x3ee>
  10c8fc:	f8d8 3000 	ldr.w	r3, [r8]
  10c900:	3b01      	subs	r3, #1
  10c902:	429e      	cmp	r6, r3
  10c904:	d127      	bne.n	10c956 <__gethex+0x424>
  10c906:	1171      	asrs	r1, r6, #5
  10c908:	2301      	movs	r3, #1
  10c90a:	f006 061f 	and.w	r6, r6, #31
  10c90e:	fa03 f606 	lsl.w	r6, r3, r6
  10c912:	f852 3021 	ldr.w	r3, [r2, r1, lsl #2]
  10c916:	421e      	tst	r6, r3
  10c918:	bf0c      	ite	eq
  10c91a:	2702      	moveq	r7, #2
  10c91c:	2701      	movne	r7, #1
  10c91e:	e01a      	b.n	10c956 <__gethex+0x424>
  10c920:	692b      	ldr	r3, [r5, #16]
  10c922:	459a      	cmp	r10, r3
  10c924:	da0a      	bge.n	10c93c <__gethex+0x40a>
  10c926:	2101      	movs	r1, #1
  10c928:	4628      	mov	r0, r5
  10c92a:	f7ff fdb7 	bl	10c49c <rshift>
  10c92e:	f8d8 3008 	ldr.w	r3, [r8, #8]
  10c932:	3401      	adds	r4, #1
  10c934:	429c      	cmp	r4, r3
  10c936:	f73f af2c 	bgt.w	10c792 <__gethex+0x260>
  10c93a:	e00b      	b.n	10c954 <__gethex+0x422>
  10c93c:	f016 061f 	ands.w	r6, r6, #31
  10c940:	d008      	beq.n	10c954 <__gethex+0x422>
  10c942:	4491      	add	r9, r2
  10c944:	f859 0c04 	ldr.w	r0, [r9, #-4]
  10c948:	f000 f9ad 	bl	10cca6 <__hi0bits>
  10c94c:	f1c6 0620 	rsb	r6, r6, #32
  10c950:	42b0      	cmp	r0, r6
  10c952:	dbe8      	blt.n	10c926 <__gethex+0x3f4>
  10c954:	2701      	movs	r7, #1
  10c956:	f047 0720 	orr.w	r7, r7, #32
  10c95a:	e001      	b.n	10c960 <__gethex+0x42e>
  10c95c:	f047 0710 	orr.w	r7, r7, #16
  10c960:	4638      	mov	r0, r7
  10c962:	9b14      	ldr	r3, [sp, #80]	; 0x50
  10c964:	601d      	str	r5, [r3, #0]
  10c966:	9b06      	ldr	r3, [sp, #24]
  10c968:	601c      	str	r4, [r3, #0]
  10c96a:	b00b      	add	sp, #44	; 0x2c
  10c96c:	e8bd 8ff0 	ldmia.w	sp!, {r4, r5, r6, r7, r8, r9, r10, r11, pc}

0010c970 <L_shift>:
  10c970:	f1c2 0208 	rsb	r2, r2, #8
  10c974:	0092      	lsls	r2, r2, #2
  10c976:	b570      	push	{r4, r5, r6, lr}
  10c978:	f1c2 0620 	rsb	r6, r2, #32
  10c97c:	6843      	ldr	r3, [r0, #4]
  10c97e:	6805      	ldr	r5, [r0, #0]
  10c980:	fa03 f406 	lsl.w	r4, r3, r6
  10c984:	432c      	orrs	r4, r5
  10c986:	40d3      	lsrs	r3, r2
  10c988:	6004      	str	r4, [r0, #0]
  10c98a:	f840 3f04 	str.w	r3, [r0, #4]!
  10c98e:	4288      	cmp	r0, r1
  10c990:	d3f4      	bcc.n	10c97c <L_shift+0xc>
  10c992:	bd70      	pop	{r4, r5, r6, pc}

0010c994 <__match>:
  10c994:	b530      	push	{r4, r5, lr}
  10c996:	6803      	ldr	r3, [r0, #0]
  10c998:	f811 4b01 	ldrb.w	r4, [r1], #1
  10c99c:	3301      	adds	r3, #1
  10c99e:	b14c      	cbz	r4, 10c9b4 <__match+0x20>
  10c9a0:	781a      	ldrb	r2, [r3, #0]
  10c9a2:	f1a2 0541 	sub.w	r5, r2, #65	; 0x41
  10c9a6:	2d19      	cmp	r5, #25
  10c9a8:	bf98      	it	ls
  10c9aa:	3220      	addls	r2, #32
  10c9ac:	42a2      	cmp	r2, r4
  10c9ae:	d0f3      	beq.n	10c998 <__match+0x4>
  10c9b0:	2000      	movs	r0, #0
  10c9b2:	bd30      	pop	{r4, r5, pc}
  10c9b4:	6003      	str	r3, [r0, #0]
  10c9b6:	2001      	movs	r0, #1
  10c9b8:	bd30      	pop	{r4, r5, pc}

0010c9ba <__hexnan>:
  10c9ba:	680b      	ldr	r3, [r1, #0]
  10c9bc:	e92d 4ff0 	stmdb	sp!, {r4, r5, r6, r7, r8, r9, r10, r11, lr}
  10c9c0:	115e      	asrs	r6, r3, #5
  10c9c2:	eb02 0686 	add.w	r6, r2, r6, lsl #2
  10c9c6:	f013 031f 	ands.w	r3, r3, #31
  10c9ca:	bf18      	it	ne
  10c9cc:	3604      	addne	r6, #4
  10c9ce:	1f35      	subs	r5, r6, #4
  10c9d0:	4617      	mov	r7, r2
  10c9d2:	2200      	movs	r2, #0
  10c9d4:	4682      	mov	r10, r0
  10c9d6:	46a8      	mov	r8, r5
  10c9d8:	462c      	mov	r4, r5
  10c9da:	4691      	mov	r9, r2
  10c9dc:	b085      	sub	sp, #20
  10c9de:	f8d0 b000 	ldr.w	r11, [r0]
  10c9e2:	9301      	str	r3, [sp, #4]
  10c9e4:	f846 2c04 	str.w	r2, [r6, #-4]
  10c9e8:	9200      	str	r2, [sp, #0]
  10c9ea:	f81b 1f01 	ldrb.w	r1, [r11, #1]!
  10c9ee:	2900      	cmp	r1, #0
  10c9f0:	d03c      	beq.n	10ca6c <__hexnan+0xb2>
  10c9f2:	4608      	mov	r0, r1
  10c9f4:	9203      	str	r2, [sp, #12]
  10c9f6:	9102      	str	r1, [sp, #8]
  10c9f8:	f7ff fd86 	bl	10c508 <__hexdig_fun>
  10c9fc:	9a03      	ldr	r2, [sp, #12]
  10c9fe:	bb00      	cbnz	r0, 10ca42 <__hexnan+0x88>
  10ca00:	9902      	ldr	r1, [sp, #8]
  10ca02:	2920      	cmp	r1, #32
  10ca04:	d816      	bhi.n	10ca34 <__hexnan+0x7a>
  10ca06:	9b00      	ldr	r3, [sp, #0]
  10ca08:	4599      	cmp	r9, r3
  10ca0a:	ddee      	ble.n	10c9ea <__hexnan+0x30>
  10ca0c:	4544      	cmp	r4, r8
  10ca0e:	d205      	bcs.n	10ca1c <__hexnan+0x62>
  10ca10:	2a07      	cmp	r2, #7
  10ca12:	dc03      	bgt.n	10ca1c <__hexnan+0x62>
  10ca14:	4641      	mov	r1, r8
  10ca16:	4620      	mov	r0, r4
  10ca18:	f7ff ffaa 	bl	10c970 <L_shift>
  10ca1c:	42bc      	cmp	r4, r7
  10ca1e:	d923      	bls.n	10ca68 <__hexnan+0xae>
  10ca20:	2300      	movs	r3, #0
  10ca22:	f1a4 0804 	sub.w	r8, r4, #4
  10ca26:	f844 3c04 	str.w	r3, [r4, #-4]
  10ca2a:	f8cd 9000 	str.w	r9, [sp]
  10ca2e:	4644      	mov	r4, r8
  10ca30:	461a      	mov	r2, r3
  10ca32:	e7da      	b.n	10c9ea <__hexnan+0x30>
  10ca34:	2929      	cmp	r1, #41	; 0x29
  10ca36:	d148      	bne.n	10caca <__hexnan+0x110>
  10ca38:	f10b 0301 	add.w	r3, r11, #1
  10ca3c:	f8ca 3000 	str.w	r3, [r10]
  10ca40:	e014      	b.n	10ca6c <__hexnan+0xb2>
  10ca42:	3201      	adds	r2, #1
  10ca44:	2a08      	cmp	r2, #8
  10ca46:	f109 0901 	add.w	r9, r9, #1
  10ca4a:	dd06      	ble.n	10ca5a <__hexnan+0xa0>
  10ca4c:	42bc      	cmp	r4, r7
  10ca4e:	d9cc      	bls.n	10c9ea <__hexnan+0x30>
  10ca50:	2300      	movs	r3, #0
  10ca52:	f844 3c04 	str.w	r3, [r4, #-4]
  10ca56:	2201      	movs	r2, #1
  10ca58:	3c04      	subs	r4, #4
  10ca5a:	6821      	ldr	r1, [r4, #0]
  10ca5c:	f000 000f 	and.w	r0, r0, #15
  10ca60:	ea40 1001 	orr.w	r0, r0, r1, lsl #4
  10ca64:	6020      	str	r0, [r4, #0]
  10ca66:	e7c0      	b.n	10c9ea <__hexnan+0x30>
  10ca68:	2208      	movs	r2, #8
  10ca6a:	e7be      	b.n	10c9ea <__hexnan+0x30>
  10ca6c:	f1b9 0f00 	cmp.w	r9, #0
  10ca70:	d02b      	beq.n	10caca <__hexnan+0x110>
  10ca72:	4544      	cmp	r4, r8
  10ca74:	d205      	bcs.n	10ca82 <__hexnan+0xc8>
  10ca76:	2a07      	cmp	r2, #7
  10ca78:	dc03      	bgt.n	10ca82 <__hexnan+0xc8>
  10ca7a:	4641      	mov	r1, r8
  10ca7c:	4620      	mov	r0, r4
  10ca7e:	f7ff ff77 	bl	10c970 <L_shift>
  10ca82:	42bc      	cmp	r4, r7
  10ca84:	d90c      	bls.n	10caa0 <__hexnan+0xe6>
  10ca86:	463b      	mov	r3, r7
  10ca88:	f854 2b04 	ldr.w	r2, [r4], #4
  10ca8c:	42a5      	cmp	r5, r4
  10ca8e:	f843 2b04 	str.w	r2, [r3], #4
  10ca92:	d2f9      	bcs.n	10ca88 <__hexnan+0xce>
  10ca94:	2200      	movs	r2, #0
  10ca96:	f843 2b04 	str.w	r2, [r3], #4
  10ca9a:	429d      	cmp	r5, r3
  10ca9c:	d2fb      	bcs.n	10ca96 <__hexnan+0xdc>
  10ca9e:	e00b      	b.n	10cab8 <__hexnan+0xfe>
  10caa0:	9b01      	ldr	r3, [sp, #4]
  10caa2:	b14b      	cbz	r3, 10cab8 <__hexnan+0xfe>
  10caa4:	f1c3 0220 	rsb	r2, r3, #32
  10caa8:	f04f 33ff 	mov.w	r3, #4294967295
  10caac:	40d3      	lsrs	r3, r2
  10caae:	f856 2c04 	ldr.w	r2, [r6, #-4]
  10cab2:	4013      	ands	r3, r2
  10cab4:	f846 3c04 	str.w	r3, [r6, #-4]
  10cab8:	682b      	ldr	r3, [r5, #0]
  10caba:	b943      	cbnz	r3, 10cace <__hexnan+0x114>
  10cabc:	42bd      	cmp	r5, r7
  10cabe:	d102      	bne.n	10cac6 <__hexnan+0x10c>
  10cac0:	2301      	movs	r3, #1
  10cac2:	602b      	str	r3, [r5, #0]
  10cac4:	e003      	b.n	10cace <__hexnan+0x114>
  10cac6:	3d04      	subs	r5, #4
  10cac8:	e7f6      	b.n	10cab8 <__hexnan+0xfe>
  10caca:	2004      	movs	r0, #4
  10cacc:	e000      	b.n	10cad0 <__hexnan+0x116>
  10cace:	2005      	movs	r0, #5
  10cad0:	b005      	add	sp, #20
  10cad2:	e8bd 8ff0 	ldmia.w	sp!, {r4, r5, r6, r7, r8, r9, r10, r11, pc}
	...

0010cad8 <_isatty_r>:
  10cad8:	b538      	push	{r3, r4, r5, lr}
  10cada:	4c06      	ldr	r4, [pc, #24]	; (10caf4 <_isatty_r+0x1c>)
  10cadc:	2300      	movs	r3, #0
  10cade:	4605      	mov	r5, r0
  10cae0:	4608      	mov	r0, r1
  10cae2:	6023      	str	r3, [r4, #0]
  10cae4:	f7f5 fd80 	bl	1025e8 <__wrap__isatty>
  10cae8:	1c43      	adds	r3, r0, #1
  10caea:	d102      	bne.n	10caf2 <_isatty_r+0x1a>
  10caec:	6823      	ldr	r3, [r4, #0]
  10caee:	b103      	cbz	r3, 10caf2 <_isatty_r+0x1a>
  10caf0:	602b      	str	r3, [r5, #0]
  10caf2:	bd38      	pop	{r3, r4, r5, pc}
  10caf4:	3fff60f0 	.word	0x3fff60f0

0010caf8 <_lseek_r>:
  10caf8:	b538      	push	{r3, r4, r5, lr}
  10cafa:	4c07      	ldr	r4, [pc, #28]	; (10cb18 <_lseek_r+0x20>)
  10cafc:	4605      	mov	r5, r0
  10cafe:	4608      	mov	r0, r1
  10cb00:	4611      	mov	r1, r2
  10cb02:	2200      	movs	r2, #0
  10cb04:	6022      	str	r2, [r4, #0]
  10cb06:	461a      	mov	r2, r3
  10cb08:	f7fa f888 	bl	106c1c <_lseek>
  10cb0c:	1c43      	adds	r3, r0, #1
  10cb0e:	d102      	bne.n	10cb16 <_lseek_r+0x1e>
  10cb10:	6823      	ldr	r3, [r4, #0]
  10cb12:	b103      	cbz	r3, 10cb16 <_lseek_r+0x1e>
  10cb14:	602b      	str	r3, [r5, #0]
  10cb16:	bd38      	pop	{r3, r4, r5, pc}
  10cb18:	3fff60f0 	.word	0x3fff60f0

0010cb1c <_Balloc>:
  10cb1c:	b570      	push	{r4, r5, r6, lr}
  10cb1e:	6a45      	ldr	r5, [r0, #36]	; 0x24
  10cb20:	4604      	mov	r4, r0
  10cb22:	460e      	mov	r6, r1
  10cb24:	b93d      	cbnz	r5, 10cb36 <_Balloc+0x1a>
  10cb26:	2010      	movs	r0, #16
  10cb28:	f7fb ffb6 	bl	108a98 <malloc>
  10cb2c:	6260      	str	r0, [r4, #36]	; 0x24
  10cb2e:	6045      	str	r5, [r0, #4]
  10cb30:	6085      	str	r5, [r0, #8]
  10cb32:	6005      	str	r5, [r0, #0]
  10cb34:	60c5      	str	r5, [r0, #12]
  10cb36:	6a65      	ldr	r5, [r4, #36]	; 0x24
  10cb38:	68eb      	ldr	r3, [r5, #12]
  10cb3a:	b143      	cbz	r3, 10cb4e <_Balloc+0x32>
  10cb3c:	6a63      	ldr	r3, [r4, #36]	; 0x24
  10cb3e:	68db      	ldr	r3, [r3, #12]
  10cb40:	f853 0026 	ldr.w	r0, [r3, r6, lsl #2]
  10cb44:	b178      	cbz	r0, 10cb66 <_Balloc+0x4a>
  10cb46:	6802      	ldr	r2, [r0, #0]
  10cb48:	f843 2026 	str.w	r2, [r3, r6, lsl #2]
  10cb4c:	e017      	b.n	10cb7e <_Balloc+0x62>
  10cb4e:	2221      	movs	r2, #33	; 0x21
  10cb50:	2104      	movs	r1, #4
  10cb52:	4620      	mov	r0, r4
  10cb54:	f7f9 ff49 	bl	1069ea <__wrap__calloc_r>
  10cb58:	6a63      	ldr	r3, [r4, #36]	; 0x24
  10cb5a:	60e8      	str	r0, [r5, #12]
  10cb5c:	68db      	ldr	r3, [r3, #12]
  10cb5e:	2b00      	cmp	r3, #0
  10cb60:	d1ec      	bne.n	10cb3c <_Balloc+0x20>
  10cb62:	2000      	movs	r0, #0
  10cb64:	bd70      	pop	{r4, r5, r6, pc}
  10cb66:	2101      	movs	r1, #1
  10cb68:	fa01 f506 	lsl.w	r5, r1, r6
  10cb6c:	1d6a      	adds	r2, r5, #5
  10cb6e:	0092      	lsls	r2, r2, #2
  10cb70:	4620      	mov	r0, r4
  10cb72:	f7f9 ff3a 	bl	1069ea <__wrap__calloc_r>
  10cb76:	2800      	cmp	r0, #0
  10cb78:	d0f3      	beq.n	10cb62 <_Balloc+0x46>
  10cb7a:	6046      	str	r6, [r0, #4]
  10cb7c:	6085      	str	r5, [r0, #8]
  10cb7e:	2300      	movs	r3, #0
  10cb80:	6103      	str	r3, [r0, #16]
  10cb82:	60c3      	str	r3, [r0, #12]
  10cb84:	bd70      	pop	{r4, r5, r6, pc}

0010cb86 <_Bfree>:
  10cb86:	b570      	push	{r4, r5, r6, lr}
  10cb88:	6a44      	ldr	r4, [r0, #36]	; 0x24
  10cb8a:	4606      	mov	r6, r0
  10cb8c:	460d      	mov	r5, r1
  10cb8e:	b93c      	cbnz	r4, 10cba0 <_Bfree+0x1a>
  10cb90:	2010      	movs	r0, #16
  10cb92:	f7fb ff81 	bl	108a98 <malloc>
  10cb96:	6270      	str	r0, [r6, #36]	; 0x24
  10cb98:	6044      	str	r4, [r0, #4]
  10cb9a:	6084      	str	r4, [r0, #8]
  10cb9c:	6004      	str	r4, [r0, #0]
  10cb9e:	60c4      	str	r4, [r0, #12]
  10cba0:	b13d      	cbz	r5, 10cbb2 <_Bfree+0x2c>
  10cba2:	6a73      	ldr	r3, [r6, #36]	; 0x24
  10cba4:	686a      	ldr	r2, [r5, #4]
  10cba6:	68db      	ldr	r3, [r3, #12]
  10cba8:	f853 1022 	ldr.w	r1, [r3, r2, lsl #2]
  10cbac:	6029      	str	r1, [r5, #0]
  10cbae:	f843 5022 	str.w	r5, [r3, r2, lsl #2]
  10cbb2:	bd70      	pop	{r4, r5, r6, pc}

0010cbb4 <__multadd>:
  10cbb4:	e92d 41f0 	stmdb	sp!, {r4, r5, r6, r7, r8, lr}
  10cbb8:	4606      	mov	r6, r0
  10cbba:	460c      	mov	r4, r1
  10cbbc:	690d      	ldr	r5, [r1, #16]
  10cbbe:	461f      	mov	r7, r3
  10cbc0:	f101 0e14 	add.w	lr, r1, #20
  10cbc4:	2300      	movs	r3, #0
  10cbc6:	f8de 0000 	ldr.w	r0, [lr]
  10cbca:	3301      	adds	r3, #1
  10cbcc:	b281      	uxth	r1, r0
  10cbce:	fb02 7101 	mla	r1, r2, r1, r7
  10cbd2:	0c00      	lsrs	r0, r0, #16
  10cbd4:	0c0f      	lsrs	r7, r1, #16
  10cbd6:	fb02 7000 	mla	r0, r2, r0, r7
  10cbda:	b289      	uxth	r1, r1
  10cbdc:	eb01 4100 	add.w	r1, r1, r0, lsl #16
  10cbe0:	429d      	cmp	r5, r3
  10cbe2:	ea4f 4710 	mov.w	r7, r0, lsr #16
  10cbe6:	f84e 1b04 	str.w	r1, [lr], #4
  10cbea:	dcec      	bgt.n	10cbc6 <__multadd+0x12>
  10cbec:	b1d7      	cbz	r7, 10cc24 <__multadd+0x70>
  10cbee:	68a3      	ldr	r3, [r4, #8]
  10cbf0:	429d      	cmp	r5, r3
  10cbf2:	db12      	blt.n	10cc1a <__multadd+0x66>
  10cbf4:	6861      	ldr	r1, [r4, #4]
  10cbf6:	4630      	mov	r0, r6
  10cbf8:	3101      	adds	r1, #1
  10cbfa:	f7ff ff8f 	bl	10cb1c <_Balloc>
  10cbfe:	4680      	mov	r8, r0
  10cc00:	6922      	ldr	r2, [r4, #16]
  10cc02:	f104 010c 	add.w	r1, r4, #12
  10cc06:	3202      	adds	r2, #2
  10cc08:	0092      	lsls	r2, r2, #2
  10cc0a:	300c      	adds	r0, #12
  10cc0c:	f7fb ff62 	bl	108ad4 <memcpy>
  10cc10:	4621      	mov	r1, r4
  10cc12:	4630      	mov	r0, r6
  10cc14:	f7ff ffb7 	bl	10cb86 <_Bfree>
  10cc18:	4644      	mov	r4, r8
  10cc1a:	eb04 0385 	add.w	r3, r4, r5, lsl #2
  10cc1e:	3501      	adds	r5, #1
  10cc20:	615f      	str	r7, [r3, #20]
  10cc22:	6125      	str	r5, [r4, #16]
  10cc24:	4620      	mov	r0, r4
  10cc26:	e8bd 81f0 	ldmia.w	sp!, {r4, r5, r6, r7, r8, pc}

0010cc2a <__s2b>:
  10cc2a:	e92d 43f8 	stmdb	sp!, {r3, r4, r5, r6, r7, r8, r9, lr}
  10cc2e:	4606      	mov	r6, r0
  10cc30:	4615      	mov	r5, r2
  10cc32:	461f      	mov	r7, r3
  10cc34:	2209      	movs	r2, #9
  10cc36:	3308      	adds	r3, #8
  10cc38:	460c      	mov	r4, r1
  10cc3a:	fb93 f3f2 	sdiv	r3, r3, r2
  10cc3e:	2100      	movs	r1, #0
  10cc40:	2201      	movs	r2, #1
  10cc42:	429a      	cmp	r2, r3
  10cc44:	da02      	bge.n	10cc4c <__s2b+0x22>
  10cc46:	0052      	lsls	r2, r2, #1
  10cc48:	3101      	adds	r1, #1
  10cc4a:	e7fa      	b.n	10cc42 <__s2b+0x18>
  10cc4c:	4630      	mov	r0, r6
  10cc4e:	f7ff ff65 	bl	10cb1c <_Balloc>
  10cc52:	9b08      	ldr	r3, [sp, #32]
  10cc54:	2d09      	cmp	r5, #9
  10cc56:	6143      	str	r3, [r0, #20]
  10cc58:	f04f 0301 	mov.w	r3, #1
  10cc5c:	6103      	str	r3, [r0, #16]
  10cc5e:	dd11      	ble.n	10cc84 <__s2b+0x5a>
  10cc60:	f104 0809 	add.w	r8, r4, #9
  10cc64:	46c1      	mov	r9, r8
  10cc66:	442c      	add	r4, r5
  10cc68:	f819 3b01 	ldrb.w	r3, [r9], #1
  10cc6c:	4601      	mov	r1, r0
  10cc6e:	3b30      	subs	r3, #48	; 0x30
  10cc70:	220a      	movs	r2, #10
  10cc72:	4630      	mov	r0, r6
  10cc74:	f7ff ff9e 	bl	10cbb4 <__multadd>
  10cc78:	45a1      	cmp	r9, r4
  10cc7a:	d1f5      	bne.n	10cc68 <__s2b+0x3e>
  10cc7c:	eb08 0405 	add.w	r4, r8, r5
  10cc80:	3c08      	subs	r4, #8
  10cc82:	e001      	b.n	10cc88 <__s2b+0x5e>
  10cc84:	340a      	adds	r4, #10
  10cc86:	2509      	movs	r5, #9
  10cc88:	1b2d      	subs	r5, r5, r4
  10cc8a:	1963      	adds	r3, r4, r5
  10cc8c:	429f      	cmp	r7, r3
  10cc8e:	dd08      	ble.n	10cca2 <__s2b+0x78>
  10cc90:	f814 3b01 	ldrb.w	r3, [r4], #1
  10cc94:	4601      	mov	r1, r0
  10cc96:	3b30      	subs	r3, #48	; 0x30
  10cc98:	220a      	movs	r2, #10
  10cc9a:	4630      	mov	r0, r6
  10cc9c:	f7ff ff8a 	bl	10cbb4 <__multadd>
  10cca0:	e7f3      	b.n	10cc8a <__s2b+0x60>
  10cca2:	e8bd 83f8 	ldmia.w	sp!, {r3, r4, r5, r6, r7, r8, r9, pc}

0010cca6 <__hi0bits>:
  10cca6:	0c03      	lsrs	r3, r0, #16
  10cca8:	041b      	lsls	r3, r3, #16
  10ccaa:	b913      	cbnz	r3, 10ccb2 <__hi0bits+0xc>
  10ccac:	0400      	lsls	r0, r0, #16
  10ccae:	2310      	movs	r3, #16
  10ccb0:	e000      	b.n	10ccb4 <__hi0bits+0xe>
  10ccb2:	2300      	movs	r3, #0
  10ccb4:	f010 4f7f 	tst.w	r0, #4278190080	; 0xff000000
  10ccb8:	bf04      	itt	eq
  10ccba:	0200      	lsleq	r0, r0, #8
  10ccbc:	3308      	addeq	r3, #8
  10ccbe:	f010 4f70 	tst.w	r0, #4026531840	; 0xf0000000
  10ccc2:	bf04      	itt	eq
  10ccc4:	0100      	lsleq	r0, r0, #4
  10ccc6:	3304      	addeq	r3, #4
  10ccc8:	f010 4f40 	tst.w	r0, #3221225472	; 0xc0000000
  10cccc:	bf04      	itt	eq
  10ccce:	0080      	lsleq	r0, r0, #2
  10ccd0:	3302      	addeq	r3, #2
  10ccd2:	2800      	cmp	r0, #0
  10ccd4:	db03      	blt.n	10ccde <__hi0bits+0x38>
  10ccd6:	0042      	lsls	r2, r0, #1
  10ccd8:	d503      	bpl.n	10cce2 <__hi0bits+0x3c>
  10ccda:	1c58      	adds	r0, r3, #1
  10ccdc:	4770      	bx	lr
  10ccde:	4618      	mov	r0, r3
  10cce0:	4770      	bx	lr
  10cce2:	2020      	movs	r0, #32
  10cce4:	4770      	bx	lr

0010cce6 <__lo0bits>:
  10cce6:	6803      	ldr	r3, [r0, #0]
  10cce8:	f013 0207 	ands.w	r2, r3, #7
  10ccec:	d00b      	beq.n	10cd06 <__lo0bits+0x20>
  10ccee:	07d9      	lsls	r1, r3, #31
  10ccf0:	d422      	bmi.n	10cd38 <__lo0bits+0x52>
  10ccf2:	079a      	lsls	r2, r3, #30
  10ccf4:	bf4b      	itete	mi
  10ccf6:	085b      	lsrmi	r3, r3, #1
  10ccf8:	089b      	lsrpl	r3, r3, #2
  10ccfa:	6003      	strmi	r3, [r0, #0]
  10ccfc:	6003      	strpl	r3, [r0, #0]
  10ccfe:	bf4c      	ite	mi
  10cd00:	2001      	movmi	r0, #1
  10cd02:	2002      	movpl	r0, #2
  10cd04:	4770      	bx	lr
  10cd06:	b299      	uxth	r1, r3
  10cd08:	b909      	cbnz	r1, 10cd0e <__lo0bits+0x28>
  10cd0a:	0c1b      	lsrs	r3, r3, #16
  10cd0c:	2210      	movs	r2, #16
  10cd0e:	f013 0fff 	tst.w	r3, #255	; 0xff
  10cd12:	bf04      	itt	eq
  10cd14:	0a1b      	lsreq	r3, r3, #8
  10cd16:	3208      	addeq	r2, #8
  10cd18:	0719      	lsls	r1, r3, #28
  10cd1a:	bf04      	itt	eq
  10cd1c:	091b      	lsreq	r3, r3, #4
  10cd1e:	3204      	addeq	r2, #4
  10cd20:	0799      	lsls	r1, r3, #30
  10cd22:	bf04      	itt	eq
  10cd24:	089b      	lsreq	r3, r3, #2
  10cd26:	3202      	addeq	r2, #2
  10cd28:	07d9      	lsls	r1, r3, #31
  10cd2a:	d402      	bmi.n	10cd32 <__lo0bits+0x4c>
  10cd2c:	085b      	lsrs	r3, r3, #1
  10cd2e:	d005      	beq.n	10cd3c <__lo0bits+0x56>
  10cd30:	3201      	adds	r2, #1
  10cd32:	6003      	str	r3, [r0, #0]
  10cd34:	4610      	mov	r0, r2
  10cd36:	4770      	bx	lr
  10cd38:	2000      	movs	r0, #0
  10cd3a:	4770      	bx	lr
  10cd3c:	2020      	movs	r0, #32
  10cd3e:	4770      	bx	lr

0010cd40 <__i2b>:
  10cd40:	b510      	push	{r4, lr}
  10cd42:	460c      	mov	r4, r1
  10cd44:	2101      	movs	r1, #1
  10cd46:	f7ff fee9 	bl	10cb1c <_Balloc>
  10cd4a:	2201      	movs	r2, #1
  10cd4c:	6144      	str	r4, [r0, #20]
  10cd4e:	6102      	str	r2, [r0, #16]
  10cd50:	bd10      	pop	{r4, pc}

0010cd52 <__multiply>:
  10cd52:	e92d 4ff7 	stmdb	sp!, {r0, r1, r2, r4, r5, r6, r7, r8, r9, r10, r11, lr}
  10cd56:	4614      	mov	r4, r2
  10cd58:	690a      	ldr	r2, [r1, #16]
  10cd5a:	6923      	ldr	r3, [r4, #16]
  10cd5c:	4688      	mov	r8, r1
  10cd5e:	429a      	cmp	r2, r3
  10cd60:	bfbe      	ittt	lt
  10cd62:	460b      	movlt	r3, r1
  10cd64:	46a0      	movlt	r8, r4
  10cd66:	461c      	movlt	r4, r3
  10cd68:	f8d8 7010 	ldr.w	r7, [r8, #16]
  10cd6c:	f8d4 9010 	ldr.w	r9, [r4, #16]
  10cd70:	f8d8 3008 	ldr.w	r3, [r8, #8]
  10cd74:	f8d8 1004 	ldr.w	r1, [r8, #4]
  10cd78:	eb07 0609 	add.w	r6, r7, r9
  10cd7c:	429e      	cmp	r6, r3
  10cd7e:	bfc8      	it	gt
  10cd80:	3101      	addgt	r1, #1
  10cd82:	f7ff fecb 	bl	10cb1c <_Balloc>
  10cd86:	f100 0514 	add.w	r5, r0, #20
  10cd8a:	462b      	mov	r3, r5
  10cd8c:	eb05 0c86 	add.w	r12, r5, r6, lsl #2
  10cd90:	2200      	movs	r2, #0
  10cd92:	4563      	cmp	r3, r12
  10cd94:	d202      	bcs.n	10cd9c <__multiply+0x4a>
  10cd96:	f843 2b04 	str.w	r2, [r3], #4
  10cd9a:	e7fa      	b.n	10cd92 <__multiply+0x40>
  10cd9c:	f104 0214 	add.w	r2, r4, #20
  10cda0:	f108 0114 	add.w	r1, r8, #20
  10cda4:	eb02 0389 	add.w	r3, r2, r9, lsl #2
  10cda8:	eb01 0787 	add.w	r7, r1, r7, lsl #2
  10cdac:	9300      	str	r3, [sp, #0]
  10cdae:	9b00      	ldr	r3, [sp, #0]
  10cdb0:	9201      	str	r2, [sp, #4]
  10cdb2:	4293      	cmp	r3, r2
  10cdb4:	d957      	bls.n	10ce66 <__multiply+0x114>
  10cdb6:	f8b2 b000 	ldrh.w	r11, [r2]
  10cdba:	f1bb 0f00 	cmp.w	r11, #0
  10cdbe:	d023      	beq.n	10ce08 <__multiply+0xb6>
  10cdc0:	4689      	mov	r9, r1
  10cdc2:	46ae      	mov	lr, r5
  10cdc4:	f04f 0800 	mov.w	r8, #0
  10cdc8:	f859 4b04 	ldr.w	r4, [r9], #4
  10cdcc:	f8be a000 	ldrh.w	r10, [lr]
  10cdd0:	b2a3      	uxth	r3, r4
  10cdd2:	fb0b a303 	mla	r3, r11, r3, r10
  10cdd6:	ea4f 4a14 	mov.w	r10, r4, lsr #16
  10cdda:	f8de 4000 	ldr.w	r4, [lr]
  10cdde:	4443      	add	r3, r8
  10cde0:	ea4f 4814 	mov.w	r8, r4, lsr #16
  10cde4:	fb0b 840a 	mla	r4, r11, r10, r8
  10cde8:	46f2      	mov	r10, lr
  10cdea:	eb04 4413 	add.w	r4, r4, r3, lsr #16
  10cdee:	b29b      	uxth	r3, r3
  10cdf0:	ea43 4304 	orr.w	r3, r3, r4, lsl #16
  10cdf4:	454f      	cmp	r7, r9
  10cdf6:	ea4f 4814 	mov.w	r8, r4, lsr #16
  10cdfa:	f84a 3b04 	str.w	r3, [r10], #4
  10cdfe:	d901      	bls.n	10ce04 <__multiply+0xb2>
  10ce00:	46d6      	mov	lr, r10
  10ce02:	e7e1      	b.n	10cdc8 <__multiply+0x76>
  10ce04:	f8ce 8004 	str.w	r8, [lr, #4]
  10ce08:	9b01      	ldr	r3, [sp, #4]
  10ce0a:	3204      	adds	r2, #4
  10ce0c:	f8b3 a002 	ldrh.w	r10, [r3, #2]
  10ce10:	f1ba 0f00 	cmp.w	r10, #0
  10ce14:	d021      	beq.n	10ce5a <__multiply+0x108>
  10ce16:	462c      	mov	r4, r5
  10ce18:	4689      	mov	r9, r1
  10ce1a:	682b      	ldr	r3, [r5, #0]
  10ce1c:	f04f 0800 	mov.w	r8, #0
  10ce20:	f8b9 e000 	ldrh.w	lr, [r9]
  10ce24:	f8b4 b002 	ldrh.w	r11, [r4, #2]
  10ce28:	b29b      	uxth	r3, r3
  10ce2a:	fb0a be0e 	mla	lr, r10, lr, r11
  10ce2e:	46a3      	mov	r11, r4
  10ce30:	44f0      	add	r8, lr
  10ce32:	ea43 4308 	orr.w	r3, r3, r8, lsl #16
  10ce36:	f84b 3b04 	str.w	r3, [r11], #4
  10ce3a:	f859 3b04 	ldr.w	r3, [r9], #4
  10ce3e:	f8b4 e004 	ldrh.w	lr, [r4, #4]
  10ce42:	0c1b      	lsrs	r3, r3, #16
  10ce44:	fb0a e303 	mla	r3, r10, r3, lr
  10ce48:	454f      	cmp	r7, r9
  10ce4a:	eb03 4318 	add.w	r3, r3, r8, lsr #16
  10ce4e:	ea4f 4813 	mov.w	r8, r3, lsr #16
  10ce52:	d901      	bls.n	10ce58 <__multiply+0x106>
  10ce54:	465c      	mov	r4, r11
  10ce56:	e7e3      	b.n	10ce20 <__multiply+0xce>
  10ce58:	6063      	str	r3, [r4, #4]
  10ce5a:	3504      	adds	r5, #4
  10ce5c:	e7a7      	b.n	10cdae <__multiply+0x5c>
  10ce5e:	f85c 3d04 	ldr.w	r3, [r12, #-4]!
  10ce62:	b913      	cbnz	r3, 10ce6a <__multiply+0x118>
  10ce64:	3e01      	subs	r6, #1
  10ce66:	2e00      	cmp	r6, #0
  10ce68:	dcf9      	bgt.n	10ce5e <__multiply+0x10c>
  10ce6a:	6106      	str	r6, [r0, #16]
  10ce6c:	b003      	add	sp, #12
  10ce6e:	e8bd 8ff0 	ldmia.w	sp!, {r4, r5, r6, r7, r8, r9, r10, r11, pc}
	...

0010ce74 <__pow5mult>:
  10ce74:	e92d 43f8 	stmdb	sp!, {r3, r4, r5, r6, r7, r8, r9, lr}
  10ce78:	4615      	mov	r5, r2
  10ce7a:	f012 0203 	ands.w	r2, r2, #3
  10ce7e:	4606      	mov	r6, r0
  10ce80:	460f      	mov	r7, r1
  10ce82:	d007      	beq.n	10ce94 <__pow5mult+0x20>
  10ce84:	4c21      	ldr	r4, [pc, #132]	; (10cf0c <__pow5mult+0x98>)
  10ce86:	3a01      	subs	r2, #1
  10ce88:	2300      	movs	r3, #0
  10ce8a:	f854 2022 	ldr.w	r2, [r4, r2, lsl #2]
  10ce8e:	f7ff fe91 	bl	10cbb4 <__multadd>
  10ce92:	4607      	mov	r7, r0
  10ce94:	10ad      	asrs	r5, r5, #2
  10ce96:	d036      	beq.n	10cf06 <__pow5mult+0x92>
  10ce98:	6a74      	ldr	r4, [r6, #36]	; 0x24
  10ce9a:	b93c      	cbnz	r4, 10ceac <__pow5mult+0x38>
  10ce9c:	2010      	movs	r0, #16
  10ce9e:	f7fb fdfb 	bl	108a98 <malloc>
  10cea2:	6270      	str	r0, [r6, #36]	; 0x24
  10cea4:	6044      	str	r4, [r0, #4]
  10cea6:	6084      	str	r4, [r0, #8]
  10cea8:	6004      	str	r4, [r0, #0]
  10ceaa:	60c4      	str	r4, [r0, #12]
  10ceac:	f8d6 8024 	ldr.w	r8, [r6, #36]	; 0x24
  10ceb0:	f8d8 4008 	ldr.w	r4, [r8, #8]
  10ceb4:	b94c      	cbnz	r4, 10ceca <__pow5mult+0x56>
  10ceb6:	f240 2171 	movw	r1, #625	; 0x271
  10ceba:	4630      	mov	r0, r6
  10cebc:	f7ff ff40 	bl	10cd40 <__i2b>
  10cec0:	4604      	mov	r4, r0
  10cec2:	2300      	movs	r3, #0
  10cec4:	f8c8 0008 	str.w	r0, [r8, #8]
  10cec8:	6003      	str	r3, [r0, #0]
  10ceca:	f04f 0800 	mov.w	r8, #0
  10cece:	07eb      	lsls	r3, r5, #31
  10ced0:	d50a      	bpl.n	10cee8 <__pow5mult+0x74>
  10ced2:	4639      	mov	r1, r7
  10ced4:	4622      	mov	r2, r4
  10ced6:	4630      	mov	r0, r6
  10ced8:	f7ff ff3b 	bl	10cd52 <__multiply>
  10cedc:	4681      	mov	r9, r0
  10cede:	4639      	mov	r1, r7
  10cee0:	4630      	mov	r0, r6
  10cee2:	f7ff fe50 	bl	10cb86 <_Bfree>
  10cee6:	464f      	mov	r7, r9
  10cee8:	106d      	asrs	r5, r5, #1
  10ceea:	d00c      	beq.n	10cf06 <__pow5mult+0x92>
  10ceec:	6820      	ldr	r0, [r4, #0]
  10ceee:	b108      	cbz	r0, 10cef4 <__pow5mult+0x80>
  10cef0:	4604      	mov	r4, r0
  10cef2:	e7ec      	b.n	10cece <__pow5mult+0x5a>
  10cef4:	4622      	mov	r2, r4
  10cef6:	4621      	mov	r1, r4
  10cef8:	4630      	mov	r0, r6
  10cefa:	f7ff ff2a 	bl	10cd52 <__multiply>
  10cefe:	6020      	str	r0, [r4, #0]
  10cf00:	f8c0 8000 	str.w	r8, [r0]
  10cf04:	e7f4      	b.n	10cef0 <__pow5mult+0x7c>
  10cf06:	4638      	mov	r0, r7
  10cf08:	e8bd 83f8 	ldmia.w	sp!, {r3, r4, r5, r6, r7, r8, r9, pc}
  10cf0c:	0010ea88 	.word	0x0010ea88

0010cf10 <__lshift>:
  10cf10:	e92d 47f0 	stmdb	sp!, {r4, r5, r6, r7, r8, r9, r10, lr}
  10cf14:	460c      	mov	r4, r1
  10cf16:	4607      	mov	r7, r0
  10cf18:	4691      	mov	r9, r2
  10cf1a:	6926      	ldr	r6, [r4, #16]
  10cf1c:	ea4f 1a62 	mov.w	r10, r2, asr #5
  10cf20:	4456      	add	r6, r10
  10cf22:	6849      	ldr	r1, [r1, #4]
  10cf24:	68a3      	ldr	r3, [r4, #8]
  10cf26:	1c75      	adds	r5, r6, #1
  10cf28:	42ab      	cmp	r3, r5
  10cf2a:	da02      	bge.n	10cf32 <__lshift+0x22>
  10cf2c:	3101      	adds	r1, #1
  10cf2e:	005b      	lsls	r3, r3, #1
  10cf30:	e7fa      	b.n	10cf28 <__lshift+0x18>
  10cf32:	4638      	mov	r0, r7
  10cf34:	f7ff fdf2 	bl	10cb1c <_Balloc>
  10cf38:	2300      	movs	r3, #0
  10cf3a:	4680      	mov	r8, r0
  10cf3c:	461a      	mov	r2, r3
  10cf3e:	f100 0114 	add.w	r1, r0, #20
  10cf42:	4553      	cmp	r3, r10
  10cf44:	da03      	bge.n	10cf4e <__lshift+0x3e>
  10cf46:	f841 2023 	str.w	r2, [r1, r3, lsl #2]
  10cf4a:	3301      	adds	r3, #1
  10cf4c:	e7f9      	b.n	10cf42 <__lshift+0x32>
  10cf4e:	ea2a 73ea 	bic.w	r3, r10, r10, asr #31
  10cf52:	6920      	ldr	r0, [r4, #16]
  10cf54:	eb01 0383 	add.w	r3, r1, r3, lsl #2
  10cf58:	f019 091f 	ands.w	r9, r9, #31
  10cf5c:	f104 0114 	add.w	r1, r4, #20
  10cf60:	eb01 0e80 	add.w	lr, r1, r0, lsl #2
  10cf64:	d014      	beq.n	10cf90 <__lshift+0x80>
  10cf66:	f1c9 0c20 	rsb	r12, r9, #32
  10cf6a:	2200      	movs	r2, #0
  10cf6c:	6808      	ldr	r0, [r1, #0]
  10cf6e:	469a      	mov	r10, r3
  10cf70:	fa00 f009 	lsl.w	r0, r0, r9
  10cf74:	4302      	orrs	r2, r0
  10cf76:	f843 2b04 	str.w	r2, [r3], #4
  10cf7a:	f851 2b04 	ldr.w	r2, [r1], #4
  10cf7e:	458e      	cmp	lr, r1
  10cf80:	fa22 f20c 	lsr.w	r2, r2, r12
  10cf84:	d8f2      	bhi.n	10cf6c <__lshift+0x5c>
  10cf86:	f8ca 2004 	str.w	r2, [r10, #4]
  10cf8a:	b142      	cbz	r2, 10cf9e <__lshift+0x8e>
  10cf8c:	1cb5      	adds	r5, r6, #2
  10cf8e:	e006      	b.n	10cf9e <__lshift+0x8e>
  10cf90:	3b04      	subs	r3, #4
  10cf92:	f851 2b04 	ldr.w	r2, [r1], #4
  10cf96:	458e      	cmp	lr, r1
  10cf98:	f843 2f04 	str.w	r2, [r3, #4]!
  10cf9c:	d8f9      	bhi.n	10cf92 <__lshift+0x82>
  10cf9e:	3d01      	subs	r5, #1
  10cfa0:	4638      	mov	r0, r7
  10cfa2:	f8c8 5010 	str.w	r5, [r8, #16]
  10cfa6:	4621      	mov	r1, r4
  10cfa8:	f7ff fded 	bl	10cb86 <_Bfree>
  10cfac:	4640      	mov	r0, r8
  10cfae:	e8bd 87f0 	ldmia.w	sp!, {r4, r5, r6, r7, r8, r9, r10, pc}

0010cfb2 <__mcmp>:
  10cfb2:	6903      	ldr	r3, [r0, #16]
  10cfb4:	690a      	ldr	r2, [r1, #16]
  10cfb6:	b510      	push	{r4, lr}
  10cfb8:	1a9b      	subs	r3, r3, r2
  10cfba:	d111      	bne.n	10cfe0 <__mcmp+0x2e>
  10cfbc:	0092      	lsls	r2, r2, #2
  10cfbe:	3014      	adds	r0, #20
  10cfc0:	3114      	adds	r1, #20
  10cfc2:	1883      	adds	r3, r0, r2
  10cfc4:	440a      	add	r2, r1
  10cfc6:	f853 4d04 	ldr.w	r4, [r3, #-4]!
  10cfca:	f852 1d04 	ldr.w	r1, [r2, #-4]!
  10cfce:	428c      	cmp	r4, r1
  10cfd0:	d002      	beq.n	10cfd8 <__mcmp+0x26>
  10cfd2:	d307      	bcc.n	10cfe4 <__mcmp+0x32>
  10cfd4:	2001      	movs	r0, #1
  10cfd6:	bd10      	pop	{r4, pc}
  10cfd8:	4298      	cmp	r0, r3
  10cfda:	d3f4      	bcc.n	10cfc6 <__mcmp+0x14>
  10cfdc:	2000      	movs	r0, #0
  10cfde:	bd10      	pop	{r4, pc}
  10cfe0:	4618      	mov	r0, r3
  10cfe2:	bd10      	pop	{r4, pc}
  10cfe4:	f04f 30ff 	mov.w	r0, #4294967295
  10cfe8:	bd10      	pop	{r4, pc}

0010cfea <__mdiff>:
  10cfea:	e92d 43f8 	stmdb	sp!, {r3, r4, r5, r6, r7, r8, r9, lr}
  10cfee:	460c      	mov	r4, r1
  10cff0:	4607      	mov	r7, r0
  10cff2:	4611      	mov	r1, r2
  10cff4:	4620      	mov	r0, r4
  10cff6:	4615      	mov	r5, r2
  10cff8:	f7ff ffdb 	bl	10cfb2 <__mcmp>
  10cffc:	1e06      	subs	r6, r0, #0
  10cffe:	d108      	bne.n	10d012 <__mdiff+0x28>
  10d000:	4631      	mov	r1, r6
  10d002:	4638      	mov	r0, r7
  10d004:	f7ff fd8a 	bl	10cb1c <_Balloc>
  10d008:	2301      	movs	r3, #1
  10d00a:	6103      	str	r3, [r0, #16]
  10d00c:	6146      	str	r6, [r0, #20]
  10d00e:	e8bd 83f8 	ldmia.w	sp!, {r3, r4, r5, r6, r7, r8, r9, pc}
  10d012:	bfbc      	itt	lt
  10d014:	4623      	movlt	r3, r4
  10d016:	462c      	movlt	r4, r5
  10d018:	4638      	mov	r0, r7
  10d01a:	6861      	ldr	r1, [r4, #4]
  10d01c:	bfba      	itte	lt
  10d01e:	461d      	movlt	r5, r3
  10d020:	2601      	movlt	r6, #1
  10d022:	2600      	movge	r6, #0
  10d024:	f7ff fd7a 	bl	10cb1c <_Balloc>
  10d028:	692b      	ldr	r3, [r5, #16]
  10d02a:	60c6      	str	r6, [r0, #12]
  10d02c:	6926      	ldr	r6, [r4, #16]
  10d02e:	f105 0914 	add.w	r9, r5, #20
  10d032:	f104 0114 	add.w	r1, r4, #20
  10d036:	eb01 0786 	add.w	r7, r1, r6, lsl #2
  10d03a:	eb09 0883 	add.w	r8, r9, r3, lsl #2
  10d03e:	f100 0514 	add.w	r5, r0, #20
  10d042:	f04f 0c00 	mov.w	r12, #0
  10d046:	f851 2b04 	ldr.w	r2, [r1], #4
  10d04a:	f859 4b04 	ldr.w	r4, [r9], #4
  10d04e:	b293      	uxth	r3, r2
  10d050:	449c      	add	r12, r3
  10d052:	b2a3      	uxth	r3, r4
  10d054:	0c24      	lsrs	r4, r4, #16
  10d056:	ebc3 030c 	rsb	r3, r3, r12
  10d05a:	ebc4 4212 	rsb	r2, r4, r2, lsr #16
  10d05e:	eb02 4223 	add.w	r2, r2, r3, asr #16
  10d062:	b29b      	uxth	r3, r3
  10d064:	ea4f 4c22 	mov.w	r12, r2, asr #16
  10d068:	45c8      	cmp	r8, r9
  10d06a:	ea43 4202 	orr.w	r2, r3, r2, lsl #16
  10d06e:	468e      	mov	lr, r1
  10d070:	f845 2b04 	str.w	r2, [r5], #4
  10d074:	d8e7      	bhi.n	10d046 <__mdiff+0x5c>
  10d076:	45be      	cmp	lr, r7
  10d078:	d20e      	bcs.n	10d098 <__mdiff+0xae>
  10d07a:	f85e 1b04 	ldr.w	r1, [lr], #4
  10d07e:	b28a      	uxth	r2, r1
  10d080:	4462      	add	r2, r12
  10d082:	1413      	asrs	r3, r2, #16
  10d084:	eb03 4311 	add.w	r3, r3, r1, lsr #16
  10d088:	b292      	uxth	r2, r2
  10d08a:	ea42 4203 	orr.w	r2, r2, r3, lsl #16
  10d08e:	ea4f 4c23 	mov.w	r12, r3, asr #16
  10d092:	f845 2b04 	str.w	r2, [r5], #4
  10d096:	e7ee      	b.n	10d076 <__mdiff+0x8c>
  10d098:	f855 3d04 	ldr.w	r3, [r5, #-4]!
  10d09c:	b90b      	cbnz	r3, 10d0a2 <__mdiff+0xb8>
  10d09e:	3e01      	subs	r6, #1
  10d0a0:	e7fa      	b.n	10d098 <__mdiff+0xae>
  10d0a2:	6106      	str	r6, [r0, #16]
  10d0a4:	e8bd 83f8 	ldmia.w	sp!, {r3, r4, r5, r6, r7, r8, r9, pc}

0010d0a8 <__ulp>:
  10d0a8:	4b10      	ldr	r3, [pc, #64]	; (10d0ec <__ulp+0x44>)
  10d0aa:	400b      	ands	r3, r1
  10d0ac:	f1a3 7350 	sub.w	r3, r3, #54525952	; 0x3400000
  10d0b0:	2b00      	cmp	r3, #0
  10d0b2:	dd02      	ble.n	10d0ba <__ulp+0x12>
  10d0b4:	2000      	movs	r0, #0
  10d0b6:	4619      	mov	r1, r3
  10d0b8:	4770      	bx	lr
  10d0ba:	425b      	negs	r3, r3
  10d0bc:	151b      	asrs	r3, r3, #20
  10d0be:	2b13      	cmp	r3, #19
  10d0c0:	f04f 0000 	mov.w	r0, #0
  10d0c4:	f04f 0100 	mov.w	r1, #0
  10d0c8:	dc04      	bgt.n	10d0d4 <__ulp+0x2c>
  10d0ca:	f44f 2200 	mov.w	r2, #524288	; 0x80000
  10d0ce:	fa42 f103 	asr.w	r1, r2, r3
  10d0d2:	4770      	bx	lr
  10d0d4:	3b14      	subs	r3, #20
  10d0d6:	2b1e      	cmp	r3, #30
  10d0d8:	f04f 0201 	mov.w	r2, #1
  10d0dc:	bfce      	itee	gt
  10d0de:	4613      	movgt	r3, r2
  10d0e0:	f1c3 031f 	rsble	r3, r3, #31
  10d0e4:	fa02 f303 	lslle.w	r3, r2, r3
  10d0e8:	4618      	mov	r0, r3
  10d0ea:	4770      	bx	lr
  10d0ec:	7ff00000 	.word	0x7ff00000

0010d0f0 <__b2d>:
  10d0f0:	b5f8      	push	{r3, r4, r5, r6, r7, lr}
  10d0f2:	6905      	ldr	r5, [r0, #16]
  10d0f4:	f100 0614 	add.w	r6, r0, #20
  10d0f8:	eb06 0585 	add.w	r5, r6, r5, lsl #2
  10d0fc:	f855 4c04 	ldr.w	r4, [r5, #-4]
  10d100:	1f2f      	subs	r7, r5, #4
  10d102:	4620      	mov	r0, r4
  10d104:	f7ff fdcf 	bl	10cca6 <__hi0bits>
  10d108:	f1c0 0320 	rsb	r3, r0, #32
  10d10c:	280a      	cmp	r0, #10
  10d10e:	600b      	str	r3, [r1, #0]
  10d110:	dc14      	bgt.n	10d13c <__b2d+0x4c>
  10d112:	f1c0 0e0b 	rsb	lr, r0, #11
  10d116:	fa24 f10e 	lsr.w	r1, r4, lr
  10d11a:	42be      	cmp	r6, r7
  10d11c:	f041 537f 	orr.w	r3, r1, #1069547520	; 0x3fc00000
  10d120:	bf34      	ite	cc
  10d122:	f855 1c08 	ldrcc.w	r1, [r5, #-8]
  10d126:	2100      	movcs	r1, #0
  10d128:	3015      	adds	r0, #21
  10d12a:	fa04 f000 	lsl.w	r0, r4, r0
  10d12e:	fa21 f10e 	lsr.w	r1, r1, lr
  10d132:	f443 1340 	orr.w	r3, r3, #3145728	; 0x300000
  10d136:	ea40 0201 	orr.w	r2, r0, r1
  10d13a:	e023      	b.n	10d184 <__b2d+0x94>
  10d13c:	42be      	cmp	r6, r7
  10d13e:	bf3a      	itte	cc
  10d140:	f1a5 0708 	subcc.w	r7, r5, #8
  10d144:	f855 1c08 	ldrcc.w	r1, [r5, #-8]
  10d148:	2100      	movcs	r1, #0
  10d14a:	380b      	subs	r0, #11
  10d14c:	d015      	beq.n	10d17a <__b2d+0x8a>
  10d14e:	4084      	lsls	r4, r0
  10d150:	f1c0 0520 	rsb	r5, r0, #32
  10d154:	f044 547f 	orr.w	r4, r4, #1069547520	; 0x3fc00000
  10d158:	f444 1440 	orr.w	r4, r4, #3145728	; 0x300000
  10d15c:	42b7      	cmp	r7, r6
  10d15e:	fa21 fe05 	lsr.w	lr, r1, r5
  10d162:	ea44 030e 	orr.w	r3, r4, lr
  10d166:	bf8c      	ite	hi
  10d168:	f857 4c04 	ldrhi.w	r4, [r7, #-4]
  10d16c:	2400      	movls	r4, #0
  10d16e:	fa01 f000 	lsl.w	r0, r1, r0
  10d172:	40ec      	lsrs	r4, r5
  10d174:	ea40 0204 	orr.w	r2, r0, r4
  10d178:	e004      	b.n	10d184 <__b2d+0x94>
  10d17a:	460a      	mov	r2, r1
  10d17c:	f044 537f 	orr.w	r3, r4, #1069547520	; 0x3fc00000
  10d180:	f443 1340 	orr.w	r3, r3, #3145728	; 0x300000
  10d184:	4610      	mov	r0, r2
  10d186:	4619      	mov	r1, r3
  10d188:	bdf8      	pop	{r3, r4, r5, r6, r7, pc}

0010d18a <__d2b>:
  10d18a:	e92d 41f3 	stmdb	sp!, {r0, r1, r4, r5, r6, r7, r8, lr}
  10d18e:	461c      	mov	r4, r3
  10d190:	2101      	movs	r1, #1
  10d192:	4690      	mov	r8, r2
  10d194:	9e08      	ldr	r6, [sp, #32]
  10d196:	9d09      	ldr	r5, [sp, #36]	; 0x24
  10d198:	f7ff fcc0 	bl	10cb1c <_Balloc>
  10d19c:	f3c4 0213 	ubfx	r2, r4, #0, #20
  10d1a0:	f3c4 540a 	ubfx	r4, r4, #20, #11
  10d1a4:	4607      	mov	r7, r0
  10d1a6:	b10c      	cbz	r4, 10d1ac <__d2b+0x22>
  10d1a8:	f442 1280 	orr.w	r2, r2, #1048576	; 0x100000
  10d1ac:	9201      	str	r2, [sp, #4]
  10d1ae:	f1b8 0f00 	cmp.w	r8, #0
  10d1b2:	d019      	beq.n	10d1e8 <__d2b+0x5e>
  10d1b4:	a802      	add	r0, sp, #8
  10d1b6:	f840 8d08 	str.w	r8, [r0, #-8]!
  10d1ba:	f7ff fd94 	bl	10cce6 <__lo0bits>
  10d1be:	9b00      	ldr	r3, [sp, #0]
  10d1c0:	b148      	cbz	r0, 10d1d6 <__d2b+0x4c>
  10d1c2:	9a01      	ldr	r2, [sp, #4]
  10d1c4:	f1c0 0120 	rsb	r1, r0, #32
  10d1c8:	fa02 f101 	lsl.w	r1, r2, r1
  10d1cc:	430b      	orrs	r3, r1
  10d1ce:	40c2      	lsrs	r2, r0
  10d1d0:	617b      	str	r3, [r7, #20]
  10d1d2:	9201      	str	r2, [sp, #4]
  10d1d4:	e000      	b.n	10d1d8 <__d2b+0x4e>
  10d1d6:	617b      	str	r3, [r7, #20]
  10d1d8:	9b01      	ldr	r3, [sp, #4]
  10d1da:	2b00      	cmp	r3, #0
  10d1dc:	bf14      	ite	ne
  10d1de:	2102      	movne	r1, #2
  10d1e0:	2101      	moveq	r1, #1
  10d1e2:	61bb      	str	r3, [r7, #24]
  10d1e4:	6139      	str	r1, [r7, #16]
  10d1e6:	e007      	b.n	10d1f8 <__d2b+0x6e>
  10d1e8:	a801      	add	r0, sp, #4
  10d1ea:	f7ff fd7c 	bl	10cce6 <__lo0bits>
  10d1ee:	9b01      	ldr	r3, [sp, #4]
  10d1f0:	2101      	movs	r1, #1
  10d1f2:	617b      	str	r3, [r7, #20]
  10d1f4:	6139      	str	r1, [r7, #16]
  10d1f6:	3020      	adds	r0, #32
  10d1f8:	b134      	cbz	r4, 10d208 <__d2b+0x7e>
  10d1fa:	f2a4 4433 	subw	r4, r4, #1075	; 0x433
  10d1fe:	4404      	add	r4, r0
  10d200:	6034      	str	r4, [r6, #0]
  10d202:	f1c0 0035 	rsb	r0, r0, #53	; 0x35
  10d206:	e009      	b.n	10d21c <__d2b+0x92>
  10d208:	f2a0 4032 	subw	r0, r0, #1074	; 0x432
  10d20c:	eb07 0381 	add.w	r3, r7, r1, lsl #2
  10d210:	6030      	str	r0, [r6, #0]
  10d212:	6918      	ldr	r0, [r3, #16]
  10d214:	f7ff fd47 	bl	10cca6 <__hi0bits>
  10d218:	ebc0 1041 	rsb	r0, r0, r1, lsl #5
  10d21c:	6028      	str	r0, [r5, #0]
  10d21e:	4638      	mov	r0, r7
  10d220:	b002      	add	sp, #8
  10d222:	e8bd 81f0 	ldmia.w	sp!, {r4, r5, r6, r7, r8, pc}

0010d226 <__ratio>:
  10d226:	e92d 43f7 	stmdb	sp!, {r0, r1, r2, r4, r5, r6, r7, r8, r9, lr}
  10d22a:	4688      	mov	r8, r1
  10d22c:	4669      	mov	r1, sp
  10d22e:	4681      	mov	r9, r0
  10d230:	f7ff ff5e 	bl	10d0f0 <__b2d>
  10d234:	460d      	mov	r5, r1
  10d236:	4604      	mov	r4, r0
  10d238:	a901      	add	r1, sp, #4
  10d23a:	4640      	mov	r0, r8
  10d23c:	f7ff ff58 	bl	10d0f0 <__b2d>
  10d240:	460f      	mov	r7, r1
  10d242:	4606      	mov	r6, r0
  10d244:	f8d9 3010 	ldr.w	r3, [r9, #16]
  10d248:	f8d8 2010 	ldr.w	r2, [r8, #16]
  10d24c:	4620      	mov	r0, r4
  10d24e:	1a9a      	subs	r2, r3, r2
  10d250:	e89d 000a 	ldmia.w	sp, {r1, r3}
  10d254:	1ac9      	subs	r1, r1, r3
  10d256:	eb01 1342 	add.w	r3, r1, r2, lsl #5
  10d25a:	2b00      	cmp	r3, #0
  10d25c:	bfcc      	ite	gt
  10d25e:	eb05 5503 	addgt.w	r5, r5, r3, lsl #20
  10d262:	eba7 5703 	suble.w	r7, r7, r3, lsl #20
  10d266:	4632      	mov	r2, r6
  10d268:	463b      	mov	r3, r7
  10d26a:	4629      	mov	r1, r5
  10d26c:	f7fa ffb6 	bl	1081dc <__aeabi_ddiv>
  10d270:	b003      	add	sp, #12
  10d272:	e8bd 83f0 	ldmia.w	sp!, {r4, r5, r6, r7, r8, r9, pc}

0010d276 <__copybits>:
  10d276:	3901      	subs	r1, #1
  10d278:	b510      	push	{r4, lr}
  10d27a:	1149      	asrs	r1, r1, #5
  10d27c:	6914      	ldr	r4, [r2, #16]
  10d27e:	3101      	adds	r1, #1
  10d280:	f102 0314 	add.w	r3, r2, #20
  10d284:	eb00 0181 	add.w	r1, r0, r1, lsl #2
  10d288:	eb03 0484 	add.w	r4, r3, r4, lsl #2
  10d28c:	42a3      	cmp	r3, r4
  10d28e:	4602      	mov	r2, r0
  10d290:	d204      	bcs.n	10d29c <__copybits+0x26>
  10d292:	f853 2b04 	ldr.w	r2, [r3], #4
  10d296:	f840 2b04 	str.w	r2, [r0], #4
  10d29a:	e7f7      	b.n	10d28c <__copybits+0x16>
  10d29c:	2300      	movs	r3, #0
  10d29e:	428a      	cmp	r2, r1
  10d2a0:	d202      	bcs.n	10d2a8 <__copybits+0x32>
  10d2a2:	f842 3b04 	str.w	r3, [r2], #4
  10d2a6:	e7fa      	b.n	10d29e <__copybits+0x28>
  10d2a8:	bd10      	pop	{r4, pc}

0010d2aa <__any_on>:
  10d2aa:	f100 0214 	add.w	r2, r0, #20
  10d2ae:	6900      	ldr	r0, [r0, #16]
  10d2b0:	114b      	asrs	r3, r1, #5
  10d2b2:	4298      	cmp	r0, r3
  10d2b4:	b510      	push	{r4, lr}
  10d2b6:	db0c      	blt.n	10d2d2 <__any_on+0x28>
  10d2b8:	dd0c      	ble.n	10d2d4 <__any_on+0x2a>
  10d2ba:	f011 011f 	ands.w	r1, r1, #31
  10d2be:	d009      	beq.n	10d2d4 <__any_on+0x2a>
  10d2c0:	f852 4023 	ldr.w	r4, [r2, r3, lsl #2]
  10d2c4:	fa24 f001 	lsr.w	r0, r4, r1
  10d2c8:	fa00 f101 	lsl.w	r1, r0, r1
  10d2cc:	428c      	cmp	r4, r1
  10d2ce:	d10c      	bne.n	10d2ea <__any_on+0x40>
  10d2d0:	e000      	b.n	10d2d4 <__any_on+0x2a>
  10d2d2:	4603      	mov	r3, r0
  10d2d4:	eb02 0383 	add.w	r3, r2, r3, lsl #2
  10d2d8:	4293      	cmp	r3, r2
  10d2da:	d904      	bls.n	10d2e6 <__any_on+0x3c>
  10d2dc:	f853 1d04 	ldr.w	r1, [r3, #-4]!
  10d2e0:	2900      	cmp	r1, #0
  10d2e2:	d0f9      	beq.n	10d2d8 <__any_on+0x2e>
  10d2e4:	e001      	b.n	10d2ea <__any_on+0x40>
  10d2e6:	2000      	movs	r0, #0
  10d2e8:	bd10      	pop	{r4, pc}
  10d2ea:	2001      	movs	r0, #1
  10d2ec:	bd10      	pop	{r4, pc}

0010d2ee <__ssputs_r>:
  10d2ee:	e92d 47f0 	stmdb	sp!, {r4, r5, r6, r7, r8, r9, r10, lr}
  10d2f2:	688e      	ldr	r6, [r1, #8]
  10d2f4:	4682      	mov	r10, r0
  10d2f6:	429e      	cmp	r6, r3
  10d2f8:	460c      	mov	r4, r1
  10d2fa:	4691      	mov	r9, r2
  10d2fc:	4698      	mov	r8, r3
  10d2fe:	d83e      	bhi.n	10d37e <__ssputs_r+0x90>
  10d300:	898a      	ldrh	r2, [r1, #12]
  10d302:	f412 6f90 	tst.w	r2, #1152	; 0x480
  10d306:	d03a      	beq.n	10d37e <__ssputs_r+0x90>
  10d308:	6825      	ldr	r5, [r4, #0]
  10d30a:	6909      	ldr	r1, [r1, #16]
  10d30c:	2302      	movs	r3, #2
  10d30e:	1a6f      	subs	r7, r5, r1
  10d310:	6965      	ldr	r5, [r4, #20]
  10d312:	eb05 0545 	add.w	r5, r5, r5, lsl #1
  10d316:	fb95 f5f3 	sdiv	r5, r5, r3
  10d31a:	1c7b      	adds	r3, r7, #1
  10d31c:	4443      	add	r3, r8
  10d31e:	429d      	cmp	r5, r3
  10d320:	bf38      	it	cc
  10d322:	461d      	movcc	r5, r3
  10d324:	0553      	lsls	r3, r2, #21
  10d326:	d50f      	bpl.n	10d348 <__ssputs_r+0x5a>
  10d328:	4629      	mov	r1, r5
  10d32a:	f7f9 fb6d 	bl	106a08 <__wrap__malloc_r>
  10d32e:	4606      	mov	r6, r0
  10d330:	b198      	cbz	r0, 10d35a <__ssputs_r+0x6c>
  10d332:	463a      	mov	r2, r7
  10d334:	6921      	ldr	r1, [r4, #16]
  10d336:	f7fb fbcd 	bl	108ad4 <memcpy>
  10d33a:	89a3      	ldrh	r3, [r4, #12]
  10d33c:	f423 6390 	bic.w	r3, r3, #1152	; 0x480
  10d340:	f043 0380 	orr.w	r3, r3, #128	; 0x80
  10d344:	81a3      	strh	r3, [r4, #12]
  10d346:	e013      	b.n	10d370 <__ssputs_r+0x82>
  10d348:	462a      	mov	r2, r5
  10d34a:	f7f9 fb32 	bl	1069b2 <__wrap__realloc_r>
  10d34e:	4606      	mov	r6, r0
  10d350:	b970      	cbnz	r0, 10d370 <__ssputs_r+0x82>
  10d352:	6921      	ldr	r1, [r4, #16]
  10d354:	4650      	mov	r0, r10
  10d356:	f7f9 fb89 	bl	106a6c <__wrap__free_r>
  10d35a:	230c      	movs	r3, #12
  10d35c:	f8ca 3000 	str.w	r3, [r10]
  10d360:	89a3      	ldrh	r3, [r4, #12]
  10d362:	f04f 30ff 	mov.w	r0, #4294967295
  10d366:	f043 0340 	orr.w	r3, r3, #64	; 0x40
  10d36a:	81a3      	strh	r3, [r4, #12]
  10d36c:	e8bd 87f0 	ldmia.w	sp!, {r4, r5, r6, r7, r8, r9, r10, pc}
  10d370:	6126      	str	r6, [r4, #16]
  10d372:	443e      	add	r6, r7
  10d374:	6026      	str	r6, [r4, #0]
  10d376:	4646      	mov	r6, r8
  10d378:	6165      	str	r5, [r4, #20]
  10d37a:	1bed      	subs	r5, r5, r7
  10d37c:	60a5      	str	r5, [r4, #8]
  10d37e:	4546      	cmp	r6, r8
  10d380:	bf28      	it	cs
  10d382:	4646      	movcs	r6, r8
  10d384:	4649      	mov	r1, r9
  10d386:	4632      	mov	r2, r6
  10d388:	6820      	ldr	r0, [r4, #0]
  10d38a:	f7fb fbae 	bl	108aea <memmove>
  10d38e:	68a3      	ldr	r3, [r4, #8]
  10d390:	2000      	movs	r0, #0
  10d392:	1b9b      	subs	r3, r3, r6
  10d394:	60a3      	str	r3, [r4, #8]
  10d396:	6823      	ldr	r3, [r4, #0]
  10d398:	441e      	add	r6, r3
  10d39a:	6026      	str	r6, [r4, #0]
  10d39c:	e8bd 87f0 	ldmia.w	sp!, {r4, r5, r6, r7, r8, r9, r10, pc}

0010d3a0 <_svfiprintf_r>:
  10d3a0:	e92d 4ff0 	stmdb	sp!, {r4, r5, r6, r7, r8, r9, r10, r11, lr}
  10d3a4:	b09d      	sub	sp, #116	; 0x74
  10d3a6:	9303      	str	r3, [sp, #12]
  10d3a8:	898b      	ldrh	r3, [r1, #12]
  10d3aa:	4680      	mov	r8, r0
  10d3ac:	061c      	lsls	r4, r3, #24
  10d3ae:	460d      	mov	r5, r1
  10d3b0:	4616      	mov	r6, r2
  10d3b2:	d50d      	bpl.n	10d3d0 <_svfiprintf_r+0x30>
  10d3b4:	690b      	ldr	r3, [r1, #16]
  10d3b6:	b95b      	cbnz	r3, 10d3d0 <_svfiprintf_r+0x30>
  10d3b8:	2140      	movs	r1, #64	; 0x40
  10d3ba:	f7f9 fb25 	bl	106a08 <__wrap__malloc_r>
  10d3be:	6028      	str	r0, [r5, #0]
  10d3c0:	6128      	str	r0, [r5, #16]
  10d3c2:	b918      	cbnz	r0, 10d3cc <_svfiprintf_r+0x2c>
  10d3c4:	230c      	movs	r3, #12
  10d3c6:	f8c8 3000 	str.w	r3, [r8]
  10d3ca:	e0cd      	b.n	10d568 <_svfiprintf_r+0x1c8>
  10d3cc:	2340      	movs	r3, #64	; 0x40
  10d3ce:	616b      	str	r3, [r5, #20]
  10d3d0:	2300      	movs	r3, #0
  10d3d2:	9309      	str	r3, [sp, #36]	; 0x24
  10d3d4:	2320      	movs	r3, #32
  10d3d6:	f88d 3029 	strb.w	r3, [sp, #41]	; 0x29
  10d3da:	f8df b19c 	ldr.w	r11, [pc, #412]	; 10d578 <_svfiprintf_r+0x1d8>
  10d3de:	2330      	movs	r3, #48	; 0x30
  10d3e0:	f88d 302a 	strb.w	r3, [sp, #42]	; 0x2a
  10d3e4:	4637      	mov	r7, r6
  10d3e6:	463c      	mov	r4, r7
  10d3e8:	f814 3b01 	ldrb.w	r3, [r4], #1
  10d3ec:	b91b      	cbnz	r3, 10d3f6 <_svfiprintf_r+0x56>
  10d3ee:	ebb7 0906 	subs.w	r9, r7, r6
  10d3f2:	d010      	beq.n	10d416 <_svfiprintf_r+0x76>
  10d3f4:	e003      	b.n	10d3fe <_svfiprintf_r+0x5e>
  10d3f6:	2b25      	cmp	r3, #37	; 0x25
  10d3f8:	d0f9      	beq.n	10d3ee <_svfiprintf_r+0x4e>
  10d3fa:	4627      	mov	r7, r4
  10d3fc:	e7f3      	b.n	10d3e6 <_svfiprintf_r+0x46>
  10d3fe:	464b      	mov	r3, r9
  10d400:	4632      	mov	r2, r6
  10d402:	4629      	mov	r1, r5
  10d404:	4640      	mov	r0, r8
  10d406:	f7ff ff72 	bl	10d2ee <__ssputs_r>
  10d40a:	3001      	adds	r0, #1
  10d40c:	f000 80a7 	beq.w	10d55e <_svfiprintf_r+0x1be>
  10d410:	9b09      	ldr	r3, [sp, #36]	; 0x24
  10d412:	444b      	add	r3, r9
  10d414:	9309      	str	r3, [sp, #36]	; 0x24
  10d416:	783b      	ldrb	r3, [r7, #0]
  10d418:	2b00      	cmp	r3, #0
  10d41a:	f000 80a0 	beq.w	10d55e <_svfiprintf_r+0x1be>
  10d41e:	2300      	movs	r3, #0
  10d420:	f04f 32ff 	mov.w	r2, #4294967295
  10d424:	9304      	str	r3, [sp, #16]
  10d426:	9307      	str	r3, [sp, #28]
  10d428:	9205      	str	r2, [sp, #20]
  10d42a:	9306      	str	r3, [sp, #24]
  10d42c:	f88d 3053 	strb.w	r3, [sp, #83]	; 0x53
  10d430:	931a      	str	r3, [sp, #104]	; 0x68
  10d432:	2601      	movs	r6, #1
  10d434:	2205      	movs	r2, #5
  10d436:	7821      	ldrb	r1, [r4, #0]
  10d438:	484e      	ldr	r0, [pc, #312]	; (10d574 <_svfiprintf_r+0x1d4>)
  10d43a:	f7fb fb3d 	bl	108ab8 <memchr>
  10d43e:	1c67      	adds	r7, r4, #1
  10d440:	9b04      	ldr	r3, [sp, #16]
  10d442:	b138      	cbz	r0, 10d454 <_svfiprintf_r+0xb4>
  10d444:	4a4b      	ldr	r2, [pc, #300]	; (10d574 <_svfiprintf_r+0x1d4>)
  10d446:	463c      	mov	r4, r7
  10d448:	1a80      	subs	r0, r0, r2
  10d44a:	fa06 f000 	lsl.w	r0, r6, r0
  10d44e:	4318      	orrs	r0, r3
  10d450:	9004      	str	r0, [sp, #16]
  10d452:	e7ef      	b.n	10d434 <_svfiprintf_r+0x94>
  10d454:	06d9      	lsls	r1, r3, #27
  10d456:	bf44      	itt	mi
  10d458:	2220      	movmi	r2, #32
  10d45a:	f88d 2053 	strbmi.w	r2, [sp, #83]	; 0x53
  10d45e:	071a      	lsls	r2, r3, #28
  10d460:	bf44      	itt	mi
  10d462:	222b      	movmi	r2, #43	; 0x2b
  10d464:	f88d 2053 	strbmi.w	r2, [sp, #83]	; 0x53
  10d468:	7822      	ldrb	r2, [r4, #0]
  10d46a:	2a2a      	cmp	r2, #42	; 0x2a
  10d46c:	d003      	beq.n	10d476 <_svfiprintf_r+0xd6>
  10d46e:	9a07      	ldr	r2, [sp, #28]
  10d470:	2100      	movs	r1, #0
  10d472:	200a      	movs	r0, #10
  10d474:	e00b      	b.n	10d48e <_svfiprintf_r+0xee>
  10d476:	9a03      	ldr	r2, [sp, #12]
  10d478:	1d11      	adds	r1, r2, #4
  10d47a:	6812      	ldr	r2, [r2, #0]
  10d47c:	9103      	str	r1, [sp, #12]
  10d47e:	2a00      	cmp	r2, #0
  10d480:	da10      	bge.n	10d4a4 <_svfiprintf_r+0x104>
  10d482:	4252      	negs	r2, r2
  10d484:	f043 0002 	orr.w	r0, r3, #2
  10d488:	9207      	str	r2, [sp, #28]
  10d48a:	9004      	str	r0, [sp, #16]
  10d48c:	e00b      	b.n	10d4a6 <_svfiprintf_r+0x106>
  10d48e:	4627      	mov	r7, r4
  10d490:	783b      	ldrb	r3, [r7, #0]
  10d492:	3401      	adds	r4, #1
  10d494:	3b30      	subs	r3, #48	; 0x30
  10d496:	2b09      	cmp	r3, #9
  10d498:	d803      	bhi.n	10d4a2 <_svfiprintf_r+0x102>
  10d49a:	fb00 3202 	mla	r2, r0, r2, r3
  10d49e:	2101      	movs	r1, #1
  10d4a0:	e7f5      	b.n	10d48e <_svfiprintf_r+0xee>
  10d4a2:	b101      	cbz	r1, 10d4a6 <_svfiprintf_r+0x106>
  10d4a4:	9207      	str	r2, [sp, #28]
  10d4a6:	783b      	ldrb	r3, [r7, #0]
  10d4a8:	2b2e      	cmp	r3, #46	; 0x2e
  10d4aa:	d11e      	bne.n	10d4ea <_svfiprintf_r+0x14a>
  10d4ac:	787b      	ldrb	r3, [r7, #1]
  10d4ae:	2b2a      	cmp	r3, #42	; 0x2a
  10d4b0:	d10a      	bne.n	10d4c8 <_svfiprintf_r+0x128>
  10d4b2:	9b03      	ldr	r3, [sp, #12]
  10d4b4:	3702      	adds	r7, #2
  10d4b6:	1d1a      	adds	r2, r3, #4
  10d4b8:	681b      	ldr	r3, [r3, #0]
  10d4ba:	9203      	str	r2, [sp, #12]
  10d4bc:	2b00      	cmp	r3, #0
  10d4be:	bfb8      	it	lt
  10d4c0:	f04f 33ff 	movlt.w	r3, #4294967295
  10d4c4:	9305      	str	r3, [sp, #20]
  10d4c6:	e010      	b.n	10d4ea <_svfiprintf_r+0x14a>
  10d4c8:	2300      	movs	r3, #0
  10d4ca:	4619      	mov	r1, r3
  10d4cc:	9305      	str	r3, [sp, #20]
  10d4ce:	1c78      	adds	r0, r7, #1
  10d4d0:	240a      	movs	r4, #10
  10d4d2:	4607      	mov	r7, r0
  10d4d4:	783a      	ldrb	r2, [r7, #0]
  10d4d6:	3001      	adds	r0, #1
  10d4d8:	3a30      	subs	r2, #48	; 0x30
  10d4da:	2a09      	cmp	r2, #9
  10d4dc:	d803      	bhi.n	10d4e6 <_svfiprintf_r+0x146>
  10d4de:	fb04 2101 	mla	r1, r4, r1, r2
  10d4e2:	2301      	movs	r3, #1
  10d4e4:	e7f5      	b.n	10d4d2 <_svfiprintf_r+0x132>
  10d4e6:	b103      	cbz	r3, 10d4ea <_svfiprintf_r+0x14a>
  10d4e8:	9105      	str	r1, [sp, #20]
  10d4ea:	2203      	movs	r2, #3
  10d4ec:	7839      	ldrb	r1, [r7, #0]
  10d4ee:	4822      	ldr	r0, [pc, #136]	; (10d578 <_svfiprintf_r+0x1d8>)
  10d4f0:	f7fb fae2 	bl	108ab8 <memchr>
  10d4f4:	b140      	cbz	r0, 10d508 <_svfiprintf_r+0x168>
  10d4f6:	2340      	movs	r3, #64	; 0x40
  10d4f8:	ebcb 0000 	rsb	r0, r11, r0
  10d4fc:	fa03 f000 	lsl.w	r0, r3, r0
  10d500:	9b04      	ldr	r3, [sp, #16]
  10d502:	3701      	adds	r7, #1
  10d504:	4318      	orrs	r0, r3
  10d506:	9004      	str	r0, [sp, #16]
  10d508:	7839      	ldrb	r1, [r7, #0]
  10d50a:	2206      	movs	r2, #6
  10d50c:	481b      	ldr	r0, [pc, #108]	; (10d57c <_svfiprintf_r+0x1dc>)
  10d50e:	1c7e      	adds	r6, r7, #1
  10d510:	f88d 1028 	strb.w	r1, [sp, #40]	; 0x28
  10d514:	f7fb fad0 	bl	108ab8 <memchr>
  10d518:	b188      	cbz	r0, 10d53e <_svfiprintf_r+0x19e>
  10d51a:	4b19      	ldr	r3, [pc, #100]	; (10d580 <_svfiprintf_r+0x1e0>)
  10d51c:	b933      	cbnz	r3, 10d52c <_svfiprintf_r+0x18c>
  10d51e:	9b03      	ldr	r3, [sp, #12]
  10d520:	3307      	adds	r3, #7
  10d522:	f023 0307 	bic.w	r3, r3, #7
  10d526:	3308      	adds	r3, #8
  10d528:	9303      	str	r3, [sp, #12]
  10d52a:	e014      	b.n	10d556 <_svfiprintf_r+0x1b6>
  10d52c:	ab03      	add	r3, sp, #12
  10d52e:	9300      	str	r3, [sp, #0]
  10d530:	462a      	mov	r2, r5
  10d532:	4b14      	ldr	r3, [pc, #80]	; (10d584 <_svfiprintf_r+0x1e4>)
  10d534:	a904      	add	r1, sp, #16
  10d536:	4640      	mov	r0, r8
  10d538:	f7fb fd72 	bl	109020 <_printf_float>
  10d53c:	e007      	b.n	10d54e <_svfiprintf_r+0x1ae>
  10d53e:	ab03      	add	r3, sp, #12
  10d540:	9300      	str	r3, [sp, #0]
  10d542:	462a      	mov	r2, r5
  10d544:	4b0f      	ldr	r3, [pc, #60]	; (10d584 <_svfiprintf_r+0x1e4>)
  10d546:	a904      	add	r1, sp, #16
  10d548:	4640      	mov	r0, r8
  10d54a:	f7fc f815 	bl	109578 <_printf_i>
  10d54e:	f1b0 3fff 	cmp.w	r0, #4294967295
  10d552:	4682      	mov	r10, r0
  10d554:	d003      	beq.n	10d55e <_svfiprintf_r+0x1be>
  10d556:	9b09      	ldr	r3, [sp, #36]	; 0x24
  10d558:	4453      	add	r3, r10
  10d55a:	9309      	str	r3, [sp, #36]	; 0x24
  10d55c:	e742      	b.n	10d3e4 <_svfiprintf_r+0x44>
  10d55e:	89ab      	ldrh	r3, [r5, #12]
  10d560:	065b      	lsls	r3, r3, #25
  10d562:	d401      	bmi.n	10d568 <_svfiprintf_r+0x1c8>
  10d564:	9809      	ldr	r0, [sp, #36]	; 0x24
  10d566:	e001      	b.n	10d56c <_svfiprintf_r+0x1cc>
  10d568:	f04f 30ff 	mov.w	r0, #4294967295
  10d56c:	b01d      	add	sp, #116	; 0x74
  10d56e:	e8bd 8ff0 	ldmia.w	sp!, {r4, r5, r6, r7, r8, r9, r10, r11, pc}
  10d572:	bf00      	nop
  10d574:	0010e8ec 	.word	0x0010e8ec
  10d578:	0010e8f2 	.word	0x0010e8f2
  10d57c:	0010e8f6 	.word	0x0010e8f6
  10d580:	00109021 	.word	0x00109021
  10d584:	0010d2ef 	.word	0x0010d2ef

0010d588 <_sungetc_r>:
  10d588:	1c4b      	adds	r3, r1, #1
  10d58a:	b570      	push	{r4, r5, r6, lr}
  10d58c:	460e      	mov	r6, r1
  10d58e:	4614      	mov	r4, r2
  10d590:	d102      	bne.n	10d598 <_sungetc_r+0x10>
  10d592:	f04f 30ff 	mov.w	r0, #4294967295
  10d596:	bd70      	pop	{r4, r5, r6, pc}
  10d598:	8993      	ldrh	r3, [r2, #12]
  10d59a:	b2cd      	uxtb	r5, r1
  10d59c:	f023 0320 	bic.w	r3, r3, #32
  10d5a0:	8193      	strh	r3, [r2, #12]
  10d5a2:	6b53      	ldr	r3, [r2, #52]	; 0x34
  10d5a4:	6852      	ldr	r2, [r2, #4]
  10d5a6:	b183      	cbz	r3, 10d5ca <_sungetc_r+0x42>
  10d5a8:	6ba3      	ldr	r3, [r4, #56]	; 0x38
  10d5aa:	429a      	cmp	r2, r3
  10d5ac:	da07      	bge.n	10d5be <_sungetc_r+0x36>
  10d5ae:	6823      	ldr	r3, [r4, #0]
  10d5b0:	1e5a      	subs	r2, r3, #1
  10d5b2:	6022      	str	r2, [r4, #0]
  10d5b4:	f803 6c01 	strb.w	r6, [r3, #-1]
  10d5b8:	6863      	ldr	r3, [r4, #4]
  10d5ba:	3301      	adds	r3, #1
  10d5bc:	e01f      	b.n	10d5fe <_sungetc_r+0x76>
  10d5be:	4621      	mov	r1, r4
  10d5c0:	f7fd ff36 	bl	10b430 <__submore>
  10d5c4:	2800      	cmp	r0, #0
  10d5c6:	d0f2      	beq.n	10d5ae <_sungetc_r+0x26>
  10d5c8:	e7e3      	b.n	10d592 <_sungetc_r+0xa>
  10d5ca:	6921      	ldr	r1, [r4, #16]
  10d5cc:	6823      	ldr	r3, [r4, #0]
  10d5ce:	b151      	cbz	r1, 10d5e6 <_sungetc_r+0x5e>
  10d5d0:	4299      	cmp	r1, r3
  10d5d2:	d208      	bcs.n	10d5e6 <_sungetc_r+0x5e>
  10d5d4:	f813 1c01 	ldrb.w	r1, [r3, #-1]
  10d5d8:	428d      	cmp	r5, r1
  10d5da:	d104      	bne.n	10d5e6 <_sungetc_r+0x5e>
  10d5dc:	3b01      	subs	r3, #1
  10d5de:	3201      	adds	r2, #1
  10d5e0:	6023      	str	r3, [r4, #0]
  10d5e2:	6062      	str	r2, [r4, #4]
  10d5e4:	e00c      	b.n	10d600 <_sungetc_r+0x78>
  10d5e6:	63e3      	str	r3, [r4, #60]	; 0x3c
  10d5e8:	f104 0344 	add.w	r3, r4, #68	; 0x44
  10d5ec:	6363      	str	r3, [r4, #52]	; 0x34
  10d5ee:	2303      	movs	r3, #3
  10d5f0:	63a3      	str	r3, [r4, #56]	; 0x38
  10d5f2:	4623      	mov	r3, r4
  10d5f4:	6422      	str	r2, [r4, #64]	; 0x40
  10d5f6:	f803 6f46 	strb.w	r6, [r3, #70]!
  10d5fa:	6023      	str	r3, [r4, #0]
  10d5fc:	2301      	movs	r3, #1
  10d5fe:	6063      	str	r3, [r4, #4]
  10d600:	4628      	mov	r0, r5
  10d602:	bd70      	pop	{r4, r5, r6, pc}

0010d604 <__ssrefill_r>:
  10d604:	b510      	push	{r4, lr}
  10d606:	460c      	mov	r4, r1
  10d608:	6b49      	ldr	r1, [r1, #52]	; 0x34
  10d60a:	b169      	cbz	r1, 10d628 <__ssrefill_r+0x24>
  10d60c:	f104 0344 	add.w	r3, r4, #68	; 0x44
  10d610:	4299      	cmp	r1, r3
  10d612:	d001      	beq.n	10d618 <__ssrefill_r+0x14>
  10d614:	f7f9 fa2a 	bl	106a6c <__wrap__free_r>
  10d618:	6c23      	ldr	r3, [r4, #64]	; 0x40
  10d61a:	2000      	movs	r0, #0
  10d61c:	6360      	str	r0, [r4, #52]	; 0x34
  10d61e:	6063      	str	r3, [r4, #4]
  10d620:	b113      	cbz	r3, 10d628 <__ssrefill_r+0x24>
  10d622:	6be3      	ldr	r3, [r4, #60]	; 0x3c
  10d624:	6023      	str	r3, [r4, #0]
  10d626:	bd10      	pop	{r4, pc}
  10d628:	6923      	ldr	r3, [r4, #16]
  10d62a:	f04f 30ff 	mov.w	r0, #4294967295
  10d62e:	6023      	str	r3, [r4, #0]
  10d630:	2300      	movs	r3, #0
  10d632:	6063      	str	r3, [r4, #4]
  10d634:	89a3      	ldrh	r3, [r4, #12]
  10d636:	f043 0320 	orr.w	r3, r3, #32
  10d63a:	81a3      	strh	r3, [r4, #12]
  10d63c:	bd10      	pop	{r4, pc}
	...

0010d640 <__ssvfiscanf_r>:
  10d640:	e92d 4ff0 	stmdb	sp!, {r4, r5, r6, r7, r8, r9, r10, r11, lr}
  10d644:	f8df 9290 	ldr.w	r9, [pc, #656]	; 10d8d8 <__ssvfiscanf_r+0x298>
  10d648:	4607      	mov	r7, r0
  10d64a:	460c      	mov	r4, r1
  10d64c:	46ca      	mov	r10, r9
  10d64e:	f5ad 7d25 	sub.w	sp, sp, #660	; 0x294
  10d652:	9301      	str	r3, [sp, #4]
  10d654:	2300      	movs	r3, #0
  10d656:	9346      	str	r3, [sp, #280]	; 0x118
  10d658:	9347      	str	r3, [sp, #284]	; 0x11c
  10d65a:	4b9b      	ldr	r3, [pc, #620]	; (10d8c8 <__ssvfiscanf_r+0x288>)
  10d65c:	f10d 080c 	add.w	r8, sp, #12
  10d660:	93a2      	str	r3, [sp, #648]	; 0x288
  10d662:	4b9a      	ldr	r3, [pc, #616]	; (10d8cc <__ssvfiscanf_r+0x28c>)
  10d664:	f8df b268 	ldr.w	r11, [pc, #616]	; 10d8d0 <__ssvfiscanf_r+0x290>
  10d668:	f8cd 8120 	str.w	r8, [sp, #288]	; 0x120
  10d66c:	93a3      	str	r3, [sp, #652]	; 0x28c
  10d66e:	7815      	ldrb	r5, [r2, #0]
  10d670:	2d00      	cmp	r5, #0
  10d672:	f000 8120 	beq.w	10d8b6 <__ssvfiscanf_r+0x276>
  10d676:	f8d9 3000 	ldr.w	r3, [r9]
  10d67a:	442b      	add	r3, r5
  10d67c:	785b      	ldrb	r3, [r3, #1]
  10d67e:	f003 0308 	and.w	r3, r3, #8
  10d682:	f003 01ff 	and.w	r1, r3, #255	; 0xff
  10d686:	b1f3      	cbz	r3, 10d6c6 <__ssvfiscanf_r+0x86>
  10d688:	6863      	ldr	r3, [r4, #4]
  10d68a:	2b00      	cmp	r3, #0
  10d68c:	dd10      	ble.n	10d6b0 <__ssvfiscanf_r+0x70>
  10d68e:	6823      	ldr	r3, [r4, #0]
  10d690:	f8da 0000 	ldr.w	r0, [r10]
  10d694:	7819      	ldrb	r1, [r3, #0]
  10d696:	4401      	add	r1, r0
  10d698:	7849      	ldrb	r1, [r1, #1]
  10d69a:	070d      	lsls	r5, r1, #28
  10d69c:	d510      	bpl.n	10d6c0 <__ssvfiscanf_r+0x80>
  10d69e:	9947      	ldr	r1, [sp, #284]	; 0x11c
  10d6a0:	3301      	adds	r3, #1
  10d6a2:	3101      	adds	r1, #1
  10d6a4:	9147      	str	r1, [sp, #284]	; 0x11c
  10d6a6:	6861      	ldr	r1, [r4, #4]
  10d6a8:	6023      	str	r3, [r4, #0]
  10d6aa:	3901      	subs	r1, #1
  10d6ac:	6061      	str	r1, [r4, #4]
  10d6ae:	e7eb      	b.n	10d688 <__ssvfiscanf_r+0x48>
  10d6b0:	9ba3      	ldr	r3, [sp, #652]	; 0x28c
  10d6b2:	4621      	mov	r1, r4
  10d6b4:	4638      	mov	r0, r7
  10d6b6:	9200      	str	r2, [sp, #0]
  10d6b8:	4798      	blx	r3
  10d6ba:	9a00      	ldr	r2, [sp, #0]
  10d6bc:	2800      	cmp	r0, #0
  10d6be:	d0e6      	beq.n	10d68e <__ssvfiscanf_r+0x4e>
  10d6c0:	1c56      	adds	r6, r2, #1
  10d6c2:	4632      	mov	r2, r6
  10d6c4:	e7d3      	b.n	10d66e <__ssvfiscanf_r+0x2e>
  10d6c6:	2d25      	cmp	r5, #37	; 0x25
  10d6c8:	f102 0601 	add.w	r6, r2, #1
  10d6cc:	d14b      	bne.n	10d766 <__ssvfiscanf_r+0x126>
  10d6ce:	9143      	str	r1, [sp, #268]	; 0x10c
  10d6d0:	9145      	str	r1, [sp, #276]	; 0x114
  10d6d2:	7853      	ldrb	r3, [r2, #1]
  10d6d4:	2b2a      	cmp	r3, #42	; 0x2a
  10d6d6:	bf02      	ittt	eq
  10d6d8:	2310      	moveq	r3, #16
  10d6da:	1c96      	addeq	r6, r2, #2
  10d6dc:	9343      	streq	r3, [sp, #268]	; 0x10c
  10d6de:	220a      	movs	r2, #10
  10d6e0:	7831      	ldrb	r1, [r6, #0]
  10d6e2:	4635      	mov	r5, r6
  10d6e4:	f1a1 0330 	sub.w	r3, r1, #48	; 0x30
  10d6e8:	2b09      	cmp	r3, #9
  10d6ea:	f106 0601 	add.w	r6, r6, #1
  10d6ee:	d805      	bhi.n	10d6fc <__ssvfiscanf_r+0xbc>
  10d6f0:	9b45      	ldr	r3, [sp, #276]	; 0x114
  10d6f2:	fb02 1303 	mla	r3, r2, r3, r1
  10d6f6:	3b30      	subs	r3, #48	; 0x30
  10d6f8:	9345      	str	r3, [sp, #276]	; 0x114
  10d6fa:	e7f1      	b.n	10d6e0 <__ssvfiscanf_r+0xa0>
  10d6fc:	2203      	movs	r2, #3
  10d6fe:	4874      	ldr	r0, [pc, #464]	; (10d8d0 <__ssvfiscanf_r+0x290>)
  10d700:	f7fb f9da 	bl	108ab8 <memchr>
  10d704:	b140      	cbz	r0, 10d718 <__ssvfiscanf_r+0xd8>
  10d706:	4635      	mov	r5, r6
  10d708:	2301      	movs	r3, #1
  10d70a:	ebcb 0000 	rsb	r0, r11, r0
  10d70e:	fa03 f000 	lsl.w	r0, r3, r0
  10d712:	9b43      	ldr	r3, [sp, #268]	; 0x10c
  10d714:	4303      	orrs	r3, r0
  10d716:	9343      	str	r3, [sp, #268]	; 0x10c
  10d718:	1c6e      	adds	r6, r5, #1
  10d71a:	782d      	ldrb	r5, [r5, #0]
  10d71c:	2d67      	cmp	r5, #103	; 0x67
  10d71e:	d80f      	bhi.n	10d740 <__ssvfiscanf_r+0x100>
  10d720:	2d65      	cmp	r5, #101	; 0x65
  10d722:	d278      	bcs.n	10d816 <__ssvfiscanf_r+0x1d6>
  10d724:	2d5b      	cmp	r5, #91	; 0x5b
  10d726:	d054      	beq.n	10d7d2 <__ssvfiscanf_r+0x192>
  10d728:	d805      	bhi.n	10d736 <__ssvfiscanf_r+0xf6>
  10d72a:	2d00      	cmp	r5, #0
  10d72c:	f000 80c5 	beq.w	10d8ba <__ssvfiscanf_r+0x27a>
  10d730:	2d25      	cmp	r5, #37	; 0x25
  10d732:	d018      	beq.n	10d766 <__ssvfiscanf_r+0x126>
  10d734:	e071      	b.n	10d81a <__ssvfiscanf_r+0x1da>
  10d736:	2d63      	cmp	r5, #99	; 0x63
  10d738:	d057      	beq.n	10d7ea <__ssvfiscanf_r+0x1aa>
  10d73a:	2d64      	cmp	r5, #100	; 0x64
  10d73c:	d03f      	beq.n	10d7be <__ssvfiscanf_r+0x17e>
  10d73e:	e06c      	b.n	10d81a <__ssvfiscanf_r+0x1da>
  10d740:	2d70      	cmp	r5, #112	; 0x70
  10d742:	d032      	beq.n	10d7aa <__ssvfiscanf_r+0x16a>
  10d744:	d807      	bhi.n	10d756 <__ssvfiscanf_r+0x116>
  10d746:	2d6e      	cmp	r5, #110	; 0x6e
  10d748:	d055      	beq.n	10d7f6 <__ssvfiscanf_r+0x1b6>
  10d74a:	d83a      	bhi.n	10d7c2 <__ssvfiscanf_r+0x182>
  10d74c:	2d69      	cmp	r5, #105	; 0x69
  10d74e:	d164      	bne.n	10d81a <__ssvfiscanf_r+0x1da>
  10d750:	2300      	movs	r3, #0
  10d752:	9344      	str	r3, [sp, #272]	; 0x110
  10d754:	e03b      	b.n	10d7ce <__ssvfiscanf_r+0x18e>
  10d756:	2d75      	cmp	r5, #117	; 0x75
  10d758:	d031      	beq.n	10d7be <__ssvfiscanf_r+0x17e>
  10d75a:	2d78      	cmp	r5, #120	; 0x78
  10d75c:	d029      	beq.n	10d7b2 <__ssvfiscanf_r+0x172>
  10d75e:	2d73      	cmp	r5, #115	; 0x73
  10d760:	d15b      	bne.n	10d81a <__ssvfiscanf_r+0x1da>
  10d762:	2302      	movs	r3, #2
  10d764:	e03f      	b.n	10d7e6 <__ssvfiscanf_r+0x1a6>
  10d766:	6863      	ldr	r3, [r4, #4]
  10d768:	2b00      	cmp	r3, #0
  10d76a:	dd0d      	ble.n	10d788 <__ssvfiscanf_r+0x148>
  10d76c:	6823      	ldr	r3, [r4, #0]
  10d76e:	781a      	ldrb	r2, [r3, #0]
  10d770:	4295      	cmp	r5, r2
  10d772:	f040 80a0 	bne.w	10d8b6 <__ssvfiscanf_r+0x276>
  10d776:	3301      	adds	r3, #1
  10d778:	6862      	ldr	r2, [r4, #4]
  10d77a:	6023      	str	r3, [r4, #0]
  10d77c:	9b47      	ldr	r3, [sp, #284]	; 0x11c
  10d77e:	3a01      	subs	r2, #1
  10d780:	3301      	adds	r3, #1
  10d782:	6062      	str	r2, [r4, #4]
  10d784:	9347      	str	r3, [sp, #284]	; 0x11c
  10d786:	e79c      	b.n	10d6c2 <__ssvfiscanf_r+0x82>
  10d788:	9ba3      	ldr	r3, [sp, #652]	; 0x28c
  10d78a:	4621      	mov	r1, r4
  10d78c:	4638      	mov	r0, r7
  10d78e:	4798      	blx	r3
  10d790:	2800      	cmp	r0, #0
  10d792:	d0eb      	beq.n	10d76c <__ssvfiscanf_r+0x12c>
  10d794:	9846      	ldr	r0, [sp, #280]	; 0x118
  10d796:	2800      	cmp	r0, #0
  10d798:	f000 808f 	beq.w	10d8ba <__ssvfiscanf_r+0x27a>
  10d79c:	89a3      	ldrh	r3, [r4, #12]
  10d79e:	f013 0f40 	tst.w	r3, #64	; 0x40
  10d7a2:	bf18      	it	ne
  10d7a4:	f04f 30ff 	movne.w	r0, #4294967295
  10d7a8:	e089      	b.n	10d8be <__ssvfiscanf_r+0x27e>
  10d7aa:	9b43      	ldr	r3, [sp, #268]	; 0x10c
  10d7ac:	f043 0320 	orr.w	r3, r3, #32
  10d7b0:	9343      	str	r3, [sp, #268]	; 0x10c
  10d7b2:	9b43      	ldr	r3, [sp, #268]	; 0x10c
  10d7b4:	f443 7300 	orr.w	r3, r3, #512	; 0x200
  10d7b8:	9343      	str	r3, [sp, #268]	; 0x10c
  10d7ba:	2310      	movs	r3, #16
  10d7bc:	e002      	b.n	10d7c4 <__ssvfiscanf_r+0x184>
  10d7be:	230a      	movs	r3, #10
  10d7c0:	e000      	b.n	10d7c4 <__ssvfiscanf_r+0x184>
  10d7c2:	2308      	movs	r3, #8
  10d7c4:	2d6e      	cmp	r5, #110	; 0x6e
  10d7c6:	9344      	str	r3, [sp, #272]	; 0x110
  10d7c8:	dd01      	ble.n	10d7ce <__ssvfiscanf_r+0x18e>
  10d7ca:	2304      	movs	r3, #4
  10d7cc:	e00b      	b.n	10d7e6 <__ssvfiscanf_r+0x1a6>
  10d7ce:	2303      	movs	r3, #3
  10d7d0:	e009      	b.n	10d7e6 <__ssvfiscanf_r+0x1a6>
  10d7d2:	4631      	mov	r1, r6
  10d7d4:	4640      	mov	r0, r8
  10d7d6:	f7fc fd7d 	bl	10a2d4 <__sccl>
  10d7da:	4606      	mov	r6, r0
  10d7dc:	9b43      	ldr	r3, [sp, #268]	; 0x10c
  10d7de:	f043 0340 	orr.w	r3, r3, #64	; 0x40
  10d7e2:	9343      	str	r3, [sp, #268]	; 0x10c
  10d7e4:	2301      	movs	r3, #1
  10d7e6:	9349      	str	r3, [sp, #292]	; 0x124
  10d7e8:	e01b      	b.n	10d822 <__ssvfiscanf_r+0x1e2>
  10d7ea:	9b43      	ldr	r3, [sp, #268]	; 0x10c
  10d7ec:	f043 0340 	orr.w	r3, r3, #64	; 0x40
  10d7f0:	9343      	str	r3, [sp, #268]	; 0x10c
  10d7f2:	2300      	movs	r3, #0
  10d7f4:	e7f7      	b.n	10d7e6 <__ssvfiscanf_r+0x1a6>
  10d7f6:	9a43      	ldr	r2, [sp, #268]	; 0x10c
  10d7f8:	06d0      	lsls	r0, r2, #27
  10d7fa:	f53f af62 	bmi.w	10d6c2 <__ssvfiscanf_r+0x82>
  10d7fe:	f012 0f01 	tst.w	r2, #1
  10d802:	9a01      	ldr	r2, [sp, #4]
  10d804:	9b47      	ldr	r3, [sp, #284]	; 0x11c
  10d806:	f102 0104 	add.w	r1, r2, #4
  10d80a:	9101      	str	r1, [sp, #4]
  10d80c:	6812      	ldr	r2, [r2, #0]
  10d80e:	bf14      	ite	ne
  10d810:	8013      	strhne	r3, [r2, #0]
  10d812:	6013      	streq	r3, [r2, #0]
  10d814:	e755      	b.n	10d6c2 <__ssvfiscanf_r+0x82>
  10d816:	2305      	movs	r3, #5
  10d818:	e7e5      	b.n	10d7e6 <__ssvfiscanf_r+0x1a6>
  10d81a:	2303      	movs	r3, #3
  10d81c:	9349      	str	r3, [sp, #292]	; 0x124
  10d81e:	230a      	movs	r3, #10
  10d820:	9344      	str	r3, [sp, #272]	; 0x110
  10d822:	6863      	ldr	r3, [r4, #4]
  10d824:	2b00      	cmp	r3, #0
  10d826:	dd03      	ble.n	10d830 <__ssvfiscanf_r+0x1f0>
  10d828:	9b43      	ldr	r3, [sp, #268]	; 0x10c
  10d82a:	0659      	lsls	r1, r3, #25
  10d82c:	d511      	bpl.n	10d852 <__ssvfiscanf_r+0x212>
  10d82e:	e018      	b.n	10d862 <__ssvfiscanf_r+0x222>
  10d830:	9ba3      	ldr	r3, [sp, #652]	; 0x28c
  10d832:	4621      	mov	r1, r4
  10d834:	4638      	mov	r0, r7
  10d836:	4798      	blx	r3
  10d838:	2800      	cmp	r0, #0
  10d83a:	d0f5      	beq.n	10d828 <__ssvfiscanf_r+0x1e8>
  10d83c:	e7aa      	b.n	10d794 <__ssvfiscanf_r+0x154>
  10d83e:	9a47      	ldr	r2, [sp, #284]	; 0x11c
  10d840:	3201      	adds	r2, #1
  10d842:	9247      	str	r2, [sp, #284]	; 0x11c
  10d844:	6862      	ldr	r2, [r4, #4]
  10d846:	3a01      	subs	r2, #1
  10d848:	2a00      	cmp	r2, #0
  10d84a:	6062      	str	r2, [r4, #4]
  10d84c:	dd13      	ble.n	10d876 <__ssvfiscanf_r+0x236>
  10d84e:	3301      	adds	r3, #1
  10d850:	6023      	str	r3, [r4, #0]
  10d852:	6823      	ldr	r3, [r4, #0]
  10d854:	f8da 1000 	ldr.w	r1, [r10]
  10d858:	781a      	ldrb	r2, [r3, #0]
  10d85a:	440a      	add	r2, r1
  10d85c:	7852      	ldrb	r2, [r2, #1]
  10d85e:	0712      	lsls	r2, r2, #28
  10d860:	d4ed      	bmi.n	10d83e <__ssvfiscanf_r+0x1fe>
  10d862:	9b49      	ldr	r3, [sp, #292]	; 0x124
  10d864:	2b02      	cmp	r3, #2
  10d866:	dc0d      	bgt.n	10d884 <__ssvfiscanf_r+0x244>
  10d868:	ab01      	add	r3, sp, #4
  10d86a:	4622      	mov	r2, r4
  10d86c:	a943      	add	r1, sp, #268	; 0x10c
  10d86e:	4638      	mov	r0, r7
  10d870:	f7fc fafe 	bl	109e70 <_scanf_chars>
  10d874:	e019      	b.n	10d8aa <__ssvfiscanf_r+0x26a>
  10d876:	9ba3      	ldr	r3, [sp, #652]	; 0x28c
  10d878:	4621      	mov	r1, r4
  10d87a:	4638      	mov	r0, r7
  10d87c:	4798      	blx	r3
  10d87e:	2800      	cmp	r0, #0
  10d880:	d0e7      	beq.n	10d852 <__ssvfiscanf_r+0x212>
  10d882:	e787      	b.n	10d794 <__ssvfiscanf_r+0x154>
  10d884:	2b04      	cmp	r3, #4
  10d886:	dc06      	bgt.n	10d896 <__ssvfiscanf_r+0x256>
  10d888:	ab01      	add	r3, sp, #4
  10d88a:	4622      	mov	r2, r4
  10d88c:	a943      	add	r1, sp, #268	; 0x10c
  10d88e:	4638      	mov	r0, r7
  10d890:	f7fc fb54 	bl	109f3c <_scanf_i>
  10d894:	e009      	b.n	10d8aa <__ssvfiscanf_r+0x26a>
  10d896:	4b0f      	ldr	r3, [pc, #60]	; (10d8d4 <__ssvfiscanf_r+0x294>)
  10d898:	2b00      	cmp	r3, #0
  10d89a:	f43f af12 	beq.w	10d6c2 <__ssvfiscanf_r+0x82>
  10d89e:	ab01      	add	r3, sp, #4
  10d8a0:	4622      	mov	r2, r4
  10d8a2:	a943      	add	r1, sp, #268	; 0x10c
  10d8a4:	4638      	mov	r0, r7
  10d8a6:	f7fc f907 	bl	109ab8 <_scanf_float>
  10d8aa:	2801      	cmp	r0, #1
  10d8ac:	d003      	beq.n	10d8b6 <__ssvfiscanf_r+0x276>
  10d8ae:	2802      	cmp	r0, #2
  10d8b0:	f47f af07 	bne.w	10d6c2 <__ssvfiscanf_r+0x82>
  10d8b4:	e76e      	b.n	10d794 <__ssvfiscanf_r+0x154>
  10d8b6:	9846      	ldr	r0, [sp, #280]	; 0x118
  10d8b8:	e001      	b.n	10d8be <__ssvfiscanf_r+0x27e>
  10d8ba:	f04f 30ff 	mov.w	r0, #4294967295
  10d8be:	f50d 7d25 	add.w	sp, sp, #660	; 0x294
  10d8c2:	e8bd 8ff0 	ldmia.w	sp!, {r4, r5, r6, r7, r8, r9, r10, r11, pc}
  10d8c6:	bf00      	nop
  10d8c8:	0010d589 	.word	0x0010d589
  10d8cc:	0010d605 	.word	0x0010d605
  10d8d0:	0010e8f2 	.word	0x0010e8f2
  10d8d4:	00109ab9 	.word	0x00109ab9
  10d8d8:	3fff4160 	.word	0x3fff4160

0010d8dc <_read_r>:
  10d8dc:	b538      	push	{r3, r4, r5, lr}
  10d8de:	4c07      	ldr	r4, [pc, #28]	; (10d8fc <_read_r+0x20>)
  10d8e0:	4605      	mov	r5, r0
  10d8e2:	4608      	mov	r0, r1
  10d8e4:	4611      	mov	r1, r2
  10d8e6:	2200      	movs	r2, #0
  10d8e8:	6022      	str	r2, [r4, #0]
  10d8ea:	461a      	mov	r2, r3
  10d8ec:	f7f9 f94a 	bl	106b84 <_read>
  10d8f0:	1c43      	adds	r3, r0, #1
  10d8f2:	d102      	bne.n	10d8fa <_read_r+0x1e>
  10d8f4:	6823      	ldr	r3, [r4, #0]
  10d8f6:	b103      	cbz	r3, 10d8fa <_read_r+0x1e>
  10d8f8:	602b      	str	r3, [r5, #0]
  10d8fa:	bd38      	pop	{r3, r4, r5, pc}
  10d8fc:	3fff60f0 	.word	0x3fff60f0

0010d900 <__aeabi_d2iz>:
  10d900:	ea4f 0241 	mov.w	r2, r1, lsl #1
  10d904:	f512 1200 	adds.w	r2, r2, #2097152	; 0x200000
  10d908:	d215      	bcs.n	10d936 <__aeabi_d2iz+0x36>
  10d90a:	d511      	bpl.n	10d930 <__aeabi_d2iz+0x30>
  10d90c:	f46f 7378 	mvn.w	r3, #992	; 0x3e0
  10d910:	ebb3 5262 	subs.w	r2, r3, r2, asr #21
  10d914:	d912      	bls.n	10d93c <__aeabi_d2iz+0x3c>
  10d916:	ea4f 23c1 	mov.w	r3, r1, lsl #11
  10d91a:	f043 4300 	orr.w	r3, r3, #2147483648	; 0x80000000
  10d91e:	ea43 5350 	orr.w	r3, r3, r0, lsr #21
  10d922:	f011 4f00 	tst.w	r1, #2147483648	; 0x80000000
  10d926:	fa23 f002 	lsr.w	r0, r3, r2
  10d92a:	bf18      	it	ne
  10d92c:	4240      	negne	r0, r0
  10d92e:	4770      	bx	lr
  10d930:	f04f 0000 	mov.w	r0, #0
  10d934:	4770      	bx	lr
  10d936:	ea50 3001 	orrs.w	r0, r0, r1, lsl #12
  10d93a:	d105      	bne.n	10d948 <__aeabi_d2iz+0x48>
  10d93c:	f011 4000 	ands.w	r0, r1, #2147483648	; 0x80000000
  10d940:	bf08      	it	eq
  10d942:	f06f 4000 	mvneq.w	r0, #2147483648	; 0x80000000
  10d946:	4770      	bx	lr
  10d948:	f04f 0000 	mov.w	r0, #0
  10d94c:	4770      	bx	lr
  10d94e:	bf00      	nop

0010d950 <__aeabi_d2f>:
  10d950:	ea4f 0241 	mov.w	r2, r1, lsl #1
  10d954:	f1b2 43e0 	subs.w	r3, r2, #1879048192	; 0x70000000
  10d958:	bf24      	itt	cs
  10d95a:	f5b3 1c00 	subscs.w	r12, r3, #2097152	; 0x200000
  10d95e:	f1dc 5cfe 	rsbscs	r12, r12, #532676608	; 0x1fc00000
  10d962:	d90d      	bls.n	10d980 <__aeabi_d2f+0x30>
  10d964:	f001 4c00 	and.w	r12, r1, #2147483648	; 0x80000000
  10d968:	ea4f 02c0 	mov.w	r2, r0, lsl #3
  10d96c:	ea4c 7050 	orr.w	r0, r12, r0, lsr #29
  10d970:	f1b2 4f00 	cmp.w	r2, #2147483648	; 0x80000000
  10d974:	eb40 0083 	adc.w	r0, r0, r3, lsl #2
  10d978:	bf08      	it	eq
  10d97a:	f020 0001 	biceq.w	r0, r0, #1
  10d97e:	4770      	bx	lr
  10d980:	f011 4f80 	tst.w	r1, #1073741824	; 0x40000000
  10d984:	d121      	bne.n	10d9ca <__aeabi_d2f+0x7a>
  10d986:	f113 7238 	adds.w	r2, r3, #48234496	; 0x2e00000
  10d98a:	bfbc      	itt	lt
  10d98c:	f001 4000 	andlt.w	r0, r1, #2147483648	; 0x80000000
  10d990:	4770      	bxlt	lr
  10d992:	f441 1180 	orr.w	r1, r1, #1048576	; 0x100000
  10d996:	ea4f 5252 	mov.w	r2, r2, lsr #21
  10d99a:	f1c2 0218 	rsb	r2, r2, #24
  10d99e:	f1c2 0c20 	rsb	r12, r2, #32
  10d9a2:	fa10 f30c 	lsls.w	r3, r0, r12
  10d9a6:	fa20 f002 	lsr.w	r0, r0, r2
  10d9aa:	bf18      	it	ne
  10d9ac:	f040 0001 	orrne.w	r0, r0, #1
  10d9b0:	ea4f 23c1 	mov.w	r3, r1, lsl #11
  10d9b4:	ea4f 23d3 	mov.w	r3, r3, lsr #11
  10d9b8:	fa03 fc0c 	lsl.w	r12, r3, r12
  10d9bc:	ea40 000c 	orr.w	r0, r0, r12
  10d9c0:	fa23 f302 	lsr.w	r3, r3, r2
  10d9c4:	ea4f 0343 	mov.w	r3, r3, lsl #1
  10d9c8:	e7cc      	b.n	10d964 <__aeabi_d2f+0x14>
  10d9ca:	ea7f 5362 	mvns.w	r3, r2, asr #21
  10d9ce:	d107      	bne.n	10d9e0 <__aeabi_d2f+0x90>
  10d9d0:	ea50 3301 	orrs.w	r3, r0, r1, lsl #12
  10d9d4:	bf1e      	ittt	ne
  10d9d6:	f04f 40fe 	movne.w	r0, #2130706432	; 0x7f000000
  10d9da:	f440 0040 	orrne.w	r0, r0, #12582912	; 0xc00000
  10d9de:	4770      	bxne	lr
  10d9e0:	f001 4000 	and.w	r0, r1, #2147483648	; 0x80000000
  10d9e4:	f040 40fe 	orr.w	r0, r0, #2130706432	; 0x7f000000
  10d9e8:	f440 0000 	orr.w	r0, r0, #8388608	; 0x800000
  10d9ec:	4770      	bx	lr
  10d9ee:	bf00      	nop

0010d9f0 <_init>:
  10d9f0:	b5f8      	push	{r3, r4, r5, r6, r7, lr}
  10d9f2:	bf00      	nop
  10d9f4:	bcf8      	pop	{r3, r4, r5, r6, r7}
  10d9f6:	bc08      	pop	{r3}
  10d9f8:	469e      	mov	lr, r3
  10d9fa:	4770      	bx	lr

0010d9fc <_fini>:
  10d9fc:	b5f8      	push	{r3, r4, r5, r6, r7, lr}
  10d9fe:	bf00      	nop
  10da00:	bcf8      	pop	{r3, r4, r5, r6, r7}
  10da02:	bc08      	pop	{r3}
  10da04:	469e      	mov	lr, r3
  10da06:	4770      	bx	lr

0010da08 <void mbed::Callback<void ()>::generate<void (*)()>(void (* const&)())::ops>:
  10da08:	2135 0010 2139 0010 2141 0010 0021 520a     5!..9!..A!..!..R
  10da18:	6365 7669 2065 6973 676e 6c61 000a 7325     ecive singal..%s
  10da28:	0a00 3e2d 0020 7325 0a0d 0a00 4509 4843     ..-> .%s.....ECH
  10da38:	204f 3e2d 5b20 7325 0a5d 4200 616c 6b6e     O -> [%s]..Blank
  10da48:	7250 6a6f 6365 0074 2e2e 502f 4143 3639     Project.../PCA96
  10da58:	3535 5f45 4f49 5845 2f50 4350 3941 3536     55E_IOEXP/PCA965
  10da68:	4535 495f 454f 5058 632e 7070 2800 6970     5E_IOEXP.cpp.(pi
  10da78:	206e 3d3e 3020 2029 2626 2820 6970 206e     n >= 0) && (pin 
  10da88:	3d3c 3720 0029 0000                         <= 7)...

0010da90 <lp_interface>:
  10da90:	53a7 0010 53ab 0010 53b7 0010 53bb 0010     .S...S...S...S..
  10daa0:	53b3 0010                                   .S..

0010daa4 <lp_data>:
  10daa4:	da90 0010 46f8 3fff 6f63 6c75 2064 6f6e     .....F.?could no
  10dab4:	2074 6970 6f6e 7475 7000 6e69 616d 2070     t pinout.pinmap 
  10dac4:	696d 2d73 616d 6374 0068 6970 6d6e 7061     mis-match.pinmap
  10dad4:	6e20 746f 6620 756f 646e 6620 726f 7020      not found for p
  10dae4:	7265 7069 6568 6172 006c 6970 6d6e 7061     eripheral.pinmap
  10daf4:	6e20 746f 6620 756f 646e 6620 726f 6620      not found for f
  10db04:	6e75 7463 6f69 006e                         unction.

0010db0c <us_interface>:
  10db0c:	55fd 0010 560d 0010 56b5 0010 56c5 0010     .U...V...V...V..
  10db1c:	56d1 0010                                   .V..

0010db20 <us_data>:
  10db20:	db0c 0010 4710 3fff 626d 6465 6120 7373     .....G.?mbed ass
  10db30:	7265 6174 6974 6e6f 6620 6961 656c 3a64     ertation failed:
  10db40:	2520 2c73 6620 6c69 3a65 2520 2c73 6c20      %s, file: %s, l
  10db50:	6e69 2065 6425 0a20 2e00 2f2e 2e2e 652f     ine %d ..../../e
  10db60:	7478 7265 616e 2f6c 626d 6465 6f2d 2f73     xternal/mbed-os/
  10db70:	6c70 7461 6f66 6d72 6d2f 6562 5f64 7263     platform/mbed_cr
  10db80:	7469 6369 6c61 632e 6900 746e 7265 7572     itical.c.interru
  10db90:	7470 655f 616e 6c62 5f65 6f63 6e75 6574     pt_enable_counte
  10dba0:	2072 203c 4955 544e 3233 4d5f 5841 6900     r < UINT32_MAX.i
  10dbb0:	746e 7265 7572 7470 5f73 6964 6173 6c62     nterrupts_disabl
  10dbc0:	6465 7300 6e69 6c67 7465 6e6f 6d5f 7475     ed.singleton_mut
  10dbd0:	7865 6d00 6c61 6f6c 5f63 756d 6574 0078     ex.malloc_mutex.
  10dbe0:	6e65 5f76 756d 6574 0078 616d 6e69 745f     env_mutex.main_t
  10dbf0:	7268 6165 0064 7250 2065 616d 6e69 7420     hread.Pre main t
  10dc00:	7268 6165 2064 6f6e 2074 7263 6165 6574     hread not create
  10dc10:	0064 4d43 4953 2d53 5452 534f 6520 7272     d.CMSIS-RTOS err
  10dc20:	726f 203a 7453 6361 206b 6e75 6564 6672     or: Stack underf
  10dc30:	6f6c 2077 7328 6174 7574 3a73 3020 2578     low (status: 0x%
  10dc40:	2c58 7420 7361 206b 4449 203a 7830 5825     X, task ID: 0x%X
  10dc50:	202c 6174 6b73 6e20 6d61 3a65 2520 2973     , task name: %s)
  10dc60:	0d0a 4300 534d 5349 522d 4f54 2053 7265     ...CMSIS-RTOS er
  10dc70:	6f72 3a72 4920 5253 5120 6575 6575 6f20     ror: ISR Queue o
  10dc80:	6576 6672 6f6c 2077 7328 6174 7574 3a73     verflow (status:
  10dc90:	3020 2578 2c58 7420 7361 206b 4449 203a      0x%X, task ID: 
  10dca0:	7830 5825 202c 626f 656a 7463 4920 3a44     0x%X, object ID:
  10dcb0:	3020 2578 2958 0d0a 4300 534d 5349 522d      0x%X)...CMSIS-R
  10dcc0:	4f54 2053 7265 6f72 3a72 5520 6573 2072     TOS error: User 
  10dcd0:	6954 656d 2072 6143 6c6c 6162 6b63 5120     Timer Callback Q
  10dce0:	6575 6575 6f20 6576 6672 6f6c 2077 7328     ueue overflow (s
  10dcf0:	6174 7574 3a73 3020 2578 2c58 7420 7361     tatus: 0x%X, tas
  10dd00:	206b 4449 203a 7830 5825 202c 6974 656d     k ID: 0x%X, time
  10dd10:	2072 4449 203a 7830 5825 0a29 000d 4d43     r ID: 0x%X)...CM
  10dd20:	4953 2d53 5452 534f 6520 7272 726f 203a     SIS-RTOS error: 
  10dd30:	5453 2044 2f43 2b43 202b 696c 7262 7261     STD C/C++ librar
  10dd40:	2079 696c 7362 6170 6563 6e20 746f 6120     y libspace not a
  10dd50:	6176 6c69 6261 656c 2820 7473 7461 7375     vailable (status
  10dd60:	203a 7830 5825 202c 6174 6b73 4920 3a44     : 0x%X, task ID:
  10dd70:	3020 2578 2958 0d0a 4300 534d 5349 522d      0x%X)...CMSIS-R
  10dd80:	4f54 2053 7265 6f72 3a72 5320 4454 4320     TOS error: STD C
  10dd90:	432f 2b2b 6c20 6269 6172 7972 6d20 7475     /C++ library mut
  10dda0:	7865 6920 696e 6974 6c61 7a69 7461 6f69     ex initializatio
  10ddb0:	206e 6166 6c69 6465 2820 7473 7461 7375     n failed (status
  10ddc0:	203a 7830 5825 202c 6174 6b73 4920 3a44     : 0x%X, task ID:
  10ddd0:	3020 2578 2958 0d0a 4300 534d 5349 522d      0x%X)...CMSIS-R
  10dde0:	4f54 2053 7265 6f72 3a72 5520 6b6e 6f6e     TOS error: Unkno
  10ddf0:	6e77 2820 7473 7461 7375 203a 7830 5825     wn (status: 0x%X
  10de00:	202c 6174 6b73 4920 3a44 3020 2578 2958     , task ID: 0x%X)
  10de10:	0d0a 5200 5854 5620 2e35 2e31 0031 0000     ...RTX V5.1.1...

0010de20 <os_cb_sections>:
	...

0010de58 <osRtxConfig>:
  10de58:	0007 0000 03e8 0000 0005 0000 4738 3fff     ............8G.?
  10de68:	0010 0000 0000 0000 0000 0000 0000 0000     ................
	...
  10deac:	1000 0000 dec0 0010 dee8 0010 df0c 0010     ................
  10debc:	0004 0000                                   ....

0010dec0 <os_idle_thread_attr>:
	...
  10dec8:	4c48 3fff 0048 0000 4b00 3fff 0100 0000     HL.?H....K.?....
  10ded8:	0001 0000 0000 0000 0000 0000               ............

0010dee4 <osRtxUserSVC>:
  10dee4:	0000 0000                                   ....

0010dee8 <os_timer_thread_attr>:
	...
  10def0:	4c00 3fff 0048 0000 4800 3fff 0300 0000     .L.?H....H.?....
  10df00:	0028 0000 0000 0000 0000 0000               (...........

0010df0c <os_timer_mq_attr>:
	...
  10df14:	4778 3fff 0034 0000 47ac 3fff 0050 0000     xG.?4....G.?P...
  10df24:	2220 2439 2826 2e2a 3230 2e34 2f2e 2e2e      "9$&(*.024../..
  10df34:	652f 7478 7265 616e 2f6c 626d 6465 6f2d     /external/mbed-o
  10df44:	2f73 6174 6772 7465 2f73 4154 4752 5445     s/targets/TARGET
  10df54:	4f5f 534e 4d45 2f49 4154 4752 5445 4e5f     _ONSEMI/TARGET_N
  10df64:	5343 3633 3135 2f30 636e 3373 3536 3031     CS36510/ncs36510
  10df74:	695f 6332 632e 2800 6e69 2974 626f 2d6a     _i2c.c.(int)obj-
  10df84:	6d3e 6d65 6162 6573 2120 203d 434e 2e00     >membase != NC..
  10df94:	2f2e 2e2e 652f 7478 7265 616e 2f6c 626d     ./../external/mb
  10dfa4:	6465 6f2d 2f73 6174 6772 7465 2f73 4154     ed-os/targets/TA
  10dfb4:	4752 5445 4f5f 534e 4d45 2f49 4154 4752     RGET_ONSEMI/TARG
  10dfc4:	5445 4e5f 5343 3633 3135 2f30 636e 3373     ET_NCS36510/ncs3
  10dfd4:	3536 3031 735f 6970 632e 0000               6510_spi.c..

0010dfe0 <PinMap_SPI_MISO>:
  10dfe0:	0006 0000 6000 4000 0006 0000 000a 0000     .....`.@........
  10dff0:	6000 4000 0006 0000 0010 0000 9000 4000     .`.@...........@
  10e000:	0006 0000 00ff 0000 ffff ffff 0000 0000     ................

0010e010 <PinMap_SPI_SCLK>:
  10e010:	0004 0000 6000 4000 0006 0000 0008 0000     .....`.@........
  10e020:	6000 4000 0006 0000 000e 0000 9000 4000     .`.@...........@
  10e030:	0006 0000 00ff 0000 ffff ffff 0000 0000     ................

0010e040 <PinMap_I2C_SDA>:
  10e040:	0003 0000 7000 4000 0005 0000 0004 0000     .....p.@........
  10e050:	7000 4000 0005 0000 000a 0000 7000 4000     .p.@.........p.@
  10e060:	0005 0000 000c 0000 7000 4000 0005 0000     .........p.@....
  10e070:	00ff 0000 ffff ffff 0005 0000 00ff 0000     ................
  10e080:	ffff ffff 0005 0000 00ff 0000 ffff ffff     ................
  10e090:	0000 0000                                   ....

0010e094 <PinMap_UART_RX>:
  10e094:	0001 0000 5000 4000 0007 0000 0009 0000     .....P.@........
  10e0a4:	8000 4000 0007 0000 00ff 0000 ffff ffff     ...@............
  10e0b4:	0000 0000                                   ....

0010e0b8 <PinMap_I2C_SCL>:
  10e0b8:	0002 0000 7000 4000 0005 0000 0005 0000     .....p.@........
  10e0c8:	7000 4000 0005 0000 000b 0000 7000 4000     .p.@.........p.@
  10e0d8:	0005 0000 000d 0000 7000 4000 0005 0000     .........p.@....
  10e0e8:	00ff 0000 ffff ffff 0005 0000 00ff 0000     ................
  10e0f8:	ffff ffff 0005 0000 00ff 0000 ffff ffff     ................
  10e108:	0000 0000                                   ....

0010e10c <PinMap_UART_TX>:
  10e10c:	0000 0000 5000 4000 0007 0000 0008 0000     .....P.@........
  10e11c:	8000 4000 0007 0000 00ff 0000 ffff ffff     ...@............
  10e12c:	0000 0000                                   ....

0010e130 <PinMap_SPI_MOSI>:
  10e130:	0005 0000 6000 4000 0006 0000 0009 0000     .....`.@........
  10e140:	6000 4000 0006 0000 000f 0000 9000 4000     .`.@...........@
  10e150:	0006 0000 00ff 0000 ffff ffff 0000 0000     ................

0010e160 <PinMap_SPI_SSEL>:
  10e160:	0000 0000 6000 4000 0006 0000 0001 0000     .....`.@........
  10e170:	6000 4000 0006 0000 0002 0000 6000 4000     .`.@.........`.@
  10e180:	0006 0000 0003 0000 6000 4000 0006 0000     .........`.@....
  10e190:	0007 0000 6000 4000 0006 0000 0008 0000     .....`.@........
  10e1a0:	6000 4000 0006 0000 0009 0000 6000 4000     .`.@.........`.@
  10e1b0:	0006 0000 000a 0000 6000 4000 0006 0000     .........`.@....
  10e1c0:	0011 0000 9000 4000 0006 0000 0011 0000     .......@........
  10e1d0:	9000 4000 0006 0000 00ff 0000 ffff ffff     ...@............
  10e1e0:	0000 0000 2e2e 2e2f 2f2e 7865 6574 6e72     ....../../extern
  10e1f0:	6c61 6d2f 6562 2d64 736f 742f 7261 6567     al/mbed-os/targe
  10e200:	7374 542f 5241 4547 5f54 4e4f 4553 494d     ts/TARGET_ONSEMI
  10e210:	542f 5241 4547 5f54 434e 3353 3536 3031     /TARGET_NCS36510
  10e220:	722f 6374 632e 6300 7275 6572 746e 745f     /rtc.c.current_t
  10e230:	6d69 2065 3d3e 6c20 7361 5f74 6974 656d     ime >= last_time
  10e240:	725f 6165 0064 2e2e 2e2f 2f2e 7865 6574     _read.../../exte
  10e250:	6e72 6c61 6d2f 6562 2d64 736f 742f 7261     rnal/mbed-os/tar
  10e260:	6567 7374 542f 5241 4547 5f54 4e4f 4553     gets/TARGET_ONSE
  10e270:	494d 542f 5241 4547 5f54 434e 3353 3536     MI/TARGET_NCS365
  10e280:	3031 732f 7265 6169 5f6c 7061 2e69 0063     10/serial_api.c.
  10e290:	626f 2d6a 553e 5241 5254 4745 2120 203d     obj->UARTREG != 
  10e2a0:	5528 7261 3174 4336 3535 5230 6765 705f     (Uart16C550Reg_p
  10e2b0:	2974 4e20 0043 6146 736c 0065 2e2e 2e2f     t) NC.False.../.
  10e2c0:	2f2e 7865 6574 6e72 6c61 6d2f 6562 2d64     ./external/mbed-
  10e2d0:	736f 742f 7261 6567 7374 542f 5241 4547     os/targets/TARGE
  10e2e0:	5f54 4e4f 4553 494d 542f 5241 4547 5f54     T_ONSEMI/TARGET_
  10e2f0:	434e 3353 3536 3031 732f 6970 615f 6970     NCS36510/spi_api
  10e300:	632e 2800 6228 7469 2073 3d3d 5720 524f     .c.((bits == WOR
  10e310:	5f44 4957 5444 5f48 2938 7c20 207c 6228     D_WIDTH_8) || (b
  10e320:	7469 2073 3d3d 5720 524f 5f44 4957 5444     its == WORD_WIDT
  10e330:	5f48 3631 2029 7c7c 2820 6962 7374 3d20     H_16) || (bits =
  10e340:	203d 4f57 4452 575f 4449 4854 335f 2932     = WORD_WIDTH_32)
  10e350:	2029 2626 2820 6f6d 6564 3e20 203d 2030     ) && (mode >= 0 
  10e360:	2626 6d20 646f 2065 3d3c 3320 0029          && mode <= 3).

0010e36e <CSWTCH.17>:
  10e36e:	0100 0101                                        ...

0010e371 <CSWTCH.18>:
  10e371:	0001 0001                                        ...

0010e374 <vtable for mbed::I2C>:
	...
  10e37c:	6229 0010 6241 0010 60b9 0010 60bb 0010     )b..Ab...`...`..
  10e38c:	2e2e 2e2f 2f2e 7865 6574 6e72 6c61 6d2f     ../../external/m
  10e39c:	6562 2d64 736f 702f 616c 6674 726f 2f6d     bed-os/platform/
  10e3ac:	6953 676e 656c 6f74 506e 7274 682e 5f00     SingletonPtr.h._
  10e3bc:	7470 2072 3d3d 2820 2054 292a 5f26 6164     ptr == (T *)&_da
  10e3cc:	6174 0000                                   ta..

0010e3d0 <vtable for mbed::InterruptIn>:
	...
  10e3d8:	6259 0010 6281 0010 2e2e 2e2f 2f2e 7865     Yb...b..../../ex
  10e3e8:	6574 6e72 6c61 6d2f 6562 2d64 736f 702f     ternal/mbed-os/p
  10e3f8:	616c 6674 726f 2f6d 6143 6c6c 6162 6b63     latform/Callback
  10e408:	682e 5f00 706f 0073                         .h._ops.

0010e410 <vtable for mbed::Serial>:
	...
  10e418:	63a3 0010 63b5 0010 2291 0010 240d 0010     .c...c..."...$..
  10e428:	638b 0010 6397 0010 ffcc ffff 0000 0000     .c...c..........
  10e438:	22c5 0010 241f 0010 6f1d 0010 6eeb 0010     ."...$...o...n..
  10e448:	6f4f 0010 6f55 0010 6f55 0010 6f55 0010     Oo..Uo..Uo..Uo..
  10e458:	6f59 0010 6f53 0010 6f59 0010 636d 0010     Yo..So..Yo..mc..
  10e468:	6373 0010 6379 0010 637f 0010 6385 0010     sc..yc...c...c..
  10e478:	6389 0010 639b 0010 638f 0010 63ad 0010     .c...c...c...c..
  10e488:	63bb 0010 ffc8 ffff 0000 0000 22cb 0010     .c..........."..
  10e498:	2425 0010                                   %$..

0010e49c <vtable for mbed::SerialBase>:
	...
  10e4a4:	6433 0010 6433 0010 2255 0010 227d 0010     3d..3d..U"..}"..

0010e4b4 <vtable for mbed::SPI>:
	...
  10e4bc:	661d 0010 6645 0010 667d 0010 6695 0010     .f..Ef..}f...f..
  10e4cc:	6521 0010 6523 0010                         !e..#e..

0010e4d4 <vtable for mbed::Ticker>:
	...
  10e4dc:	22d1 0010 22f5 0010 66a9 0010               ."..."...f..

0010e4e8 <vtable for mbed::TimerEvent>:
	...
  10e4f8:	25fd 0010                                   .%..

0010e4fc <vtable for mbed::FileBase>:
	...
  10e504:	6821 0010 687d 0010                         !h..}h..

0010e50c <vtable for mbed::FileHandle>:
	...
  10e51c:	25fd 0010 25fd 0010 25fd 0010 25fd 0010     .%...%...%...%..
  10e52c:	68e1 0010 68e5 0010 67c1 0010 67cb 0010     .h...h...g...g..
  10e53c:	68e9 0010 636d 0010 6373 0010 6379 0010     .h..mc..sc..yc..
  10e54c:	637f 0010 6385 0010 6389 0010               .c...c...c..

0010e558 <__stdin_name>:
  10e558:	732f 6474 6e69 2f00                              /stdin.

0010e55f <__stderr_name>:
  10e55f:	732f 6474 7265 0072 7845 6563 7470 6f69     /stderr.Exceptio
  10e56f:	006e 253a 0070 2e2e 2e2f 2f2e 7865 6574     n.:%p.../../exte
  10e57f:	6e72 6c61 6d2f 6562 2d64 736f 702f 616c     rnal/mbed-os/pla
  10e58f:	6674 726f 2f6d 626d 6465 725f 7465 7261     tform/mbed_retar
  10e59f:	6567 2e74 7063 0070 2030 3d3d 2820 672a     get.cpp.0 == (*g
  10e5af:	6175 6472 6f5f 6a62 6365 2074 2026 5843     uard_object & CX
  10e5bf:	5f41 5547 5241 5f44 414d 4b53 0029 5843     A_GUARD_MASK).CX
  10e5cf:	5f41 5547 5241 5f44 4e49 5449 495f 5f4e     A_GUARD_INIT_IN_
  10e5df:	5250 474f 4552 5353 3d20 203d 2a28 7567     PROGRESS == (*gu
  10e5ef:	7261 5f64 626f 656a 7463 2620 4320 4158     ard_object & CXA
  10e5ff:	475f 4155 4452 4d5f 5341 294b 4f00 6570     _GUARD_MASK).Ope
  10e60f:	6172 6f74 2072 656e 2077 756f 2074 666f     rator new out of
  10e61f:	6d20 6d65 726f 0d79 000a 704f 7265 7461      memory...Operat
  10e62f:	726f 6e20 7765 5d5b 6f20 7475 6f20 2066     or new[] out of 
  10e63f:	656d 6f6d 7972 0a0d 2f00                         memory...

0010e648 <__stdout_name>:
  10e648:	732f 6474 756f 0074                         /stdout.

0010e650 <vtable for mbed::FileLike>:
	...
  10e660:	25fd 0010 25fd 0010 25fd 0010 25fd 0010     .%...%...%...%..
  10e670:	68e1 0010 68e5 0010 67c1 0010 67cb 0010     .h...h...g...g..
  10e680:	68e9 0010 636d 0010 6373 0010 6379 0010     .h..mc..sc..yc..
  10e690:	637f 0010 6385 0010 6389 0010 fffc ffff     .c...c...c......
	...

0010e6ac <vtable for mbed::Stream>:
	...
  10e6bc:	6f1d 0010 6eeb 0010 6f4f 0010 6f55 0010     .o...n..Oo..Uo..
  10e6cc:	6f55 0010 6f55 0010 6f59 0010 6f53 0010     Uo..Uo..Yo..So..
  10e6dc:	6f59 0010 636d 0010 6373 0010 6379 0010     Yo..mc..sc..yc..
  10e6ec:	637f 0010 6385 0010 6389 0010 25fd 0010     .c...c...c...%..
  10e6fc:	25fd 0010 6ee7 0010 6ee9 0010 fffc ffff     .%...n...n......
	...
  10e718:	2b77 5300 7274 6165 206d 626f 206a 6166     w+.Stream obj fa
  10e728:	6c69 7275 2c65 6520 7272 6f6e 253d 0d64     ilure, errno=%d.
  10e738:	000a 7061 696c 6163 6974 6e6f 755f 6e6e     ..aplication_unn
  10e748:	6d61 6465 6d5f 7475 7865 2e00 2f2e 2e2e     amed_mutex.../..
  10e758:	652f 7478 7265 616e 2f6c 626d 6465 6f2d     /external/mbed-o
  10e768:	2f73 7472 736f 4d2f 7475 7865 632e 7070     s/rtos/Mutex.cpp
  10e778:	5f00 6469 0000                                   ._id.

0010e77d <_ctype_>:
  10e77d:	2000 2020 2020 2020 2020 2828 2828 2028     .         ((((( 
  10e78d:	2020 2020 2020 2020 2020 2020 2020 2020                     
  10e79d:	8820 1010 1010 1010 1010 1010 1010 1010      ...............
  10e7ad:	0410 0404 0404 0404 0404 1004 1010 1010     ................
  10e7bd:	1010 4141 4141 4141 0101 0101 0101 0101     ..AAAAAA........
  10e7cd:	0101 0101 0101 0101 0101 0101 1010 1010     ................
  10e7dd:	1010 4242 4242 4242 0202 0202 0202 0202     ..BBBBBB........
  10e7ed:	0202 0202 0202 0202 0202 0202 1010 1010     ................
  10e7fd:	0020 0000 0000 0000 0000 0000 0000 0000      ...............
	...

0010e880 <__sf_fake_stdin>:
	...

0010e8a0 <__sf_fake_stdout>:
	...

0010e8c0 <__sf_fake_stderr>:
	...

0010e8e0 <_global_impure_ptr>:
  10e8e0:	4164 3fff 4f50 4953 0058 002e 2d23 2b30     dA.?POSIX...#-0+
  10e8f0:	0020 6c68 004c 6665 4567 4746 4900 464e      .hlL.efgEFG.INF
  10e900:	6900 666e 4e00 4e41 6e00 6e61 3000 3231     .inf.NAN.nan.012
  10e910:	3433 3635 3837 4139 4342 4544 0046 3130     3456789ABCDEF.01
  10e920:	3332 3534 3736 3938 6261 6463 6665 6500     23456789abcdef.e
  10e930:	6c25 0064 e952 0010 e955 0010 e958 0010     %ld.R...U...X...
  10e940:	2d41 6146 662d 3938 3130 3332 3534 3736     A-Fa-f8901234567
  10e950:	005d 2d2b 3000 0030 5878 0000               ].+-.00.xX..

0010e95c <fpinan.5407>:
  10e95c:	0034 0000 fbce ffff 03cb 0000 0001 0000     4...............
  10e96c:	0000 0000                                   ....

0010e970 <fpi.5371>:
  10e970:	0035 0000 fbce ffff 03cb 0000 0001 0000     5...............
	...

0010e988 <tinytens>:
  10e988:	89bc 97d8 d2b2 3c9c a733 d5a8 f623 3949     .......<3...#.I9
  10e998:	a73d 44f4 0ffd 32a5 979d cf8c ba08 255b     =..D...2......[%
  10e9a8:	6f43 64ac 0628 1168 6e49 6966 696e 7974     Co.d(.h.Infinity
  10e9b8:	4e00 4e61 0000 0000                         .NaN....

0010e9c0 <__mprec_tens>:
  10e9c0:	0000 0000 0000 3ff0 0000 0000 0000 4024     .......?......$@
  10e9d0:	0000 0000 0000 4059 0000 0000 4000 408f     ......Y@.....@.@
  10e9e0:	0000 0000 8800 40c3 0000 0000 6a00 40f8     .......@.....j.@
  10e9f0:	0000 0000 8480 412e 0000 0000 12d0 4163     .......A......cA
  10ea00:	0000 0000 d784 4197 0000 0000 cd65 41cd     .......A....e..A
  10ea10:	0000 2000 a05f 4202 0000 e800 4876 4237     ... _..B....vH7B
  10ea20:	0000 a200 1a94 426d 0000 e540 309c 42a2     ......mB..@..0.B
  10ea30:	0000 1e90 bcc4 42d6 0000 2634 6bf5 430c     .......B..4&.k.C
  10ea40:	8000 37e0 c379 4341 a000 85d8 3457 4376     ...7y.AC....W4vC
  10ea50:	c800 674e c16d 43ab 3d00 6091 58e4 43e1     ..Ngm..C.=.`.X.C
  10ea60:	8c40 78b5 af1d 4415 ef50 d6e2 1ae4 444b     @..x...DP.....KD
  10ea70:	d592 064d f0cf 4480 4af6 c7e1 2d02 44b5     ..M....D.J...-.D
  10ea80:	9db4 79d9 7843 44ea                         ...yCx.D

0010ea88 <p05.5414>:
  10ea88:	0005 0000 0019 0000 007d 0000 0000 0000     ........}.......

0010ea98 <__mprec_bigtens>:
  10ea98:	8000 37e0 c379 4341 6e17 b505 b8b5 4693     ...7y.AC.n.....F
  10eaa8:	f9f5 e93f 4f03 4d38 1d32 f930 7748 5a82     ..?..O8M2.0.Hw.Z
  10eab8:	bf3c 7f73 4fdd 7515                         <.s..O.u

0010eac0 <__EH_FRAME_BEGIN__>:
  10eac0:	0000 0000                                   ....
