
NCS36510/2_UARTbasic_v05_v2.elf:     file format elf32-littlearm
architecture: arm, flags 0x00000112:
EXEC_P, HAS_SYMS, D_PAGED
start address 0x001071ad


Disassembly of section .text:

00102090 <deregister_tm_clones>:
  102090:	4b04      	ldr	r3, [pc, #16]	; (1020a4 <deregister_tm_clones+0x14>)
  102092:	4805      	ldr	r0, [pc, #20]	; (1020a8 <deregister_tm_clones+0x18>)
  102094:	1a1b      	subs	r3, r3, r0
  102096:	2b06      	cmp	r3, #6
  102098:	d902      	bls.n	1020a0 <deregister_tm_clones+0x10>
  10209a:	4b04      	ldr	r3, [pc, #16]	; (1020ac <deregister_tm_clones+0x1c>)
  10209c:	b103      	cbz	r3, 1020a0 <deregister_tm_clones+0x10>
  10209e:	4718      	bx	r3
  1020a0:	4770      	bx	lr
  1020a2:	bf00      	nop
  1020a4:	3fff4223 	.word	0x3fff4223
  1020a8:	3fff4220 	.word	0x3fff4220
  1020ac:	00000000 	.word	0x00000000

001020b0 <register_tm_clones>:
  1020b0:	4905      	ldr	r1, [pc, #20]	; (1020c8 <register_tm_clones+0x18>)
  1020b2:	4806      	ldr	r0, [pc, #24]	; (1020cc <register_tm_clones+0x1c>)
  1020b4:	1a09      	subs	r1, r1, r0
  1020b6:	1089      	asrs	r1, r1, #2
  1020b8:	eb01 71d1 	add.w	r1, r1, r1, lsr #31
  1020bc:	1049      	asrs	r1, r1, #1
  1020be:	d002      	beq.n	1020c6 <register_tm_clones+0x16>
  1020c0:	4b03      	ldr	r3, [pc, #12]	; (1020d0 <register_tm_clones+0x20>)
  1020c2:	b103      	cbz	r3, 1020c6 <register_tm_clones+0x16>
  1020c4:	4718      	bx	r3
  1020c6:	4770      	bx	lr
  1020c8:	3fff4220 	.word	0x3fff4220
  1020cc:	3fff4220 	.word	0x3fff4220
  1020d0:	00000000 	.word	0x00000000

001020d4 <__do_global_dtors_aux>:
  1020d4:	b510      	push	{r4, lr}
  1020d6:	4c06      	ldr	r4, [pc, #24]	; (1020f0 <__do_global_dtors_aux+0x1c>)
  1020d8:	7823      	ldrb	r3, [r4, #0]
  1020da:	b943      	cbnz	r3, 1020ee <__do_global_dtors_aux+0x1a>
  1020dc:	f7ff ffd8 	bl	102090 <deregister_tm_clones>
  1020e0:	4b04      	ldr	r3, [pc, #16]	; (1020f4 <__do_global_dtors_aux+0x20>)
  1020e2:	b113      	cbz	r3, 1020ea <__do_global_dtors_aux+0x16>
  1020e4:	4804      	ldr	r0, [pc, #16]	; (1020f8 <__do_global_dtors_aux+0x24>)
  1020e6:	f3af 8000 	nop.w
  1020ea:	2301      	movs	r3, #1
  1020ec:	7023      	strb	r3, [r4, #0]
  1020ee:	bd10      	pop	{r4, pc}
  1020f0:	3fff4220 	.word	0x3fff4220
  1020f4:	00000000 	.word	0x00000000
  1020f8:	0010eac0 	.word	0x0010eac0

001020fc <frame_dummy>:
  1020fc:	b508      	push	{r3, lr}
  1020fe:	4b08      	ldr	r3, [pc, #32]	; (102120 <frame_dummy+0x24>)
  102100:	b11b      	cbz	r3, 10210a <frame_dummy+0xe>
  102102:	4908      	ldr	r1, [pc, #32]	; (102124 <frame_dummy+0x28>)
  102104:	4808      	ldr	r0, [pc, #32]	; (102128 <frame_dummy+0x2c>)
  102106:	f3af 8000 	nop.w
  10210a:	4808      	ldr	r0, [pc, #32]	; (10212c <frame_dummy+0x30>)
  10210c:	6803      	ldr	r3, [r0, #0]
  10210e:	b913      	cbnz	r3, 102116 <frame_dummy+0x1a>
  102110:	e8bd 4008 	ldmia.w	sp!, {r3, lr}
  102114:	e7cc      	b.n	1020b0 <register_tm_clones>
  102116:	4b06      	ldr	r3, [pc, #24]	; (102130 <frame_dummy+0x34>)
  102118:	2b00      	cmp	r3, #0
  10211a:	d0f9      	beq.n	102110 <frame_dummy+0x14>
  10211c:	4798      	blx	r3
  10211e:	e7f7      	b.n	102110 <frame_dummy+0x14>
  102120:	00000000 	.word	0x00000000
  102124:	3fff4224 	.word	0x3fff4224
  102128:	0010eac0 	.word	0x0010eac0
  10212c:	3fff4220 	.word	0x3fff4220
  102130:	00000000 	.word	0x00000000

00102134 <void mbed::Callback<void ()>::function_call<void (*)()>(void const*)>:
  102134:	6803      	ldr	r3, [r0, #0]
  102136:	4718      	bx	r3

00102138 <void mbed::Callback<void ()>::function_move<void (*)()>(void*, void const*)>:
  102138:	b108      	cbz	r0, 10213e <void mbed::Callback<void ()>::function_move<void (*)()>(void*, void const*)+0x6>
  10213a:	680b      	ldr	r3, [r1, #0]
  10213c:	6003      	str	r3, [r0, #0]
  10213e:	4770      	bx	lr

00102140 <void mbed::Callback<void ()>::function_dtor<void (*)()>(void*)>:
  102140:	4770      	bx	lr
	...

00102144 <__tcf_0>:
  102144:	b538      	push	{r3, r4, r5, lr}
  102146:	4d06      	ldr	r5, [pc, #24]	; (102160 <__tcf_0+0x1c>)
  102148:	2400      	movs	r4, #0
  10214a:	f504 70b4 	add.w	r0, r4, #360	; 0x168
  10214e:	4428      	add	r0, r5
  102150:	3c18      	subs	r4, #24
  102152:	f005 f849 	bl	1071e8 <std::__cxx11::basic_string<char, std::char_traits<char>, std::allocator<char> >::_M_dispose()>
  102156:	f514 7fc0 	cmn.w	r4, #384	; 0x180
  10215a:	d1f6      	bne.n	10214a <__tcf_0+0x6>
  10215c:	bd38      	pop	{r3, r4, r5, pc}
  10215e:	bf00      	nop
  102160:	3fff423c 	.word	0x3fff423c

00102164 <IRQ_Watchdoq_ContinuoslyRun()>:
  102164:	b500      	push	{lr}
  102166:	4b11      	ldr	r3, [pc, #68]	; (1021ac <IRQ_Watchdoq_ContinuoslyRun()+0x48>)
  102168:	b09b      	sub	sp, #108	; 0x6c
  10216a:	781a      	ldrb	r2, [r3, #0]
  10216c:	b15a      	cbz	r2, 102186 <IRQ_Watchdoq_ContinuoslyRun()+0x22>
  10216e:	2200      	movs	r2, #0
  102170:	480f      	ldr	r0, [pc, #60]	; (1021b0 <IRQ_Watchdoq_ContinuoslyRun()+0x4c>)
  102172:	701a      	strb	r2, [r3, #0]
  102174:	f000 fb92 	bl	10289c <NHD_C0216CZ::clearDisplay()>
  102178:	230f      	movs	r3, #15
  10217a:	2202      	movs	r2, #2
  10217c:	490d      	ldr	r1, [pc, #52]	; (1021b4 <IRQ_Watchdoq_ContinuoslyRun()+0x50>)
  10217e:	480c      	ldr	r0, [pc, #48]	; (1021b0 <IRQ_Watchdoq_ContinuoslyRun()+0x4c>)
  102180:	f000 fc58 	bl	102a34 <NHD_C0216CZ::displayStringToPos(char const*, int, int)>
  102184:	e004      	b.n	102190 <IRQ_Watchdoq_ContinuoslyRun()+0x2c>
  102186:	2201      	movs	r2, #1
  102188:	4809      	ldr	r0, [pc, #36]	; (1021b0 <IRQ_Watchdoq_ContinuoslyRun()+0x4c>)
  10218a:	701a      	strb	r2, [r3, #0]
  10218c:	f000 fb86 	bl	10289c <NHD_C0216CZ::clearDisplay()>
  102190:	4909      	ldr	r1, [pc, #36]	; (1021b8 <IRQ_Watchdoq_ContinuoslyRun()+0x54>)
  102192:	a801      	add	r0, sp, #4
  102194:	f008 f9ff 	bl	10a596 <strcpy>
  102198:	2301      	movs	r3, #1
  10219a:	461a      	mov	r2, r3
  10219c:	a901      	add	r1, sp, #4
  10219e:	4804      	ldr	r0, [pc, #16]	; (1021b0 <IRQ_Watchdoq_ContinuoslyRun()+0x4c>)
  1021a0:	f000 fc48 	bl	102a34 <NHD_C0216CZ::displayStringToPos(char const*, int, int)>
  1021a4:	b01b      	add	sp, #108	; 0x6c
  1021a6:	f85d fb04 	ldr.w	pc, [sp], #4
  1021aa:	bf00      	nop
  1021ac:	3fff4658 	.word	0x3fff4658
  1021b0:	3fff465c 	.word	0x3fff465c
  1021b4:	0010da14 	.word	0x0010da14
  1021b8:	3fff44bc 	.word	0x3fff44bc

001021bc <NHD_C0216CZ::~NHD_C0216CZ()>:
  1021bc:	b510      	push	{r4, lr}
  1021be:	4604      	mov	r4, r0
  1021c0:	3040      	adds	r0, #64	; 0x40
  1021c2:	f000 fac5 	bl	102750 <PCA9655E::~PCA9655E()>
  1021c6:	4620      	mov	r0, r4
  1021c8:	bd10      	pop	{r4, pc}
	...

001021cc <std::__cxx11::basic_string<char, std::char_traits<char>, std::allocator<char> >::basic_string(char const*, std::allocator<char> const&) [clone .isra.17] [clone .constprop.19]>:
  1021cc:	b510      	push	{r4, lr}
  1021ce:	4604      	mov	r4, r0
  1021d0:	4a05      	ldr	r2, [pc, #20]	; (1021e8 <std::__cxx11::basic_string<char, std::char_traits<char>, std::allocator<char> >::basic_string(char const*, std::allocator<char> const&) [clone .isra.17] [clone .constprop.19]+0x1c>)
  1021d2:	3008      	adds	r0, #8
  1021d4:	6020      	str	r0, [r4, #0]
  1021d6:	4611      	mov	r1, r2
  1021d8:	f005 f817 	bl	10720a <std::__cxx11::basic_string<char, std::char_traits<char>, std::allocator<char> >::_S_copy_chars(char*, char const*, char const*)>
  1021dc:	6822      	ldr	r2, [r4, #0]
  1021de:	2300      	movs	r3, #0
  1021e0:	6063      	str	r3, [r4, #4]
  1021e2:	7013      	strb	r3, [r2, #0]
  1021e4:	4620      	mov	r0, r4
  1021e6:	bd10      	pop	{r4, pc}
  1021e8:	0010e739 	.word	0x0010e739

001021ec <IRQ_ReadUART()>:
  1021ec:	b508      	push	{r3, lr}
  1021ee:	4808      	ldr	r0, [pc, #32]	; (102210 <IRQ_ReadUART()+0x24>)
  1021f0:	f004 f93a 	bl	106468 <mbed::SerialBase::readable()>
  1021f4:	b150      	cbz	r0, 10220c <IRQ_ReadUART()+0x20>
  1021f6:	4907      	ldr	r1, [pc, #28]	; (102214 <IRQ_ReadUART()+0x28>)
  1021f8:	4807      	ldr	r0, [pc, #28]	; (102218 <IRQ_ReadUART()+0x2c>)
  1021fa:	f004 ff07 	bl	10700c <mbed::Stream::printf(char const*, ...)>
  1021fe:	e8bd 4008 	ldmia.w	sp!, {r3, lr}
  102202:	4a06      	ldr	r2, [pc, #24]	; (10221c <IRQ_ReadUART()+0x30>)
  102204:	4906      	ldr	r1, [pc, #24]	; (102220 <IRQ_ReadUART()+0x34>)
  102206:	4807      	ldr	r0, [pc, #28]	; (102224 <IRQ_ReadUART()+0x38>)
  102208:	f004 bf1d 	b.w	107046 <mbed::Stream::scanf(char const*, ...)>
  10220c:	bd08      	pop	{r3, pc}
  10220e:	bf00      	nop
  102210:	3fff4440 	.word	0x3fff4440
  102214:	0010da16 	.word	0x0010da16
  102218:	3fff4554 	.word	0x3fff4554
  10221c:	3fff44bc 	.word	0x3fff44bc
  102220:	0010da26 	.word	0x0010da26
  102224:	3fff4474 	.word	0x3fff4474

00102228 <Send_UART(char*)>:
  102228:	4602      	mov	r2, r0
  10222a:	b508      	push	{r3, lr}
  10222c:	4903      	ldr	r1, [pc, #12]	; (10223c <Send_UART(char*)+0x14>)
  10222e:	4804      	ldr	r0, [pc, #16]	; (102240 <Send_UART(char*)+0x18>)
  102230:	f004 feec 	bl	10700c <mbed::Stream::printf(char const*, ...)>
  102234:	3000      	adds	r0, #0
  102236:	bf18      	it	ne
  102238:	2001      	movne	r0, #1
  10223a:	bd08      	pop	{r3, pc}
  10223c:	0010da26 	.word	0x0010da26
  102240:	3fff4474 	.word	0x3fff4474

00102244 <mbed::Callback<void ()>::~Callback()>:
  102244:	68c3      	ldr	r3, [r0, #12]
  102246:	b510      	push	{r4, lr}
  102248:	4604      	mov	r4, r0
  10224a:	b10b      	cbz	r3, 102250 <mbed::Callback<void ()>::~Callback()+0xc>
  10224c:	689b      	ldr	r3, [r3, #8]
  10224e:	4798      	blx	r3
  102250:	4620      	mov	r0, r4
  102252:	bd10      	pop	{r4, pc}

00102254 <mbed::SerialBase::~SerialBase()>:
  102254:	b570      	push	{r4, r5, r6, lr}
  102256:	4605      	mov	r5, r0
  102258:	4b07      	ldr	r3, [pc, #28]	; (102278 <mbed::SerialBase::~SerialBase()+0x24>)
  10225a:	4606      	mov	r6, r0
  10225c:	f845 3b10 	str.w	r3, [r5], #16
  102260:	b145      	cbz	r5, 102274 <mbed::SerialBase::~SerialBase()+0x20>
  102262:	f100 0430 	add.w	r4, r0, #48	; 0x30
  102266:	42ac      	cmp	r4, r5
  102268:	d004      	beq.n	102274 <mbed::SerialBase::~SerialBase()+0x20>
  10226a:	3c10      	subs	r4, #16
  10226c:	4620      	mov	r0, r4
  10226e:	f7ff ffe9 	bl	102244 <mbed::Callback<void ()>::~Callback()>
  102272:	e7f8      	b.n	102266 <mbed::SerialBase::~SerialBase()+0x12>
  102274:	4630      	mov	r0, r6
  102276:	bd70      	pop	{r4, r5, r6, pc}
  102278:	0010e4a4 	.word	0x0010e4a4

0010227c <mbed::SerialBase::~SerialBase()>:
  10227c:	b510      	push	{r4, lr}
  10227e:	4604      	mov	r4, r0
  102280:	f7ff ffe8 	bl	102254 <mbed::SerialBase::~SerialBase()>
  102284:	4620      	mov	r0, r4
  102286:	f004 fd4b 	bl	106d20 <operator delete(void*)>
  10228a:	4620      	mov	r0, r4
  10228c:	bd10      	pop	{r4, pc}
	...

00102290 <mbed::Serial::~Serial()>:
  102290:	b510      	push	{r4, lr}
  102292:	4604      	mov	r4, r0
  102294:	4b0a      	ldr	r3, [pc, #40]	; (1022c0 <mbed::Serial::~Serial()+0x30>)
  102296:	304c      	adds	r0, #76	; 0x4c
  102298:	f103 0220 	add.w	r2, r3, #32
  10229c:	f840 3c4c 	str.w	r3, [r0, #-76]
  1022a0:	337c      	adds	r3, #124	; 0x7c
  1022a2:	f840 2c18 	str.w	r2, [r0, #-24]
  1022a6:	f840 3c14 	str.w	r3, [r0, #-20]
  1022aa:	f004 ff24 	bl	1070f6 <rtos::Mutex::~Mutex()>
  1022ae:	f104 0034 	add.w	r0, r4, #52	; 0x34
  1022b2:	f004 fe99 	bl	106fe8 <mbed::Stream::~Stream()>
  1022b6:	4620      	mov	r0, r4
  1022b8:	f7ff ffcc 	bl	102254 <mbed::SerialBase::~SerialBase()>
  1022bc:	4620      	mov	r0, r4
  1022be:	bd10      	pop	{r4, pc}
  1022c0:	0010e418 	.word	0x0010e418

001022c4 <non-virtual thunk to mbed::Serial::~Serial()>:
  1022c4:	f1a0 0034 	sub.w	r0, r0, #52	; 0x34
  1022c8:	e7e2      	b.n	102290 <mbed::Serial::~Serial()>

001022ca <non-virtual thunk to mbed::Serial::~Serial()>:
  1022ca:	f1a0 0038 	sub.w	r0, r0, #56	; 0x38
  1022ce:	e7df      	b.n	102290 <mbed::Serial::~Serial()>

001022d0 <mbed::Ticker::~Ticker()>:
  1022d0:	b538      	push	{r3, r4, r5, lr}
  1022d2:	4605      	mov	r5, r0
  1022d4:	4604      	mov	r4, r0
  1022d6:	4b06      	ldr	r3, [pc, #24]	; (1022f0 <mbed::Ticker::~Ticker()+0x20>)
  1022d8:	f845 3b28 	str.w	r3, [r5], #40
  1022dc:	f004 fa1a 	bl	106714 <mbed::Ticker::detach()>
  1022e0:	4628      	mov	r0, r5
  1022e2:	f7ff ffaf 	bl	102244 <mbed::Callback<void ()>::~Callback()>
  1022e6:	4620      	mov	r0, r4
  1022e8:	f004 fa60 	bl	1067ac <mbed::TimerEvent::~TimerEvent()>
  1022ec:	4620      	mov	r0, r4
  1022ee:	bd38      	pop	{r3, r4, r5, pc}
  1022f0:	0010e4dc 	.word	0x0010e4dc

001022f4 <mbed::Ticker::~Ticker()>:
  1022f4:	b510      	push	{r4, lr}
  1022f6:	4604      	mov	r4, r0
  1022f8:	f7ff ffea 	bl	1022d0 <mbed::Ticker::~Ticker()>
  1022fc:	4620      	mov	r0, r4
  1022fe:	f004 fd0f 	bl	106d20 <operator delete(void*)>
  102302:	4620      	mov	r0, r4
  102304:	bd10      	pop	{r4, pc}

00102306 <mbed::Callback<void ()>::Callback(mbed::Callback<void ()> const&)>:
  102306:	b538      	push	{r3, r4, r5, lr}
  102308:	68cb      	ldr	r3, [r1, #12]
  10230a:	4604      	mov	r4, r0
  10230c:	460d      	mov	r5, r1
  10230e:	b10b      	cbz	r3, 102314 <mbed::Callback<void ()>::Callback(mbed::Callback<void ()> const&)+0xe>
  102310:	685b      	ldr	r3, [r3, #4]
  102312:	4798      	blx	r3
  102314:	68eb      	ldr	r3, [r5, #12]
  102316:	4620      	mov	r0, r4
  102318:	60e3      	str	r3, [r4, #12]
  10231a:	bd38      	pop	{r3, r4, r5, pc}

0010231c <mbed::Ticker::attach(mbed::Callback<void ()>, float)>:
  10231c:	e92d 437f 	stmdb	sp!, {r0, r1, r2, r3, r4, r5, r6, r8, r9, lr}
  102320:	4615      	mov	r5, r2
  102322:	4606      	mov	r6, r0
  102324:	4668      	mov	r0, sp
  102326:	f7ff ffee 	bl	102306 <mbed::Callback<void ()>::Callback(mbed::Callback<void ()> const&)>
  10232a:	4910      	ldr	r1, [pc, #64]	; (10236c <mbed::Ticker::attach(mbed::Callback<void ()>, float)+0x50>)
  10232c:	4628      	mov	r0, r5
  10232e:	f005 faff 	bl	107930 <__aeabi_fmul>
  102332:	466c      	mov	r4, sp
  102334:	f005 fc8a 	bl	107c4c <__aeabi_f2ulz>
  102338:	f106 0528 	add.w	r5, r6, #40	; 0x28
  10233c:	42a5      	cmp	r5, r4
  10233e:	4680      	mov	r8, r0
  102340:	4689      	mov	r9, r1
  102342:	d007      	beq.n	102354 <mbed::Ticker::attach(mbed::Callback<void ()>, float)+0x38>
  102344:	4628      	mov	r0, r5
  102346:	f7ff ff7d 	bl	102244 <mbed::Callback<void ()>::~Callback()>
  10234a:	b11d      	cbz	r5, 102354 <mbed::Ticker::attach(mbed::Callback<void ()>, float)+0x38>
  10234c:	4669      	mov	r1, sp
  10234e:	4628      	mov	r0, r5
  102350:	f7ff ffd9 	bl	102306 <mbed::Callback<void ()>::Callback(mbed::Callback<void ()> const&)>
  102354:	4642      	mov	r2, r8
  102356:	464b      	mov	r3, r9
  102358:	4630      	mov	r0, r6
  10235a:	f004 f9c3 	bl	1066e4 <mbed::Ticker::setup(unsigned long long)>
  10235e:	4620      	mov	r0, r4
  102360:	f7ff ff70 	bl	102244 <mbed::Callback<void ()>::~Callback()>
  102364:	b004      	add	sp, #16
  102366:	e8bd 8370 	ldmia.w	sp!, {r4, r5, r6, r8, r9, pc}
  10236a:	bf00      	nop
  10236c:	49742400 	.word	0x49742400

00102370 <Read_UART()>:
  102370:	b51f      	push	{r0, r1, r2, r3, r4, lr}
  102372:	4809      	ldr	r0, [pc, #36]	; (102398 <Read_UART()+0x28>)
  102374:	f004 f9ce 	bl	106714 <mbed::Ticker::detach()>
  102378:	4b08      	ldr	r3, [pc, #32]	; (10239c <Read_UART()+0x2c>)
  10237a:	4a09      	ldr	r2, [pc, #36]	; (1023a0 <Read_UART()+0x30>)
  10237c:	9300      	str	r3, [sp, #0]
  10237e:	4b09      	ldr	r3, [pc, #36]	; (1023a4 <Read_UART()+0x34>)
  102380:	4669      	mov	r1, sp
  102382:	4809      	ldr	r0, [pc, #36]	; (1023a8 <Read_UART()+0x38>)
  102384:	9303      	str	r3, [sp, #12]
  102386:	f7ff ffc9 	bl	10231c <mbed::Ticker::attach(mbed::Callback<void ()>, float)>
  10238a:	4668      	mov	r0, sp
  10238c:	f7ff ff5a 	bl	102244 <mbed::Callback<void ()>::~Callback()>
  102390:	b005      	add	sp, #20
  102392:	f85d fb04 	ldr.w	pc, [sp], #4
  102396:	bf00      	nop
  102398:	3fff45d8 	.word	0x3fff45d8
  10239c:	001021ed 	.word	0x001021ed
  1023a0:	3dcccccd 	.word	0x3dcccccd
  1023a4:	0010da08 	.word	0x0010da08
  1023a8:	3fff4408 	.word	0x3fff4408

001023ac <main>:
  1023ac:	b51f      	push	{r0, r1, r2, r3, r4, lr}
  1023ae:	4810      	ldr	r0, [pc, #64]	; (1023f0 <main+0x44>)
  1023b0:	f000 fac4 	bl	10293c <NHD_C0216CZ::init()>
  1023b4:	490f      	ldr	r1, [pc, #60]	; (1023f4 <main+0x48>)
  1023b6:	480e      	ldr	r0, [pc, #56]	; (1023f0 <main+0x44>)
  1023b8:	f000 fb56 	bl	102a68 <NHD_C0216CZ::displayString(char const*)>
  1023bc:	f04f 507e 	mov.w	r0, #1065353216	; 0x3f800000
  1023c0:	f004 fd80 	bl	106ec4 <wait>
  1023c4:	480a      	ldr	r0, [pc, #40]	; (1023f0 <main+0x44>)
  1023c6:	f000 fa69 	bl	10289c <NHD_C0216CZ::clearDisplay()>
  1023ca:	4b0b      	ldr	r3, [pc, #44]	; (1023f8 <main+0x4c>)
  1023cc:	480b      	ldr	r0, [pc, #44]	; (1023fc <main+0x50>)
  1023ce:	9300      	str	r3, [sp, #0]
  1023d0:	4b0b      	ldr	r3, [pc, #44]	; (102400 <main+0x54>)
  1023d2:	4a0c      	ldr	r2, [pc, #48]	; (102404 <main+0x58>)
  1023d4:	4669      	mov	r1, sp
  1023d6:	9303      	str	r3, [sp, #12]
  1023d8:	f7ff ffa0 	bl	10231c <mbed::Ticker::attach(mbed::Callback<void ()>, float)>
  1023dc:	4668      	mov	r0, sp
  1023de:	f7ff ff31 	bl	102244 <mbed::Callback<void ()>::~Callback()>
  1023e2:	f7ff ffc5 	bl	102370 <Read_UART()>
  1023e6:	4808      	ldr	r0, [pc, #32]	; (102408 <main+0x5c>)
  1023e8:	f7ff ff1e 	bl	102228 <Send_UART(char*)>
  1023ec:	e7f9      	b.n	1023e2 <main+0x36>
  1023ee:	bf00      	nop
  1023f0:	3fff465c 	.word	0x3fff465c
  1023f4:	0010da43 	.word	0x0010da43
  1023f8:	00102165 	.word	0x00102165
  1023fc:	3fff45a0 	.word	0x3fff45a0
  102400:	0010da08 	.word	0x0010da08
  102404:	3e4ccccd 	.word	0x3e4ccccd
  102408:	3fff44bc 	.word	0x3fff44bc

0010240c <mbed::Serial::~Serial()>:
  10240c:	b510      	push	{r4, lr}
  10240e:	4604      	mov	r4, r0
  102410:	f7ff ff3e 	bl	102290 <mbed::Serial::~Serial()>
  102414:	4620      	mov	r0, r4
  102416:	f004 fc83 	bl	106d20 <operator delete(void*)>
  10241a:	4620      	mov	r0, r4
  10241c:	bd10      	pop	{r4, pc}

0010241e <non-virtual thunk to mbed::Serial::~Serial()>:
  10241e:	f1a0 0034 	sub.w	r0, r0, #52	; 0x34
  102422:	e7f3      	b.n	10240c <mbed::Serial::~Serial()>

00102424 <non-virtual thunk to mbed::Serial::~Serial()>:
  102424:	f1a0 0038 	sub.w	r0, r0, #56	; 0x38
  102428:	e7f0      	b.n	10240c <mbed::Serial::~Serial()>
	...

0010242c <_GLOBAL__sub_I_TOUCH_LC717A00_mode>:
  10242c:	b573      	push	{r0, r1, r4, r5, r6, lr}
  10242e:	484f      	ldr	r0, [pc, #316]	; (10256c <_GLOBAL__sub_I_TOUCH_LC717A00_mode+0x140>)
  102430:	f7ff fecc 	bl	1021cc <std::__cxx11::basic_string<char, std::char_traits<char>, std::allocator<char> >::basic_string(char const*, std::allocator<char> const&) [clone .isra.17] [clone .constprop.19]>
  102434:	4a4e      	ldr	r2, [pc, #312]	; (102570 <_GLOBAL__sub_I_TOUCH_LC717A00_mode+0x144>)
  102436:	494f      	ldr	r1, [pc, #316]	; (102574 <_GLOBAL__sub_I_TOUCH_LC717A00_mode+0x148>)
  102438:	484c      	ldr	r0, [pc, #304]	; (10256c <_GLOBAL__sub_I_TOUCH_LC717A00_mode+0x140>)
  10243a:	f004 fc48 	bl	106cce <__aeabi_atexit>
  10243e:	4b4e      	ldr	r3, [pc, #312]	; (102578 <_GLOBAL__sub_I_TOUCH_LC717A00_mode+0x14c>)
  102440:	2200      	movs	r2, #0
  102442:	f503 70c0 	add.w	r0, r3, #384	; 0x180
  102446:	4619      	mov	r1, r3
  102448:	f843 2c04 	str.w	r2, [r3, #-4]
  10244c:	f843 3c08 	str.w	r3, [r3, #-8]
  102450:	f801 2b18 	strb.w	r2, [r1], #24
  102454:	6119      	str	r1, [r3, #16]
  102456:	615a      	str	r2, [r3, #20]
  102458:	761a      	strb	r2, [r3, #24]
  10245a:	3330      	adds	r3, #48	; 0x30
  10245c:	4283      	cmp	r3, r0
  10245e:	f04f 0400 	mov.w	r4, #0
  102462:	d1f0      	bne.n	102446 <_GLOBAL__sub_I_TOUCH_LC717A00_mode+0x1a>
  102464:	4a42      	ldr	r2, [pc, #264]	; (102570 <_GLOBAL__sub_I_TOUCH_LC717A00_mode+0x144>)
  102466:	4945      	ldr	r1, [pc, #276]	; (10257c <_GLOBAL__sub_I_TOUCH_LC717A00_mode+0x150>)
  102468:	4620      	mov	r0, r4
  10246a:	f004 fc30 	bl	106cce <__aeabi_atexit>
  10246e:	4844      	ldr	r0, [pc, #272]	; (102580 <_GLOBAL__sub_I_TOUCH_LC717A00_mode+0x154>)
  102470:	f7ff feac 	bl	1021cc <std::__cxx11::basic_string<char, std::char_traits<char>, std::allocator<char> >::basic_string(char const*, std::allocator<char> const&) [clone .isra.17] [clone .constprop.19]>
  102474:	4a3e      	ldr	r2, [pc, #248]	; (102570 <_GLOBAL__sub_I_TOUCH_LC717A00_mode+0x144>)
  102476:	493f      	ldr	r1, [pc, #252]	; (102574 <_GLOBAL__sub_I_TOUCH_LC717A00_mode+0x148>)
  102478:	4841      	ldr	r0, [pc, #260]	; (102580 <_GLOBAL__sub_I_TOUCH_LC717A00_mode+0x154>)
  10247a:	f004 fc28 	bl	106cce <__aeabi_atexit>
  10247e:	4841      	ldr	r0, [pc, #260]	; (102584 <_GLOBAL__sub_I_TOUCH_LC717A00_mode+0x158>)
  102480:	f7ff fea4 	bl	1021cc <std::__cxx11::basic_string<char, std::char_traits<char>, std::allocator<char> >::basic_string(char const*, std::allocator<char> const&) [clone .isra.17] [clone .constprop.19]>
  102484:	4a3a      	ldr	r2, [pc, #232]	; (102570 <_GLOBAL__sub_I_TOUCH_LC717A00_mode+0x144>)
  102486:	493b      	ldr	r1, [pc, #236]	; (102574 <_GLOBAL__sub_I_TOUCH_LC717A00_mode+0x148>)
  102488:	483e      	ldr	r0, [pc, #248]	; (102584 <_GLOBAL__sub_I_TOUCH_LC717A00_mode+0x158>)
  10248a:	f004 fc20 	bl	106cce <__aeabi_atexit>
  10248e:	483e      	ldr	r0, [pc, #248]	; (102588 <_GLOBAL__sub_I_TOUCH_LC717A00_mode+0x15c>)
  102490:	f7ff fe9c 	bl	1021cc <std::__cxx11::basic_string<char, std::char_traits<char>, std::allocator<char> >::basic_string(char const*, std::allocator<char> const&) [clone .isra.17] [clone .constprop.19]>
  102494:	4a36      	ldr	r2, [pc, #216]	; (102570 <_GLOBAL__sub_I_TOUCH_LC717A00_mode+0x144>)
  102496:	4937      	ldr	r1, [pc, #220]	; (102574 <_GLOBAL__sub_I_TOUCH_LC717A00_mode+0x148>)
  102498:	483b      	ldr	r0, [pc, #236]	; (102588 <_GLOBAL__sub_I_TOUCH_LC717A00_mode+0x15c>)
  10249a:	4d3c      	ldr	r5, [pc, #240]	; (10258c <_GLOBAL__sub_I_TOUCH_LC717A00_mode+0x160>)
  10249c:	f004 fc17 	bl	106cce <__aeabi_atexit>
  1024a0:	483b      	ldr	r0, [pc, #236]	; (102590 <_GLOBAL__sub_I_TOUCH_LC717A00_mode+0x164>)
  1024a2:	f004 fe1b 	bl	1070dc <rtos::Mutex::Mutex()>
  1024a6:	f04f 36ff 	mov.w	r6, #4294967295
  1024aa:	4a31      	ldr	r2, [pc, #196]	; (102570 <_GLOBAL__sub_I_TOUCH_LC717A00_mode+0x144>)
  1024ac:	4939      	ldr	r1, [pc, #228]	; (102594 <_GLOBAL__sub_I_TOUCH_LC717A00_mode+0x168>)
  1024ae:	4838      	ldr	r0, [pc, #224]	; (102590 <_GLOBAL__sub_I_TOUCH_LC717A00_mode+0x164>)
  1024b0:	f004 fc0d 	bl	106cce <__aeabi_atexit>
  1024b4:	9600      	str	r6, [sp, #0]
  1024b6:	2304      	movs	r3, #4
  1024b8:	2206      	movs	r2, #6
  1024ba:	2105      	movs	r1, #5
  1024bc:	4628      	mov	r0, r5
  1024be:	f004 f855 	bl	10656c <mbed::SPI::SPI(PinName, PinName, PinName, PinName)>
  1024c2:	62ec      	str	r4, [r5, #44]	; 0x2c
  1024c4:	f885 4030 	strb.w	r4, [r5, #48]	; 0x30
  1024c8:	636c      	str	r4, [r5, #52]	; 0x34
  1024ca:	4631      	mov	r1, r6
  1024cc:	f105 002c 	add.w	r0, r5, #44	; 0x2c
  1024d0:	f000 fb11 	bl	102af6 <gpio_init_out>
  1024d4:	2320      	movs	r3, #32
  1024d6:	9600      	str	r6, [sp, #0]
  1024d8:	2202      	movs	r2, #2
  1024da:	2103      	movs	r1, #3
  1024dc:	f105 0040 	add.w	r0, r5, #64	; 0x40
  1024e0:	f000 f890 	bl	102604 <PCA9655E::PCA9655E(PinName, PinName, unsigned char, PinName)>
  1024e4:	4628      	mov	r0, r5
  1024e6:	4d2c      	ldr	r5, [pc, #176]	; (102598 <_GLOBAL__sub_I_TOUCH_LC717A00_mode+0x16c>)
  1024e8:	4e2c      	ldr	r6, [pc, #176]	; (10259c <_GLOBAL__sub_I_TOUCH_LC717A00_mode+0x170>)
  1024ea:	4a21      	ldr	r2, [pc, #132]	; (102570 <_GLOBAL__sub_I_TOUCH_LC717A00_mode+0x144>)
  1024ec:	492c      	ldr	r1, [pc, #176]	; (1025a0 <_GLOBAL__sub_I_TOUCH_LC717A00_mode+0x174>)
  1024ee:	f004 fbee 	bl	106cce <__aeabi_atexit>
  1024f2:	4628      	mov	r0, r5
  1024f4:	f004 f932 	bl	10675c <mbed::TimerEvent::TimerEvent()>
  1024f8:	602e      	str	r6, [r5, #0]
  1024fa:	636c      	str	r4, [r5, #52]	; 0x34
  1024fc:	4628      	mov	r0, r5
  1024fe:	4d29      	ldr	r5, [pc, #164]	; (1025a4 <_GLOBAL__sub_I_TOUCH_LC717A00_mode+0x178>)
  102500:	4a1b      	ldr	r2, [pc, #108]	; (102570 <_GLOBAL__sub_I_TOUCH_LC717A00_mode+0x144>)
  102502:	4929      	ldr	r1, [pc, #164]	; (1025a8 <_GLOBAL__sub_I_TOUCH_LC717A00_mode+0x17c>)
  102504:	f004 fbe3 	bl	106cce <__aeabi_atexit>
  102508:	4628      	mov	r0, r5
  10250a:	f004 f927 	bl	10675c <mbed::TimerEvent::TimerEvent()>
  10250e:	636c      	str	r4, [r5, #52]	; 0x34
  102510:	4a17      	ldr	r2, [pc, #92]	; (102570 <_GLOBAL__sub_I_TOUCH_LC717A00_mode+0x144>)
  102512:	4925      	ldr	r1, [pc, #148]	; (1025a8 <_GLOBAL__sub_I_TOUCH_LC717A00_mode+0x17c>)
  102514:	4628      	mov	r0, r5
  102516:	602e      	str	r6, [r5, #0]
  102518:	f004 fbd9 	bl	106cce <__aeabi_atexit>
  10251c:	f44f 33e1 	mov.w	r3, #115200	; 0x1c200
  102520:	4d22      	ldr	r5, [pc, #136]	; (1025ac <_GLOBAL__sub_I_TOUCH_LC717A00_mode+0x180>)
  102522:	9300      	str	r3, [sp, #0]
  102524:	2209      	movs	r2, #9
  102526:	4623      	mov	r3, r4
  102528:	2108      	movs	r1, #8
  10252a:	4821      	ldr	r0, [pc, #132]	; (1025b0 <_GLOBAL__sub_I_TOUCH_LC717A00_mode+0x184>)
  10252c:	f003 ff4a 	bl	1063c4 <mbed::Serial::Serial(PinName, PinName, char const*, int)>
  102530:	4a0f      	ldr	r2, [pc, #60]	; (102570 <_GLOBAL__sub_I_TOUCH_LC717A00_mode+0x144>)
  102532:	4920      	ldr	r1, [pc, #128]	; (1025b4 <_GLOBAL__sub_I_TOUCH_LC717A00_mode+0x188>)
  102534:	481e      	ldr	r0, [pc, #120]	; (1025b0 <_GLOBAL__sub_I_TOUCH_LC717A00_mode+0x184>)
  102536:	f004 fbca 	bl	106cce <__aeabi_atexit>
  10253a:	4628      	mov	r0, r5
  10253c:	f004 f90e 	bl	10675c <mbed::TimerEvent::TimerEvent()>
  102540:	636c      	str	r4, [r5, #52]	; 0x34
  102542:	4a0b      	ldr	r2, [pc, #44]	; (102570 <_GLOBAL__sub_I_TOUCH_LC717A00_mode+0x144>)
  102544:	4918      	ldr	r1, [pc, #96]	; (1025a8 <_GLOBAL__sub_I_TOUCH_LC717A00_mode+0x17c>)
  102546:	4628      	mov	r0, r5
  102548:	602e      	str	r6, [r5, #0]
  10254a:	f004 fbc0 	bl	106cce <__aeabi_atexit>
  10254e:	4621      	mov	r1, r4
  102550:	f44f 5316 	mov.w	r3, #9600	; 0x2580
  102554:	2201      	movs	r2, #1
  102556:	4818      	ldr	r0, [pc, #96]	; (1025b8 <_GLOBAL__sub_I_TOUCH_LC717A00_mode+0x18c>)
  102558:	f003 ff50 	bl	1063fc <mbed::Serial::Serial(PinName, PinName, int)>
  10255c:	4a04      	ldr	r2, [pc, #16]	; (102570 <_GLOBAL__sub_I_TOUCH_LC717A00_mode+0x144>)
  10255e:	4915      	ldr	r1, [pc, #84]	; (1025b4 <_GLOBAL__sub_I_TOUCH_LC717A00_mode+0x188>)
  102560:	4815      	ldr	r0, [pc, #84]	; (1025b8 <_GLOBAL__sub_I_TOUCH_LC717A00_mode+0x18c>)
  102562:	b002      	add	sp, #8
  102564:	e8bd 4070 	ldmia.w	sp!, {r4, r5, r6, lr}
  102568:	f004 bbb1 	b.w	106cce <__aeabi_atexit>
  10256c:	3fff43bc 	.word	0x3fff43bc
  102570:	3fff40a0 	.word	0x3fff40a0
  102574:	00107215 	.word	0x00107215
  102578:	3fff4244 	.word	0x3fff4244
  10257c:	00102145 	.word	0x00102145
  102580:	3fff43ec 	.word	0x3fff43ec
  102584:	3fff43d4 	.word	0x3fff43d4
  102588:	3fff4640 	.word	0x3fff4640
  10258c:	3fff465c 	.word	0x3fff465c
  102590:	3fff4610 	.word	0x3fff4610
  102594:	001070f7 	.word	0x001070f7
  102598:	3fff45a0 	.word	0x3fff45a0
  10259c:	0010e4dc 	.word	0x0010e4dc
  1025a0:	001021bd 	.word	0x001021bd
  1025a4:	3fff45d8 	.word	0x3fff45d8
  1025a8:	001022d1 	.word	0x001022d1
  1025ac:	3fff4408 	.word	0x3fff4408
  1025b0:	3fff4520 	.word	0x3fff4520
  1025b4:	00102291 	.word	0x00102291
  1025b8:	3fff4440 	.word	0x3fff4440

001025bc <_start>:
  1025bc:	4808      	ldr	r0, [pc, #32]	; (1025e0 <_start+0x24>)
  1025be:	4a09      	ldr	r2, [pc, #36]	; (1025e4 <_start+0x28>)
  1025c0:	b508      	push	{r3, lr}
  1025c2:	1a12      	subs	r2, r2, r0
  1025c4:	2100      	movs	r1, #0
  1025c6:	f006 faab 	bl	108b20 <memset>
  1025ca:	f000 fd03 	bl	102fd4 <software_init_hook>
  1025ce:	f006 f9ed 	bl	1089ac <__libc_init_array>
  1025d2:	f002 fd67 	bl	1050a4 <expReset_AppLedON>
  1025d6:	f000 fcf5 	bl	102fc4 <__wrap_main>
  1025da:	f004 fb7a 	bl	106cd2 <__wrap_exit>
  1025de:	bf00      	nop
  1025e0:	3fff4220 	.word	0x3fff4220
  1025e4:	3fff60f4 	.word	0x3fff60f4

001025e8 <__wrap__isatty>:
  1025e8:	2802      	cmp	r0, #2
  1025ea:	dd01      	ble.n	1025f0 <__wrap__isatty+0x8>
  1025ec:	f004 baf6 	b.w	106bdc <_isatty>
  1025f0:	2001      	movs	r0, #1
  1025f2:	4770      	bx	lr

001025f4 <abort>:
  1025f4:	b508      	push	{r3, lr}
  1025f6:	2001      	movs	r0, #1
  1025f8:	f004 fb6b 	bl	106cd2 <__wrap_exit>

001025fc <__cxa_pure_virtual>:
  1025fc:	b508      	push	{r3, lr}
  1025fe:	f7ff fff9 	bl	1025f4 <abort>
	...

00102604 <PCA9655E::PCA9655E(PinName, PinName, unsigned char, PinName)>:
  102604:	b538      	push	{r3, r4, r5, lr}
  102606:	4604      	mov	r4, r0
  102608:	461d      	mov	r5, r3
  10260a:	f003 fd5d 	bl	1060c8 <mbed::I2C::I2C(PinName, PinName)>
  10260e:	f99d 1010 	ldrsb.w	r1, [sp, #16]
  102612:	f104 0020 	add.w	r0, r4, #32
  102616:	f003 fe4f 	bl	1062b8 <mbed::InterruptIn::InterruptIn(PinName)>
  10261a:	4620      	mov	r0, r4
  10261c:	7725      	strb	r5, [r4, #28]
  10261e:	4902      	ldr	r1, [pc, #8]	; (102628 <PCA9655E::PCA9655E(PinName, PinName, unsigned char, PinName)+0x24>)
  102620:	f003 fd70 	bl	106104 <mbed::I2C::frequency(int)>
  102624:	4620      	mov	r0, r4
  102626:	bd38      	pop	{r3, r4, r5, pc}
  102628:	000f4240 	.word	0x000f4240

0010262c <PCA9655E::frequency(int)>:
  10262c:	b508      	push	{r3, lr}
  10262e:	b672      	cpsid	i
  102630:	f003 fd68 	bl	106104 <mbed::I2C::frequency(int)>
  102634:	b662      	cpsie	i
  102636:	bd08      	pop	{r3, pc}

00102638 <PCA9655E::write(Register, char)>:
  102638:	b51f      	push	{r0, r1, r2, r3, r4, lr}
  10263a:	b672      	cpsid	i
  10263c:	2300      	movs	r3, #0
  10263e:	f88d 100c 	strb.w	r1, [sp, #12]
  102642:	f88d 200d 	strb.w	r2, [sp, #13]
  102646:	7f01      	ldrb	r1, [r0, #28]
  102648:	aa03      	add	r2, sp, #12
  10264a:	9300      	str	r3, [sp, #0]
  10264c:	2302      	movs	r3, #2
  10264e:	f003 fd85 	bl	10615c <mbed::I2C::write(int, char const*, int, bool)>
  102652:	b662      	cpsie	i
  102654:	b005      	add	sp, #20
  102656:	f85d fb04 	ldr.w	pc, [sp], #4

0010265a <PCA9655E::read(Register)>:
  10265a:	b530      	push	{r4, r5, lr}
  10265c:	b085      	sub	sp, #20
  10265e:	aa04      	add	r2, sp, #16
  102660:	4604      	mov	r4, r0
  102662:	f802 1d01 	strb.w	r1, [r2, #-1]!
  102666:	b672      	cpsid	i
  102668:	2501      	movs	r5, #1
  10266a:	7f01      	ldrb	r1, [r0, #28]
  10266c:	462b      	mov	r3, r5
  10266e:	9500      	str	r5, [sp, #0]
  102670:	f003 fd74 	bl	10615c <mbed::I2C::write(int, char const*, int, bool)>
  102674:	2300      	movs	r3, #0
  102676:	9300      	str	r3, [sp, #0]
  102678:	7f21      	ldrb	r1, [r4, #28]
  10267a:	462b      	mov	r3, r5
  10267c:	f10d 020e 	add.w	r2, sp, #14
  102680:	4620      	mov	r0, r4
  102682:	f003 fd8b 	bl	10619c <mbed::I2C::read(int, char*, int, bool)>
  102686:	b662      	cpsie	i
  102688:	f89d 000e 	ldrb.w	r0, [sp, #14]
  10268c:	b005      	add	sp, #20
  10268e:	bd30      	pop	{r4, r5, pc}

00102690 <PCA9655E::setValue(Port, signed char, SetVal)>:
  102690:	b5f8      	push	{r3, r4, r5, r6, r7, lr}
  102692:	461c      	mov	r4, r3
  102694:	b2d3      	uxtb	r3, r2
  102696:	2b07      	cmp	r3, #7
  102698:	4606      	mov	r6, r0
  10269a:	460d      	mov	r5, r1
  10269c:	4617      	mov	r7, r2
  10269e:	d904      	bls.n	1026aa <PCA9655E::setValue(Port, signed char, SetVal)+0x1a>
  1026a0:	225c      	movs	r2, #92	; 0x5c
  1026a2:	4911      	ldr	r1, [pc, #68]	; (1026e8 <PCA9655E::setValue(Port, signed char, SetVal)+0x58>)
  1026a4:	4811      	ldr	r0, [pc, #68]	; (1026ec <PCA9655E::setValue(Port, signed char, SetVal)+0x5c>)
  1026a6:	f000 fb49 	bl	102d3c <mbed_assert_internal>
  1026aa:	b11d      	cbz	r5, 1026b4 <PCA9655E::setValue(Port, signed char, SetVal)+0x24>
  1026ac:	2d01      	cmp	r5, #1
  1026ae:	d11a      	bne.n	1026e6 <PCA9655E::setValue(Port, signed char, SetVal)+0x56>
  1026b0:	2503      	movs	r5, #3
  1026b2:	e000      	b.n	1026b6 <PCA9655E::setValue(Port, signed char, SetVal)+0x26>
  1026b4:	2502      	movs	r5, #2
  1026b6:	4629      	mov	r1, r5
  1026b8:	4630      	mov	r0, r6
  1026ba:	f7ff ffce 	bl	10265a <PCA9655E::read(Register)>
  1026be:	b13c      	cbz	r4, 1026d0 <PCA9655E::setValue(Port, signed char, SetVal)+0x40>
  1026c0:	2c01      	cmp	r4, #1
  1026c2:	d001      	beq.n	1026c8 <PCA9655E::setValue(Port, signed char, SetVal)+0x38>
  1026c4:	b2c2      	uxtb	r2, r0
  1026c6:	e008      	b.n	1026da <PCA9655E::setValue(Port, signed char, SetVal)+0x4a>
  1026c8:	fa04 f207 	lsl.w	r2, r4, r7
  1026cc:	4302      	orrs	r2, r0
  1026ce:	e003      	b.n	1026d8 <PCA9655E::setValue(Port, signed char, SetVal)+0x48>
  1026d0:	2201      	movs	r2, #1
  1026d2:	40ba      	lsls	r2, r7
  1026d4:	ea20 0202 	bic.w	r2, r0, r2
  1026d8:	b2d2      	uxtb	r2, r2
  1026da:	4629      	mov	r1, r5
  1026dc:	4630      	mov	r0, r6
  1026de:	e8bd 40f8 	ldmia.w	sp!, {r3, r4, r5, r6, r7, lr}
  1026e2:	f7ff bfa9 	b.w	102638 <PCA9655E::write(Register, char)>
  1026e6:	bdf8      	pop	{r3, r4, r5, r6, r7, pc}
  1026e8:	0010da50 	.word	0x0010da50
  1026ec:	0010da75 	.word	0x0010da75

001026f0 <PCA9655E::setDirection(Port, signed char, Direction)>:
  1026f0:	b5f8      	push	{r3, r4, r5, r6, r7, lr}
  1026f2:	461c      	mov	r4, r3
  1026f4:	b2d3      	uxtb	r3, r2
  1026f6:	2b07      	cmp	r3, #7
  1026f8:	4606      	mov	r6, r0
  1026fa:	460d      	mov	r5, r1
  1026fc:	4617      	mov	r7, r2
  1026fe:	d904      	bls.n	10270a <PCA9655E::setDirection(Port, signed char, Direction)+0x1a>
  102700:	227b      	movs	r2, #123	; 0x7b
  102702:	4911      	ldr	r1, [pc, #68]	; (102748 <PCA9655E::setDirection(Port, signed char, Direction)+0x58>)
  102704:	4811      	ldr	r0, [pc, #68]	; (10274c <PCA9655E::setDirection(Port, signed char, Direction)+0x5c>)
  102706:	f000 fb19 	bl	102d3c <mbed_assert_internal>
  10270a:	b11d      	cbz	r5, 102714 <PCA9655E::setDirection(Port, signed char, Direction)+0x24>
  10270c:	2d01      	cmp	r5, #1
  10270e:	d11a      	bne.n	102746 <PCA9655E::setDirection(Port, signed char, Direction)+0x56>
  102710:	2507      	movs	r5, #7
  102712:	e000      	b.n	102716 <PCA9655E::setDirection(Port, signed char, Direction)+0x26>
  102714:	2506      	movs	r5, #6
  102716:	4629      	mov	r1, r5
  102718:	4630      	mov	r0, r6
  10271a:	f7ff ff9e 	bl	10265a <PCA9655E::read(Register)>
  10271e:	b11c      	cbz	r4, 102728 <PCA9655E::setDirection(Port, signed char, Direction)+0x38>
  102720:	2c01      	cmp	r4, #1
  102722:	d006      	beq.n	102732 <PCA9655E::setDirection(Port, signed char, Direction)+0x42>
  102724:	b2c2      	uxtb	r2, r0
  102726:	e008      	b.n	10273a <PCA9655E::setDirection(Port, signed char, Direction)+0x4a>
  102728:	2201      	movs	r2, #1
  10272a:	40ba      	lsls	r2, r7
  10272c:	ea20 0202 	bic.w	r2, r0, r2
  102730:	e002      	b.n	102738 <PCA9655E::setDirection(Port, signed char, Direction)+0x48>
  102732:	fa04 f207 	lsl.w	r2, r4, r7
  102736:	4302      	orrs	r2, r0
  102738:	b2d2      	uxtb	r2, r2
  10273a:	4629      	mov	r1, r5
  10273c:	4630      	mov	r0, r6
  10273e:	e8bd 40f8 	ldmia.w	sp!, {r3, r4, r5, r6, r7, lr}
  102742:	f7ff bf79 	b.w	102638 <PCA9655E::write(Register, char)>
  102746:	bdf8      	pop	{r3, r4, r5, r6, r7, pc}
  102748:	0010da50 	.word	0x0010da50
  10274c:	0010da75 	.word	0x0010da75

00102750 <PCA9655E::~PCA9655E()>:
  102750:	b510      	push	{r4, lr}
  102752:	4604      	mov	r4, r0
  102754:	3020      	adds	r0, #32
  102756:	f003 fd7f 	bl	106258 <mbed::InterruptIn::~InterruptIn()>
  10275a:	4620      	mov	r0, r4
  10275c:	bd10      	pop	{r4, pc}

0010275e <NHD_C0216CZ::getDdramAddr(int, int, unsigned char*)>:
  10275e:	1e48      	subs	r0, r1, #1
  102760:	2801      	cmp	r0, #1
  102762:	d809      	bhi.n	102778 <NHD_C0216CZ::getDdramAddr(int, int, unsigned char*)+0x1a>
  102764:	1e50      	subs	r0, r2, #1
  102766:	280f      	cmp	r0, #15
  102768:	d806      	bhi.n	102778 <NHD_C0216CZ::getDdramAddr(int, int, unsigned char*)+0x1a>
  10276a:	2902      	cmp	r1, #2
  10276c:	bf0a      	itet	eq
  10276e:	323f      	addeq	r2, #63	; 0x3f
  102770:	7018      	strbne	r0, [r3, #0]
  102772:	701a      	strbeq	r2, [r3, #0]
  102774:	2001      	movs	r0, #1
  102776:	4770      	bx	lr
  102778:	2000      	movs	r0, #0
  10277a:	4770      	bx	lr

0010277c <NHD_C0216CZ::i2cCsEnable()>:
  10277c:	b510      	push	{r4, lr}
  10277e:	f100 0440 	add.w	r4, r0, #64	; 0x40
  102782:	2301      	movs	r3, #1
  102784:	2202      	movs	r2, #2
  102786:	2100      	movs	r1, #0
  102788:	4620      	mov	r0, r4
  10278a:	f7ff ff81 	bl	102690 <PCA9655E::setValue(Port, signed char, SetVal)>
  10278e:	2014      	movs	r0, #20
  102790:	f004 fb80 	bl	106e94 <wait_us>
  102794:	2001      	movs	r0, #1
  102796:	f004 fb7d 	bl	106e94 <wait_us>
  10279a:	2300      	movs	r3, #0
  10279c:	4620      	mov	r0, r4
  10279e:	2202      	movs	r2, #2
  1027a0:	4619      	mov	r1, r3
  1027a2:	f7ff ff75 	bl	102690 <PCA9655E::setValue(Port, signed char, SetVal)>
  1027a6:	2014      	movs	r0, #20
  1027a8:	f004 fb74 	bl	106e94 <wait_us>
  1027ac:	e8bd 4010 	ldmia.w	sp!, {r4, lr}
  1027b0:	2001      	movs	r0, #1
  1027b2:	f004 bb6f 	b.w	106e94 <wait_us>

001027b6 <NHD_C0216CZ::i2cCsDisable()>:
  1027b6:	b510      	push	{r4, lr}
  1027b8:	4604      	mov	r4, r0
  1027ba:	2001      	movs	r0, #1
  1027bc:	f004 fb6a 	bl	106e94 <wait_us>
  1027c0:	f104 0040 	add.w	r0, r4, #64	; 0x40
  1027c4:	2301      	movs	r3, #1
  1027c6:	2202      	movs	r2, #2
  1027c8:	2100      	movs	r1, #0
  1027ca:	f7ff ff61 	bl	102690 <PCA9655E::setValue(Port, signed char, SetVal)>
  1027ce:	e8bd 4010 	ldmia.w	sp!, {r4, lr}
  1027d2:	2014      	movs	r0, #20
  1027d4:	f004 bb5e 	b.w	106e94 <wait_us>

001027d8 <NHD_C0216CZ::setRsPin(NHD_C0216CZ::LEVEL_T)>:
  1027d8:	b538      	push	{r3, r4, r5, lr}
  1027da:	460c      	mov	r4, r1
  1027dc:	4605      	mov	r5, r0
  1027de:	f44f 70fa 	mov.w	r0, #500	; 0x1f4
  1027e2:	f004 fb57 	bl	106e94 <wait_us>
  1027e6:	b12c      	cbz	r4, 1027f4 <NHD_C0216CZ::setRsPin(NHD_C0216CZ::LEVEL_T)+0x1c>
  1027e8:	2c01      	cmp	r4, #1
  1027ea:	d10a      	bne.n	102802 <NHD_C0216CZ::setRsPin(NHD_C0216CZ::LEVEL_T)+0x2a>
  1027ec:	4623      	mov	r3, r4
  1027ee:	2203      	movs	r2, #3
  1027f0:	2100      	movs	r1, #0
  1027f2:	e002      	b.n	1027fa <NHD_C0216CZ::setRsPin(NHD_C0216CZ::LEVEL_T)+0x22>
  1027f4:	4623      	mov	r3, r4
  1027f6:	4621      	mov	r1, r4
  1027f8:	2203      	movs	r2, #3
  1027fa:	f105 0040 	add.w	r0, r5, #64	; 0x40
  1027fe:	f7ff ff47 	bl	102690 <PCA9655E::setValue(Port, signed char, SetVal)>
  102802:	2014      	movs	r0, #20
  102804:	f004 fb46 	bl	106e94 <wait_us>
  102808:	e8bd 4038 	ldmia.w	sp!, {r3, r4, r5, lr}
  10280c:	f44f 70fa 	mov.w	r0, #500	; 0x1f4
  102810:	f004 bb40 	b.w	106e94 <wait_us>

00102814 <NHD_C0216CZ::setSpiParams()>:
  102814:	b510      	push	{r4, lr}
  102816:	4604      	mov	r4, r0
  102818:	2108      	movs	r1, #8
  10281a:	2200      	movs	r2, #0
  10281c:	f003 fed0 	bl	1065c0 <mbed::SPI::format(int, int)>
  102820:	4620      	mov	r0, r4
  102822:	e8bd 4010 	ldmia.w	sp!, {r4, lr}
  102826:	4901      	ldr	r1, [pc, #4]	; (10282c <NHD_C0216CZ::setSpiParams()+0x18>)
  102828:	f003 bee2 	b.w	1065f0 <mbed::SPI::frequency(int)>
  10282c:	0007a120 	.word	0x0007a120

00102830 <NHD_C0216CZ::resetSpiParams()>:
  102830:	b510      	push	{r4, lr}
  102832:	4604      	mov	r4, r0
  102834:	2108      	movs	r1, #8
  102836:	2200      	movs	r2, #0
  102838:	f003 fec2 	bl	1065c0 <mbed::SPI::format(int, int)>
  10283c:	4620      	mov	r0, r4
  10283e:	e8bd 4010 	ldmia.w	sp!, {r4, lr}
  102842:	4901      	ldr	r1, [pc, #4]	; (102848 <NHD_C0216CZ::resetSpiParams()+0x18>)
  102844:	f003 bed4 	b.w	1065f0 <mbed::SPI::frequency(int)>
  102848:	000f4240 	.word	0x000f4240

0010284c <NHD_C0216CZ::sendCommand(unsigned char)>:
  10284c:	b538      	push	{r3, r4, r5, lr}
  10284e:	4604      	mov	r4, r0
  102850:	460d      	mov	r5, r1
  102852:	4811      	ldr	r0, [pc, #68]	; (102898 <NHD_C0216CZ::sendCommand(unsigned char)+0x4c>)
  102854:	f04f 31ff 	mov.w	r1, #4294967295
  102858:	f004 fc47 	bl	1070ea <rtos::Mutex::lock(unsigned long)>
  10285c:	4620      	mov	r0, r4
  10285e:	f7ff ffd9 	bl	102814 <NHD_C0216CZ::setSpiParams()>
  102862:	4620      	mov	r0, r4
  102864:	f7ff ff8a 	bl	10277c <NHD_C0216CZ::i2cCsEnable()>
  102868:	4620      	mov	r0, r4
  10286a:	2100      	movs	r1, #0
  10286c:	f7ff ffb4 	bl	1027d8 <NHD_C0216CZ::setRsPin(NHD_C0216CZ::LEVEL_T)>
  102870:	4629      	mov	r1, r5
  102872:	4620      	mov	r0, r4
  102874:	f003 fed2 	bl	10661c <mbed::SPI::write(int)>
  102878:	4620      	mov	r0, r4
  10287a:	f7ff ff9c 	bl	1027b6 <NHD_C0216CZ::i2cCsDisable()>
  10287e:	2d01      	cmp	r5, #1
  102880:	4620      	mov	r0, r4
  102882:	bf04      	itt	eq
  102884:	63a5      	streq	r5, [r4, #56]	; 0x38
  102886:	63e5      	streq	r5, [r4, #60]	; 0x3c
  102888:	f7ff ffd2 	bl	102830 <NHD_C0216CZ::resetSpiParams()>
  10288c:	e8bd 4038 	ldmia.w	sp!, {r3, r4, r5, lr}
  102890:	4801      	ldr	r0, [pc, #4]	; (102898 <NHD_C0216CZ::sendCommand(unsigned char)+0x4c>)
  102892:	f004 bc2d 	b.w	1070f0 <rtos::Mutex::unlock()>
  102896:	bf00      	nop
  102898:	3fff4610 	.word	0x3fff4610

0010289c <NHD_C0216CZ::clearDisplay()>:
  10289c:	2101      	movs	r1, #1
  10289e:	f7ff bfd5 	b.w	10284c <NHD_C0216CZ::sendCommand(unsigned char)>

001028a2 <NHD_C0216CZ::setPosition(int, int)>:
  1028a2:	b573      	push	{r0, r1, r4, r5, r6, lr}
  1028a4:	f10d 0307 	add.w	r3, sp, #7
  1028a8:	4604      	mov	r4, r0
  1028aa:	4615      	mov	r5, r2
  1028ac:	f7ff ff57 	bl	10275e <NHD_C0216CZ::getDdramAddr(int, int, unsigned char*)>
  1028b0:	b150      	cbz	r0, 1028c8 <NHD_C0216CZ::setPosition(int, int)+0x26>
  1028b2:	63a1      	str	r1, [r4, #56]	; 0x38
  1028b4:	f89d 1007 	ldrb.w	r1, [sp, #7]
  1028b8:	4620      	mov	r0, r4
  1028ba:	63e5      	str	r5, [r4, #60]	; 0x3c
  1028bc:	f041 0180 	orr.w	r1, r1, #128	; 0x80
  1028c0:	f7ff ffc4 	bl	10284c <NHD_C0216CZ::sendCommand(unsigned char)>
  1028c4:	2000      	movs	r0, #0
  1028c6:	e001      	b.n	1028cc <NHD_C0216CZ::setPosition(int, int)+0x2a>
  1028c8:	f04f 30ff 	mov.w	r0, #4294967295
  1028cc:	b002      	add	sp, #8
  1028ce:	bd70      	pop	{r4, r5, r6, pc}

001028d0 <NHD_C0216CZ::intializeLcd()>:
  1028d0:	b510      	push	{r4, lr}
  1028d2:	4604      	mov	r4, r0
  1028d4:	2130      	movs	r1, #48	; 0x30
  1028d6:	f7ff ffb9 	bl	10284c <NHD_C0216CZ::sendCommand(unsigned char)>
  1028da:	2002      	movs	r0, #2
  1028dc:	f004 fafe 	bl	106edc <wait_ms>
  1028e0:	4620      	mov	r0, r4
  1028e2:	2130      	movs	r1, #48	; 0x30
  1028e4:	f7ff ffb2 	bl	10284c <NHD_C0216CZ::sendCommand(unsigned char)>
  1028e8:	4620      	mov	r0, r4
  1028ea:	2130      	movs	r1, #48	; 0x30
  1028ec:	f7ff ffae 	bl	10284c <NHD_C0216CZ::sendCommand(unsigned char)>
  1028f0:	4620      	mov	r0, r4
  1028f2:	2139      	movs	r1, #57	; 0x39
  1028f4:	f7ff ffaa 	bl	10284c <NHD_C0216CZ::sendCommand(unsigned char)>
  1028f8:	4620      	mov	r0, r4
  1028fa:	2114      	movs	r1, #20
  1028fc:	f7ff ffa6 	bl	10284c <NHD_C0216CZ::sendCommand(unsigned char)>
  102900:	4620      	mov	r0, r4
  102902:	2156      	movs	r1, #86	; 0x56
  102904:	f7ff ffa2 	bl	10284c <NHD_C0216CZ::sendCommand(unsigned char)>
  102908:	4620      	mov	r0, r4
  10290a:	216d      	movs	r1, #109	; 0x6d
  10290c:	f7ff ff9e 	bl	10284c <NHD_C0216CZ::sendCommand(unsigned char)>
  102910:	4620      	mov	r0, r4
  102912:	2170      	movs	r1, #112	; 0x70
  102914:	f7ff ff9a 	bl	10284c <NHD_C0216CZ::sendCommand(unsigned char)>
  102918:	4620      	mov	r0, r4
  10291a:	210c      	movs	r1, #12
  10291c:	f7ff ff96 	bl	10284c <NHD_C0216CZ::sendCommand(unsigned char)>
  102920:	4620      	mov	r0, r4
  102922:	2106      	movs	r1, #6
  102924:	f7ff ff92 	bl	10284c <NHD_C0216CZ::sendCommand(unsigned char)>
  102928:	4620      	mov	r0, r4
  10292a:	2101      	movs	r1, #1
  10292c:	f7ff ff8e 	bl	10284c <NHD_C0216CZ::sendCommand(unsigned char)>
  102930:	e8bd 4010 	ldmia.w	sp!, {r4, lr}
  102934:	200a      	movs	r0, #10
  102936:	f004 bad1 	b.w	106edc <wait_ms>
	...

0010293c <NHD_C0216CZ::init()>:
  10293c:	b538      	push	{r3, r4, r5, lr}
  10293e:	4604      	mov	r4, r0
  102940:	f100 0540 	add.w	r5, r0, #64	; 0x40
  102944:	4628      	mov	r0, r5
  102946:	490f      	ldr	r1, [pc, #60]	; (102984 <NHD_C0216CZ::init()+0x48>)
  102948:	f7ff fe70 	bl	10262c <PCA9655E::frequency(int)>
  10294c:	2300      	movs	r3, #0
  10294e:	4619      	mov	r1, r3
  102950:	4628      	mov	r0, r5
  102952:	2202      	movs	r2, #2
  102954:	f7ff fecc 	bl	1026f0 <PCA9655E::setDirection(Port, signed char, Direction)>
  102958:	2300      	movs	r3, #0
  10295a:	4619      	mov	r1, r3
  10295c:	2203      	movs	r2, #3
  10295e:	4628      	mov	r0, r5
  102960:	f7ff fec6 	bl	1026f0 <PCA9655E::setDirection(Port, signed char, Direction)>
  102964:	4620      	mov	r0, r4
  102966:	f7ff ff26 	bl	1027b6 <NHD_C0216CZ::i2cCsDisable()>
  10296a:	4620      	mov	r0, r4
  10296c:	f7ff ff52 	bl	102814 <NHD_C0216CZ::setSpiParams()>
  102970:	4620      	mov	r0, r4
  102972:	f7ff ffad 	bl	1028d0 <NHD_C0216CZ::intializeLcd()>
  102976:	2201      	movs	r2, #1
  102978:	4620      	mov	r0, r4
  10297a:	e8bd 4038 	ldmia.w	sp!, {r3, r4, r5, lr}
  10297e:	4611      	mov	r1, r2
  102980:	f7ff bf8f 	b.w	1028a2 <NHD_C0216CZ::setPosition(int, int)>
  102984:	000f4240 	.word	0x000f4240

00102988 <NHD_C0216CZ::sendData(char const*, int)>:
  102988:	e92d 41f0 	stmdb	sp!, {r4, r5, r6, r7, r8, lr}
  10298c:	1e16      	subs	r6, r2, #0
  10298e:	4604      	mov	r4, r0
  102990:	460d      	mov	r5, r1
  102992:	dd48      	ble.n	102a26 <NHD_C0216CZ::sendData(char const*, int)+0x9e>
  102994:	2900      	cmp	r1, #0
  102996:	d046      	beq.n	102a26 <NHD_C0216CZ::sendData(char const*, int)+0x9e>
  102998:	f04f 31ff 	mov.w	r1, #4294967295
  10299c:	4824      	ldr	r0, [pc, #144]	; (102a30 <NHD_C0216CZ::sendData(char const*, int)+0xa8>)
  10299e:	f004 fba4 	bl	1070ea <rtos::Mutex::lock(unsigned long)>
  1029a2:	4620      	mov	r0, r4
  1029a4:	f7ff ff36 	bl	102814 <NHD_C0216CZ::setSpiParams()>
  1029a8:	4620      	mov	r0, r4
  1029aa:	f7ff fee7 	bl	10277c <NHD_C0216CZ::i2cCsEnable()>
  1029ae:	2101      	movs	r1, #1
  1029b0:	4620      	mov	r0, r4
  1029b2:	f7ff ff11 	bl	1027d8 <NHD_C0216CZ::setRsPin(NHD_C0216CZ::LEVEL_T)>
  1029b6:	442e      	add	r6, r5
  1029b8:	f04f 0801 	mov.w	r8, #1
  1029bc:	6be3      	ldr	r3, [r4, #60]	; 0x3c
  1029be:	f815 7b01 	ldrb.w	r7, [r5], #1
  1029c2:	2b10      	cmp	r3, #16
  1029c4:	dc09      	bgt.n	1029da <NHD_C0216CZ::sendData(char const*, int)+0x52>
  1029c6:	2f0a      	cmp	r7, #10
  1029c8:	d007      	beq.n	1029da <NHD_C0216CZ::sendData(char const*, int)+0x52>
  1029ca:	4639      	mov	r1, r7
  1029cc:	4620      	mov	r0, r4
  1029ce:	f003 fe25 	bl	10661c <mbed::SPI::write(int)>
  1029d2:	6be3      	ldr	r3, [r4, #60]	; 0x3c
  1029d4:	3301      	adds	r3, #1
  1029d6:	63e3      	str	r3, [r4, #60]	; 0x3c
  1029d8:	e017      	b.n	102a0a <NHD_C0216CZ::sendData(char const*, int)+0x82>
  1029da:	6ba1      	ldr	r1, [r4, #56]	; 0x38
  1029dc:	2201      	movs	r2, #1
  1029de:	3101      	adds	r1, #1
  1029e0:	2902      	cmp	r1, #2
  1029e2:	bfc8      	it	gt
  1029e4:	2101      	movgt	r1, #1
  1029e6:	63a1      	str	r1, [r4, #56]	; 0x38
  1029e8:	f8c4 803c 	str.w	r8, [r4, #60]	; 0x3c
  1029ec:	4620      	mov	r0, r4
  1029ee:	f7ff ff58 	bl	1028a2 <NHD_C0216CZ::setPosition(int, int)>
  1029f2:	4620      	mov	r0, r4
  1029f4:	f7ff ff0e 	bl	102814 <NHD_C0216CZ::setSpiParams()>
  1029f8:	2101      	movs	r1, #1
  1029fa:	4620      	mov	r0, r4
  1029fc:	f7ff feec 	bl	1027d8 <NHD_C0216CZ::setRsPin(NHD_C0216CZ::LEVEL_T)>
  102a00:	4620      	mov	r0, r4
  102a02:	f7ff febb 	bl	10277c <NHD_C0216CZ::i2cCsEnable()>
  102a06:	2f0a      	cmp	r7, #10
  102a08:	d1df      	bne.n	1029ca <NHD_C0216CZ::sendData(char const*, int)+0x42>
  102a0a:	42b5      	cmp	r5, r6
  102a0c:	d1d6      	bne.n	1029bc <NHD_C0216CZ::sendData(char const*, int)+0x34>
  102a0e:	4620      	mov	r0, r4
  102a10:	f7ff fed1 	bl	1027b6 <NHD_C0216CZ::i2cCsDisable()>
  102a14:	4620      	mov	r0, r4
  102a16:	f7ff ff0b 	bl	102830 <NHD_C0216CZ::resetSpiParams()>
  102a1a:	4805      	ldr	r0, [pc, #20]	; (102a30 <NHD_C0216CZ::sendData(char const*, int)+0xa8>)
  102a1c:	f004 fb68 	bl	1070f0 <rtos::Mutex::unlock()>
  102a20:	2000      	movs	r0, #0
  102a22:	e8bd 81f0 	ldmia.w	sp!, {r4, r5, r6, r7, r8, pc}
  102a26:	f04f 30ff 	mov.w	r0, #4294967295
  102a2a:	e8bd 81f0 	ldmia.w	sp!, {r4, r5, r6, r7, r8, pc}
  102a2e:	bf00      	nop
  102a30:	3fff4610 	.word	0x3fff4610

00102a34 <NHD_C0216CZ::displayStringToPos(char const*, int, int)>:
  102a34:	b570      	push	{r4, r5, r6, lr}
  102a36:	4606      	mov	r6, r0
  102a38:	4614      	mov	r4, r2
  102a3a:	460d      	mov	r5, r1
  102a3c:	b911      	cbnz	r1, 102a44 <NHD_C0216CZ::displayStringToPos(char const*, int, int)+0x10>
  102a3e:	f04f 30ff 	mov.w	r0, #4294967295
  102a42:	bd70      	pop	{r4, r5, r6, pc}
  102a44:	461a      	mov	r2, r3
  102a46:	4621      	mov	r1, r4
  102a48:	f7ff ff2b 	bl	1028a2 <NHD_C0216CZ::setPosition(int, int)>
  102a4c:	2800      	cmp	r0, #0
  102a4e:	d1f6      	bne.n	102a3e <NHD_C0216CZ::displayStringToPos(char const*, int, int)+0xa>
  102a50:	462b      	mov	r3, r5
  102a52:	1b5a      	subs	r2, r3, r5
  102a54:	f813 4b01 	ldrb.w	r4, [r3], #1
  102a58:	2c00      	cmp	r4, #0
  102a5a:	d1fa      	bne.n	102a52 <NHD_C0216CZ::displayStringToPos(char const*, int, int)+0x1e>
  102a5c:	4629      	mov	r1, r5
  102a5e:	4630      	mov	r0, r6
  102a60:	f7ff ff92 	bl	102988 <NHD_C0216CZ::sendData(char const*, int)>
  102a64:	4620      	mov	r0, r4
  102a66:	bd70      	pop	{r4, r5, r6, pc}

00102a68 <NHD_C0216CZ::displayString(char const*)>:
  102a68:	b570      	push	{r4, r5, r6, lr}
  102a6a:	4604      	mov	r4, r0
  102a6c:	460d      	mov	r5, r1
  102a6e:	f7ff ff15 	bl	10289c <NHD_C0216CZ::clearDisplay()>
  102a72:	2301      	movs	r3, #1
  102a74:	4629      	mov	r1, r5
  102a76:	4620      	mov	r0, r4
  102a78:	e8bd 4070 	ldmia.w	sp!, {r4, r5, r6, lr}
  102a7c:	461a      	mov	r2, r3
  102a7e:	f7ff bfd9 	b.w	102a34 <NHD_C0216CZ::displayStringToPos(char const*, int, int)>

00102a82 <_gpio_init_in>:
  102a82:	b570      	push	{r4, r5, r6, lr}
  102a84:	460e      	mov	r6, r1
  102a86:	4604      	mov	r4, r0
  102a88:	4615      	mov	r5, r2
  102a8a:	f002 f925 	bl	104cd8 <gpio_init>
  102a8e:	3601      	adds	r6, #1
  102a90:	d009      	beq.n	102aa6 <_gpio_init_in+0x24>
  102a92:	4620      	mov	r0, r4
  102a94:	2100      	movs	r1, #0
  102a96:	f002 f949 	bl	104d2c <gpio_dir>
  102a9a:	4629      	mov	r1, r5
  102a9c:	4620      	mov	r0, r4
  102a9e:	e8bd 4070 	ldmia.w	sp!, {r4, r5, r6, lr}
  102aa2:	f002 b93f 	b.w	104d24 <gpio_mode>
  102aa6:	bd70      	pop	{r4, r5, r6, pc}

00102aa8 <gpio_init_in>:
  102aa8:	b538      	push	{r3, r4, r5, lr}
  102aaa:	460c      	mov	r4, r1
  102aac:	2201      	movs	r2, #1
  102aae:	4605      	mov	r5, r0
  102ab0:	f7ff ffe7 	bl	102a82 <_gpio_init_in>
  102ab4:	2c0f      	cmp	r4, #15
  102ab6:	d106      	bne.n	102ac6 <gpio_init_in+0x1e>
  102ab8:	4621      	mov	r1, r4
  102aba:	4628      	mov	r0, r5
  102abc:	e8bd 4038 	ldmia.w	sp!, {r3, r4, r5, lr}
  102ac0:	2201      	movs	r2, #1
  102ac2:	f7ff bfde 	b.w	102a82 <_gpio_init_in>
  102ac6:	bd38      	pop	{r3, r4, r5, pc}

00102ac8 <gpio_init_out_ex>:
  102ac8:	b570      	push	{r4, r5, r6, lr}
  102aca:	460e      	mov	r6, r1
  102acc:	4604      	mov	r4, r0
  102ace:	4615      	mov	r5, r2
  102ad0:	f002 f902 	bl	104cd8 <gpio_init>
  102ad4:	3601      	adds	r6, #1
  102ad6:	d00d      	beq.n	102af4 <gpio_init_out_ex+0x2c>
  102ad8:	4629      	mov	r1, r5
  102ada:	4620      	mov	r0, r4
  102adc:	f002 f938 	bl	104d50 <gpio_write>
  102ae0:	4620      	mov	r0, r4
  102ae2:	2101      	movs	r1, #1
  102ae4:	f002 f922 	bl	104d2c <gpio_dir>
  102ae8:	4620      	mov	r0, r4
  102aea:	e8bd 4070 	ldmia.w	sp!, {r4, r5, r6, lr}
  102aee:	2101      	movs	r1, #1
  102af0:	f002 b918 	b.w	104d24 <gpio_mode>
  102af4:	bd70      	pop	{r4, r5, r6, pc}

00102af6 <gpio_init_out>:
  102af6:	2200      	movs	r2, #0
  102af8:	f7ff bfe6 	b.w	102ac8 <gpio_init_out_ex>

00102afc <lp_ticker_irq_handler>:
  102afc:	4801      	ldr	r0, [pc, #4]	; (102b04 <lp_ticker_irq_handler+0x8>)
  102afe:	f000 b8a4 	b.w	102c4a <ticker_irq_handler>
  102b02:	bf00      	nop
  102b04:	0010daa4 	.word	0x0010daa4

00102b08 <pinmap_pinout>:
  102b08:	b510      	push	{r4, lr}
  102b0a:	4604      	mov	r4, r0
  102b0c:	3001      	adds	r0, #1
  102b0e:	d101      	bne.n	102b14 <pinmap_pinout+0xc>
  102b10:	bd10      	pop	{r4, pc}
  102b12:	310c      	adds	r1, #12
  102b14:	f991 3000 	ldrsb.w	r3, [r1]
  102b18:	1c5a      	adds	r2, r3, #1
  102b1a:	d00b      	beq.n	102b34 <pinmap_pinout+0x2c>
  102b1c:	429c      	cmp	r4, r3
  102b1e:	d1f8      	bne.n	102b12 <pinmap_pinout+0xa>
  102b20:	4620      	mov	r0, r4
  102b22:	6889      	ldr	r1, [r1, #8]
  102b24:	f002 ff68 	bl	1059f8 <pin_function>
  102b28:	4620      	mov	r0, r4
  102b2a:	e8bd 4010 	ldmia.w	sp!, {r4, lr}
  102b2e:	2101      	movs	r1, #1
  102b30:	f002 bf74 	b.w	105a1c <pin_mode>
  102b34:	4802      	ldr	r0, [pc, #8]	; (102b40 <pinmap_pinout+0x38>)
  102b36:	e8bd 4010 	ldmia.w	sp!, {r4, lr}
  102b3a:	f000 b9a1 	b.w	102e80 <error>
  102b3e:	bf00      	nop
  102b40:	0010daac 	.word	0x0010daac

00102b44 <pinmap_merge>:
  102b44:	4288      	cmp	r0, r1
  102b46:	b508      	push	{r3, lr}
  102b48:	d00a      	beq.n	102b60 <pinmap_merge+0x1c>
  102b4a:	1c43      	adds	r3, r0, #1
  102b4c:	d007      	beq.n	102b5e <pinmap_merge+0x1a>
  102b4e:	3101      	adds	r1, #1
  102b50:	d006      	beq.n	102b60 <pinmap_merge+0x1c>
  102b52:	4804      	ldr	r0, [pc, #16]	; (102b64 <pinmap_merge+0x20>)
  102b54:	f000 f994 	bl	102e80 <error>
  102b58:	f04f 30ff 	mov.w	r0, #4294967295
  102b5c:	bd08      	pop	{r3, pc}
  102b5e:	4608      	mov	r0, r1
  102b60:	bd08      	pop	{r3, pc}
  102b62:	bf00      	nop
  102b64:	0010dabd 	.word	0x0010dabd

00102b68 <pinmap_find_peripheral>:
  102b68:	f991 3000 	ldrsb.w	r3, [r1]
  102b6c:	1c5a      	adds	r2, r3, #1
  102b6e:	d005      	beq.n	102b7c <pinmap_find_peripheral+0x14>
  102b70:	4283      	cmp	r3, r0
  102b72:	d101      	bne.n	102b78 <pinmap_find_peripheral+0x10>
  102b74:	6848      	ldr	r0, [r1, #4]
  102b76:	4770      	bx	lr
  102b78:	310c      	adds	r1, #12
  102b7a:	e7f5      	b.n	102b68 <pinmap_find_peripheral>
  102b7c:	4618      	mov	r0, r3
  102b7e:	4770      	bx	lr

00102b80 <pinmap_peripheral>:
  102b80:	1c42      	adds	r2, r0, #1
  102b82:	b510      	push	{r4, lr}
  102b84:	4604      	mov	r4, r0
  102b86:	d007      	beq.n	102b98 <pinmap_peripheral+0x18>
  102b88:	f7ff ffee 	bl	102b68 <pinmap_find_peripheral>
  102b8c:	1c43      	adds	r3, r0, #1
  102b8e:	4604      	mov	r4, r0
  102b90:	d102      	bne.n	102b98 <pinmap_peripheral+0x18>
  102b92:	4802      	ldr	r0, [pc, #8]	; (102b9c <pinmap_peripheral+0x1c>)
  102b94:	f000 f974 	bl	102e80 <error>
  102b98:	4620      	mov	r0, r4
  102b9a:	bd10      	pop	{r4, pc}
  102b9c:	0010dace 	.word	0x0010dace

00102ba0 <update_present_time>:
  102ba0:	6803      	ldr	r3, [r0, #0]
  102ba2:	b5d0      	push	{r4, r6, r7, lr}
  102ba4:	6844      	ldr	r4, [r0, #4]
  102ba6:	685b      	ldr	r3, [r3, #4]
  102ba8:	e9d4 6702 	ldrd	r6, r7, [r4, #8]
  102bac:	4798      	blx	r3
  102bae:	2200      	movs	r2, #0
  102bb0:	42b0      	cmp	r0, r6
  102bb2:	ea42 0200 	orr.w	r2, r2, r0
  102bb6:	463b      	mov	r3, r7
  102bb8:	d202      	bcs.n	102bc0 <update_present_time+0x20>
  102bba:	3200      	adds	r2, #0
  102bbc:	f147 0301 	adc.w	r3, r7, #1
  102bc0:	e9c4 2302 	strd	r2, r3, [r4, #8]
  102bc4:	bdd0      	pop	{r4, r6, r7, pc}

00102bc6 <schedule_interrupt>:
  102bc6:	e92d 4370 	stmdb	sp!, {r4, r5, r6, r8, r9, lr}
  102bca:	4606      	mov	r6, r0
  102bcc:	f7ff ffe8 	bl	102ba0 <update_present_time>
  102bd0:	6871      	ldr	r1, [r6, #4]
  102bd2:	684b      	ldr	r3, [r1, #4]
  102bd4:	b1ab      	cbz	r3, 102c02 <schedule_interrupt+0x3c>
  102bd6:	e9d1 4502 	ldrd	r4, r5, [r1, #8]
  102bda:	e9d3 2300 	ldrd	r2, r3, [r3]
  102bde:	42ab      	cmp	r3, r5
  102be0:	bf08      	it	eq
  102be2:	42a2      	cmpeq	r2, r4
  102be4:	d30b      	bcc.n	102bfe <schedule_interrupt+0x38>
  102be6:	ebb2 0804 	subs.w	r8, r2, r4
  102bea:	eb63 0905 	sbc.w	r9, r3, r5
  102bee:	f1b9 0f00 	cmp.w	r9, #0
  102bf2:	bf08      	it	eq
  102bf4:	f1b8 4fe0 	cmpeq.w	r8, #1879048192	; 0x70000000
  102bf8:	d203      	bcs.n	102c02 <schedule_interrupt+0x3c>
  102bfa:	1b12      	subs	r2, r2, r4
  102bfc:	e003      	b.n	102c06 <schedule_interrupt+0x40>
  102bfe:	2200      	movs	r2, #0
  102c00:	e001      	b.n	102c06 <schedule_interrupt+0x40>
  102c02:	f04f 42e0 	mov.w	r2, #1879048192	; 0x70000000
  102c06:	6833      	ldr	r3, [r6, #0]
  102c08:	6888      	ldr	r0, [r1, #8]
  102c0a:	691b      	ldr	r3, [r3, #16]
  102c0c:	4410      	add	r0, r2
  102c0e:	e8bd 4370 	ldmia.w	sp!, {r4, r5, r6, r8, r9, lr}
  102c12:	4718      	bx	r3

00102c14 <ticker_set_handler>:
  102c14:	6843      	ldr	r3, [r0, #4]
  102c16:	b570      	push	{r4, r5, r6, lr}
  102c18:	7c1d      	ldrb	r5, [r3, #16]
  102c1a:	4604      	mov	r4, r0
  102c1c:	460e      	mov	r6, r1
  102c1e:	b98d      	cbnz	r5, 102c44 <ticker_set_handler+0x30>
  102c20:	6803      	ldr	r3, [r0, #0]
  102c22:	681b      	ldr	r3, [r3, #0]
  102c24:	4798      	blx	r3
  102c26:	6863      	ldr	r3, [r4, #4]
  102c28:	2000      	movs	r0, #0
  102c2a:	2100      	movs	r1, #0
  102c2c:	2201      	movs	r2, #1
  102c2e:	e9c3 0102 	strd	r0, r1, [r3, #8]
  102c32:	601d      	str	r5, [r3, #0]
  102c34:	4620      	mov	r0, r4
  102c36:	605d      	str	r5, [r3, #4]
  102c38:	741a      	strb	r2, [r3, #16]
  102c3a:	f7ff ffb1 	bl	102ba0 <update_present_time>
  102c3e:	4620      	mov	r0, r4
  102c40:	f7ff ffc1 	bl	102bc6 <schedule_interrupt>
  102c44:	6863      	ldr	r3, [r4, #4]
  102c46:	601e      	str	r6, [r3, #0]
  102c48:	bd70      	pop	{r4, r5, r6, pc}

00102c4a <ticker_irq_handler>:
  102c4a:	6803      	ldr	r3, [r0, #0]
  102c4c:	b570      	push	{r4, r5, r6, lr}
  102c4e:	68db      	ldr	r3, [r3, #12]
  102c50:	4604      	mov	r4, r0
  102c52:	4798      	blx	r3
  102c54:	6863      	ldr	r3, [r4, #4]
  102c56:	685b      	ldr	r3, [r3, #4]
  102c58:	b1a3      	cbz	r3, 102c84 <ticker_irq_handler+0x3a>
  102c5a:	4620      	mov	r0, r4
  102c5c:	f7ff ffa0 	bl	102ba0 <update_present_time>
  102c60:	6865      	ldr	r5, [r4, #4]
  102c62:	686e      	ldr	r6, [r5, #4]
  102c64:	e9d5 0102 	ldrd	r0, r1, [r5, #8]
  102c68:	e9d6 2300 	ldrd	r2, r3, [r6]
  102c6c:	4299      	cmp	r1, r3
  102c6e:	bf08      	it	eq
  102c70:	4290      	cmpeq	r0, r2
  102c72:	d307      	bcc.n	102c84 <ticker_irq_handler+0x3a>
  102c74:	68f3      	ldr	r3, [r6, #12]
  102c76:	606b      	str	r3, [r5, #4]
  102c78:	682b      	ldr	r3, [r5, #0]
  102c7a:	2b00      	cmp	r3, #0
  102c7c:	d0ea      	beq.n	102c54 <ticker_irq_handler+0xa>
  102c7e:	68b0      	ldr	r0, [r6, #8]
  102c80:	4798      	blx	r3
  102c82:	e7e7      	b.n	102c54 <ticker_irq_handler+0xa>
  102c84:	4620      	mov	r0, r4
  102c86:	e8bd 4070 	ldmia.w	sp!, {r4, r5, r6, lr}
  102c8a:	f7ff bf9c 	b.w	102bc6 <schedule_interrupt>

00102c8e <ticker_insert_event_us>:
  102c8e:	e92d 43f8 	stmdb	sp!, {r3, r4, r5, r6, r7, r8, r9, lr}
  102c92:	4605      	mov	r5, r0
  102c94:	460c      	mov	r4, r1
  102c96:	4616      	mov	r6, r2
  102c98:	461f      	mov	r7, r3
  102c9a:	f8dd 8020 	ldr.w	r8, [sp, #32]
  102c9e:	f000 f8a5 	bl	102dec <core_util_critical_section_enter>
  102ca2:	4628      	mov	r0, r5
  102ca4:	f7ff ff7c 	bl	102ba0 <update_present_time>
  102ca8:	6869      	ldr	r1, [r5, #4]
  102caa:	e9c4 6700 	strd	r6, r7, [r4]
  102cae:	684b      	ldr	r3, [r1, #4]
  102cb0:	f8c4 8008 	str.w	r8, [r4, #8]
  102cb4:	2200      	movs	r2, #0
  102cb6:	b143      	cbz	r3, 102cca <ticker_insert_event_us+0x3c>
  102cb8:	e9d3 8900 	ldrd	r8, r9, [r3]
  102cbc:	454f      	cmp	r7, r9
  102cbe:	bf08      	it	eq
  102cc0:	4546      	cmpeq	r6, r8
  102cc2:	d302      	bcc.n	102cca <ticker_insert_event_us+0x3c>
  102cc4:	461a      	mov	r2, r3
  102cc6:	68db      	ldr	r3, [r3, #12]
  102cc8:	e7f5      	b.n	102cb6 <ticker_insert_event_us+0x28>
  102cca:	60e3      	str	r3, [r4, #12]
  102ccc:	b90a      	cbnz	r2, 102cd2 <ticker_insert_event_us+0x44>
  102cce:	604c      	str	r4, [r1, #4]
  102cd0:	e000      	b.n	102cd4 <ticker_insert_event_us+0x46>
  102cd2:	60d4      	str	r4, [r2, #12]
  102cd4:	4628      	mov	r0, r5
  102cd6:	f7ff ff76 	bl	102bc6 <schedule_interrupt>
  102cda:	e8bd 43f8 	ldmia.w	sp!, {r3, r4, r5, r6, r7, r8, r9, lr}
  102cde:	f000 b8b1 	b.w	102e44 <core_util_critical_section_exit>

00102ce2 <ticker_remove_event>:
  102ce2:	b538      	push	{r3, r4, r5, lr}
  102ce4:	4605      	mov	r5, r0
  102ce6:	460c      	mov	r4, r1
  102ce8:	f000 f880 	bl	102dec <core_util_critical_section_enter>
  102cec:	686a      	ldr	r2, [r5, #4]
  102cee:	6853      	ldr	r3, [r2, #4]
  102cf0:	42a3      	cmp	r3, r4
  102cf2:	d106      	bne.n	102d02 <ticker_remove_event+0x20>
  102cf4:	68db      	ldr	r3, [r3, #12]
  102cf6:	4628      	mov	r0, r5
  102cf8:	6053      	str	r3, [r2, #4]
  102cfa:	f7ff ff64 	bl	102bc6 <schedule_interrupt>
  102cfe:	e006      	b.n	102d0e <ticker_remove_event+0x2c>
  102d00:	4613      	mov	r3, r2
  102d02:	b123      	cbz	r3, 102d0e <ticker_remove_event+0x2c>
  102d04:	68da      	ldr	r2, [r3, #12]
  102d06:	4294      	cmp	r4, r2
  102d08:	d1fa      	bne.n	102d00 <ticker_remove_event+0x1e>
  102d0a:	68e2      	ldr	r2, [r4, #12]
  102d0c:	60da      	str	r2, [r3, #12]
  102d0e:	e8bd 4038 	ldmia.w	sp!, {r3, r4, r5, lr}
  102d12:	f000 b897 	b.w	102e44 <core_util_critical_section_exit>

00102d16 <ticker_read_us>:
  102d16:	b510      	push	{r4, lr}
  102d18:	4604      	mov	r4, r0
  102d1a:	f7ff ff41 	bl	102ba0 <update_present_time>
  102d1e:	6863      	ldr	r3, [r4, #4]
  102d20:	e9d3 0102 	ldrd	r0, r1, [r3, #8]
  102d24:	bd10      	pop	{r4, pc}
	...

00102d28 <get_us_ticker_data>:
  102d28:	4800      	ldr	r0, [pc, #0]	; (102d2c <get_us_ticker_data+0x4>)
  102d2a:	4770      	bx	lr
  102d2c:	0010db20 	.word	0x0010db20

00102d30 <us_ticker_irq_handler>:
  102d30:	4801      	ldr	r0, [pc, #4]	; (102d38 <us_ticker_irq_handler+0x8>)
  102d32:	f7ff bf8a 	b.w	102c4a <ticker_irq_handler>
  102d36:	bf00      	nop
  102d38:	0010db20 	.word	0x0010db20

00102d3c <mbed_assert_internal>:
  102d3c:	b570      	push	{r4, r5, r6, lr}
  102d3e:	4604      	mov	r4, r0
  102d40:	460d      	mov	r5, r1
  102d42:	4616      	mov	r6, r2
  102d44:	f000 f852 	bl	102dec <core_util_critical_section_enter>
  102d48:	4633      	mov	r3, r6
  102d4a:	462a      	mov	r2, r5
  102d4c:	4621      	mov	r1, r4
  102d4e:	4803      	ldr	r0, [pc, #12]	; (102d5c <mbed_assert_internal+0x20>)
  102d50:	f000 f838 	bl	102dc4 <mbed_error_printf>
  102d54:	e8bd 4070 	ldmia.w	sp!, {r4, r5, r6, lr}
  102d58:	f000 b802 	b.w	102d60 <mbed_die>
  102d5c:	0010db28 	.word	0x0010db28

00102d60 <mbed_die>:
  102d60:	b508      	push	{r3, lr}
  102d62:	f000 f843 	bl	102dec <core_util_critical_section_enter>
  102d66:	2096      	movs	r0, #150	; 0x96
  102d68:	f004 f8b8 	bl	106edc <wait_ms>
  102d6c:	2096      	movs	r0, #150	; 0x96
  102d6e:	f004 f8b5 	bl	106edc <wait_ms>
  102d72:	e7f8      	b.n	102d66 <mbed_die+0x6>

00102d74 <mbed_error_vfprintf>:
  102d74:	b530      	push	{r4, r5, lr}
  102d76:	460d      	mov	r5, r1
  102d78:	4604      	mov	r4, r0
  102d7a:	b0a1      	sub	sp, #132	; 0x84
  102d7c:	f000 f836 	bl	102dec <core_util_critical_section_enter>
  102d80:	462b      	mov	r3, r5
  102d82:	4622      	mov	r2, r4
  102d84:	2180      	movs	r1, #128	; 0x80
  102d86:	4668      	mov	r0, sp
  102d88:	f008 fc2a 	bl	10b5e0 <vsniprintf>
  102d8c:	1e05      	subs	r5, r0, #0
  102d8e:	dc03      	bgt.n	102d98 <mbed_error_vfprintf+0x24>
  102d90:	f000 f858 	bl	102e44 <core_util_critical_section_exit>
  102d94:	b021      	add	sp, #132	; 0x84
  102d96:	bd30      	pop	{r4, r5, pc}
  102d98:	4b08      	ldr	r3, [pc, #32]	; (102dbc <mbed_error_vfprintf+0x48>)
  102d9a:	681b      	ldr	r3, [r3, #0]
  102d9c:	b923      	cbnz	r3, 102da8 <mbed_error_vfprintf+0x34>
  102d9e:	2209      	movs	r2, #9
  102da0:	2108      	movs	r1, #8
  102da2:	4807      	ldr	r0, [pc, #28]	; (102dc0 <mbed_error_vfprintf+0x4c>)
  102da4:	f002 ffc8 	bl	105d38 <serial_init>
  102da8:	2400      	movs	r4, #0
  102daa:	f81d 1004 	ldrb.w	r1, [sp, r4]
  102dae:	4804      	ldr	r0, [pc, #16]	; (102dc0 <mbed_error_vfprintf+0x4c>)
  102db0:	3401      	adds	r4, #1
  102db2:	f003 f8b8 	bl	105f26 <serial_putc>
  102db6:	42a5      	cmp	r5, r4
  102db8:	d1f7      	bne.n	102daa <mbed_error_vfprintf+0x36>
  102dba:	e7e9      	b.n	102d90 <mbed_error_vfprintf+0x1c>
  102dbc:	3fff4d00 	.word	0x3fff4d00
  102dc0:	3fff60e4 	.word	0x3fff60e4

00102dc4 <mbed_error_printf>:
  102dc4:	b40f      	push	{r0, r1, r2, r3}
  102dc6:	b507      	push	{r0, r1, r2, lr}
  102dc8:	a904      	add	r1, sp, #16
  102dca:	f851 0b04 	ldr.w	r0, [r1], #4
  102dce:	9101      	str	r1, [sp, #4]
  102dd0:	f7ff ffd0 	bl	102d74 <mbed_error_vfprintf>
  102dd4:	b003      	add	sp, #12
  102dd6:	f85d eb04 	ldr.w	lr, [sp], #4
  102dda:	b004      	add	sp, #16
  102ddc:	4770      	bx	lr

00102dde <core_util_are_interrupts_enabled>:
  102dde:	f3ef 8010 	mrs	r0, PRIMASK
  102de2:	f000 0001 	and.w	r0, r0, #1
  102de6:	f080 0001 	eor.w	r0, r0, #1
  102dea:	4770      	bx	lr

00102dec <core_util_critical_section_enter>:
  102dec:	b538      	push	{r3, r4, r5, lr}
  102dee:	f7ff fff6 	bl	102dde <core_util_are_interrupts_enabled>
  102df2:	4605      	mov	r5, r0
  102df4:	b672      	cpsid	i
  102df6:	4c0e      	ldr	r4, [pc, #56]	; (102e30 <core_util_critical_section_enter+0x44>)
  102df8:	6823      	ldr	r3, [r4, #0]
  102dfa:	b923      	cbnz	r3, 102e06 <core_util_critical_section_enter+0x1a>
  102dfc:	f080 0301 	eor.w	r3, r0, #1
  102e00:	4a0c      	ldr	r2, [pc, #48]	; (102e34 <core_util_critical_section_enter+0x48>)
  102e02:	b2db      	uxtb	r3, r3
  102e04:	7013      	strb	r3, [r2, #0]
  102e06:	6823      	ldr	r3, [r4, #0]
  102e08:	3301      	adds	r3, #1
  102e0a:	d104      	bne.n	102e16 <core_util_critical_section_enter+0x2a>
  102e0c:	2245      	movs	r2, #69	; 0x45
  102e0e:	490a      	ldr	r1, [pc, #40]	; (102e38 <core_util_critical_section_enter+0x4c>)
  102e10:	480a      	ldr	r0, [pc, #40]	; (102e3c <core_util_critical_section_enter+0x50>)
  102e12:	f7ff ff93 	bl	102d3c <mbed_assert_internal>
  102e16:	6823      	ldr	r3, [r4, #0]
  102e18:	b12b      	cbz	r3, 102e26 <core_util_critical_section_enter+0x3a>
  102e1a:	b125      	cbz	r5, 102e26 <core_util_critical_section_enter+0x3a>
  102e1c:	2249      	movs	r2, #73	; 0x49
  102e1e:	4906      	ldr	r1, [pc, #24]	; (102e38 <core_util_critical_section_enter+0x4c>)
  102e20:	4807      	ldr	r0, [pc, #28]	; (102e40 <core_util_critical_section_enter+0x54>)
  102e22:	f7ff ff8b 	bl	102d3c <mbed_assert_internal>
  102e26:	6823      	ldr	r3, [r4, #0]
  102e28:	3301      	adds	r3, #1
  102e2a:	6023      	str	r3, [r4, #0]
  102e2c:	bd38      	pop	{r3, r4, r5, pc}
  102e2e:	bf00      	nop
  102e30:	3fff4728 	.word	0x3fff4728
  102e34:	3fff472c 	.word	0x3fff472c
  102e38:	0010db59 	.word	0x0010db59
  102e3c:	0010db89 	.word	0x0010db89
  102e40:	0010dbaf 	.word	0x0010dbaf

00102e44 <core_util_critical_section_exit>:
  102e44:	b510      	push	{r4, lr}
  102e46:	4c0a      	ldr	r4, [pc, #40]	; (102e70 <core_util_critical_section_exit+0x2c>)
  102e48:	6823      	ldr	r3, [r4, #0]
  102e4a:	b183      	cbz	r3, 102e6e <core_util_critical_section_exit+0x2a>
  102e4c:	f7ff ffc7 	bl	102dde <core_util_are_interrupts_enabled>
  102e50:	b120      	cbz	r0, 102e5c <core_util_critical_section_exit+0x18>
  102e52:	225a      	movs	r2, #90	; 0x5a
  102e54:	4907      	ldr	r1, [pc, #28]	; (102e74 <core_util_critical_section_exit+0x30>)
  102e56:	4808      	ldr	r0, [pc, #32]	; (102e78 <core_util_critical_section_exit+0x34>)
  102e58:	f7ff ff70 	bl	102d3c <mbed_assert_internal>
  102e5c:	6823      	ldr	r3, [r4, #0]
  102e5e:	3b01      	subs	r3, #1
  102e60:	6023      	str	r3, [r4, #0]
  102e62:	6823      	ldr	r3, [r4, #0]
  102e64:	b91b      	cbnz	r3, 102e6e <core_util_critical_section_exit+0x2a>
  102e66:	4b05      	ldr	r3, [pc, #20]	; (102e7c <core_util_critical_section_exit+0x38>)
  102e68:	781b      	ldrb	r3, [r3, #0]
  102e6a:	b903      	cbnz	r3, 102e6e <core_util_critical_section_exit+0x2a>
  102e6c:	b662      	cpsie	i
  102e6e:	bd10      	pop	{r4, pc}
  102e70:	3fff4728 	.word	0x3fff4728
  102e74:	0010db59 	.word	0x0010db59
  102e78:	0010dbaf 	.word	0x0010dbaf
  102e7c:	3fff472c 	.word	0x3fff472c

00102e80 <error>:
  102e80:	b40f      	push	{r0, r1, r2, r3}
  102e82:	b513      	push	{r0, r1, r4, lr}
  102e84:	4b08      	ldr	r3, [pc, #32]	; (102ea8 <error+0x28>)
  102e86:	781a      	ldrb	r2, [r3, #0]
  102e88:	b94a      	cbnz	r2, 102e9e <error+0x1e>
  102e8a:	2401      	movs	r4, #1
  102e8c:	a905      	add	r1, sp, #20
  102e8e:	9804      	ldr	r0, [sp, #16]
  102e90:	701c      	strb	r4, [r3, #0]
  102e92:	9101      	str	r1, [sp, #4]
  102e94:	f7ff ff6e 	bl	102d74 <mbed_error_vfprintf>
  102e98:	4620      	mov	r0, r4
  102e9a:	f003 ff1a 	bl	106cd2 <__wrap_exit>
  102e9e:	b002      	add	sp, #8
  102ea0:	e8bd 4010 	ldmia.w	sp!, {r4, lr}
  102ea4:	b004      	add	sp, #16
  102ea6:	4770      	bx	lr
  102ea8:	3fff472d 	.word	0x3fff472d

00102eac <pre_main>:
  102eac:	b538      	push	{r3, r4, r5, lr}
  102eae:	4815      	ldr	r0, [pc, #84]	; (102f04 <pre_main+0x58>)
  102eb0:	4b15      	ldr	r3, [pc, #84]	; (102f08 <pre_main+0x5c>)
  102eb2:	250b      	movs	r5, #11
  102eb4:	6003      	str	r3, [r0, #0]
  102eb6:	4b15      	ldr	r3, [pc, #84]	; (102f0c <pre_main+0x60>)
  102eb8:	241c      	movs	r4, #28
  102eba:	6045      	str	r5, [r0, #4]
  102ebc:	60c4      	str	r4, [r0, #12]
  102ebe:	6083      	str	r3, [r0, #8]
  102ec0:	f001 f916 	bl	1040f0 <osMutexNew>
  102ec4:	4b12      	ldr	r3, [pc, #72]	; (102f10 <pre_main+0x64>)
  102ec6:	6018      	str	r0, [r3, #0]
  102ec8:	4812      	ldr	r0, [pc, #72]	; (102f14 <pre_main+0x68>)
  102eca:	4b13      	ldr	r3, [pc, #76]	; (102f18 <pre_main+0x6c>)
  102ecc:	60c4      	str	r4, [r0, #12]
  102ece:	e880 0028 	stmia.w	r0, {r3, r5}
  102ed2:	4b12      	ldr	r3, [pc, #72]	; (102f1c <pre_main+0x70>)
  102ed4:	6083      	str	r3, [r0, #8]
  102ed6:	f001 f90b 	bl	1040f0 <osMutexNew>
  102eda:	4b11      	ldr	r3, [pc, #68]	; (102f20 <pre_main+0x74>)
  102edc:	6018      	str	r0, [r3, #0]
  102ede:	4811      	ldr	r0, [pc, #68]	; (102f24 <pre_main+0x78>)
  102ee0:	4b11      	ldr	r3, [pc, #68]	; (102f28 <pre_main+0x7c>)
  102ee2:	60c4      	str	r4, [r0, #12]
  102ee4:	e880 0028 	stmia.w	r0, {r3, r5}
  102ee8:	4b10      	ldr	r3, [pc, #64]	; (102f2c <pre_main+0x80>)
  102eea:	6083      	str	r3, [r0, #8]
  102eec:	f001 f900 	bl	1040f0 <osMutexNew>
  102ef0:	4b0f      	ldr	r3, [pc, #60]	; (102f30 <pre_main+0x84>)
  102ef2:	6018      	str	r0, [r3, #0]
  102ef4:	f005 fd5a 	bl	1089ac <__libc_init_array>
  102ef8:	e8bd 4038 	ldmia.w	sp!, {r3, r4, r5, lr}
  102efc:	2100      	movs	r1, #0
  102efe:	4608      	mov	r0, r1
  102f00:	f000 b860 	b.w	102fc4 <__wrap_main>
  102f04:	3fff609c 	.word	0x3fff609c
  102f08:	0010dbc3 	.word	0x0010dbc3
  102f0c:	3fff6064 	.word	0x3fff6064
  102f10:	3fff6060 	.word	0x3fff6060
  102f14:	3fff6050 	.word	0x3fff6050
  102f18:	0010dbd3 	.word	0x0010dbd3
  102f1c:	3fff6080 	.word	0x3fff6080
  102f20:	3fff5028 	.word	0x3fff5028
  102f24:	3fff60d0 	.word	0x3fff60d0
  102f28:	0010dbe0 	.word	0x0010dbe0
  102f2c:	3fff6034 	.word	0x3fff6034
  102f30:	3fff6030 	.word	0x3fff6030

00102f34 <mbed_set_stack_heap>:
  102f34:	4a09      	ldr	r2, [pc, #36]	; (102f5c <mbed_set_stack_heap+0x28>)
  102f36:	480a      	ldr	r0, [pc, #40]	; (102f60 <mbed_set_stack_heap+0x2c>)
  102f38:	f1c2 4380 	rsb	r3, r2, #1073741824	; 0x40000000
  102f3c:	4619      	mov	r1, r3
  102f3e:	f5b3 6f80 	cmp.w	r3, #1024	; 0x400
  102f42:	bf28      	it	cs
  102f44:	f44f 6180 	movcs.w	r1, #1024	; 0x400
  102f48:	1a5b      	subs	r3, r3, r1
  102f4a:	6001      	str	r1, [r0, #0]
  102f4c:	4905      	ldr	r1, [pc, #20]	; (102f64 <mbed_set_stack_heap+0x30>)
  102f4e:	1898      	adds	r0, r3, r2
  102f50:	6008      	str	r0, [r1, #0]
  102f52:	4905      	ldr	r1, [pc, #20]	; (102f68 <mbed_set_stack_heap+0x34>)
  102f54:	600b      	str	r3, [r1, #0]
  102f56:	4b05      	ldr	r3, [pc, #20]	; (102f6c <mbed_set_stack_heap+0x38>)
  102f58:	601a      	str	r2, [r3, #0]
  102f5a:	4770      	bx	lr
  102f5c:	3fff60f8 	.word	0x3fff60f8
  102f60:	3fff4734 	.word	0x3fff4734
  102f64:	3fff4730 	.word	0x3fff4730
  102f68:	3fff4e2c 	.word	0x3fff4e2c
  102f6c:	3fff4f30 	.word	0x3fff4f30

00102f70 <mbed_main>:
  102f70:	4770      	bx	lr

00102f72 <mbed_sdk_init>:
  102f72:	4770      	bx	lr

00102f74 <mbed_start_main>:
  102f74:	b508      	push	{r3, lr}
  102f76:	4a0d      	ldr	r2, [pc, #52]	; (102fac <mbed_start_main+0x38>)
  102f78:	4b0d      	ldr	r3, [pc, #52]	; (102fb0 <mbed_start_main+0x3c>)
  102f7a:	2100      	movs	r1, #0
  102f7c:	6113      	str	r3, [r2, #16]
  102f7e:	f44f 5380 	mov.w	r3, #4096	; 0x1000
  102f82:	6153      	str	r3, [r2, #20]
  102f84:	2348      	movs	r3, #72	; 0x48
  102f86:	60d3      	str	r3, [r2, #12]
  102f88:	4b0a      	ldr	r3, [pc, #40]	; (102fb4 <mbed_start_main+0x40>)
  102f8a:	480b      	ldr	r0, [pc, #44]	; (102fb8 <mbed_start_main+0x44>)
  102f8c:	6093      	str	r3, [r2, #8]
  102f8e:	2318      	movs	r3, #24
  102f90:	6193      	str	r3, [r2, #24]
  102f92:	4b0a      	ldr	r3, [pc, #40]	; (102fbc <mbed_start_main+0x48>)
  102f94:	6013      	str	r3, [r2, #0]
  102f96:	f001 fde1 	bl	104b5c <osThreadNew>
  102f9a:	b910      	cbnz	r0, 102fa2 <mbed_start_main+0x2e>
  102f9c:	4808      	ldr	r0, [pc, #32]	; (102fc0 <mbed_start_main+0x4c>)
  102f9e:	f7ff ff6f 	bl	102e80 <error>
  102fa2:	e8bd 4008 	ldmia.w	sp!, {r3, lr}
  102fa6:	f000 ba63 	b.w	103470 <osKernelStart>
  102faa:	bf00      	nop
  102fac:	3fff60ac 	.word	0x3fff60ac
  102fb0:	3fff5030 	.word	0x3fff5030
  102fb4:	3fff4fe0 	.word	0x3fff4fe0
  102fb8:	00102ead 	.word	0x00102ead
  102fbc:	0010dbea 	.word	0x0010dbea
  102fc0:	0010dbf6 	.word	0x0010dbf6

00102fc4 <__wrap_main>:
  102fc4:	b508      	push	{r3, lr}
  102fc6:	f7ff ffd3 	bl	102f70 <mbed_main>
  102fca:	e8bd 4008 	ldmia.w	sp!, {r3, lr}
  102fce:	f7ff b9ed 	b.w	1023ac <main>
	...

00102fd4 <software_init_hook>:
  102fd4:	b510      	push	{r4, lr}
  102fd6:	f7ff ffad 	bl	102f34 <mbed_set_stack_heap>
  102fda:	4b0a      	ldr	r3, [pc, #40]	; (103004 <software_init_hook+0x30>)
  102fdc:	490a      	ldr	r1, [pc, #40]	; (103008 <software_init_hook+0x34>)
  102fde:	689a      	ldr	r2, [r3, #8]
  102fe0:	480a      	ldr	r0, [pc, #40]	; (10300c <software_init_hook+0x38>)
  102fe2:	3a04      	subs	r2, #4
  102fe4:	f852 4f04 	ldr.w	r4, [r2, #4]!
  102fe8:	f841 4f04 	str.w	r4, [r1, #4]!
  102fec:	4281      	cmp	r1, r0
  102fee:	d1f9      	bne.n	102fe4 <software_init_hook+0x10>
  102ff0:	4a07      	ldr	r2, [pc, #28]	; (103010 <software_init_hook+0x3c>)
  102ff2:	609a      	str	r2, [r3, #8]
  102ff4:	f7ff ffbd 	bl	102f72 <mbed_sdk_init>
  102ff8:	f000 f9f4 	bl	1033e4 <osKernelInitialize>
  102ffc:	e8bd 4010 	ldmia.w	sp!, {r4, lr}
  103000:	f7ff bfb8 	b.w	102f74 <mbed_start_main>
  103004:	e000ed00 	.word	0xe000ed00
  103008:	3fff3ffc 	.word	0x3fff3ffc
  10300c:	3fff408c 	.word	0x3fff408c
  103010:	3fff4000 	.word	0x3fff4000

00103014 <default_idle_hook>:
  103014:	f002 bfa4 	b.w	105f60 <hal_sleep>

00103018 <rtos_idle_loop>:
  103018:	b508      	push	{r3, lr}
  10301a:	4c02      	ldr	r4, [pc, #8]	; (103024 <rtos_idle_loop+0xc>)
  10301c:	6823      	ldr	r3, [r4, #0]
  10301e:	4798      	blx	r3
  103020:	e7fc      	b.n	10301c <rtos_idle_loop+0x4>
  103022:	bf00      	nop
  103024:	3fff40a4 	.word	0x3fff40a4

00103028 <osRtxIdleThread>:
  103028:	b508      	push	{r3, lr}
  10302a:	f7ff fff5 	bl	103018 <rtos_idle_loop>
  10302e:	e7fc      	b.n	10302a <osRtxIdleThread+0x2>

00103030 <osRtxErrorNotify>:
  103030:	b508      	push	{r3, lr}
  103032:	4605      	mov	r5, r0
  103034:	460c      	mov	r4, r1
  103036:	f001 fdad 	bl	104b94 <osThreadGetId>
  10303a:	1e6b      	subs	r3, r5, #1
  10303c:	4602      	mov	r2, r0
  10303e:	2b04      	cmp	r3, #4
  103040:	d824      	bhi.n	10308c <osRtxErrorNotify+0x5c>
  103042:	e8df f003 	tbb	[pc, r3]
  103046:	0d03      	.short	0x0d03
  103048:	1913      	.short	0x1913
  10304a:	1e          	.byte	0x1e
  10304b:	00          	.byte	0x00
  10304c:	4620      	mov	r0, r4
  10304e:	f001 fd89 	bl	104b64 <osThreadGetName>
  103052:	4622      	mov	r2, r4
  103054:	4603      	mov	r3, r0
  103056:	2101      	movs	r1, #1
  103058:	480f      	ldr	r0, [pc, #60]	; (103098 <osRtxErrorNotify+0x68>)
  10305a:	f7ff ff11 	bl	102e80 <error>
  10305e:	e019      	b.n	103094 <osRtxErrorNotify+0x64>
  103060:	4623      	mov	r3, r4
  103062:	2102      	movs	r1, #2
  103064:	480d      	ldr	r0, [pc, #52]	; (10309c <osRtxErrorNotify+0x6c>)
  103066:	f7ff ff0b 	bl	102e80 <error>
  10306a:	e013      	b.n	103094 <osRtxErrorNotify+0x64>
  10306c:	4623      	mov	r3, r4
  10306e:	2103      	movs	r1, #3
  103070:	480b      	ldr	r0, [pc, #44]	; (1030a0 <osRtxErrorNotify+0x70>)
  103072:	f7ff ff05 	bl	102e80 <error>
  103076:	e00d      	b.n	103094 <osRtxErrorNotify+0x64>
  103078:	2104      	movs	r1, #4
  10307a:	480a      	ldr	r0, [pc, #40]	; (1030a4 <osRtxErrorNotify+0x74>)
  10307c:	f7ff ff00 	bl	102e80 <error>
  103080:	e008      	b.n	103094 <osRtxErrorNotify+0x64>
  103082:	2105      	movs	r1, #5
  103084:	4808      	ldr	r0, [pc, #32]	; (1030a8 <osRtxErrorNotify+0x78>)
  103086:	f7ff fefb 	bl	102e80 <error>
  10308a:	e003      	b.n	103094 <osRtxErrorNotify+0x64>
  10308c:	4629      	mov	r1, r5
  10308e:	4807      	ldr	r0, [pc, #28]	; (1030ac <osRtxErrorNotify+0x7c>)
  103090:	f7ff fef6 	bl	102e80 <error>
  103094:	e7fe      	b.n	103094 <osRtxErrorNotify+0x64>
  103096:	bf00      	nop
  103098:	0010dc12 	.word	0x0010dc12
  10309c:	0010dc63 	.word	0x0010dc63
  1030a0:	0010dcb9 	.word	0x0010dcb9
  1030a4:	0010dd1e 	.word	0x0010dd1e
  1030a8:	0010dd79 	.word	0x0010dd79
  1030ac:	0010ddd9 	.word	0x0010ddd9

001030b0 <svcRtxDelay>:
  1030b0:	b508      	push	{r3, lr}
  1030b2:	4601      	mov	r1, r0
  1030b4:	b110      	cbz	r0, 1030bc <svcRtxDelay+0xc>
  1030b6:	2013      	movs	r0, #19
  1030b8:	f001 fcc2 	bl	104a40 <osRtxThreadWaitEnter>
  1030bc:	2000      	movs	r0, #0
  1030be:	bd08      	pop	{r3, pc}

001030c0 <osDelay>:
  1030c0:	b510      	push	{r4, lr}
  1030c2:	4604      	mov	r4, r0
  1030c4:	f000 f831 	bl	10312a <EvrRtxThreadDelay>
  1030c8:	f3ef 8305 	mrs	r3, IPSR
  1030cc:	b92b      	cbnz	r3, 1030da <osDelay+0x1a>
  1030ce:	f3ef 8310 	mrs	r3, PRIMASK
  1030d2:	b913      	cbnz	r3, 1030da <osDelay+0x1a>
  1030d4:	f3ef 8311 	mrs	r3, BASEPRI
  1030d8:	b13b      	cbz	r3, 1030ea <osDelay+0x2a>
  1030da:	f06f 0105 	mvn.w	r1, #5
  1030de:	2000      	movs	r0, #0
  1030e0:	f000 f816 	bl	103110 <EvrRtxThreadError>
  1030e4:	f06f 0005 	mvn.w	r0, #5
  1030e8:	bd10      	pop	{r4, pc}
  1030ea:	4620      	mov	r0, r4
  1030ec:	f8df c004 	ldr.w	r12, [pc, #4]	; 1030f4 <osDelay+0x34>
  1030f0:	df00      	svc	0
  1030f2:	bd10      	pop	{r4, pc}
  1030f4:	001030b1 	.word	0x001030b1

001030f8 <EvrRtxMemoryInit>:
  1030f8:	4770      	bx	lr

001030fa <EvrRtxMemoryAlloc>:
  1030fa:	4770      	bx	lr

001030fc <EvrRtxMemoryFree>:
  1030fc:	4770      	bx	lr

001030fe <EvrRtxMemoryBlockInit>:
  1030fe:	4770      	bx	lr

00103100 <EvrRtxMemoryBlockAlloc>:
  103100:	4770      	bx	lr

00103102 <EvrRtxMemoryBlockFree>:
  103102:	4770      	bx	lr

00103104 <EvrRtxKernelError>:
  103104:	4770      	bx	lr

00103106 <EvrRtxKernelInitialize>:
  103106:	4770      	bx	lr

00103108 <EvrRtxKernelInitializeCompleted>:
  103108:	4770      	bx	lr

0010310a <EvrRtxKernelGetState>:
  10310a:	4770      	bx	lr

0010310c <EvrRtxKernelStart>:
  10310c:	4770      	bx	lr

0010310e <EvrRtxKernelStarted>:
  10310e:	4770      	bx	lr

00103110 <EvrRtxThreadError>:
  103110:	4770      	bx	lr

00103112 <EvrRtxThreadNew>:
  103112:	4770      	bx	lr

00103114 <EvrRtxThreadCreated>:
  103114:	4770      	bx	lr

00103116 <EvrRtxThreadGetName>:
  103116:	4770      	bx	lr

00103118 <EvrRtxThreadGetId>:
  103118:	4770      	bx	lr

0010311a <EvrRtxThreadJoined>:
  10311a:	4770      	bx	lr

0010311c <EvrRtxThreadBlocked>:
  10311c:	4770      	bx	lr

0010311e <EvrRtxThreadUnblocked>:
  10311e:	4770      	bx	lr

00103120 <EvrRtxThreadSwitch>:
  103120:	4770      	bx	lr

00103122 <EvrRtxThreadExit>:
  103122:	4770      	bx	lr

00103124 <EvrRtxThreadDestroyed>:
  103124:	4770      	bx	lr

00103126 <EvrRtxThreadFlagsWaitTimeout>:
  103126:	4770      	bx	lr

00103128 <EvrRtxThreadFlagsWaitCompleted>:
  103128:	4770      	bx	lr

0010312a <EvrRtxThreadDelay>:
  10312a:	4770      	bx	lr

0010312c <EvrRtxThreadDelayCompleted>:
  10312c:	4770      	bx	lr

0010312e <EvrRtxTimerCallback>:
  10312e:	4770      	bx	lr

00103130 <EvrRtxEventFlagsWaitTimeout>:
  103130:	4770      	bx	lr

00103132 <EvrRtxMutexError>:
  103132:	4770      	bx	lr

00103134 <EvrRtxMutexNew>:
  103134:	4770      	bx	lr

00103136 <EvrRtxMutexCreated>:
  103136:	4770      	bx	lr

00103138 <EvrRtxMutexAcquire>:
  103138:	4770      	bx	lr

0010313a <EvrRtxMutexAcquirePending>:
  10313a:	4770      	bx	lr

0010313c <EvrRtxMutexAcquireTimeout>:
  10313c:	4770      	bx	lr

0010313e <EvrRtxMutexAcquired>:
  10313e:	4770      	bx	lr

00103140 <EvrRtxMutexNotAcquired>:
  103140:	4770      	bx	lr

00103142 <EvrRtxMutexRelease>:
  103142:	4770      	bx	lr

00103144 <EvrRtxMutexReleased>:
  103144:	4770      	bx	lr

00103146 <EvrRtxMutexDelete>:
  103146:	4770      	bx	lr

00103148 <EvrRtxMutexDestroyed>:
  103148:	4770      	bx	lr

0010314a <EvrRtxSemaphoreAcquireTimeout>:
  10314a:	4770      	bx	lr

0010314c <EvrRtxMemoryPoolAllocTimeout>:
  10314c:	4770      	bx	lr

0010314e <EvrRtxMessageQueueError>:
  10314e:	4770      	bx	lr

00103150 <EvrRtxMessageQueueNew>:
  103150:	4770      	bx	lr

00103152 <EvrRtxMessageQueueCreated>:
  103152:	4770      	bx	lr

00103154 <EvrRtxMessageQueuePut>:
  103154:	4770      	bx	lr

00103156 <EvrRtxMessageQueuePutPending>:
  103156:	4770      	bx	lr

00103158 <EvrRtxMessageQueuePutTimeout>:
  103158:	4770      	bx	lr

0010315a <EvrRtxMessageQueueInsertPending>:
  10315a:	4770      	bx	lr

0010315c <EvrRtxMessageQueueInserted>:
  10315c:	4770      	bx	lr

0010315e <EvrRtxMessageQueueNotInserted>:
  10315e:	4770      	bx	lr

00103160 <EvrRtxMessageQueueGet>:
  103160:	4770      	bx	lr

00103162 <EvrRtxMessageQueueGetPending>:
  103162:	4770      	bx	lr

00103164 <EvrRtxMessageQueueGetTimeout>:
  103164:	4770      	bx	lr

00103166 <EvrRtxMessageQueueRetrieved>:
  103166:	4770      	bx	lr

00103168 <EvrRtxMessageQueueNotRetrieved>:
  103168:	4770      	bx	lr
	...

0010316c <svcRtxKernelInitialize>:
  10316c:	b570      	push	{r4, r5, r6, lr}
  10316e:	4863      	ldr	r0, [pc, #396]	; (1032fc <svcRtxKernelInitialize+0x190>)
  103170:	7a01      	ldrb	r1, [r0, #8]
  103172:	4604      	mov	r4, r0
  103174:	2901      	cmp	r1, #1
  103176:	f000 80bd 	beq.w	1032f4 <svcRtxKernelInitialize+0x188>
  10317a:	b111      	cbz	r1, 103182 <svcRtxKernelInitialize+0x16>
  10317c:	f04f 30ff 	mov.w	r0, #4294967295
  103180:	e009      	b.n	103196 <svcRtxKernelInitialize+0x2a>
  103182:	4d5f      	ldr	r5, [pc, #380]	; (103300 <svcRtxKernelInitialize+0x194>)
  103184:	22a8      	movs	r2, #168	; 0xa8
  103186:	3008      	adds	r0, #8
  103188:	f005 fcca 	bl	108b20 <memset>
  10318c:	6d6b      	ldr	r3, [r5, #84]	; 0x54
  10318e:	2b47      	cmp	r3, #71	; 0x47
  103190:	d806      	bhi.n	1031a0 <svcRtxKernelInitialize+0x34>
  103192:	f06f 000a 	mvn.w	r0, #10
  103196:	f7ff ffb5 	bl	103104 <EvrRtxKernelError>
  10319a:	f04f 30ff 	mov.w	r0, #4294967295
  10319e:	bd70      	pop	{r4, r5, r6, pc}
  1031a0:	68ea      	ldr	r2, [r5, #12]
  1031a2:	2a00      	cmp	r2, #0
  1031a4:	d0ea      	beq.n	10317c <svcRtxKernelInitialize+0x10>
  1031a6:	8a2b      	ldrh	r3, [r5, #16]
  1031a8:	2b00      	cmp	r3, #0
  1031aa:	d0e7      	beq.n	10317c <svcRtxKernelInitialize+0x10>
  1031ac:	6aee      	ldr	r6, [r5, #44]	; 0x2c
  1031ae:	f8a4 305c 	strh.w	r3, [r4, #92]	; 0x5c
  1031b2:	68ab      	ldr	r3, [r5, #8]
  1031b4:	6b29      	ldr	r1, [r5, #48]	; 0x30
  1031b6:	4630      	mov	r0, r6
  1031b8:	6662      	str	r2, [r4, #100]	; 0x64
  1031ba:	64a3      	str	r3, [r4, #72]	; 0x48
  1031bc:	f000 f98a 	bl	1034d4 <osRtxMemoryInit>
  1031c0:	b108      	cbz	r0, 1031c6 <svcRtxKernelInitialize+0x5a>
  1031c2:	f8c4 6088 	str.w	r6, [r4, #136]	; 0x88
  1031c6:	696e      	ldr	r6, [r5, #20]
  1031c8:	69a9      	ldr	r1, [r5, #24]
  1031ca:	4630      	mov	r0, r6
  1031cc:	f000 f982 	bl	1034d4 <osRtxMemoryInit>
  1031d0:	b108      	cbz	r0, 1031d6 <svcRtxKernelInitialize+0x6a>
  1031d2:	67e6      	str	r6, [r4, #124]	; 0x7c
  1031d4:	e002      	b.n	1031dc <svcRtxKernelInitialize+0x70>
  1031d6:	f8d4 3088 	ldr.w	r3, [r4, #136]	; 0x88
  1031da:	67e3      	str	r3, [r4, #124]	; 0x7c
  1031dc:	69ee      	ldr	r6, [r5, #28]
  1031de:	6a29      	ldr	r1, [r5, #32]
  1031e0:	4630      	mov	r0, r6
  1031e2:	f000 f977 	bl	1034d4 <osRtxMemoryInit>
  1031e6:	b110      	cbz	r0, 1031ee <svcRtxKernelInitialize+0x82>
  1031e8:	f8c4 6080 	str.w	r6, [r4, #128]	; 0x80
  1031ec:	e003      	b.n	1031f6 <svcRtxKernelInitialize+0x8a>
  1031ee:	f8d4 3088 	ldr.w	r3, [r4, #136]	; 0x88
  1031f2:	f8c4 3080 	str.w	r3, [r4, #128]	; 0x80
  1031f6:	6a6e      	ldr	r6, [r5, #36]	; 0x24
  1031f8:	6aa9      	ldr	r1, [r5, #40]	; 0x28
  1031fa:	4630      	mov	r0, r6
  1031fc:	f000 f96a 	bl	1034d4 <osRtxMemoryInit>
  103200:	b110      	cbz	r0, 103208 <svcRtxKernelInitialize+0x9c>
  103202:	f8c4 6084 	str.w	r6, [r4, #132]	; 0x84
  103206:	e003      	b.n	103210 <svcRtxKernelInitialize+0xa4>
  103208:	f8d4 3088 	ldr.w	r3, [r4, #136]	; 0x88
  10320c:	f8c4 3084 	str.w	r3, [r4, #132]	; 0x84
  103210:	6b6e      	ldr	r6, [r5, #52]	; 0x34
  103212:	b146      	cbz	r6, 103226 <svcRtxKernelInitialize+0xba>
  103214:	68f3      	ldr	r3, [r6, #12]
  103216:	68b2      	ldr	r2, [r6, #8]
  103218:	6831      	ldr	r1, [r6, #0]
  10321a:	4630      	mov	r0, r6
  10321c:	f000 f9d5 	bl	1035ca <osRtxMemoryPoolInit>
  103220:	b108      	cbz	r0, 103226 <svcRtxKernelInitialize+0xba>
  103222:	f8c4 608c 	str.w	r6, [r4, #140]	; 0x8c
  103226:	6bae      	ldr	r6, [r5, #56]	; 0x38
  103228:	b146      	cbz	r6, 10323c <svcRtxKernelInitialize+0xd0>
  10322a:	68f3      	ldr	r3, [r6, #12]
  10322c:	68b2      	ldr	r2, [r6, #8]
  10322e:	6831      	ldr	r1, [r6, #0]
  103230:	4630      	mov	r0, r6
  103232:	f000 f9ca 	bl	1035ca <osRtxMemoryPoolInit>
  103236:	b108      	cbz	r0, 10323c <svcRtxKernelInitialize+0xd0>
  103238:	f8c4 6090 	str.w	r6, [r4, #144]	; 0x90
  10323c:	6bee      	ldr	r6, [r5, #60]	; 0x3c
  10323e:	b146      	cbz	r6, 103252 <svcRtxKernelInitialize+0xe6>
  103240:	68f3      	ldr	r3, [r6, #12]
  103242:	68b2      	ldr	r2, [r6, #8]
  103244:	6831      	ldr	r1, [r6, #0]
  103246:	4630      	mov	r0, r6
  103248:	f000 f9bf 	bl	1035ca <osRtxMemoryPoolInit>
  10324c:	b108      	cbz	r0, 103252 <svcRtxKernelInitialize+0xe6>
  10324e:	f8c4 6094 	str.w	r6, [r4, #148]	; 0x94
  103252:	6c2e      	ldr	r6, [r5, #64]	; 0x40
  103254:	b146      	cbz	r6, 103268 <svcRtxKernelInitialize+0xfc>
  103256:	68f3      	ldr	r3, [r6, #12]
  103258:	68b2      	ldr	r2, [r6, #8]
  10325a:	6831      	ldr	r1, [r6, #0]
  10325c:	4630      	mov	r0, r6
  10325e:	f000 f9b4 	bl	1035ca <osRtxMemoryPoolInit>
  103262:	b108      	cbz	r0, 103268 <svcRtxKernelInitialize+0xfc>
  103264:	f8c4 6098 	str.w	r6, [r4, #152]	; 0x98
  103268:	6c6e      	ldr	r6, [r5, #68]	; 0x44
  10326a:	b146      	cbz	r6, 10327e <svcRtxKernelInitialize+0x112>
  10326c:	68f3      	ldr	r3, [r6, #12]
  10326e:	68b2      	ldr	r2, [r6, #8]
  103270:	6831      	ldr	r1, [r6, #0]
  103272:	4630      	mov	r0, r6
  103274:	f000 f9a9 	bl	1035ca <osRtxMemoryPoolInit>
  103278:	b108      	cbz	r0, 10327e <svcRtxKernelInitialize+0x112>
  10327a:	f8c4 609c 	str.w	r6, [r4, #156]	; 0x9c
  10327e:	6cae      	ldr	r6, [r5, #72]	; 0x48
  103280:	b146      	cbz	r6, 103294 <svcRtxKernelInitialize+0x128>
  103282:	68f3      	ldr	r3, [r6, #12]
  103284:	68b2      	ldr	r2, [r6, #8]
  103286:	6831      	ldr	r1, [r6, #0]
  103288:	4630      	mov	r0, r6
  10328a:	f000 f99e 	bl	1035ca <osRtxMemoryPoolInit>
  10328e:	b108      	cbz	r0, 103294 <svcRtxKernelInitialize+0x128>
  103290:	f8c4 60a0 	str.w	r6, [r4, #160]	; 0xa0
  103294:	6cee      	ldr	r6, [r5, #76]	; 0x4c
  103296:	b146      	cbz	r6, 1032aa <svcRtxKernelInitialize+0x13e>
  103298:	68f3      	ldr	r3, [r6, #12]
  10329a:	68b2      	ldr	r2, [r6, #8]
  10329c:	6831      	ldr	r1, [r6, #0]
  10329e:	4630      	mov	r0, r6
  1032a0:	f000 f993 	bl	1035ca <osRtxMemoryPoolInit>
  1032a4:	b108      	cbz	r0, 1032aa <svcRtxKernelInitialize+0x13e>
  1032a6:	f8c4 60a4 	str.w	r6, [r4, #164]	; 0xa4
  1032aa:	6d2d      	ldr	r5, [r5, #80]	; 0x50
  1032ac:	b145      	cbz	r5, 1032c0 <svcRtxKernelInitialize+0x154>
  1032ae:	68eb      	ldr	r3, [r5, #12]
  1032b0:	68aa      	ldr	r2, [r5, #8]
  1032b2:	6829      	ldr	r1, [r5, #0]
  1032b4:	4628      	mov	r0, r5
  1032b6:	f000 f988 	bl	1035ca <osRtxMemoryPoolInit>
  1032ba:	b108      	cbz	r0, 1032c0 <svcRtxKernelInitialize+0x154>
  1032bc:	f8c4 50a8 	str.w	r5, [r4, #168]	; 0xa8
  1032c0:	4a10      	ldr	r2, [pc, #64]	; (103304 <svcRtxKernelInitialize+0x198>)
  1032c2:	23ff      	movs	r3, #255	; 0xff
  1032c4:	f882 3022 	strb.w	r3, [r2, #34]	; 0x22
  1032c8:	f892 3022 	ldrb.w	r3, [r2, #34]	; 0x22
  1032cc:	68d1      	ldr	r1, [r2, #12]
  1032ce:	f063 03ff 	orn	r3, r3, #255	; 0xff
  1032d2:	43db      	mvns	r3, r3
  1032d4:	fab3 f383 	clz	r3, r3
  1032d8:	f3c1 2102 	ubfx	r1, r1, #8, #3
  1032dc:	f1c3 0320 	rsb	r3, r3, #32
  1032e0:	428b      	cmp	r3, r1
  1032e2:	bf98      	it	ls
  1032e4:	1c4b      	addls	r3, r1, #1
  1032e6:	21fe      	movs	r1, #254	; 0xfe
  1032e8:	fa01 f303 	lsl.w	r3, r1, r3
  1032ec:	b2db      	uxtb	r3, r3
  1032ee:	77d3      	strb	r3, [r2, #31]
  1032f0:	2301      	movs	r3, #1
  1032f2:	7223      	strb	r3, [r4, #8]
  1032f4:	f7ff ff08 	bl	103108 <EvrRtxKernelInitializeCompleted>
  1032f8:	2000      	movs	r0, #0
  1032fa:	bd70      	pop	{r4, r5, r6, pc}
  1032fc:	3fff40a8 	.word	0x3fff40a8
  103300:	0010de58 	.word	0x0010de58
  103304:	e000ed00 	.word	0xe000ed00

00103308 <svcRtxKernelGetState>:
  103308:	b510      	push	{r4, lr}
  10330a:	4c03      	ldr	r4, [pc, #12]	; (103318 <svcRtxKernelGetState+0x10>)
  10330c:	7a20      	ldrb	r0, [r4, #8]
  10330e:	f7ff fefc 	bl	10310a <EvrRtxKernelGetState>
  103312:	7a20      	ldrb	r0, [r4, #8]
  103314:	bd10      	pop	{r4, pc}
  103316:	bf00      	nop
  103318:	3fff40a8 	.word	0x3fff40a8

0010331c <svcRtxKernelStart>:
  10331c:	b538      	push	{r3, r4, r5, lr}
  10331e:	4c2a      	ldr	r4, [pc, #168]	; (1033c8 <svcRtxKernelStart+0xac>)
  103320:	7a23      	ldrb	r3, [r4, #8]
  103322:	2b01      	cmp	r3, #1
  103324:	d002      	beq.n	10332c <svcRtxKernelStart+0x10>
  103326:	f06f 0006 	mvn.w	r0, #6
  10332a:	e00b      	b.n	103344 <svcRtxKernelStart+0x28>
  10332c:	6b23      	ldr	r3, [r4, #48]	; 0x30
  10332e:	4d27      	ldr	r5, [pc, #156]	; (1033cc <svcRtxKernelStart+0xb0>)
  103330:	b96b      	cbnz	r3, 10334e <svcRtxKernelStart+0x32>
  103332:	6daa      	ldr	r2, [r5, #88]	; 0x58
  103334:	4619      	mov	r1, r3
  103336:	4826      	ldr	r0, [pc, #152]	; (1033d0 <svcRtxKernelStart+0xb4>)
  103338:	f001 fa80 	bl	10483c <svcRtxThreadNew>
  10333c:	6320      	str	r0, [r4, #48]	; 0x30
  10333e:	b930      	cbnz	r0, 10334e <svcRtxKernelStart+0x32>
  103340:	f04f 30ff 	mov.w	r0, #4294967295
  103344:	f7ff fede 	bl	103104 <EvrRtxKernelError>
  103348:	f04f 30ff 	mov.w	r0, #4294967295
  10334c:	bd38      	pop	{r3, r4, r5, pc}
  10334e:	6e6b      	ldr	r3, [r5, #100]	; 0x64
  103350:	b15b      	cbz	r3, 10336a <svcRtxKernelStart+0x4e>
  103352:	6d23      	ldr	r3, [r4, #80]	; 0x50
  103354:	b94b      	cbnz	r3, 10336a <svcRtxKernelStart+0x4e>
  103356:	4a1d      	ldr	r2, [pc, #116]	; (1033cc <svcRtxKernelStart+0xb0>)
  103358:	4619      	mov	r1, r3
  10335a:	6dd2      	ldr	r2, [r2, #92]	; 0x5c
  10335c:	481d      	ldr	r0, [pc, #116]	; (1033d4 <svcRtxKernelStart+0xb8>)
  10335e:	f001 fa6d 	bl	10483c <svcRtxThreadNew>
  103362:	4b19      	ldr	r3, [pc, #100]	; (1033c8 <svcRtxKernelStart+0xac>)
  103364:	6518      	str	r0, [r3, #80]	; 0x50
  103366:	2800      	cmp	r0, #0
  103368:	d0ea      	beq.n	103340 <svcRtxKernelStart+0x24>
  10336a:	481b      	ldr	r0, [pc, #108]	; (1033d8 <svcRtxKernelStart+0xbc>)
  10336c:	f001 f8db 	bl	104526 <osRtxThreadListGet>
  103370:	2800      	cmp	r0, #0
  103372:	d0e5      	beq.n	103340 <svcRtxKernelStart+0x24>
  103374:	f001 f9f4 	bl	104760 <osRtxThreadSwitch>
  103378:	682b      	ldr	r3, [r5, #0]
  10337a:	07db      	lsls	r3, r3, #31
  10337c:	bf4c      	ite	mi
  10337e:	2302      	movmi	r3, #2
  103380:	2303      	movpl	r3, #3
  103382:	f383 8814 	msr	CONTROL, r3
  103386:	4b15      	ldr	r3, [pc, #84]	; (1033dc <svcRtxKernelStart+0xc0>)
  103388:	681b      	ldr	r3, [r3, #0]
  10338a:	60e3      	str	r3, [r4, #12]
  10338c:	f000 ffb4 	bl	1042f8 <osRtxSysTimerSetup>
  103390:	2800      	cmp	r0, #0
  103392:	61a0      	str	r0, [r4, #24]
  103394:	db0f      	blt.n	1033b6 <svcRtxKernelStart+0x9a>
  103396:	f100 4360 	add.w	r3, r0, #3758096384	; 0xe0000000
  10339a:	f503 4361 	add.w	r3, r3, #57600	; 0xe100
  10339e:	22ff      	movs	r2, #255	; 0xff
  1033a0:	f883 2300 	strb.w	r2, [r3, #768]	; 0x300
  1033a4:	1142      	asrs	r2, r0, #5
  1033a6:	2301      	movs	r3, #1
  1033a8:	f000 001f 	and.w	r0, r0, #31
  1033ac:	fa03 f000 	lsl.w	r0, r3, r0
  1033b0:	4b0b      	ldr	r3, [pc, #44]	; (1033e0 <svcRtxKernelStart+0xc4>)
  1033b2:	f843 0022 	str.w	r0, [r3, r2, lsl #2]
  1033b6:	f000 ffb9 	bl	10432c <osRtxSysTimerEnable>
  1033ba:	2302      	movs	r3, #2
  1033bc:	7223      	strb	r3, [r4, #8]
  1033be:	f7ff fea6 	bl	10310e <EvrRtxKernelStarted>
  1033c2:	2000      	movs	r0, #0
  1033c4:	bd38      	pop	{r3, r4, r5, pc}
  1033c6:	bf00      	nop
  1033c8:	3fff40a8 	.word	0x3fff40a8
  1033cc:	0010de58 	.word	0x0010de58
  1033d0:	00103029 	.word	0x00103029
  1033d4:	00104c4d 	.word	0x00104c4d
  1033d8:	3fff40cc 	.word	0x3fff40cc
  1033dc:	3fff4158 	.word	0x3fff4158
  1033e0:	e000e100 	.word	0xe000e100

001033e4 <osKernelInitialize>:
  1033e4:	b508      	push	{r3, lr}
  1033e6:	f7ff fe8e 	bl	103106 <EvrRtxKernelInitialize>
  1033ea:	f3ef 8305 	mrs	r3, IPSR
  1033ee:	b92b      	cbnz	r3, 1033fc <osKernelInitialize+0x18>
  1033f0:	f3ef 8310 	mrs	r3, PRIMASK
  1033f4:	b913      	cbnz	r3, 1033fc <osKernelInitialize+0x18>
  1033f6:	f3ef 8311 	mrs	r3, BASEPRI
  1033fa:	b133      	cbz	r3, 10340a <osKernelInitialize+0x26>
  1033fc:	f06f 0005 	mvn.w	r0, #5
  103400:	f7ff fe80 	bl	103104 <EvrRtxKernelError>
  103404:	f06f 0005 	mvn.w	r0, #5
  103408:	bd08      	pop	{r3, pc}
  10340a:	f8df c020 	ldr.w	r12, [pc, #32]	; 10342c <osKernelInitialize+0x48>
  10340e:	f3ef 8314 	mrs	r3, CONTROL
  103412:	f013 0f02 	tst.w	r3, #2
  103416:	d106      	bne.n	103426 <osKernelInitialize+0x42>
  103418:	f3ef 8308 	mrs	r3, MSP
  10341c:	3b20      	subs	r3, #32
  10341e:	f023 0307 	bic.w	r3, r3, #7
  103422:	f383 8809 	msr	PSP, r3
  103426:	df00      	svc	0
  103428:	bd08      	pop	{r3, pc}
  10342a:	bf00      	nop
  10342c:	0010316d 	.word	0x0010316d

00103430 <osKernelGetState>:
  103430:	b508      	push	{r3, lr}
  103432:	f3ef 8305 	mrs	r3, IPSR
  103436:	b92b      	cbnz	r3, 103444 <osKernelGetState+0x14>
  103438:	f3ef 8310 	mrs	r3, PRIMASK
  10343c:	b913      	cbnz	r3, 103444 <osKernelGetState+0x14>
  10343e:	f3ef 8311 	mrs	r3, BASEPRI
  103442:	b133      	cbz	r3, 103452 <osKernelGetState+0x22>
  103444:	f04f 30ff 	mov.w	r0, #4294967295
  103448:	f7ff fe5f 	bl	10310a <EvrRtxKernelGetState>
  10344c:	f04f 30ff 	mov.w	r0, #4294967295
  103450:	bd08      	pop	{r3, pc}
  103452:	f3ef 8314 	mrs	r3, CONTROL
  103456:	07db      	lsls	r3, r3, #31
  103458:	d403      	bmi.n	103462 <osKernelGetState+0x32>
  10345a:	e8bd 4008 	ldmia.w	sp!, {r3, lr}
  10345e:	f7ff bf53 	b.w	103308 <svcRtxKernelGetState>
  103462:	f8df c008 	ldr.w	r12, [pc, #8]	; 10346c <osKernelGetState+0x3c>
  103466:	df00      	svc	0
  103468:	bd08      	pop	{r3, pc}
  10346a:	bf00      	nop
  10346c:	00103309 	.word	0x00103309

00103470 <osKernelStart>:
  103470:	b508      	push	{r3, lr}
  103472:	f7ff fe4b 	bl	10310c <EvrRtxKernelStart>
  103476:	f3ef 8305 	mrs	r3, IPSR
  10347a:	b92b      	cbnz	r3, 103488 <osKernelStart+0x18>
  10347c:	f3ef 8310 	mrs	r3, PRIMASK
  103480:	b913      	cbnz	r3, 103488 <osKernelStart+0x18>
  103482:	f3ef 8311 	mrs	r3, BASEPRI
  103486:	b133      	cbz	r3, 103496 <osKernelStart+0x26>
  103488:	f06f 0005 	mvn.w	r0, #5
  10348c:	f7ff fe3a 	bl	103104 <EvrRtxKernelError>
  103490:	f06f 0005 	mvn.w	r0, #5
  103494:	bd08      	pop	{r3, pc}
  103496:	f7ff ffcb 	bl	103430 <osKernelGetState>
  10349a:	2802      	cmp	r0, #2
  10349c:	d005      	beq.n	1034aa <osKernelStart+0x3a>
  10349e:	4b0b      	ldr	r3, [pc, #44]	; (1034cc <osKernelStart+0x5c>)
  1034a0:	681b      	ldr	r3, [r3, #0]
  1034a2:	b113      	cbz	r3, 1034aa <osKernelStart+0x3a>
  1034a4:	685b      	ldr	r3, [r3, #4]
  1034a6:	b103      	cbz	r3, 1034aa <osKernelStart+0x3a>
  1034a8:	4798      	blx	r3
  1034aa:	f8df c024 	ldr.w	r12, [pc, #36]	; 1034d0 <osKernelStart+0x60>
  1034ae:	f3ef 8314 	mrs	r3, CONTROL
  1034b2:	f013 0f02 	tst.w	r3, #2
  1034b6:	d106      	bne.n	1034c6 <osKernelStart+0x56>
  1034b8:	f3ef 8308 	mrs	r3, MSP
  1034bc:	3b20      	subs	r3, #32
  1034be:	f023 0307 	bic.w	r3, r3, #7
  1034c2:	f383 8809 	msr	PSP, r3
  1034c6:	df00      	svc	0
  1034c8:	bd08      	pop	{r3, pc}
  1034ca:	bf00      	nop
  1034cc:	3fff60e0 	.word	0x3fff60e0
  1034d0:	0010331d 	.word	0x0010331d

001034d4 <osRtxMemoryInit>:
  1034d4:	b538      	push	{r3, r4, r5, lr}
  1034d6:	460c      	mov	r4, r1
  1034d8:	4603      	mov	r3, r0
  1034da:	b130      	cbz	r0, 1034ea <osRtxMemoryInit+0x16>
  1034dc:	ea40 0201 	orr.w	r2, r0, r1
  1034e0:	f012 0207 	ands.w	r2, r2, #7
  1034e4:	d101      	bne.n	1034ea <osRtxMemoryInit+0x16>
  1034e6:	2917      	cmp	r1, #23
  1034e8:	d806      	bhi.n	1034f8 <osRtxMemoryInit+0x24>
  1034ea:	4618      	mov	r0, r3
  1034ec:	2200      	movs	r2, #0
  1034ee:	4621      	mov	r1, r4
  1034f0:	f7ff fe02 	bl	1030f8 <EvrRtxMemoryInit>
  1034f4:	2000      	movs	r0, #0
  1034f6:	bd38      	pop	{r3, r4, r5, pc}
  1034f8:	f1a1 0408 	sub.w	r4, r1, #8
  1034fc:	2510      	movs	r5, #16
  1034fe:	6019      	str	r1, [r3, #0]
  103500:	6045      	str	r5, [r0, #4]
  103502:	1825      	adds	r5, r4, r0
  103504:	6085      	str	r5, [r0, #8]
  103506:	5022      	str	r2, [r4, r0]
  103508:	60c2      	str	r2, [r0, #12]
  10350a:	2201      	movs	r2, #1
  10350c:	f7ff fdf4 	bl	1030f8 <EvrRtxMemoryInit>
  103510:	2001      	movs	r0, #1
  103512:	bd38      	pop	{r3, r4, r5, pc}

00103514 <osRtxMemoryAlloc>:
  103514:	b5f8      	push	{r3, r4, r5, r6, r7, lr}
  103516:	b118      	cbz	r0, 103520 <osRtxMemoryAlloc+0xc>
  103518:	b111      	cbz	r1, 103520 <osRtxMemoryAlloc+0xc>
  10351a:	f032 0303 	bics.w	r3, r2, #3
  10351e:	d004      	beq.n	10352a <osRtxMemoryAlloc+0x16>
  103520:	2300      	movs	r3, #0
  103522:	f7ff fdea 	bl	1030fa <EvrRtxMemoryAlloc>
  103526:	2000      	movs	r0, #0
  103528:	bdf8      	pop	{r3, r4, r5, r6, r7, pc}
  10352a:	310f      	adds	r1, #15
  10352c:	f021 0107 	bic.w	r1, r1, #7
  103530:	f100 0508 	add.w	r5, r0, #8
  103534:	682e      	ldr	r6, [r5, #0]
  103536:	f8d5 e004 	ldr.w	lr, [r5, #4]
  10353a:	1b73      	subs	r3, r6, r5
  10353c:	f02e 0403 	bic.w	r4, lr, #3
  103540:	1b1b      	subs	r3, r3, r4
  103542:	4299      	cmp	r1, r3
  103544:	d905      	bls.n	103552 <osRtxMemoryAlloc+0x3e>
  103546:	6834      	ldr	r4, [r6, #0]
  103548:	4635      	mov	r5, r6
  10354a:	2c00      	cmp	r4, #0
  10354c:	d1f2      	bne.n	103534 <osRtxMemoryAlloc+0x20>
  10354e:	4623      	mov	r3, r4
  103550:	e7e7      	b.n	103522 <osRtxMemoryAlloc+0xe>
  103552:	6843      	ldr	r3, [r0, #4]
  103554:	ea42 0701 	orr.w	r7, r2, r1
  103558:	440b      	add	r3, r1
  10355a:	6043      	str	r3, [r0, #4]
  10355c:	f1be 0f00 	cmp.w	lr, #0
  103560:	d103      	bne.n	10356a <osRtxMemoryAlloc+0x56>
  103562:	606f      	str	r7, [r5, #4]
  103564:	f105 0408 	add.w	r4, r5, #8
  103568:	e005      	b.n	103576 <osRtxMemoryAlloc+0x62>
  10356a:	192b      	adds	r3, r5, r4
  10356c:	512e      	str	r6, [r5, r4]
  10356e:	605f      	str	r7, [r3, #4]
  103570:	f103 0408 	add.w	r4, r3, #8
  103574:	602b      	str	r3, [r5, #0]
  103576:	4623      	mov	r3, r4
  103578:	f7ff fdbf 	bl	1030fa <EvrRtxMemoryAlloc>
  10357c:	4620      	mov	r0, r4
  10357e:	bdf8      	pop	{r3, r4, r5, r6, r7, pc}

00103580 <osRtxMemoryFree>:
  103580:	b538      	push	{r3, r4, r5, lr}
  103582:	b100      	cbz	r0, 103586 <osRtxMemoryFree+0x6>
  103584:	b921      	cbnz	r1, 103590 <osRtxMemoryFree+0x10>
  103586:	2200      	movs	r2, #0
  103588:	f7ff fdb8 	bl	1030fc <EvrRtxMemoryFree>
  10358c:	2000      	movs	r0, #0
  10358e:	bd38      	pop	{r3, r4, r5, pc}
  103590:	f1a1 0508 	sub.w	r5, r1, #8
  103594:	f100 0308 	add.w	r3, r0, #8
  103598:	2200      	movs	r2, #0
  10359a:	42ab      	cmp	r3, r5
  10359c:	d005      	beq.n	1035aa <osRtxMemoryFree+0x2a>
  10359e:	681c      	ldr	r4, [r3, #0]
  1035a0:	461a      	mov	r2, r3
  1035a2:	2c00      	cmp	r4, #0
  1035a4:	d0ef      	beq.n	103586 <osRtxMemoryFree+0x6>
  1035a6:	4623      	mov	r3, r4
  1035a8:	e7f7      	b.n	10359a <osRtxMemoryFree+0x1a>
  1035aa:	685c      	ldr	r4, [r3, #4]
  1035ac:	f024 0503 	bic.w	r5, r4, #3
  1035b0:	6844      	ldr	r4, [r0, #4]
  1035b2:	1b64      	subs	r4, r4, r5
  1035b4:	6044      	str	r4, [r0, #4]
  1035b6:	b90a      	cbnz	r2, 1035bc <osRtxMemoryFree+0x3c>
  1035b8:	605a      	str	r2, [r3, #4]
  1035ba:	e001      	b.n	1035c0 <osRtxMemoryFree+0x40>
  1035bc:	681b      	ldr	r3, [r3, #0]
  1035be:	6013      	str	r3, [r2, #0]
  1035c0:	2201      	movs	r2, #1
  1035c2:	f7ff fd9b 	bl	1030fc <EvrRtxMemoryFree>
  1035c6:	2001      	movs	r0, #1
  1035c8:	bd38      	pop	{r3, r4, r5, pc}

001035ca <osRtxMemoryPoolInit>:
  1035ca:	e92d 41f0 	stmdb	sp!, {r4, r5, r6, r7, r8, lr}
  1035ce:	460d      	mov	r5, r1
  1035d0:	4617      	mov	r7, r2
  1035d2:	461c      	mov	r4, r3
  1035d4:	4606      	mov	r6, r0
  1035d6:	b1f8      	cbz	r0, 103618 <osRtxMemoryPoolInit+0x4e>
  1035d8:	b301      	cbz	r1, 10361c <osRtxMemoryPoolInit+0x52>
  1035da:	b312      	cbz	r2, 103622 <osRtxMemoryPoolInit+0x58>
  1035dc:	b323      	cbz	r3, 103628 <osRtxMemoryPoolInit+0x5e>
  1035de:	fb02 f801 	mul.w	r8, r2, r1
  1035e2:	f04f 0e00 	mov.w	lr, #0
  1035e6:	6031      	str	r1, [r6, #0]
  1035e8:	f8c0 e004 	str.w	lr, [r0, #4]
  1035ec:	eb03 0e08 	add.w	lr, r3, r8
  1035f0:	60f3      	str	r3, [r6, #12]
  1035f2:	6173      	str	r3, [r6, #20]
  1035f4:	60b2      	str	r2, [r6, #8]
  1035f6:	f8c0 e010 	str.w	lr, [r0, #16]
  1035fa:	f7ff fd80 	bl	1030fe <EvrRtxMemoryBlockInit>
  1035fe:	4623      	mov	r3, r4
  103600:	3d01      	subs	r5, #1
  103602:	d003      	beq.n	10360c <osRtxMemoryPoolInit+0x42>
  103604:	19da      	adds	r2, r3, r7
  103606:	601a      	str	r2, [r3, #0]
  103608:	4613      	mov	r3, r2
  10360a:	e7f9      	b.n	103600 <osRtxMemoryPoolInit+0x36>
  10360c:	ebc7 0008 	rsb	r0, r7, r8
  103610:	5025      	str	r5, [r4, r0]
  103612:	2001      	movs	r0, #1
  103614:	e8bd 81f0 	ldmia.w	sp!, {r4, r5, r6, r7, r8, pc}
  103618:	e8bd 81f0 	ldmia.w	sp!, {r4, r5, r6, r7, r8, pc}
  10361c:	4608      	mov	r0, r1
  10361e:	e8bd 81f0 	ldmia.w	sp!, {r4, r5, r6, r7, r8, pc}
  103622:	4610      	mov	r0, r2
  103624:	e8bd 81f0 	ldmia.w	sp!, {r4, r5, r6, r7, r8, pc}
  103628:	4618      	mov	r0, r3
  10362a:	e8bd 81f0 	ldmia.w	sp!, {r4, r5, r6, r7, r8, pc}

0010362e <osRtxMemoryPoolAlloc>:
  10362e:	b538      	push	{r3, r4, r5, lr}
  103630:	4605      	mov	r5, r0
  103632:	b920      	cbnz	r0, 10363e <osRtxMemoryPoolAlloc+0x10>
  103634:	4601      	mov	r1, r0
  103636:	f7ff fd63 	bl	103100 <EvrRtxMemoryBlockAlloc>
  10363a:	4628      	mov	r0, r5
  10363c:	bd38      	pop	{r3, r4, r5, pc}
  10363e:	1d03      	adds	r3, r0, #4
  103640:	6802      	ldr	r2, [r0, #0]
  103642:	e853 1f00 	ldrex	r1, [r3]
  103646:	428a      	cmp	r2, r1
  103648:	d802      	bhi.n	103650 <osRtxMemoryPoolAlloc+0x22>
  10364a:	f3bf 8f2f 	clrex
  10364e:	e004      	b.n	10365a <osRtxMemoryPoolAlloc+0x2c>
  103650:	1c48      	adds	r0, r1, #1
  103652:	e843 0400 	strex	r4, r0, [r3]
  103656:	b104      	cbz	r4, 10365a <osRtxMemoryPoolAlloc+0x2c>
  103658:	e7f3      	b.n	103642 <osRtxMemoryPoolAlloc+0x14>
  10365a:	682b      	ldr	r3, [r5, #0]
  10365c:	428b      	cmp	r3, r1
  10365e:	d90e      	bls.n	10367e <osRtxMemoryPoolAlloc+0x50>
  103660:	f105 0314 	add.w	r3, r5, #20
  103664:	e853 0f00 	ldrex	r0, [r3]
  103668:	b910      	cbnz	r0, 103670 <osRtxMemoryPoolAlloc+0x42>
  10366a:	f3bf 8f2f 	clrex
  10366e:	e004      	b.n	10367a <osRtxMemoryPoolAlloc+0x4c>
  103670:	6802      	ldr	r2, [r0, #0]
  103672:	e843 2100 	strex	r1, r2, [r3]
  103676:	b101      	cbz	r1, 10367a <osRtxMemoryPoolAlloc+0x4c>
  103678:	e7f4      	b.n	103664 <osRtxMemoryPoolAlloc+0x36>
  10367a:	4604      	mov	r4, r0
  10367c:	e000      	b.n	103680 <osRtxMemoryPoolAlloc+0x52>
  10367e:	2400      	movs	r4, #0
  103680:	4628      	mov	r0, r5
  103682:	4621      	mov	r1, r4
  103684:	f7ff fd3c 	bl	103100 <EvrRtxMemoryBlockAlloc>
  103688:	4620      	mov	r0, r4
  10368a:	bd38      	pop	{r3, r4, r5, pc}

0010368c <osRtxMemoryPoolFree>:
  10368c:	b538      	push	{r3, r4, r5, lr}
  10368e:	b128      	cbz	r0, 10369c <osRtxMemoryPoolFree+0x10>
  103690:	68c3      	ldr	r3, [r0, #12]
  103692:	428b      	cmp	r3, r1
  103694:	d802      	bhi.n	10369c <osRtxMemoryPoolFree+0x10>
  103696:	6903      	ldr	r3, [r0, #16]
  103698:	4299      	cmp	r1, r3
  10369a:	d306      	bcc.n	1036aa <osRtxMemoryPoolFree+0x1e>
  10369c:	f06f 0203 	mvn.w	r2, #3
  1036a0:	f7ff fd2f 	bl	103102 <EvrRtxMemoryBlockFree>
  1036a4:	f06f 0003 	mvn.w	r0, #3
  1036a8:	bd38      	pop	{r3, r4, r5, pc}
  1036aa:	1d03      	adds	r3, r0, #4
  1036ac:	e853 2f00 	ldrex	r2, [r3]
  1036b0:	b912      	cbnz	r2, 1036b8 <osRtxMemoryPoolFree+0x2c>
  1036b2:	f3bf 8f2f 	clrex
  1036b6:	e004      	b.n	1036c2 <osRtxMemoryPoolFree+0x36>
  1036b8:	1e54      	subs	r4, r2, #1
  1036ba:	e843 4500 	strex	r5, r4, [r3]
  1036be:	b105      	cbz	r5, 1036c2 <osRtxMemoryPoolFree+0x36>
  1036c0:	e7f4      	b.n	1036ac <osRtxMemoryPoolFree+0x20>
  1036c2:	b182      	cbz	r2, 1036e6 <osRtxMemoryPoolFree+0x5a>
  1036c4:	f100 0314 	add.w	r3, r0, #20
  1036c8:	681a      	ldr	r2, [r3, #0]
  1036ca:	600a      	str	r2, [r1, #0]
  1036cc:	f3bf 8f5f 	dmb	sy
  1036d0:	e853 2f00 	ldrex	r2, [r3]
  1036d4:	680c      	ldr	r4, [r1, #0]
  1036d6:	4294      	cmp	r4, r2
  1036d8:	d1f6      	bne.n	1036c8 <osRtxMemoryPoolFree+0x3c>
  1036da:	e843 1500 	strex	r5, r1, [r3]
  1036de:	b105      	cbz	r5, 1036e2 <osRtxMemoryPoolFree+0x56>
  1036e0:	e7f2      	b.n	1036c8 <osRtxMemoryPoolFree+0x3c>
  1036e2:	2400      	movs	r4, #0
  1036e4:	e001      	b.n	1036ea <osRtxMemoryPoolFree+0x5e>
  1036e6:	f06f 0402 	mvn.w	r4, #2
  1036ea:	4622      	mov	r2, r4
  1036ec:	f7ff fd09 	bl	103102 <EvrRtxMemoryBlockFree>
  1036f0:	4620      	mov	r0, r4
  1036f2:	bd38      	pop	{r3, r4, r5, pc}

001036f4 <MessageQueuePut>:
  1036f4:	6b03      	ldr	r3, [r0, #48]	; 0x30
  1036f6:	b530      	push	{r4, r5, lr}
  1036f8:	b1a3      	cbz	r3, 103724 <MessageQueuePut+0x30>
  1036fa:	78cd      	ldrb	r5, [r1, #3]
  1036fc:	2400      	movs	r4, #0
  1036fe:	78da      	ldrb	r2, [r3, #3]
  103700:	42aa      	cmp	r2, r5
  103702:	d204      	bcs.n	10370e <MessageQueuePut+0x1a>
  103704:	685a      	ldr	r2, [r3, #4]
  103706:	461c      	mov	r4, r3
  103708:	b11a      	cbz	r2, 103712 <MessageQueuePut+0x1e>
  10370a:	4613      	mov	r3, r2
  10370c:	e7f7      	b.n	1036fe <MessageQueuePut+0xa>
  10370e:	461a      	mov	r2, r3
  103710:	4623      	mov	r3, r4
  103712:	604a      	str	r2, [r1, #4]
  103714:	608b      	str	r3, [r1, #8]
  103716:	b10a      	cbz	r2, 10371c <MessageQueuePut+0x28>
  103718:	6091      	str	r1, [r2, #8]
  10371a:	e000      	b.n	10371e <MessageQueuePut+0x2a>
  10371c:	62c1      	str	r1, [r0, #44]	; 0x2c
  10371e:	b123      	cbz	r3, 10372a <MessageQueuePut+0x36>
  103720:	6059      	str	r1, [r3, #4]
  103722:	e003      	b.n	10372c <MessageQueuePut+0x38>
  103724:	604b      	str	r3, [r1, #4]
  103726:	608b      	str	r3, [r1, #8]
  103728:	62c1      	str	r1, [r0, #44]	; 0x2c
  10372a:	6301      	str	r1, [r0, #48]	; 0x30
  10372c:	3028      	adds	r0, #40	; 0x28
  10372e:	e850 3f00 	ldrex	r3, [r0]
  103732:	1c5a      	adds	r2, r3, #1
  103734:	e840 2100 	strex	r1, r2, [r0]
  103738:	b101      	cbz	r1, 10373c <MessageQueuePut+0x48>
  10373a:	e7f8      	b.n	10372e <MessageQueuePut+0x3a>
  10373c:	bd30      	pop	{r4, r5, pc}

0010373e <MessageQueueRemove>:
  10373e:	684b      	ldr	r3, [r1, #4]
  103740:	688a      	ldr	r2, [r1, #8]
  103742:	b10b      	cbz	r3, 103748 <MessageQueueRemove+0xa>
  103744:	609a      	str	r2, [r3, #8]
  103746:	e000      	b.n	10374a <MessageQueueRemove+0xc>
  103748:	62c2      	str	r2, [r0, #44]	; 0x2c
  10374a:	688a      	ldr	r2, [r1, #8]
  10374c:	b10a      	cbz	r2, 103752 <MessageQueueRemove+0x14>
  10374e:	6053      	str	r3, [r2, #4]
  103750:	4770      	bx	lr
  103752:	6303      	str	r3, [r0, #48]	; 0x30
  103754:	4770      	bx	lr
	...

00103758 <svcRtxMessageQueueNew>:
  103758:	e92d 4ff7 	stmdb	sp!, {r0, r1, r2, r4, r5, r6, r7, r8, r9, r10, r11, lr}
  10375c:	4680      	mov	r8, r0
  10375e:	b100      	cbz	r0, 103762 <svcRtxMessageQueueNew+0xa>
  103760:	b931      	cbnz	r1, 103770 <svcRtxMessageQueueNew+0x18>
  103762:	f06f 0103 	mvn.w	r1, #3
  103766:	2000      	movs	r0, #0
  103768:	f7ff fcf1 	bl	10314e <EvrRtxMessageQueueError>
  10376c:	2000      	movs	r0, #0
  10376e:	e08e      	b.n	10388e <svcRtxMessageQueueNew+0x136>
  103770:	3103      	adds	r1, #3
  103772:	f021 0303 	bic.w	r3, r1, #3
  103776:	f103 090c 	add.w	r9, r3, #12
  10377a:	9301      	str	r3, [sp, #4]
  10377c:	fab9 f189 	clz	r1, r9
  103780:	fab0 f380 	clz	r3, r0
  103784:	440b      	add	r3, r1
  103786:	2b1f      	cmp	r3, #31
  103788:	ddeb      	ble.n	103762 <svcRtxMessageQueueNew+0xa>
  10378a:	fb09 fa00 	mul.w	r10, r9, r0
  10378e:	b1e2      	cbz	r2, 1037ca <svcRtxMessageQueueNew+0x72>
  103790:	6894      	ldr	r4, [r2, #8]
  103792:	f8d2 b000 	ldr.w	r11, [r2]
  103796:	6916      	ldr	r6, [r2, #16]
  103798:	6950      	ldr	r0, [r2, #20]
  10379a:	b13c      	cbz	r4, 1037ac <svcRtxMessageQueueNew+0x54>
  10379c:	07a3      	lsls	r3, r4, #30
  10379e:	d102      	bne.n	1037a6 <svcRtxMessageQueueNew+0x4e>
  1037a0:	68d3      	ldr	r3, [r2, #12]
  1037a2:	2b33      	cmp	r3, #51	; 0x33
  1037a4:	d805      	bhi.n	1037b2 <svcRtxMessageQueueNew+0x5a>
  1037a6:	f06f 0108 	mvn.w	r1, #8
  1037aa:	e7dc      	b.n	103766 <svcRtxMessageQueueNew+0xe>
  1037ac:	68d3      	ldr	r3, [r2, #12]
  1037ae:	2b00      	cmp	r3, #0
  1037b0:	d1f9      	bne.n	1037a6 <svcRtxMessageQueueNew+0x4e>
  1037b2:	b13e      	cbz	r6, 1037c4 <svcRtxMessageQueueNew+0x6c>
  1037b4:	f016 0303 	ands.w	r3, r6, #3
  1037b8:	d101      	bne.n	1037be <svcRtxMessageQueueNew+0x66>
  1037ba:	4582      	cmp	r10, r0
  1037bc:	d95f      	bls.n	10387e <svcRtxMessageQueueNew+0x126>
  1037be:	f06f 0109 	mvn.w	r1, #9
  1037c2:	e7d0      	b.n	103766 <svcRtxMessageQueueNew+0xe>
  1037c4:	2800      	cmp	r0, #0
  1037c6:	d05e      	beq.n	103886 <svcRtxMessageQueueNew+0x12e>
  1037c8:	e7f9      	b.n	1037be <svcRtxMessageQueueNew+0x66>
  1037ca:	4693      	mov	r11, r2
  1037cc:	4616      	mov	r6, r2
  1037ce:	4b31      	ldr	r3, [pc, #196]	; (103894 <svcRtxMessageQueueNew+0x13c>)
  1037d0:	f8d3 00a8 	ldr.w	r0, [r3, #168]	; 0xa8
  1037d4:	b110      	cbz	r0, 1037dc <svcRtxMessageQueueNew+0x84>
  1037d6:	f7ff ff2a 	bl	10362e <osRtxMemoryPoolAlloc>
  1037da:	e005      	b.n	1037e8 <svcRtxMessageQueueNew+0x90>
  1037dc:	2201      	movs	r2, #1
  1037de:	2134      	movs	r1, #52	; 0x34
  1037e0:	f8d3 0088 	ldr.w	r0, [r3, #136]	; 0x88
  1037e4:	f7ff fe96 	bl	103514 <osRtxMemoryAlloc>
  1037e8:	4604      	mov	r4, r0
  1037ea:	b920      	cbnz	r0, 1037f6 <svcRtxMessageQueueNew+0x9e>
  1037ec:	f06f 0104 	mvn.w	r1, #4
  1037f0:	f7ff fcad 	bl	10314e <EvrRtxMessageQueueError>
  1037f4:	e041      	b.n	10387a <svcRtxMessageQueueNew+0x122>
  1037f6:	bb26      	cbnz	r6, 103842 <svcRtxMessageQueueNew+0xea>
  1037f8:	2501      	movs	r5, #1
  1037fa:	4f26      	ldr	r7, [pc, #152]	; (103894 <svcRtxMessageQueueNew+0x13c>)
  1037fc:	2200      	movs	r2, #0
  1037fe:	4651      	mov	r1, r10
  103800:	f8d7 0084 	ldr.w	r0, [r7, #132]	; 0x84
  103804:	f7ff fe86 	bl	103514 <osRtxMemoryAlloc>
  103808:	4606      	mov	r6, r0
  10380a:	b990      	cbnz	r0, 103832 <svcRtxMessageQueueNew+0xda>
  10380c:	f06f 0104 	mvn.w	r1, #4
  103810:	f7ff fc9d 	bl	10314e <EvrRtxMessageQueueError>
  103814:	2d00      	cmp	r5, #0
  103816:	d0a9      	beq.n	10376c <svcRtxMessageQueueNew+0x14>
  103818:	f8d7 50a8 	ldr.w	r5, [r7, #168]	; 0xa8
  10381c:	4621      	mov	r1, r4
  10381e:	b11d      	cbz	r5, 103828 <svcRtxMessageQueueNew+0xd0>
  103820:	4628      	mov	r0, r5
  103822:	f7ff ff33 	bl	10368c <osRtxMemoryPoolFree>
  103826:	e7a1      	b.n	10376c <svcRtxMessageQueueNew+0x14>
  103828:	f8d7 0088 	ldr.w	r0, [r7, #136]	; 0x88
  10382c:	f7ff fea8 	bl	103580 <osRtxMemoryFree>
  103830:	e79c      	b.n	10376c <svcRtxMessageQueueNew+0x14>
  103832:	4652      	mov	r2, r10
  103834:	2100      	movs	r1, #0
  103836:	f005 f973 	bl	108b20 <memset>
  10383a:	f045 0002 	orr.w	r0, r5, #2
  10383e:	b2c0      	uxtb	r0, r0
  103840:	e000      	b.n	103844 <svcRtxMessageQueueNew+0xec>
  103842:	2001      	movs	r0, #1
  103844:	2308      	movs	r3, #8
  103846:	9a01      	ldr	r2, [sp, #4]
  103848:	7023      	strb	r3, [r4, #0]
  10384a:	2301      	movs	r3, #1
  10384c:	7063      	strb	r3, [r4, #1]
  10384e:	2300      	movs	r3, #0
  103850:	70a0      	strb	r0, [r4, #2]
  103852:	60a3      	str	r3, [r4, #8]
  103854:	6262      	str	r2, [r4, #36]	; 0x24
  103856:	62a3      	str	r3, [r4, #40]	; 0x28
  103858:	62e3      	str	r3, [r4, #44]	; 0x2c
  10385a:	6323      	str	r3, [r4, #48]	; 0x30
  10385c:	464a      	mov	r2, r9
  10385e:	4633      	mov	r3, r6
  103860:	f8c4 b004 	str.w	r11, [r4, #4]
  103864:	4641      	mov	r1, r8
  103866:	f104 000c 	add.w	r0, r4, #12
  10386a:	f7ff feae 	bl	1035ca <osRtxMemoryPoolInit>
  10386e:	4a0a      	ldr	r2, [pc, #40]	; (103898 <svcRtxMessageQueueNew+0x140>)
  103870:	4b08      	ldr	r3, [pc, #32]	; (103894 <svcRtxMessageQueueNew+0x13c>)
  103872:	4620      	mov	r0, r4
  103874:	679a      	str	r2, [r3, #120]	; 0x78
  103876:	f7ff fc6c 	bl	103152 <EvrRtxMessageQueueCreated>
  10387a:	4620      	mov	r0, r4
  10387c:	e007      	b.n	10388e <svcRtxMessageQueueNew+0x136>
  10387e:	2c00      	cmp	r4, #0
  103880:	d0a5      	beq.n	1037ce <svcRtxMessageQueueNew+0x76>
  103882:	4618      	mov	r0, r3
  103884:	e7de      	b.n	103844 <svcRtxMessageQueueNew+0xec>
  103886:	2c00      	cmp	r4, #0
  103888:	d0a1      	beq.n	1037ce <svcRtxMessageQueueNew+0x76>
  10388a:	4605      	mov	r5, r0
  10388c:	e7b5      	b.n	1037fa <svcRtxMessageQueueNew+0xa2>
  10388e:	b003      	add	sp, #12
  103890:	e8bd 8ff0 	ldmia.w	sp!, {r4, r5, r6, r7, r8, r9, r10, r11, pc}
  103894:	3fff40a8 	.word	0x3fff40a8
  103898:	00103999 	.word	0x00103999

0010389c <svcRtxMessageQueuePut>:
  10389c:	e92d 41f0 	stmdb	sp!, {r4, r5, r6, r7, r8, lr}
  1038a0:	460e      	mov	r6, r1
  1038a2:	4690      	mov	r8, r2
  1038a4:	461d      	mov	r5, r3
  1038a6:	4604      	mov	r4, r0
  1038a8:	b118      	cbz	r0, 1038b2 <svcRtxMessageQueuePut+0x16>
  1038aa:	7803      	ldrb	r3, [r0, #0]
  1038ac:	2b08      	cmp	r3, #8
  1038ae:	d100      	bne.n	1038b2 <svcRtxMessageQueuePut+0x16>
  1038b0:	b941      	cbnz	r1, 1038c4 <svcRtxMessageQueuePut+0x28>
  1038b2:	4620      	mov	r0, r4
  1038b4:	f06f 0103 	mvn.w	r1, #3
  1038b8:	f7ff fc49 	bl	10314e <EvrRtxMessageQueueError>
  1038bc:	f06f 0003 	mvn.w	r0, #3
  1038c0:	e8bd 81f0 	ldmia.w	sp!, {r4, r5, r6, r7, r8, pc}
  1038c4:	7843      	ldrb	r3, [r0, #1]
  1038c6:	b923      	cbnz	r3, 1038d2 <svcRtxMessageQueuePut+0x36>
  1038c8:	f06f 0102 	mvn.w	r1, #2
  1038cc:	f7ff fc3f 	bl	10314e <EvrRtxMessageQueueError>
  1038d0:	e05c      	b.n	10398c <svcRtxMessageQueuePut+0xf0>
  1038d2:	6883      	ldr	r3, [r0, #8]
  1038d4:	b303      	cbz	r3, 103918 <svcRtxMessageQueuePut+0x7c>
  1038d6:	785b      	ldrb	r3, [r3, #1]
  1038d8:	2b83      	cmp	r3, #131	; 0x83
  1038da:	d11d      	bne.n	103918 <svcRtxMessageQueuePut+0x7c>
  1038dc:	f7ff fc3e 	bl	10315c <EvrRtxMessageQueueInserted>
  1038e0:	4620      	mov	r0, r4
  1038e2:	f000 fe20 	bl	104526 <osRtxThreadListGet>
  1038e6:	4605      	mov	r5, r0
  1038e8:	2201      	movs	r2, #1
  1038ea:	2100      	movs	r1, #0
  1038ec:	f000 ff76 	bl	1047dc <osRtxThreadWaitExit>
  1038f0:	4628      	mov	r0, r5
  1038f2:	f000 fef7 	bl	1046e4 <osRtxThreadRegPtr>
  1038f6:	4605      	mov	r5, r0
  1038f8:	6a62      	ldr	r2, [r4, #36]	; 0x24
  1038fa:	4631      	mov	r1, r6
  1038fc:	6880      	ldr	r0, [r0, #8]
  1038fe:	f005 f8e9 	bl	108ad4 <memcpy>
  103902:	68eb      	ldr	r3, [r5, #12]
  103904:	b10b      	cbz	r3, 10390a <svcRtxMessageQueuePut+0x6e>
  103906:	f883 8000 	strb.w	r8, [r3]
  10390a:	4620      	mov	r0, r4
  10390c:	68a9      	ldr	r1, [r5, #8]
  10390e:	f7ff fc2a 	bl	103166 <EvrRtxMessageQueueRetrieved>
  103912:	2000      	movs	r0, #0
  103914:	e8bd 81f0 	ldmia.w	sp!, {r4, r5, r6, r7, r8, pc}
  103918:	f104 000c 	add.w	r0, r4, #12
  10391c:	f7ff fe87 	bl	10362e <osRtxMemoryPoolAlloc>
  103920:	4607      	mov	r7, r0
  103922:	b1b8      	cbz	r0, 103954 <svcRtxMessageQueuePut+0xb8>
  103924:	6a62      	ldr	r2, [r4, #36]	; 0x24
  103926:	4631      	mov	r1, r6
  103928:	300c      	adds	r0, #12
  10392a:	f005 f8d3 	bl	108ad4 <memcpy>
  10392e:	2307      	movs	r3, #7
  103930:	703b      	strb	r3, [r7, #0]
  103932:	2500      	movs	r5, #0
  103934:	2301      	movs	r3, #1
  103936:	707b      	strb	r3, [r7, #1]
  103938:	4639      	mov	r1, r7
  10393a:	4620      	mov	r0, r4
  10393c:	70bd      	strb	r5, [r7, #2]
  10393e:	f887 8003 	strb.w	r8, [r7, #3]
  103942:	f7ff fed7 	bl	1036f4 <MessageQueuePut>
  103946:	4620      	mov	r0, r4
  103948:	4631      	mov	r1, r6
  10394a:	f7ff fc07 	bl	10315c <EvrRtxMessageQueueInserted>
  10394e:	4628      	mov	r0, r5
  103950:	e8bd 81f0 	ldmia.w	sp!, {r4, r5, r6, r7, r8, pc}
  103954:	b1b5      	cbz	r5, 103984 <svcRtxMessageQueuePut+0xe8>
  103956:	462a      	mov	r2, r5
  103958:	4631      	mov	r1, r6
  10395a:	4620      	mov	r0, r4
  10395c:	f7ff fbfb 	bl	103156 <EvrRtxMessageQueuePutPending>
  103960:	4b0c      	ldr	r3, [pc, #48]	; (103994 <svcRtxMessageQueuePut+0xf8>)
  103962:	4620      	mov	r0, r4
  103964:	69d9      	ldr	r1, [r3, #28]
  103966:	f000 fdcb 	bl	104500 <osRtxThreadListPut>
  10396a:	4629      	mov	r1, r5
  10396c:	2093      	movs	r0, #147	; 0x93
  10396e:	f001 f867 	bl	104a40 <osRtxThreadWaitEnter>
  103972:	f3ef 8309 	mrs	r3, PSP
  103976:	f06f 0001 	mvn.w	r0, #1
  10397a:	609e      	str	r6, [r3, #8]
  10397c:	f8c3 800c 	str.w	r8, [r3, #12]
  103980:	e8bd 81f0 	ldmia.w	sp!, {r4, r5, r6, r7, r8, pc}
  103984:	4631      	mov	r1, r6
  103986:	4620      	mov	r0, r4
  103988:	f7ff fbe9 	bl	10315e <EvrRtxMessageQueueNotInserted>
  10398c:	f06f 0002 	mvn.w	r0, #2
  103990:	e8bd 81f0 	ldmia.w	sp!, {r4, r5, r6, r7, r8, pc}
  103994:	3fff40a8 	.word	0x3fff40a8

00103998 <osRtxMessageQueuePostProcess>:
  103998:	b5f8      	push	{r3, r4, r5, r6, r7, lr}
  10399a:	7843      	ldrb	r3, [r0, #1]
  10399c:	4604      	mov	r4, r0
  10399e:	2b00      	cmp	r3, #0
  1039a0:	d07a      	beq.n	103a98 <osRtxMessageQueuePostProcess+0x100>
  1039a2:	7886      	ldrb	r6, [r0, #2]
  1039a4:	2e00      	cmp	r6, #0
  1039a6:	d03e      	beq.n	103a26 <osRtxMessageQueuePostProcess+0x8e>
  1039a8:	68c5      	ldr	r5, [r0, #12]
  1039aa:	786b      	ldrb	r3, [r5, #1]
  1039ac:	2b00      	cmp	r3, #0
  1039ae:	d073      	beq.n	103a98 <osRtxMessageQueuePostProcess+0x100>
  1039b0:	4601      	mov	r1, r0
  1039b2:	2600      	movs	r6, #0
  1039b4:	4628      	mov	r0, r5
  1039b6:	f105 070c 	add.w	r7, r5, #12
  1039ba:	f7ff fec0 	bl	10373e <MessageQueueRemove>
  1039be:	7066      	strb	r6, [r4, #1]
  1039c0:	4621      	mov	r1, r4
  1039c2:	4638      	mov	r0, r7
  1039c4:	f7ff fe62 	bl	10368c <osRtxMemoryPoolFree>
  1039c8:	68ab      	ldr	r3, [r5, #8]
  1039ca:	2b00      	cmp	r3, #0
  1039cc:	d064      	beq.n	103a98 <osRtxMessageQueuePostProcess+0x100>
  1039ce:	785b      	ldrb	r3, [r3, #1]
  1039d0:	2b93      	cmp	r3, #147	; 0x93
  1039d2:	d161      	bne.n	103a98 <osRtxMessageQueuePostProcess+0x100>
  1039d4:	4638      	mov	r0, r7
  1039d6:	f7ff fe2a 	bl	10362e <osRtxMemoryPoolAlloc>
  1039da:	4604      	mov	r4, r0
  1039dc:	2800      	cmp	r0, #0
  1039de:	d05b      	beq.n	103a98 <osRtxMessageQueuePostProcess+0x100>
  1039e0:	4628      	mov	r0, r5
  1039e2:	f000 fda0 	bl	104526 <osRtxThreadListGet>
  1039e6:	4607      	mov	r7, r0
  1039e8:	4632      	mov	r2, r6
  1039ea:	4631      	mov	r1, r6
  1039ec:	f000 fef6 	bl	1047dc <osRtxThreadWaitExit>
  1039f0:	4638      	mov	r0, r7
  1039f2:	f000 fe77 	bl	1046e4 <osRtxThreadRegPtr>
  1039f6:	4607      	mov	r7, r0
  1039f8:	6a6a      	ldr	r2, [r5, #36]	; 0x24
  1039fa:	6881      	ldr	r1, [r0, #8]
  1039fc:	f104 000c 	add.w	r0, r4, #12
  103a00:	f005 f868 	bl	108ad4 <memcpy>
  103a04:	2307      	movs	r3, #7
  103a06:	7023      	strb	r3, [r4, #0]
  103a08:	2301      	movs	r3, #1
  103a0a:	7063      	strb	r3, [r4, #1]
  103a0c:	70a6      	strb	r6, [r4, #2]
  103a0e:	68fb      	ldr	r3, [r7, #12]
  103a10:	4621      	mov	r1, r4
  103a12:	4628      	mov	r0, r5
  103a14:	70e3      	strb	r3, [r4, #3]
  103a16:	f7ff fe6d 	bl	1036f4 <MessageQueuePut>
  103a1a:	68b9      	ldr	r1, [r7, #8]
  103a1c:	4628      	mov	r0, r5
  103a1e:	e8bd 40f8 	ldmia.w	sp!, {r3, r4, r5, r6, r7, lr}
  103a22:	f7ff bb9b 	b.w	10315c <EvrRtxMessageQueueInserted>
  103a26:	6885      	ldr	r5, [r0, #8]
  103a28:	786b      	ldrb	r3, [r5, #1]
  103a2a:	b3ab      	cbz	r3, 103a98 <osRtxMessageQueuePostProcess+0x100>
  103a2c:	68ab      	ldr	r3, [r5, #8]
  103a2e:	b34b      	cbz	r3, 103a84 <osRtxMessageQueuePostProcess+0xec>
  103a30:	785b      	ldrb	r3, [r3, #1]
  103a32:	2b83      	cmp	r3, #131	; 0x83
  103a34:	d126      	bne.n	103a84 <osRtxMessageQueuePostProcess+0xec>
  103a36:	6841      	ldr	r1, [r0, #4]
  103a38:	4628      	mov	r0, r5
  103a3a:	f7ff fb8f 	bl	10315c <EvrRtxMessageQueueInserted>
  103a3e:	4628      	mov	r0, r5
  103a40:	f000 fd71 	bl	104526 <osRtxThreadListGet>
  103a44:	4607      	mov	r7, r0
  103a46:	4632      	mov	r2, r6
  103a48:	4631      	mov	r1, r6
  103a4a:	f000 fec7 	bl	1047dc <osRtxThreadWaitExit>
  103a4e:	4638      	mov	r0, r7
  103a50:	f000 fe48 	bl	1046e4 <osRtxThreadRegPtr>
  103a54:	4606      	mov	r6, r0
  103a56:	6a6a      	ldr	r2, [r5, #36]	; 0x24
  103a58:	f104 010c 	add.w	r1, r4, #12
  103a5c:	6880      	ldr	r0, [r0, #8]
  103a5e:	f005 f839 	bl	108ad4 <memcpy>
  103a62:	68f3      	ldr	r3, [r6, #12]
  103a64:	b10b      	cbz	r3, 103a6a <osRtxMessageQueuePostProcess+0xd2>
  103a66:	78e2      	ldrb	r2, [r4, #3]
  103a68:	701a      	strb	r2, [r3, #0]
  103a6a:	68b1      	ldr	r1, [r6, #8]
  103a6c:	4628      	mov	r0, r5
  103a6e:	f7ff fb7a 	bl	103166 <EvrRtxMessageQueueRetrieved>
  103a72:	2300      	movs	r3, #0
  103a74:	7063      	strb	r3, [r4, #1]
  103a76:	4621      	mov	r1, r4
  103a78:	f105 000c 	add.w	r0, r5, #12
  103a7c:	e8bd 40f8 	ldmia.w	sp!, {r3, r4, r5, r6, r7, lr}
  103a80:	f7ff be04 	b.w	10368c <osRtxMemoryPoolFree>
  103a84:	6861      	ldr	r1, [r4, #4]
  103a86:	4628      	mov	r0, r5
  103a88:	f7ff fb68 	bl	10315c <EvrRtxMessageQueueInserted>
  103a8c:	4621      	mov	r1, r4
  103a8e:	4628      	mov	r0, r5
  103a90:	e8bd 40f8 	ldmia.w	sp!, {r3, r4, r5, r6, r7, lr}
  103a94:	f7ff be2e 	b.w	1036f4 <MessageQueuePut>
  103a98:	bdf8      	pop	{r3, r4, r5, r6, r7, pc}

00103a9a <MessageQueueGet>:
  103a9a:	b510      	push	{r4, lr}
  103a9c:	f100 0328 	add.w	r3, r0, #40	; 0x28
  103aa0:	e853 2f00 	ldrex	r2, [r3]
  103aa4:	b912      	cbnz	r2, 103aac <MessageQueueGet+0x12>
  103aa6:	f3bf 8f2f 	clrex
  103aaa:	e004      	b.n	103ab6 <MessageQueueGet+0x1c>
  103aac:	1e51      	subs	r1, r2, #1
  103aae:	e843 1400 	strex	r4, r1, [r3]
  103ab2:	b104      	cbz	r4, 103ab6 <MessageQueueGet+0x1c>
  103ab4:	e7f4      	b.n	103aa0 <MessageQueueGet+0x6>
  103ab6:	b90a      	cbnz	r2, 103abc <MessageQueueGet+0x22>
  103ab8:	2000      	movs	r0, #0
  103aba:	bd10      	pop	{r4, pc}
  103abc:	6ac0      	ldr	r0, [r0, #44]	; 0x2c
  103abe:	2301      	movs	r3, #1
  103ac0:	2800      	cmp	r0, #0
  103ac2:	d0f9      	beq.n	103ab8 <MessageQueueGet+0x1e>
  103ac4:	1c82      	adds	r2, r0, #2
  103ac6:	e8d2 1f4f 	ldrexb	r1, [r2]
  103aca:	e8c2 3f44 	strexb	r4, r3, [r2]
  103ace:	b104      	cbz	r4, 103ad2 <MessageQueueGet+0x38>
  103ad0:	e7f9      	b.n	103ac6 <MessageQueueGet+0x2c>
  103ad2:	f011 0fff 	tst.w	r1, #255	; 0xff
  103ad6:	d001      	beq.n	103adc <MessageQueueGet+0x42>
  103ad8:	6880      	ldr	r0, [r0, #8]
  103ada:	e7f1      	b.n	103ac0 <MessageQueueGet+0x26>
  103adc:	bd10      	pop	{r4, pc}
	...

00103ae0 <svcRtxMessageQueueGet>:
  103ae0:	e92d 41f0 	stmdb	sp!, {r4, r5, r6, r7, r8, lr}
  103ae4:	460d      	mov	r5, r1
  103ae6:	4617      	mov	r7, r2
  103ae8:	4698      	mov	r8, r3
  103aea:	4604      	mov	r4, r0
  103aec:	b118      	cbz	r0, 103af6 <svcRtxMessageQueueGet+0x16>
  103aee:	7803      	ldrb	r3, [r0, #0]
  103af0:	2b08      	cmp	r3, #8
  103af2:	d100      	bne.n	103af6 <svcRtxMessageQueueGet+0x16>
  103af4:	b941      	cbnz	r1, 103b08 <svcRtxMessageQueueGet+0x28>
  103af6:	4620      	mov	r0, r4
  103af8:	f06f 0103 	mvn.w	r1, #3
  103afc:	f7ff fb27 	bl	10314e <EvrRtxMessageQueueError>
  103b00:	f06f 0003 	mvn.w	r0, #3
  103b04:	e8bd 81f0 	ldmia.w	sp!, {r4, r5, r6, r7, r8, pc}
  103b08:	7843      	ldrb	r3, [r0, #1]
  103b0a:	b923      	cbnz	r3, 103b16 <svcRtxMessageQueueGet+0x36>
  103b0c:	f06f 0102 	mvn.w	r1, #2
  103b10:	f7ff fb1d 	bl	10314e <EvrRtxMessageQueueError>
  103b14:	e03e      	b.n	103b94 <svcRtxMessageQueueGet+0xb4>
  103b16:	f7ff ffc0 	bl	103a9a <MessageQueueGet>
  103b1a:	4606      	mov	r6, r0
  103b1c:	b1e8      	cbz	r0, 103b5a <svcRtxMessageQueueGet+0x7a>
  103b1e:	4601      	mov	r1, r0
  103b20:	4620      	mov	r0, r4
  103b22:	f7ff fe0c 	bl	10373e <MessageQueueRemove>
  103b26:	6a62      	ldr	r2, [r4, #36]	; 0x24
  103b28:	f106 010c 	add.w	r1, r6, #12
  103b2c:	4628      	mov	r0, r5
  103b2e:	f004 ffd1 	bl	108ad4 <memcpy>
  103b32:	b10f      	cbz	r7, 103b38 <svcRtxMessageQueueGet+0x58>
  103b34:	78f3      	ldrb	r3, [r6, #3]
  103b36:	703b      	strb	r3, [r7, #0]
  103b38:	4629      	mov	r1, r5
  103b3a:	4620      	mov	r0, r4
  103b3c:	2500      	movs	r5, #0
  103b3e:	f104 070c 	add.w	r7, r4, #12
  103b42:	f7ff fb10 	bl	103166 <EvrRtxMessageQueueRetrieved>
  103b46:	7075      	strb	r5, [r6, #1]
  103b48:	4631      	mov	r1, r6
  103b4a:	4638      	mov	r0, r7
  103b4c:	f7ff fd9e 	bl	10368c <osRtxMemoryPoolFree>
  103b50:	68a3      	ldr	r3, [r4, #8]
  103b52:	bb1b      	cbnz	r3, 103b9c <svcRtxMessageQueueGet+0xbc>
  103b54:	2000      	movs	r0, #0
  103b56:	e8bd 81f0 	ldmia.w	sp!, {r4, r5, r6, r7, r8, pc}
  103b5a:	f1b8 0f00 	cmp.w	r8, #0
  103b5e:	d015      	beq.n	103b8c <svcRtxMessageQueueGet+0xac>
  103b60:	4642      	mov	r2, r8
  103b62:	4629      	mov	r1, r5
  103b64:	4620      	mov	r0, r4
  103b66:	f7ff fafc 	bl	103162 <EvrRtxMessageQueueGetPending>
  103b6a:	4b23      	ldr	r3, [pc, #140]	; (103bf8 <svcRtxMessageQueueGet+0x118>)
  103b6c:	4620      	mov	r0, r4
  103b6e:	69d9      	ldr	r1, [r3, #28]
  103b70:	f000 fcc6 	bl	104500 <osRtxThreadListPut>
  103b74:	4641      	mov	r1, r8
  103b76:	2083      	movs	r0, #131	; 0x83
  103b78:	f000 ff62 	bl	104a40 <osRtxThreadWaitEnter>
  103b7c:	f3ef 8309 	mrs	r3, PSP
  103b80:	f06f 0001 	mvn.w	r0, #1
  103b84:	609d      	str	r5, [r3, #8]
  103b86:	60df      	str	r7, [r3, #12]
  103b88:	e8bd 81f0 	ldmia.w	sp!, {r4, r5, r6, r7, r8, pc}
  103b8c:	4629      	mov	r1, r5
  103b8e:	4620      	mov	r0, r4
  103b90:	f7ff faea 	bl	103168 <EvrRtxMessageQueueNotRetrieved>
  103b94:	f06f 0002 	mvn.w	r0, #2
  103b98:	e8bd 81f0 	ldmia.w	sp!, {r4, r5, r6, r7, r8, pc}
  103b9c:	785b      	ldrb	r3, [r3, #1]
  103b9e:	2b93      	cmp	r3, #147	; 0x93
  103ba0:	d1d8      	bne.n	103b54 <svcRtxMessageQueueGet+0x74>
  103ba2:	4638      	mov	r0, r7
  103ba4:	f7ff fd43 	bl	10362e <osRtxMemoryPoolAlloc>
  103ba8:	4606      	mov	r6, r0
  103baa:	2800      	cmp	r0, #0
  103bac:	d0d2      	beq.n	103b54 <svcRtxMessageQueueGet+0x74>
  103bae:	4620      	mov	r0, r4
  103bb0:	f000 fcb9 	bl	104526 <osRtxThreadListGet>
  103bb4:	4607      	mov	r7, r0
  103bb6:	4629      	mov	r1, r5
  103bb8:	2201      	movs	r2, #1
  103bba:	f000 fe0f 	bl	1047dc <osRtxThreadWaitExit>
  103bbe:	4638      	mov	r0, r7
  103bc0:	f000 fd90 	bl	1046e4 <osRtxThreadRegPtr>
  103bc4:	4607      	mov	r7, r0
  103bc6:	6a62      	ldr	r2, [r4, #36]	; 0x24
  103bc8:	6881      	ldr	r1, [r0, #8]
  103bca:	f106 000c 	add.w	r0, r6, #12
  103bce:	f004 ff81 	bl	108ad4 <memcpy>
  103bd2:	2307      	movs	r3, #7
  103bd4:	7033      	strb	r3, [r6, #0]
  103bd6:	2301      	movs	r3, #1
  103bd8:	7073      	strb	r3, [r6, #1]
  103bda:	70b5      	strb	r5, [r6, #2]
  103bdc:	68fb      	ldr	r3, [r7, #12]
  103bde:	4631      	mov	r1, r6
  103be0:	70f3      	strb	r3, [r6, #3]
  103be2:	4620      	mov	r0, r4
  103be4:	f7ff fd86 	bl	1036f4 <MessageQueuePut>
  103be8:	4620      	mov	r0, r4
  103bea:	68b9      	ldr	r1, [r7, #8]
  103bec:	f7ff fab6 	bl	10315c <EvrRtxMessageQueueInserted>
  103bf0:	4628      	mov	r0, r5
  103bf2:	e8bd 81f0 	ldmia.w	sp!, {r4, r5, r6, r7, r8, pc}
  103bf6:	bf00      	nop
  103bf8:	3fff40a8 	.word	0x3fff40a8

00103bfc <osMessageQueueNew>:
  103bfc:	b570      	push	{r4, r5, r6, lr}
  103bfe:	4606      	mov	r6, r0
  103c00:	460d      	mov	r5, r1
  103c02:	4614      	mov	r4, r2
  103c04:	f7ff faa4 	bl	103150 <EvrRtxMessageQueueNew>
  103c08:	f3ef 8305 	mrs	r3, IPSR
  103c0c:	b92b      	cbnz	r3, 103c1a <osMessageQueueNew+0x1e>
  103c0e:	f3ef 8310 	mrs	r3, PRIMASK
  103c12:	b913      	cbnz	r3, 103c1a <osMessageQueueNew+0x1e>
  103c14:	f3ef 8311 	mrs	r3, BASEPRI
  103c18:	b133      	cbz	r3, 103c28 <osMessageQueueNew+0x2c>
  103c1a:	f06f 0105 	mvn.w	r1, #5
  103c1e:	2000      	movs	r0, #0
  103c20:	f7ff fa95 	bl	10314e <EvrRtxMessageQueueError>
  103c24:	2000      	movs	r0, #0
  103c26:	bd70      	pop	{r4, r5, r6, pc}
  103c28:	4630      	mov	r0, r6
  103c2a:	4629      	mov	r1, r5
  103c2c:	4622      	mov	r2, r4
  103c2e:	f8df c020 	ldr.w	r12, [pc, #32]	; 103c50 <osMessageQueueNew+0x54>
  103c32:	f3ef 8314 	mrs	r3, CONTROL
  103c36:	f013 0f02 	tst.w	r3, #2
  103c3a:	d106      	bne.n	103c4a <osMessageQueueNew+0x4e>
  103c3c:	f3ef 8308 	mrs	r3, MSP
  103c40:	3b20      	subs	r3, #32
  103c42:	f023 0307 	bic.w	r3, r3, #7
  103c46:	f383 8809 	msr	PSP, r3
  103c4a:	df00      	svc	0
  103c4c:	bd70      	pop	{r4, r5, r6, pc}
  103c4e:	bf00      	nop
  103c50:	00103759 	.word	0x00103759

00103c54 <osMessageQueuePut>:
  103c54:	e92d 41f0 	stmdb	sp!, {r4, r5, r6, r7, r8, lr}
  103c58:	4604      	mov	r4, r0
  103c5a:	460f      	mov	r7, r1
  103c5c:	4690      	mov	r8, r2
  103c5e:	461d      	mov	r5, r3
  103c60:	f7ff fa78 	bl	103154 <EvrRtxMessageQueuePut>
  103c64:	f3ef 8305 	mrs	r3, IPSR
  103c68:	b933      	cbnz	r3, 103c78 <osMessageQueuePut+0x24>
  103c6a:	f3ef 8310 	mrs	r3, PRIMASK
  103c6e:	b91b      	cbnz	r3, 103c78 <osMessageQueuePut+0x24>
  103c70:	f3ef 8311 	mrs	r3, BASEPRI
  103c74:	2b00      	cmp	r3, #0
  103c76:	d03c      	beq.n	103cf2 <osMessageQueuePut+0x9e>
  103c78:	b124      	cbz	r4, 103c84 <osMessageQueuePut+0x30>
  103c7a:	7823      	ldrb	r3, [r4, #0]
  103c7c:	2b08      	cmp	r3, #8
  103c7e:	d101      	bne.n	103c84 <osMessageQueuePut+0x30>
  103c80:	b107      	cbz	r7, 103c84 <osMessageQueuePut+0x30>
  103c82:	b145      	cbz	r5, 103c96 <osMessageQueuePut+0x42>
  103c84:	4620      	mov	r0, r4
  103c86:	f06f 0103 	mvn.w	r1, #3
  103c8a:	f7ff fa60 	bl	10314e <EvrRtxMessageQueueError>
  103c8e:	f06f 0003 	mvn.w	r0, #3
  103c92:	e8bd 81f0 	ldmia.w	sp!, {r4, r5, r6, r7, r8, pc}
  103c96:	7863      	ldrb	r3, [r4, #1]
  103c98:	b92b      	cbnz	r3, 103ca6 <osMessageQueuePut+0x52>
  103c9a:	f06f 0102 	mvn.w	r1, #2
  103c9e:	4620      	mov	r0, r4
  103ca0:	f7ff fa55 	bl	10314e <EvrRtxMessageQueueError>
  103ca4:	e021      	b.n	103cea <osMessageQueuePut+0x96>
  103ca6:	f104 000c 	add.w	r0, r4, #12
  103caa:	f7ff fcc0 	bl	10362e <osRtxMemoryPoolAlloc>
  103cae:	4606      	mov	r6, r0
  103cb0:	b1b8      	cbz	r0, 103ce2 <osMessageQueuePut+0x8e>
  103cb2:	6a62      	ldr	r2, [r4, #36]	; 0x24
  103cb4:	4639      	mov	r1, r7
  103cb6:	300c      	adds	r0, #12
  103cb8:	f004 ff0c 	bl	108ad4 <memcpy>
  103cbc:	2307      	movs	r3, #7
  103cbe:	7033      	strb	r3, [r6, #0]
  103cc0:	2301      	movs	r3, #1
  103cc2:	7073      	strb	r3, [r6, #1]
  103cc4:	4630      	mov	r0, r6
  103cc6:	70b5      	strb	r5, [r6, #2]
  103cc8:	f886 8003 	strb.w	r8, [r6, #3]
  103ccc:	6077      	str	r7, [r6, #4]
  103cce:	60b4      	str	r4, [r6, #8]
  103cd0:	f000 fae0 	bl	104294 <osRtxPostProcess>
  103cd4:	4620      	mov	r0, r4
  103cd6:	4639      	mov	r1, r7
  103cd8:	f7ff fa3f 	bl	10315a <EvrRtxMessageQueueInsertPending>
  103cdc:	4628      	mov	r0, r5
  103cde:	e8bd 81f0 	ldmia.w	sp!, {r4, r5, r6, r7, r8, pc}
  103ce2:	4639      	mov	r1, r7
  103ce4:	4620      	mov	r0, r4
  103ce6:	f7ff fa3a 	bl	10315e <EvrRtxMessageQueueNotInserted>
  103cea:	f06f 0002 	mvn.w	r0, #2
  103cee:	e8bd 81f0 	ldmia.w	sp!, {r4, r5, r6, r7, r8, pc}
  103cf2:	4620      	mov	r0, r4
  103cf4:	4639      	mov	r1, r7
  103cf6:	4642      	mov	r2, r8
  103cf8:	462b      	mov	r3, r5
  103cfa:	f8df c008 	ldr.w	r12, [pc, #8]	; 103d04 <osMessageQueuePut+0xb0>
  103cfe:	df00      	svc	0
  103d00:	e8bd 81f0 	ldmia.w	sp!, {r4, r5, r6, r7, r8, pc}
  103d04:	0010389d 	.word	0x0010389d

00103d08 <osMessageQueueGet>:
  103d08:	b5f8      	push	{r3, r4, r5, r6, r7, lr}
  103d0a:	4604      	mov	r4, r0
  103d0c:	460d      	mov	r5, r1
  103d0e:	4617      	mov	r7, r2
  103d10:	461e      	mov	r6, r3
  103d12:	f7ff fa25 	bl	103160 <EvrRtxMessageQueueGet>
  103d16:	f3ef 8305 	mrs	r3, IPSR
  103d1a:	b92b      	cbnz	r3, 103d28 <osMessageQueueGet+0x20>
  103d1c:	f3ef 8310 	mrs	r3, PRIMASK
  103d20:	b913      	cbnz	r3, 103d28 <osMessageQueueGet+0x20>
  103d22:	f3ef 8311 	mrs	r3, BASEPRI
  103d26:	b3a3      	cbz	r3, 103d92 <osMessageQueueGet+0x8a>
  103d28:	b124      	cbz	r4, 103d34 <osMessageQueueGet+0x2c>
  103d2a:	7823      	ldrb	r3, [r4, #0]
  103d2c:	2b08      	cmp	r3, #8
  103d2e:	d101      	bne.n	103d34 <osMessageQueueGet+0x2c>
  103d30:	b105      	cbz	r5, 103d34 <osMessageQueueGet+0x2c>
  103d32:	b13e      	cbz	r6, 103d44 <osMessageQueueGet+0x3c>
  103d34:	4620      	mov	r0, r4
  103d36:	f06f 0103 	mvn.w	r1, #3
  103d3a:	f7ff fa08 	bl	10314e <EvrRtxMessageQueueError>
  103d3e:	f06f 0003 	mvn.w	r0, #3
  103d42:	bdf8      	pop	{r3, r4, r5, r6, r7, pc}
  103d44:	7863      	ldrb	r3, [r4, #1]
  103d46:	b92b      	cbnz	r3, 103d54 <osMessageQueueGet+0x4c>
  103d48:	f06f 0102 	mvn.w	r1, #2
  103d4c:	4620      	mov	r0, r4
  103d4e:	f7ff f9fe 	bl	10314e <EvrRtxMessageQueueError>
  103d52:	e01b      	b.n	103d8c <osMessageQueueGet+0x84>
  103d54:	4620      	mov	r0, r4
  103d56:	f7ff fea0 	bl	103a9a <MessageQueueGet>
  103d5a:	4606      	mov	r6, r0
  103d5c:	b190      	cbz	r0, 103d84 <osMessageQueueGet+0x7c>
  103d5e:	f100 010c 	add.w	r1, r0, #12
  103d62:	6a62      	ldr	r2, [r4, #36]	; 0x24
  103d64:	4628      	mov	r0, r5
  103d66:	f004 feb5 	bl	108ad4 <memcpy>
  103d6a:	b10f      	cbz	r7, 103d70 <osMessageQueueGet+0x68>
  103d6c:	78f3      	ldrb	r3, [r6, #3]
  103d6e:	703b      	strb	r3, [r7, #0]
  103d70:	4629      	mov	r1, r5
  103d72:	4620      	mov	r0, r4
  103d74:	f7ff f9f7 	bl	103166 <EvrRtxMessageQueueRetrieved>
  103d78:	4630      	mov	r0, r6
  103d7a:	60f4      	str	r4, [r6, #12]
  103d7c:	f000 fa8a 	bl	104294 <osRtxPostProcess>
  103d80:	2000      	movs	r0, #0
  103d82:	bdf8      	pop	{r3, r4, r5, r6, r7, pc}
  103d84:	4629      	mov	r1, r5
  103d86:	4620      	mov	r0, r4
  103d88:	f7ff f9ee 	bl	103168 <EvrRtxMessageQueueNotRetrieved>
  103d8c:	f06f 0002 	mvn.w	r0, #2
  103d90:	bdf8      	pop	{r3, r4, r5, r6, r7, pc}
  103d92:	4620      	mov	r0, r4
  103d94:	4629      	mov	r1, r5
  103d96:	463a      	mov	r2, r7
  103d98:	4633      	mov	r3, r6
  103d9a:	f8df c008 	ldr.w	r12, [pc, #8]	; 103da4 <osMessageQueueGet+0x9c>
  103d9e:	df00      	svc	0
  103da0:	bdf8      	pop	{r3, r4, r5, r6, r7, pc}
  103da2:	bf00      	nop
  103da4:	00103ae1 	.word	0x00103ae1

00103da8 <svcRtxMutexNew>:
  103da8:	b570      	push	{r4, r5, r6, lr}
  103daa:	b330      	cbz	r0, 103dfa <svcRtxMutexNew+0x52>
  103dac:	e890 0060 	ldmia.w	r0, {r5, r6}
  103db0:	6884      	ldr	r4, [r0, #8]
  103db2:	b164      	cbz	r4, 103dce <svcRtxMutexNew+0x26>
  103db4:	f014 0303 	ands.w	r3, r4, #3
  103db8:	d102      	bne.n	103dc0 <svcRtxMutexNew+0x18>
  103dba:	68c2      	ldr	r2, [r0, #12]
  103dbc:	2a1b      	cmp	r2, #27
  103dbe:	d80a      	bhi.n	103dd6 <svcRtxMutexNew+0x2e>
  103dc0:	f06f 0108 	mvn.w	r1, #8
  103dc4:	2000      	movs	r0, #0
  103dc6:	f7ff f9b4 	bl	103132 <EvrRtxMutexError>
  103dca:	2000      	movs	r0, #0
  103dcc:	bd70      	pop	{r4, r5, r6, pc}
  103dce:	68c3      	ldr	r3, [r0, #12]
  103dd0:	b1ab      	cbz	r3, 103dfe <svcRtxMutexNew+0x56>
  103dd2:	e7f5      	b.n	103dc0 <svcRtxMutexNew+0x18>
  103dd4:	2301      	movs	r3, #1
  103dd6:	2204      	movs	r2, #4
  103dd8:	7022      	strb	r2, [r4, #0]
  103dda:	70a3      	strb	r3, [r4, #2]
  103ddc:	2201      	movs	r2, #1
  103dde:	2300      	movs	r3, #0
  103de0:	7062      	strb	r2, [r4, #1]
  103de2:	70e6      	strb	r6, [r4, #3]
  103de4:	6065      	str	r5, [r4, #4]
  103de6:	60a3      	str	r3, [r4, #8]
  103de8:	60e3      	str	r3, [r4, #12]
  103dea:	6123      	str	r3, [r4, #16]
  103dec:	6163      	str	r3, [r4, #20]
  103dee:	7623      	strb	r3, [r4, #24]
  103df0:	4620      	mov	r0, r4
  103df2:	f7ff f9a0 	bl	103136 <EvrRtxMutexCreated>
  103df6:	4620      	mov	r0, r4
  103df8:	bd70      	pop	{r4, r5, r6, pc}
  103dfa:	4605      	mov	r5, r0
  103dfc:	4606      	mov	r6, r0
  103dfe:	4b0a      	ldr	r3, [pc, #40]	; (103e28 <svcRtxMutexNew+0x80>)
  103e00:	f8d3 009c 	ldr.w	r0, [r3, #156]	; 0x9c
  103e04:	b110      	cbz	r0, 103e0c <svcRtxMutexNew+0x64>
  103e06:	f7ff fc12 	bl	10362e <osRtxMemoryPoolAlloc>
  103e0a:	e005      	b.n	103e18 <svcRtxMutexNew+0x70>
  103e0c:	2201      	movs	r2, #1
  103e0e:	211c      	movs	r1, #28
  103e10:	f8d3 0088 	ldr.w	r0, [r3, #136]	; 0x88
  103e14:	f7ff fb7e 	bl	103514 <osRtxMemoryAlloc>
  103e18:	4604      	mov	r4, r0
  103e1a:	2800      	cmp	r0, #0
  103e1c:	d1da      	bne.n	103dd4 <svcRtxMutexNew+0x2c>
  103e1e:	f06f 0104 	mvn.w	r1, #4
  103e22:	f7ff f986 	bl	103132 <EvrRtxMutexError>
  103e26:	e7e6      	b.n	103df6 <svcRtxMutexNew+0x4e>
  103e28:	3fff40a8 	.word	0x3fff40a8

00103e2c <svcRtxMutexAcquire>:
  103e2c:	b5f8      	push	{r3, r4, r5, r6, r7, lr}
  103e2e:	4b31      	ldr	r3, [pc, #196]	; (103ef4 <svcRtxMutexAcquire+0xc8>)
  103e30:	4605      	mov	r5, r0
  103e32:	69de      	ldr	r6, [r3, #28]
  103e34:	460f      	mov	r7, r1
  103e36:	b936      	cbnz	r6, 103e46 <svcRtxMutexAcquire+0x1a>
  103e38:	f06f 0107 	mvn.w	r1, #7
  103e3c:	f7ff f979 	bl	103132 <EvrRtxMutexError>
  103e40:	f04f 30ff 	mov.w	r0, #4294967295
  103e44:	bdf8      	pop	{r3, r4, r5, r6, r7, pc}
  103e46:	b110      	cbz	r0, 103e4e <svcRtxMutexAcquire+0x22>
  103e48:	7803      	ldrb	r3, [r0, #0]
  103e4a:	2b04      	cmp	r3, #4
  103e4c:	d007      	beq.n	103e5e <svcRtxMutexAcquire+0x32>
  103e4e:	4628      	mov	r0, r5
  103e50:	f06f 0103 	mvn.w	r1, #3
  103e54:	f7ff f96d 	bl	103132 <EvrRtxMutexError>
  103e58:	f06f 0003 	mvn.w	r0, #3
  103e5c:	bdf8      	pop	{r3, r4, r5, r6, r7, pc}
  103e5e:	7843      	ldrb	r3, [r0, #1]
  103e60:	b913      	cbnz	r3, 103e68 <svcRtxMutexAcquire+0x3c>
  103e62:	f06f 0102 	mvn.w	r1, #2
  103e66:	e016      	b.n	103e96 <svcRtxMutexAcquire+0x6a>
  103e68:	7e04      	ldrb	r4, [r0, #24]
  103e6a:	b954      	cbnz	r4, 103e82 <svcRtxMutexAcquire+0x56>
  103e6c:	6af3      	ldr	r3, [r6, #44]	; 0x2c
  103e6e:	2101      	movs	r1, #1
  103e70:	60c6      	str	r6, [r0, #12]
  103e72:	6143      	str	r3, [r0, #20]
  103e74:	6104      	str	r4, [r0, #16]
  103e76:	62f0      	str	r0, [r6, #44]	; 0x2c
  103e78:	7601      	strb	r1, [r0, #24]
  103e7a:	f7ff f960 	bl	10313e <EvrRtxMutexAcquired>
  103e7e:	4620      	mov	r0, r4
  103e80:	bdf8      	pop	{r3, r4, r5, r6, r7, pc}
  103e82:	78c3      	ldrb	r3, [r0, #3]
  103e84:	07da      	lsls	r2, r3, #31
  103e86:	d510      	bpl.n	103eaa <svcRtxMutexAcquire+0x7e>
  103e88:	68c2      	ldr	r2, [r0, #12]
  103e8a:	4296      	cmp	r6, r2
  103e8c:	d10d      	bne.n	103eaa <svcRtxMutexAcquire+0x7e>
  103e8e:	2cff      	cmp	r4, #255	; 0xff
  103e90:	d104      	bne.n	103e9c <svcRtxMutexAcquire+0x70>
  103e92:	f06f 010f 	mvn.w	r1, #15
  103e96:	f7ff f94c 	bl	103132 <EvrRtxMutexError>
  103e9a:	e028      	b.n	103eee <svcRtxMutexAcquire+0xc2>
  103e9c:	1c61      	adds	r1, r4, #1
  103e9e:	b2c9      	uxtb	r1, r1
  103ea0:	7601      	strb	r1, [r0, #24]
  103ea2:	f7ff f94c 	bl	10313e <EvrRtxMutexAcquired>
  103ea6:	2000      	movs	r0, #0
  103ea8:	bdf8      	pop	{r3, r4, r5, r6, r7, pc}
  103eaa:	b1ef      	cbz	r7, 103ee8 <svcRtxMutexAcquire+0xbc>
  103eac:	079b      	lsls	r3, r3, #30
  103eae:	d50c      	bpl.n	103eca <svcRtxMutexAcquire+0x9e>
  103eb0:	68eb      	ldr	r3, [r5, #12]
  103eb2:	f896 2020 	ldrb.w	r2, [r6, #32]
  103eb6:	f993 0020 	ldrsb.w	r0, [r3, #32]
  103eba:	b251      	sxtb	r1, r2
  103ebc:	4288      	cmp	r0, r1
  103ebe:	da04      	bge.n	103eca <svcRtxMutexAcquire+0x9e>
  103ec0:	f883 2020 	strb.w	r2, [r3, #32]
  103ec4:	68e8      	ldr	r0, [r5, #12]
  103ec6:	f000 fb49 	bl	10455c <osRtxThreadListSort>
  103eca:	4639      	mov	r1, r7
  103ecc:	4628      	mov	r0, r5
  103ece:	f7ff f934 	bl	10313a <EvrRtxMutexAcquirePending>
  103ed2:	4631      	mov	r1, r6
  103ed4:	4628      	mov	r0, r5
  103ed6:	f000 fb13 	bl	104500 <osRtxThreadListPut>
  103eda:	4639      	mov	r1, r7
  103edc:	2053      	movs	r0, #83	; 0x53
  103ede:	f000 fdaf 	bl	104a40 <osRtxThreadWaitEnter>
  103ee2:	f06f 0001 	mvn.w	r0, #1
  103ee6:	bdf8      	pop	{r3, r4, r5, r6, r7, pc}
  103ee8:	4628      	mov	r0, r5
  103eea:	f7ff f929 	bl	103140 <EvrRtxMutexNotAcquired>
  103eee:	f06f 0002 	mvn.w	r0, #2
  103ef2:	bdf8      	pop	{r3, r4, r5, r6, r7, pc}
  103ef4:	3fff40a8 	.word	0x3fff40a8

00103ef8 <svcRtxMutexRelease>:
  103ef8:	b538      	push	{r3, r4, r5, lr}
  103efa:	4b35      	ldr	r3, [pc, #212]	; (103fd0 <svcRtxMutexRelease+0xd8>)
  103efc:	4604      	mov	r4, r0
  103efe:	69dd      	ldr	r5, [r3, #28]
  103f00:	b935      	cbnz	r5, 103f10 <svcRtxMutexRelease+0x18>
  103f02:	f06f 0107 	mvn.w	r1, #7
  103f06:	f7ff f914 	bl	103132 <EvrRtxMutexError>
  103f0a:	f04f 30ff 	mov.w	r0, #4294967295
  103f0e:	bd38      	pop	{r3, r4, r5, pc}
  103f10:	b110      	cbz	r0, 103f18 <svcRtxMutexRelease+0x20>
  103f12:	7803      	ldrb	r3, [r0, #0]
  103f14:	2b04      	cmp	r3, #4
  103f16:	d007      	beq.n	103f28 <svcRtxMutexRelease+0x30>
  103f18:	4620      	mov	r0, r4
  103f1a:	f06f 0103 	mvn.w	r1, #3
  103f1e:	f7ff f908 	bl	103132 <EvrRtxMutexError>
  103f22:	f06f 0003 	mvn.w	r0, #3
  103f26:	bd38      	pop	{r3, r4, r5, pc}
  103f28:	7843      	ldrb	r3, [r0, #1]
  103f2a:	b913      	cbnz	r3, 103f32 <svcRtxMutexRelease+0x3a>
  103f2c:	f06f 0102 	mvn.w	r1, #2
  103f30:	e009      	b.n	103f46 <svcRtxMutexRelease+0x4e>
  103f32:	68c3      	ldr	r3, [r0, #12]
  103f34:	429d      	cmp	r5, r3
  103f36:	d002      	beq.n	103f3e <svcRtxMutexRelease+0x46>
  103f38:	f06f 010d 	mvn.w	r1, #13
  103f3c:	e003      	b.n	103f46 <svcRtxMutexRelease+0x4e>
  103f3e:	7e01      	ldrb	r1, [r0, #24]
  103f40:	b931      	cbnz	r1, 103f50 <svcRtxMutexRelease+0x58>
  103f42:	f06f 010e 	mvn.w	r1, #14
  103f46:	f7ff f8f4 	bl	103132 <EvrRtxMutexError>
  103f4a:	f06f 0002 	mvn.w	r0, #2
  103f4e:	bd38      	pop	{r3, r4, r5, pc}
  103f50:	3901      	subs	r1, #1
  103f52:	b2c9      	uxtb	r1, r1
  103f54:	7601      	strb	r1, [r0, #24]
  103f56:	f7ff f8f5 	bl	103144 <EvrRtxMutexReleased>
  103f5a:	7e23      	ldrb	r3, [r4, #24]
  103f5c:	2b00      	cmp	r3, #0
  103f5e:	d134      	bne.n	103fca <svcRtxMutexRelease+0xd2>
  103f60:	6963      	ldr	r3, [r4, #20]
  103f62:	b10b      	cbz	r3, 103f68 <svcRtxMutexRelease+0x70>
  103f64:	6922      	ldr	r2, [r4, #16]
  103f66:	611a      	str	r2, [r3, #16]
  103f68:	6922      	ldr	r2, [r4, #16]
  103f6a:	b10a      	cbz	r2, 103f70 <svcRtxMutexRelease+0x78>
  103f6c:	6153      	str	r3, [r2, #20]
  103f6e:	e000      	b.n	103f72 <svcRtxMutexRelease+0x7a>
  103f70:	62eb      	str	r3, [r5, #44]	; 0x2c
  103f72:	78e3      	ldrb	r3, [r4, #3]
  103f74:	079b      	lsls	r3, r3, #30
  103f76:	d510      	bpl.n	103f9a <svcRtxMutexRelease+0xa2>
  103f78:	f895 3021 	ldrb.w	r3, [r5, #33]	; 0x21
  103f7c:	6aea      	ldr	r2, [r5, #44]	; 0x2c
  103f7e:	b152      	cbz	r2, 103f96 <svcRtxMutexRelease+0x9e>
  103f80:	6891      	ldr	r1, [r2, #8]
  103f82:	b131      	cbz	r1, 103f92 <svcRtxMutexRelease+0x9a>
  103f84:	f991 1020 	ldrsb.w	r1, [r1, #32]
  103f88:	b25b      	sxtb	r3, r3
  103f8a:	428b      	cmp	r3, r1
  103f8c:	bfb8      	it	lt
  103f8e:	460b      	movlt	r3, r1
  103f90:	b2db      	uxtb	r3, r3
  103f92:	6952      	ldr	r2, [r2, #20]
  103f94:	e7f3      	b.n	103f7e <svcRtxMutexRelease+0x86>
  103f96:	f885 3020 	strb.w	r3, [r5, #32]
  103f9a:	68a3      	ldr	r3, [r4, #8]
  103f9c:	b193      	cbz	r3, 103fc4 <svcRtxMutexRelease+0xcc>
  103f9e:	4620      	mov	r0, r4
  103fa0:	f000 fac1 	bl	104526 <osRtxThreadListGet>
  103fa4:	4605      	mov	r5, r0
  103fa6:	2200      	movs	r2, #0
  103fa8:	4611      	mov	r1, r2
  103faa:	f000 fc17 	bl	1047dc <osRtxThreadWaitExit>
  103fae:	6aeb      	ldr	r3, [r5, #44]	; 0x2c
  103fb0:	2101      	movs	r1, #1
  103fb2:	6163      	str	r3, [r4, #20]
  103fb4:	2300      	movs	r3, #0
  103fb6:	60e5      	str	r5, [r4, #12]
  103fb8:	6123      	str	r3, [r4, #16]
  103fba:	4620      	mov	r0, r4
  103fbc:	62ec      	str	r4, [r5, #44]	; 0x2c
  103fbe:	7621      	strb	r1, [r4, #24]
  103fc0:	f7ff f8bd 	bl	10313e <EvrRtxMutexAcquired>
  103fc4:	2000      	movs	r0, #0
  103fc6:	f000 fbdb 	bl	104780 <osRtxThreadDispatch>
  103fca:	2000      	movs	r0, #0
  103fcc:	bd38      	pop	{r3, r4, r5, pc}
  103fce:	bf00      	nop
  103fd0:	3fff40a8 	.word	0x3fff40a8

00103fd4 <svcRtxMutexDelete>:
  103fd4:	b510      	push	{r4, lr}
  103fd6:	4604      	mov	r4, r0
  103fd8:	b110      	cbz	r0, 103fe0 <svcRtxMutexDelete+0xc>
  103fda:	7803      	ldrb	r3, [r0, #0]
  103fdc:	2b04      	cmp	r3, #4
  103fde:	d007      	beq.n	103ff0 <svcRtxMutexDelete+0x1c>
  103fe0:	4620      	mov	r0, r4
  103fe2:	f06f 0103 	mvn.w	r1, #3
  103fe6:	f7ff f8a4 	bl	103132 <EvrRtxMutexError>
  103fea:	f06f 0003 	mvn.w	r0, #3
  103fee:	bd10      	pop	{r4, pc}
  103ff0:	7843      	ldrb	r3, [r0, #1]
  103ff2:	b933      	cbnz	r3, 104002 <svcRtxMutexDelete+0x2e>
  103ff4:	f06f 0102 	mvn.w	r1, #2
  103ff8:	f7ff f89b 	bl	103132 <EvrRtxMutexError>
  103ffc:	f06f 0002 	mvn.w	r0, #2
  104000:	bd10      	pop	{r4, pc}
  104002:	2300      	movs	r3, #0
  104004:	7043      	strb	r3, [r0, #1]
  104006:	7e03      	ldrb	r3, [r0, #24]
  104008:	2b00      	cmp	r3, #0
  10400a:	d032      	beq.n	104072 <svcRtxMutexDelete+0x9e>
  10400c:	6963      	ldr	r3, [r4, #20]
  10400e:	68c0      	ldr	r0, [r0, #12]
  104010:	b10b      	cbz	r3, 104016 <svcRtxMutexDelete+0x42>
  104012:	6922      	ldr	r2, [r4, #16]
  104014:	611a      	str	r2, [r3, #16]
  104016:	6922      	ldr	r2, [r4, #16]
  104018:	b10a      	cbz	r2, 10401e <svcRtxMutexDelete+0x4a>
  10401a:	6153      	str	r3, [r2, #20]
  10401c:	e000      	b.n	104020 <svcRtxMutexDelete+0x4c>
  10401e:	62c3      	str	r3, [r0, #44]	; 0x2c
  104020:	78e3      	ldrb	r3, [r4, #3]
  104022:	079a      	lsls	r2, r3, #30
  104024:	d516      	bpl.n	104054 <svcRtxMutexDelete+0x80>
  104026:	f890 3021 	ldrb.w	r3, [r0, #33]	; 0x21
  10402a:	6ac2      	ldr	r2, [r0, #44]	; 0x2c
  10402c:	b152      	cbz	r2, 104044 <svcRtxMutexDelete+0x70>
  10402e:	6891      	ldr	r1, [r2, #8]
  104030:	b131      	cbz	r1, 104040 <svcRtxMutexDelete+0x6c>
  104032:	f991 1020 	ldrsb.w	r1, [r1, #32]
  104036:	b25b      	sxtb	r3, r3
  104038:	428b      	cmp	r3, r1
  10403a:	bfb8      	it	lt
  10403c:	460b      	movlt	r3, r1
  10403e:	b2db      	uxtb	r3, r3
  104040:	6952      	ldr	r2, [r2, #20]
  104042:	e7f3      	b.n	10402c <svcRtxMutexDelete+0x58>
  104044:	f890 2020 	ldrb.w	r2, [r0, #32]
  104048:	4293      	cmp	r3, r2
  10404a:	d003      	beq.n	104054 <svcRtxMutexDelete+0x80>
  10404c:	f880 3020 	strb.w	r3, [r0, #32]
  104050:	f000 fa84 	bl	10455c <osRtxThreadListSort>
  104054:	68a3      	ldr	r3, [r4, #8]
  104056:	b91b      	cbnz	r3, 104060 <svcRtxMutexDelete+0x8c>
  104058:	2000      	movs	r0, #0
  10405a:	f000 fb91 	bl	104780 <osRtxThreadDispatch>
  10405e:	e008      	b.n	104072 <svcRtxMutexDelete+0x9e>
  104060:	4620      	mov	r0, r4
  104062:	f000 fa60 	bl	104526 <osRtxThreadListGet>
  104066:	2200      	movs	r2, #0
  104068:	f06f 0102 	mvn.w	r1, #2
  10406c:	f000 fbb6 	bl	1047dc <osRtxThreadWaitExit>
  104070:	e7f0      	b.n	104054 <svcRtxMutexDelete+0x80>
  104072:	78a3      	ldrb	r3, [r4, #2]
  104074:	07db      	lsls	r3, r3, #31
  104076:	d50b      	bpl.n	104090 <svcRtxMutexDelete+0xbc>
  104078:	4b08      	ldr	r3, [pc, #32]	; (10409c <svcRtxMutexDelete+0xc8>)
  10407a:	4621      	mov	r1, r4
  10407c:	f8d3 009c 	ldr.w	r0, [r3, #156]	; 0x9c
  104080:	b110      	cbz	r0, 104088 <svcRtxMutexDelete+0xb4>
  104082:	f7ff fb03 	bl	10368c <osRtxMemoryPoolFree>
  104086:	e003      	b.n	104090 <svcRtxMutexDelete+0xbc>
  104088:	f8d3 0088 	ldr.w	r0, [r3, #136]	; 0x88
  10408c:	f7ff fa78 	bl	103580 <osRtxMemoryFree>
  104090:	4620      	mov	r0, r4
  104092:	f7ff f859 	bl	103148 <EvrRtxMutexDestroyed>
  104096:	2000      	movs	r0, #0
  104098:	bd10      	pop	{r4, pc}
  10409a:	bf00      	nop
  10409c:	3fff40a8 	.word	0x3fff40a8

001040a0 <osRtxMutexOwnerRelease>:
  1040a0:	e92d 41f0 	stmdb	sp!, {r4, r5, r6, r7, r8, lr}
  1040a4:	4604      	mov	r4, r0
  1040a6:	2600      	movs	r6, #0
  1040a8:	2701      	movs	r7, #1
  1040aa:	b1fc      	cbz	r4, 1040ec <osRtxMutexOwnerRelease+0x4c>
  1040ac:	78e3      	ldrb	r3, [r4, #3]
  1040ae:	f8d4 8014 	ldr.w	r8, [r4, #20]
  1040b2:	071b      	lsls	r3, r3, #28
  1040b4:	d518      	bpl.n	1040e8 <osRtxMutexOwnerRelease+0x48>
  1040b6:	7626      	strb	r6, [r4, #24]
  1040b8:	2100      	movs	r1, #0
  1040ba:	4620      	mov	r0, r4
  1040bc:	f7ff f842 	bl	103144 <EvrRtxMutexReleased>
  1040c0:	68a3      	ldr	r3, [r4, #8]
  1040c2:	b18b      	cbz	r3, 1040e8 <osRtxMutexOwnerRelease+0x48>
  1040c4:	4620      	mov	r0, r4
  1040c6:	f000 fa2e 	bl	104526 <osRtxThreadListGet>
  1040ca:	4605      	mov	r5, r0
  1040cc:	2200      	movs	r2, #0
  1040ce:	4611      	mov	r1, r2
  1040d0:	f000 fb84 	bl	1047dc <osRtxThreadWaitExit>
  1040d4:	6aeb      	ldr	r3, [r5, #44]	; 0x2c
  1040d6:	60e5      	str	r5, [r4, #12]
  1040d8:	6163      	str	r3, [r4, #20]
  1040da:	6126      	str	r6, [r4, #16]
  1040dc:	2101      	movs	r1, #1
  1040de:	62ec      	str	r4, [r5, #44]	; 0x2c
  1040e0:	4620      	mov	r0, r4
  1040e2:	7627      	strb	r7, [r4, #24]
  1040e4:	f7ff f82b 	bl	10313e <EvrRtxMutexAcquired>
  1040e8:	4644      	mov	r4, r8
  1040ea:	e7de      	b.n	1040aa <osRtxMutexOwnerRelease+0xa>
  1040ec:	e8bd 81f0 	ldmia.w	sp!, {r4, r5, r6, r7, r8, pc}

001040f0 <osMutexNew>:
  1040f0:	b510      	push	{r4, lr}
  1040f2:	4604      	mov	r4, r0
  1040f4:	f7ff f81e 	bl	103134 <EvrRtxMutexNew>
  1040f8:	f3ef 8305 	mrs	r3, IPSR
  1040fc:	b92b      	cbnz	r3, 10410a <osMutexNew+0x1a>
  1040fe:	f3ef 8310 	mrs	r3, PRIMASK
  104102:	b913      	cbnz	r3, 10410a <osMutexNew+0x1a>
  104104:	f3ef 8311 	mrs	r3, BASEPRI
  104108:	b133      	cbz	r3, 104118 <osMutexNew+0x28>
  10410a:	f06f 0105 	mvn.w	r1, #5
  10410e:	2000      	movs	r0, #0
  104110:	f7ff f80f 	bl	103132 <EvrRtxMutexError>
  104114:	2000      	movs	r0, #0
  104116:	bd10      	pop	{r4, pc}
  104118:	4620      	mov	r0, r4
  10411a:	f8df c020 	ldr.w	r12, [pc, #32]	; 10413c <osMutexNew+0x4c>
  10411e:	f3ef 8314 	mrs	r3, CONTROL
  104122:	f013 0f02 	tst.w	r3, #2
  104126:	d106      	bne.n	104136 <osMutexNew+0x46>
  104128:	f3ef 8308 	mrs	r3, MSP
  10412c:	3b20      	subs	r3, #32
  10412e:	f023 0307 	bic.w	r3, r3, #7
  104132:	f383 8809 	msr	PSP, r3
  104136:	df00      	svc	0
  104138:	bd10      	pop	{r4, pc}
  10413a:	bf00      	nop
  10413c:	00103da9 	.word	0x00103da9

00104140 <osMutexAcquire>:
  104140:	b538      	push	{r3, r4, r5, lr}
  104142:	4604      	mov	r4, r0
  104144:	460d      	mov	r5, r1
  104146:	f7fe fff7 	bl	103138 <EvrRtxMutexAcquire>
  10414a:	f3ef 8305 	mrs	r3, IPSR
  10414e:	b92b      	cbnz	r3, 10415c <osMutexAcquire+0x1c>
  104150:	f3ef 8310 	mrs	r3, PRIMASK
  104154:	b913      	cbnz	r3, 10415c <osMutexAcquire+0x1c>
  104156:	f3ef 8311 	mrs	r3, BASEPRI
  10415a:	b13b      	cbz	r3, 10416c <osMutexAcquire+0x2c>
  10415c:	4620      	mov	r0, r4
  10415e:	f06f 0105 	mvn.w	r1, #5
  104162:	f7fe ffe6 	bl	103132 <EvrRtxMutexError>
  104166:	f06f 0005 	mvn.w	r0, #5
  10416a:	bd38      	pop	{r3, r4, r5, pc}
  10416c:	4620      	mov	r0, r4
  10416e:	4629      	mov	r1, r5
  104170:	f8df c004 	ldr.w	r12, [pc, #4]	; 104178 <osMutexAcquire+0x38>
  104174:	df00      	svc	0
  104176:	bd38      	pop	{r3, r4, r5, pc}
  104178:	00103e2d 	.word	0x00103e2d

0010417c <osMutexRelease>:
  10417c:	b510      	push	{r4, lr}
  10417e:	4604      	mov	r4, r0
  104180:	f7fe ffdf 	bl	103142 <EvrRtxMutexRelease>
  104184:	f3ef 8305 	mrs	r3, IPSR
  104188:	b92b      	cbnz	r3, 104196 <osMutexRelease+0x1a>
  10418a:	f3ef 8310 	mrs	r3, PRIMASK
  10418e:	b913      	cbnz	r3, 104196 <osMutexRelease+0x1a>
  104190:	f3ef 8311 	mrs	r3, BASEPRI
  104194:	b13b      	cbz	r3, 1041a6 <osMutexRelease+0x2a>
  104196:	4620      	mov	r0, r4
  104198:	f06f 0105 	mvn.w	r1, #5
  10419c:	f7fe ffc9 	bl	103132 <EvrRtxMutexError>
  1041a0:	f06f 0005 	mvn.w	r0, #5
  1041a4:	bd10      	pop	{r4, pc}
  1041a6:	4620      	mov	r0, r4
  1041a8:	f8df c004 	ldr.w	r12, [pc, #4]	; 1041b0 <osMutexRelease+0x34>
  1041ac:	df00      	svc	0
  1041ae:	bd10      	pop	{r4, pc}
  1041b0:	00103ef9 	.word	0x00103ef9

001041b4 <osMutexDelete>:
  1041b4:	b510      	push	{r4, lr}
  1041b6:	4604      	mov	r4, r0
  1041b8:	f7fe ffc5 	bl	103146 <EvrRtxMutexDelete>
  1041bc:	f3ef 8305 	mrs	r3, IPSR
  1041c0:	b92b      	cbnz	r3, 1041ce <osMutexDelete+0x1a>
  1041c2:	f3ef 8310 	mrs	r3, PRIMASK
  1041c6:	b913      	cbnz	r3, 1041ce <osMutexDelete+0x1a>
  1041c8:	f3ef 8311 	mrs	r3, BASEPRI
  1041cc:	b13b      	cbz	r3, 1041de <osMutexDelete+0x2a>
  1041ce:	4620      	mov	r0, r4
  1041d0:	f06f 0105 	mvn.w	r1, #5
  1041d4:	f7fe ffad 	bl	103132 <EvrRtxMutexError>
  1041d8:	f06f 0005 	mvn.w	r0, #5
  1041dc:	bd10      	pop	{r4, pc}
  1041de:	4620      	mov	r0, r4
  1041e0:	f8df c004 	ldr.w	r12, [pc, #4]	; 1041e8 <osMutexDelete+0x34>
  1041e4:	df00      	svc	0
  1041e6:	bd10      	pop	{r4, pc}
  1041e8:	00103fd5 	.word	0x00103fd5

001041ec <atomic_inc16_lim>:
  1041ec:	b510      	push	{r4, lr}
  1041ee:	e8d0 3f5f 	ldrexh	r3, [r0]
  1041f2:	1c5a      	adds	r2, r3, #1
  1041f4:	4291      	cmp	r1, r2
  1041f6:	d800      	bhi.n	1041fa <atomic_inc16_lim+0xe>
  1041f8:	2200      	movs	r2, #0
  1041fa:	e8c0 2f54 	strexh	r4, r2, [r0]
  1041fe:	b104      	cbz	r4, 104202 <atomic_inc16_lim+0x16>
  104200:	e7f5      	b.n	1041ee <atomic_inc16_lim+0x2>
  104202:	b298      	uxth	r0, r3
  104204:	bd10      	pop	{r4, pc}
	...

00104208 <osRtxPendSV_Handler>:
  104208:	b570      	push	{r4, r5, r6, lr}
  10420a:	4d1f      	ldr	r5, [pc, #124]	; (104288 <osRtxPendSV_Handler+0x80>)
  10420c:	462c      	mov	r4, r5
  10420e:	4e1f      	ldr	r6, [pc, #124]	; (10428c <osRtxPendSV_Handler+0x84>)
  104210:	f8b5 105c 	ldrh.w	r1, [r5, #92]	; 0x5c
  104214:	e8d6 3f5f 	ldrexh	r3, [r6]
  104218:	b913      	cbnz	r3, 104220 <osRtxPendSV_Handler+0x18>
  10421a:	f3bf 8f2f 	clrex
  10421e:	e004      	b.n	10422a <osRtxPendSV_Handler+0x22>
  104220:	1e5a      	subs	r2, r3, #1
  104222:	e8c6 2f50 	strexh	r0, r2, [r6]
  104226:	b100      	cbz	r0, 10422a <osRtxPendSV_Handler+0x22>
  104228:	e7f4      	b.n	104214 <osRtxPendSV_Handler+0xc>
  10422a:	b29b      	uxth	r3, r3
  10422c:	b33b      	cbz	r3, 10427e <osRtxPendSV_Handler+0x76>
  10422e:	4818      	ldr	r0, [pc, #96]	; (104290 <osRtxPendSV_Handler+0x88>)
  104230:	f7ff ffdc 	bl	1041ec <atomic_inc16_lim>
  104234:	6e6b      	ldr	r3, [r5, #100]	; 0x64
  104236:	f853 0020 	ldr.w	r0, [r3, r0, lsl #2]
  10423a:	b300      	cbz	r0, 10427e <osRtxPendSV_Handler+0x76>
  10423c:	7803      	ldrb	r3, [r0, #0]
  10423e:	3b01      	subs	r3, #1
  104240:	2b06      	cmp	r3, #6
  104242:	d8e5      	bhi.n	104210 <osRtxPendSV_Handler+0x8>
  104244:	a201      	add	r2, pc, #4	; (adr r2, 10424c <osRtxPendSV_Handler+0x44>)
  104246:	f852 f023 	ldr.w	pc, [r2, r3, lsl #2]
  10424a:	bf00      	nop
  10424c:	00104269 	.word	0x00104269
  104250:	00104211 	.word	0x00104211
  104254:	0010426d 	.word	0x0010426d
  104258:	00104211 	.word	0x00104211
  10425c:	00104271 	.word	0x00104271
  104260:	00104275 	.word	0x00104275
  104264:	00104279 	.word	0x00104279
  104268:	6ea3      	ldr	r3, [r4, #104]	; 0x68
  10426a:	e006      	b.n	10427a <osRtxPendSV_Handler+0x72>
  10426c:	6ee3      	ldr	r3, [r4, #108]	; 0x6c
  10426e:	e004      	b.n	10427a <osRtxPendSV_Handler+0x72>
  104270:	6f23      	ldr	r3, [r4, #112]	; 0x70
  104272:	e002      	b.n	10427a <osRtxPendSV_Handler+0x72>
  104274:	6f63      	ldr	r3, [r4, #116]	; 0x74
  104276:	e000      	b.n	10427a <osRtxPendSV_Handler+0x72>
  104278:	6fa3      	ldr	r3, [r4, #120]	; 0x78
  10427a:	4798      	blx	r3
  10427c:	e7c7      	b.n	10420e <osRtxPendSV_Handler+0x6>
  10427e:	2000      	movs	r0, #0
  104280:	e8bd 4070 	ldmia.w	sp!, {r4, r5, r6, lr}
  104284:	f000 ba7c 	b.w	104780 <osRtxThreadDispatch>
  104288:	3fff40a8 	.word	0x3fff40a8
  10428c:	3fff4106 	.word	0x3fff4106
  104290:	3fff410a 	.word	0x3fff410a

00104294 <osRtxPostProcess>:
  104294:	b570      	push	{r4, r5, r6, lr}
  104296:	4c16      	ldr	r4, [pc, #88]	; (1042f0 <osRtxPostProcess+0x5c>)
  104298:	4605      	mov	r5, r0
  10429a:	f8b4 105c 	ldrh.w	r1, [r4, #92]	; 0x5c
  10429e:	f104 025e 	add.w	r2, r4, #94	; 0x5e
  1042a2:	e8d2 3f5f 	ldrexh	r3, [r2]
  1042a6:	4299      	cmp	r1, r3
  1042a8:	d802      	bhi.n	1042b0 <osRtxPostProcess+0x1c>
  1042aa:	f3bf 8f2f 	clrex
  1042ae:	e004      	b.n	1042ba <osRtxPostProcess+0x26>
  1042b0:	1c58      	adds	r0, r3, #1
  1042b2:	e8c2 0f56 	strexh	r6, r0, [r2]
  1042b6:	b106      	cbz	r6, 1042ba <osRtxPostProcess+0x26>
  1042b8:	e7f3      	b.n	1042a2 <osRtxPostProcess+0xe>
  1042ba:	b29b      	uxth	r3, r3
  1042bc:	428b      	cmp	r3, r1
  1042be:	d210      	bcs.n	1042e2 <osRtxPostProcess+0x4e>
  1042c0:	f104 0060 	add.w	r0, r4, #96	; 0x60
  1042c4:	f7ff ff92 	bl	1041ec <atomic_inc16_lim>
  1042c8:	6e63      	ldr	r3, [r4, #100]	; 0x64
  1042ca:	f843 5020 	str.w	r5, [r3, r0, lsl #2]
  1042ce:	7a63      	ldrb	r3, [r4, #9]
  1042d0:	b923      	cbnz	r3, 1042dc <osRtxPostProcess+0x48>
  1042d2:	4b08      	ldr	r3, [pc, #32]	; (1042f4 <osRtxPostProcess+0x60>)
  1042d4:	f04f 5280 	mov.w	r2, #268435456	; 0x10000000
  1042d8:	605a      	str	r2, [r3, #4]
  1042da:	bd70      	pop	{r4, r5, r6, pc}
  1042dc:	2301      	movs	r3, #1
  1042de:	72e3      	strb	r3, [r4, #11]
  1042e0:	bd70      	pop	{r4, r5, r6, pc}
  1042e2:	4629      	mov	r1, r5
  1042e4:	e8bd 4070 	ldmia.w	sp!, {r4, r5, r6, lr}
  1042e8:	2002      	movs	r0, #2
  1042ea:	f7fe bea1 	b.w	103030 <osRtxErrorNotify>
  1042ee:	bf00      	nop
  1042f0:	3fff40a8 	.word	0x3fff40a8
  1042f4:	e000ed00 	.word	0xe000ed00

001042f8 <osRtxSysTimerSetup>:
  1042f8:	4b08      	ldr	r3, [pc, #32]	; (10431c <osRtxSysTimerSetup+0x24>)
  1042fa:	4a09      	ldr	r2, [pc, #36]	; (104320 <osRtxSysTimerSetup+0x28>)
  1042fc:	68db      	ldr	r3, [r3, #12]
  1042fe:	6852      	ldr	r2, [r2, #4]
  104300:	f04f 30ff 	mov.w	r0, #4294967295
  104304:	fbb3 f3f2 	udiv	r3, r3, r2
  104308:	4a06      	ldr	r2, [pc, #24]	; (104324 <osRtxSysTimerSetup+0x2c>)
  10430a:	3b01      	subs	r3, #1
  10430c:	6053      	str	r3, [r2, #4]
  10430e:	2300      	movs	r3, #0
  104310:	6093      	str	r3, [r2, #8]
  104312:	4b05      	ldr	r3, [pc, #20]	; (104328 <osRtxSysTimerSetup+0x30>)
  104314:	22ff      	movs	r2, #255	; 0xff
  104316:	f883 2023 	strb.w	r2, [r3, #35]	; 0x23
  10431a:	4770      	bx	lr
  10431c:	3fff40a8 	.word	0x3fff40a8
  104320:	0010de58 	.word	0x0010de58
  104324:	e000e010 	.word	0xe000e010
  104328:	e000ed00 	.word	0xe000ed00

0010432c <osRtxSysTimerEnable>:
  10432c:	4b01      	ldr	r3, [pc, #4]	; (104334 <osRtxSysTimerEnable+0x8>)
  10432e:	2207      	movs	r2, #7
  104330:	601a      	str	r2, [r3, #0]
  104332:	4770      	bx	lr
  104334:	e000e010 	.word	0xe000e010

00104338 <osRtxSysTimerAckIRQ>:
  104338:	4b01      	ldr	r3, [pc, #4]	; (104340 <osRtxSysTimerAckIRQ+0x8>)
  10433a:	681b      	ldr	r3, [r3, #0]
  10433c:	4770      	bx	lr
  10433e:	bf00      	nop
  104340:	e000e010 	.word	0xe000e010

00104344 <osRtxTick_Handler>:
  104344:	b538      	push	{r3, r4, r5, lr}
  104346:	f7ff fff7 	bl	104338 <osRtxSysTimerAckIRQ>
  10434a:	4b1d      	ldr	r3, [pc, #116]	; (1043c0 <osRtxTick_Handler+0x7c>)
  10434c:	e9d3 0104 	ldrd	r0, r1, [r3, #16]
  104350:	6d9a      	ldr	r2, [r3, #88]	; 0x58
  104352:	3001      	adds	r0, #1
  104354:	f141 0100 	adc.w	r1, r1, #0
  104358:	e9c3 0104 	strd	r0, r1, [r3, #16]
  10435c:	461d      	mov	r5, r3
  10435e:	b102      	cbz	r2, 104362 <osRtxTick_Handler+0x1e>
  104360:	4790      	blx	r2
  104362:	f000 f961 	bl	104628 <osRtxThreadDelayTick>
  104366:	2000      	movs	r0, #0
  104368:	f000 fa0a 	bl	104780 <osRtxThreadDispatch>
  10436c:	6caa      	ldr	r2, [r5, #72]	; 0x48
  10436e:	4b14      	ldr	r3, [pc, #80]	; (1043c0 <osRtxTick_Handler+0x7c>)
  104370:	b322      	cbz	r2, 1043bc <osRtxTick_Handler+0x78>
  104372:	6c19      	ldr	r1, [r3, #64]	; 0x40
  104374:	6a18      	ldr	r0, [r3, #32]
  104376:	4281      	cmp	r1, r0
  104378:	d002      	beq.n	104380 <osRtxTick_Handler+0x3c>
  10437a:	6418      	str	r0, [r3, #64]	; 0x40
  10437c:	645a      	str	r2, [r3, #68]	; 0x44
  10437e:	bd38      	pop	{r3, r4, r5, pc}
  104380:	6c5a      	ldr	r2, [r3, #68]	; 0x44
  104382:	b10a      	cbz	r2, 104388 <osRtxTick_Handler+0x44>
  104384:	3a01      	subs	r2, #1
  104386:	645a      	str	r2, [r3, #68]	; 0x44
  104388:	6c6b      	ldr	r3, [r5, #68]	; 0x44
  10438a:	4c0d      	ldr	r4, [pc, #52]	; (1043c0 <osRtxTick_Handler+0x7c>)
  10438c:	b9b3      	cbnz	r3, 1043bc <osRtxTick_Handler+0x78>
  10438e:	7a23      	ldrb	r3, [r4, #8]
  104390:	2b02      	cmp	r3, #2
  104392:	d113      	bne.n	1043bc <osRtxTick_Handler+0x78>
  104394:	6ae5      	ldr	r5, [r4, #44]	; 0x2c
  104396:	b18d      	cbz	r5, 1043bc <osRtxTick_Handler+0x78>
  104398:	f995 2020 	ldrsb.w	r2, [r5, #32]
  10439c:	f991 3020 	ldrsb.w	r3, [r1, #32]
  1043a0:	429a      	cmp	r2, r3
  1043a2:	d10b      	bne.n	1043bc <osRtxTick_Handler+0x78>
  1043a4:	4628      	mov	r0, r5
  1043a6:	f000 f8cf 	bl	104548 <osRtxThreadListRemove>
  1043aa:	6c20      	ldr	r0, [r4, #64]	; 0x40
  1043ac:	f000 f8e8 	bl	104580 <osRtxThreadReadyPut>
  1043b0:	4628      	mov	r0, r5
  1043b2:	f000 f9d5 	bl	104760 <osRtxThreadSwitch>
  1043b6:	6ca3      	ldr	r3, [r4, #72]	; 0x48
  1043b8:	6425      	str	r5, [r4, #64]	; 0x40
  1043ba:	6463      	str	r3, [r4, #68]	; 0x44
  1043bc:	bd38      	pop	{r3, r4, r5, pc}
  1043be:	bf00      	nop
  1043c0:	3fff40a8 	.word	0x3fff40a8

001043c4 <svcRtxThreadGetId>:
  1043c4:	b510      	push	{r4, lr}
  1043c6:	4b03      	ldr	r3, [pc, #12]	; (1043d4 <svcRtxThreadGetId+0x10>)
  1043c8:	69dc      	ldr	r4, [r3, #28]
  1043ca:	4620      	mov	r0, r4
  1043cc:	f7fe fea4 	bl	103118 <EvrRtxThreadGetId>
  1043d0:	4620      	mov	r0, r4
  1043d2:	bd10      	pop	{r4, pc}
  1043d4:	3fff40a8 	.word	0x3fff40a8

001043d8 <osThreadExit>:
  1043d8:	b508      	push	{r3, lr}
  1043da:	f7fe fea2 	bl	103122 <EvrRtxThreadExit>
  1043de:	f8df c010 	ldr.w	r12, [pc, #16]	; 1043f0 <osThreadExit+0x18>
  1043e2:	df00      	svc	0
  1043e4:	f04f 31ff 	mov.w	r1, #4294967295
  1043e8:	2000      	movs	r0, #0
  1043ea:	f7fe fe91 	bl	103110 <EvrRtxThreadError>
  1043ee:	e7fe      	b.n	1043ee <osThreadExit+0x16>
  1043f0:	00104a89 	.word	0x00104a89

001043f4 <ThreadFlagsCheck>:
  1043f4:	f012 0f02 	tst.w	r2, #2
  1043f8:	b510      	push	{r4, lr}
  1043fa:	f002 0201 	and.w	r2, r2, #1
  1043fe:	d122      	bne.n	104446 <ThreadFlagsCheck+0x52>
  104400:	f100 0328 	add.w	r3, r0, #40	; 0x28
  104404:	b182      	cbz	r2, 104428 <ThreadFlagsCheck+0x34>
  104406:	e853 0f00 	ldrex	r0, [r3]
  10440a:	ea00 0201 	and.w	r2, r0, r1
  10440e:	428a      	cmp	r2, r1
  104410:	d003      	beq.n	10441a <ThreadFlagsCheck+0x26>
  104412:	f3bf 8f2f 	clrex
  104416:	2000      	movs	r0, #0
  104418:	e005      	b.n	104426 <ThreadFlagsCheck+0x32>
  10441a:	ea20 0201 	bic.w	r2, r0, r1
  10441e:	e843 2400 	strex	r4, r2, [r3]
  104422:	b104      	cbz	r4, 104426 <ThreadFlagsCheck+0x32>
  104424:	e7ef      	b.n	104406 <ThreadFlagsCheck+0x12>
  104426:	bd10      	pop	{r4, pc}
  104428:	e853 0f00 	ldrex	r0, [r3]
  10442c:	4208      	tst	r0, r1
  10442e:	d103      	bne.n	104438 <ThreadFlagsCheck+0x44>
  104430:	f3bf 8f2f 	clrex
  104434:	2000      	movs	r0, #0
  104436:	e005      	b.n	104444 <ThreadFlagsCheck+0x50>
  104438:	ea20 0201 	bic.w	r2, r0, r1
  10443c:	e843 2400 	strex	r4, r2, [r3]
  104440:	b104      	cbz	r4, 104444 <ThreadFlagsCheck+0x50>
  104442:	e7f1      	b.n	104428 <ThreadFlagsCheck+0x34>
  104444:	bd10      	pop	{r4, pc}
  104446:	6a80      	ldr	r0, [r0, #40]	; 0x28
  104448:	ea01 0300 	and.w	r3, r1, r0
  10444c:	b11a      	cbz	r2, 104456 <ThreadFlagsCheck+0x62>
  10444e:	4299      	cmp	r1, r3
  104450:	bf18      	it	ne
  104452:	2000      	movne	r0, #0
  104454:	bd10      	pop	{r4, pc}
  104456:	2b00      	cmp	r3, #0
  104458:	bf08      	it	eq
  10445a:	2000      	moveq	r0, #0
  10445c:	bd10      	pop	{r4, pc}
	...

00104460 <osRtxThreadFree>:
  104460:	b510      	push	{r4, lr}
  104462:	2300      	movs	r3, #0
  104464:	7043      	strb	r3, [r0, #1]
  104466:	7883      	ldrb	r3, [r0, #2]
  104468:	4604      	mov	r4, r0
  10446a:	079a      	lsls	r2, r3, #30
  10446c:	d50c      	bpl.n	104488 <osRtxThreadFree+0x28>
  10446e:	f013 0f10 	tst.w	r3, #16
  104472:	6b01      	ldr	r1, [r0, #48]	; 0x30
  104474:	4b0e      	ldr	r3, [pc, #56]	; (1044b0 <osRtxThreadFree+0x50>)
  104476:	d004      	beq.n	104482 <osRtxThreadFree+0x22>
  104478:	f8d3 008c 	ldr.w	r0, [r3, #140]	; 0x8c
  10447c:	f7ff f906 	bl	10368c <osRtxMemoryPoolFree>
  104480:	e002      	b.n	104488 <osRtxThreadFree+0x28>
  104482:	6fd8      	ldr	r0, [r3, #124]	; 0x7c
  104484:	f7ff f87c 	bl	103580 <osRtxMemoryFree>
  104488:	78a3      	ldrb	r3, [r4, #2]
  10448a:	07db      	lsls	r3, r3, #31
  10448c:	d50e      	bpl.n	1044ac <osRtxThreadFree+0x4c>
  10448e:	4b08      	ldr	r3, [pc, #32]	; (1044b0 <osRtxThreadFree+0x50>)
  104490:	4621      	mov	r1, r4
  104492:	f8d3 0090 	ldr.w	r0, [r3, #144]	; 0x90
  104496:	b118      	cbz	r0, 1044a0 <osRtxThreadFree+0x40>
  104498:	e8bd 4010 	ldmia.w	sp!, {r4, lr}
  10449c:	f7ff b8f6 	b.w	10368c <osRtxMemoryPoolFree>
  1044a0:	f8d3 0088 	ldr.w	r0, [r3, #136]	; 0x88
  1044a4:	e8bd 4010 	ldmia.w	sp!, {r4, lr}
  1044a8:	f7ff b86a 	b.w	103580 <osRtxMemoryFree>
  1044ac:	bd10      	pop	{r4, pc}
  1044ae:	bf00      	nop
  1044b0:	3fff40a8 	.word	0x3fff40a8

001044b4 <svcRtxThreadGetName>:
  1044b4:	b510      	push	{r4, lr}
  1044b6:	4604      	mov	r4, r0
  1044b8:	b110      	cbz	r0, 1044c0 <svcRtxThreadGetName+0xc>
  1044ba:	7803      	ldrb	r3, [r0, #0]
  1044bc:	2b01      	cmp	r3, #1
  1044be:	d005      	beq.n	1044cc <svcRtxThreadGetName+0x18>
  1044c0:	4620      	mov	r0, r4
  1044c2:	2100      	movs	r1, #0
  1044c4:	f7fe fe27 	bl	103116 <EvrRtxThreadGetName>
  1044c8:	2000      	movs	r0, #0
  1044ca:	bd10      	pop	{r4, pc}
  1044cc:	7843      	ldrb	r3, [r0, #1]
  1044ce:	2b00      	cmp	r3, #0
  1044d0:	d0f6      	beq.n	1044c0 <svcRtxThreadGetName+0xc>
  1044d2:	6841      	ldr	r1, [r0, #4]
  1044d4:	f7fe fe1f 	bl	103116 <EvrRtxThreadGetName>
  1044d8:	6860      	ldr	r0, [r4, #4]
  1044da:	bd10      	pop	{r4, pc}

001044dc <osRtxThreadDelayInsert.part.7>:
  1044dc:	4a07      	ldr	r2, [pc, #28]	; (1044fc <osRtxThreadDelayInsert.part.7+0x20>)
  1044de:	b510      	push	{r4, lr}
  1044e0:	6b93      	ldr	r3, [r2, #56]	; 0x38
  1044e2:	2400      	movs	r4, #0
  1044e4:	b113      	cbz	r3, 1044ec <osRtxThreadDelayInsert.part.7+0x10>
  1044e6:	461c      	mov	r4, r3
  1044e8:	691b      	ldr	r3, [r3, #16]
  1044ea:	e7fb      	b.n	1044e4 <osRtxThreadDelayInsert.part.7+0x8>
  1044ec:	61c1      	str	r1, [r0, #28]
  1044ee:	6144      	str	r4, [r0, #20]
  1044f0:	6103      	str	r3, [r0, #16]
  1044f2:	b10c      	cbz	r4, 1044f8 <osRtxThreadDelayInsert.part.7+0x1c>
  1044f4:	6120      	str	r0, [r4, #16]
  1044f6:	bd10      	pop	{r4, pc}
  1044f8:	6390      	str	r0, [r2, #56]	; 0x38
  1044fa:	bd10      	pop	{r4, pc}
  1044fc:	3fff40a8 	.word	0x3fff40a8

00104500 <osRtxThreadListPut>:
  104500:	b510      	push	{r4, lr}
  104502:	b179      	cbz	r1, 104524 <osRtxThreadListPut+0x24>
  104504:	6883      	ldr	r3, [r0, #8]
  104506:	f991 2020 	ldrsb.w	r2, [r1, #32]
  10450a:	b133      	cbz	r3, 10451a <osRtxThreadListPut+0x1a>
  10450c:	f993 4020 	ldrsb.w	r4, [r3, #32]
  104510:	4294      	cmp	r4, r2
  104512:	db02      	blt.n	10451a <osRtxThreadListPut+0x1a>
  104514:	4618      	mov	r0, r3
  104516:	689b      	ldr	r3, [r3, #8]
  104518:	e7f7      	b.n	10450a <osRtxThreadListPut+0xa>
  10451a:	60c8      	str	r0, [r1, #12]
  10451c:	608b      	str	r3, [r1, #8]
  10451e:	6081      	str	r1, [r0, #8]
  104520:	b103      	cbz	r3, 104524 <osRtxThreadListPut+0x24>
  104522:	60d9      	str	r1, [r3, #12]
  104524:	bd10      	pop	{r4, pc}

00104526 <osRtxThreadListGet>:
  104526:	6883      	ldr	r3, [r0, #8]
  104528:	b12b      	cbz	r3, 104536 <osRtxThreadListGet+0x10>
  10452a:	689a      	ldr	r2, [r3, #8]
  10452c:	6082      	str	r2, [r0, #8]
  10452e:	b102      	cbz	r2, 104532 <osRtxThreadListGet+0xc>
  104530:	60d0      	str	r0, [r2, #12]
  104532:	2200      	movs	r2, #0
  104534:	60da      	str	r2, [r3, #12]
  104536:	4618      	mov	r0, r3
  104538:	4770      	bx	lr

0010453a <osRtxThreadListRoot>:
  10453a:	b120      	cbz	r0, 104546 <osRtxThreadListRoot+0xc>
  10453c:	7803      	ldrb	r3, [r0, #0]
  10453e:	2b01      	cmp	r3, #1
  104540:	d101      	bne.n	104546 <osRtxThreadListRoot+0xc>
  104542:	68c0      	ldr	r0, [r0, #12]
  104544:	e7f9      	b.n	10453a <osRtxThreadListRoot>
  104546:	4770      	bx	lr

00104548 <osRtxThreadListRemove>:
  104548:	68c3      	ldr	r3, [r0, #12]
  10454a:	b133      	cbz	r3, 10455a <osRtxThreadListRemove+0x12>
  10454c:	6882      	ldr	r2, [r0, #8]
  10454e:	609a      	str	r2, [r3, #8]
  104550:	6882      	ldr	r2, [r0, #8]
  104552:	b102      	cbz	r2, 104556 <osRtxThreadListRemove+0xe>
  104554:	60d3      	str	r3, [r2, #12]
  104556:	2300      	movs	r3, #0
  104558:	60c3      	str	r3, [r0, #12]
  10455a:	4770      	bx	lr

0010455c <osRtxThreadListSort>:
  10455c:	b510      	push	{r4, lr}
  10455e:	4601      	mov	r1, r0
  104560:	4604      	mov	r4, r0
  104562:	7823      	ldrb	r3, [r4, #0]
  104564:	2b01      	cmp	r3, #1
  104566:	d103      	bne.n	104570 <osRtxThreadListSort+0x14>
  104568:	68e4      	ldr	r4, [r4, #12]
  10456a:	2c00      	cmp	r4, #0
  10456c:	d1f9      	bne.n	104562 <osRtxThreadListSort+0x6>
  10456e:	bd10      	pop	{r4, pc}
  104570:	4608      	mov	r0, r1
  104572:	f7ff ffe9 	bl	104548 <osRtxThreadListRemove>
  104576:	4620      	mov	r0, r4
  104578:	e8bd 4010 	ldmia.w	sp!, {r4, lr}
  10457c:	f7ff bfc0 	b.w	104500 <osRtxThreadListPut>

00104580 <osRtxThreadReadyPut>:
  104580:	2301      	movs	r3, #1
  104582:	4601      	mov	r1, r0
  104584:	7043      	strb	r3, [r0, #1]
  104586:	4801      	ldr	r0, [pc, #4]	; (10458c <osRtxThreadReadyPut+0xc>)
  104588:	f7ff bfba 	b.w	104500 <osRtxThreadListPut>
  10458c:	3fff40cc 	.word	0x3fff40cc

00104590 <osRtxThreadDelayInsert>:
  104590:	1c4b      	adds	r3, r1, #1
  104592:	b430      	push	{r4, r5}
  104594:	4602      	mov	r2, r0
  104596:	460c      	mov	r4, r1
  104598:	d102      	bne.n	1045a0 <osRtxThreadDelayInsert+0x10>
  10459a:	bc30      	pop	{r4, r5}
  10459c:	f7ff bf9e 	b.w	1044dc <osRtxThreadDelayInsert.part.7>
  1045a0:	490c      	ldr	r1, [pc, #48]	; (1045d4 <osRtxThreadDelayInsert+0x44>)
  1045a2:	2000      	movs	r0, #0
  1045a4:	6b4b      	ldr	r3, [r1, #52]	; 0x34
  1045a6:	b133      	cbz	r3, 1045b6 <osRtxThreadDelayInsert+0x26>
  1045a8:	69dd      	ldr	r5, [r3, #28]
  1045aa:	42ac      	cmp	r4, r5
  1045ac:	d303      	bcc.n	1045b6 <osRtxThreadDelayInsert+0x26>
  1045ae:	4618      	mov	r0, r3
  1045b0:	1b64      	subs	r4, r4, r5
  1045b2:	691b      	ldr	r3, [r3, #16]
  1045b4:	e7f7      	b.n	1045a6 <osRtxThreadDelayInsert+0x16>
  1045b6:	61d4      	str	r4, [r2, #28]
  1045b8:	6150      	str	r0, [r2, #20]
  1045ba:	6113      	str	r3, [r2, #16]
  1045bc:	b108      	cbz	r0, 1045c2 <osRtxThreadDelayInsert+0x32>
  1045be:	6102      	str	r2, [r0, #16]
  1045c0:	e000      	b.n	1045c4 <osRtxThreadDelayInsert+0x34>
  1045c2:	634a      	str	r2, [r1, #52]	; 0x34
  1045c4:	b11b      	cbz	r3, 1045ce <osRtxThreadDelayInsert+0x3e>
  1045c6:	69d9      	ldr	r1, [r3, #28]
  1045c8:	615a      	str	r2, [r3, #20]
  1045ca:	1b0c      	subs	r4, r1, r4
  1045cc:	61dc      	str	r4, [r3, #28]
  1045ce:	bc30      	pop	{r4, r5}
  1045d0:	4770      	bx	lr
  1045d2:	bf00      	nop
  1045d4:	3fff40a8 	.word	0x3fff40a8

001045d8 <osRtxThreadDelayRemove>:
  1045d8:	69c1      	ldr	r1, [r0, #28]
  1045da:	b510      	push	{r4, lr}
  1045dc:	1c4b      	adds	r3, r1, #1
  1045de:	6942      	ldr	r2, [r0, #20]
  1045e0:	d10c      	bne.n	1045fc <osRtxThreadDelayRemove+0x24>
  1045e2:	b91a      	cbnz	r2, 1045ec <osRtxThreadDelayRemove+0x14>
  1045e4:	4b0f      	ldr	r3, [pc, #60]	; (104624 <osRtxThreadDelayRemove+0x4c>)
  1045e6:	6b9b      	ldr	r3, [r3, #56]	; 0x38
  1045e8:	4298      	cmp	r0, r3
  1045ea:	d11a      	bne.n	104622 <osRtxThreadDelayRemove+0x4a>
  1045ec:	6903      	ldr	r3, [r0, #16]
  1045ee:	b103      	cbz	r3, 1045f2 <osRtxThreadDelayRemove+0x1a>
  1045f0:	615a      	str	r2, [r3, #20]
  1045f2:	6942      	ldr	r2, [r0, #20]
  1045f4:	b97a      	cbnz	r2, 104616 <osRtxThreadDelayRemove+0x3e>
  1045f6:	4a0b      	ldr	r2, [pc, #44]	; (104624 <osRtxThreadDelayRemove+0x4c>)
  1045f8:	6393      	str	r3, [r2, #56]	; 0x38
  1045fa:	bd10      	pop	{r4, pc}
  1045fc:	b91a      	cbnz	r2, 104606 <osRtxThreadDelayRemove+0x2e>
  1045fe:	4b09      	ldr	r3, [pc, #36]	; (104624 <osRtxThreadDelayRemove+0x4c>)
  104600:	6b5b      	ldr	r3, [r3, #52]	; 0x34
  104602:	4298      	cmp	r0, r3
  104604:	d10d      	bne.n	104622 <osRtxThreadDelayRemove+0x4a>
  104606:	6903      	ldr	r3, [r0, #16]
  104608:	b11b      	cbz	r3, 104612 <osRtxThreadDelayRemove+0x3a>
  10460a:	69dc      	ldr	r4, [r3, #28]
  10460c:	615a      	str	r2, [r3, #20]
  10460e:	4421      	add	r1, r4
  104610:	61d9      	str	r1, [r3, #28]
  104612:	6942      	ldr	r2, [r0, #20]
  104614:	b11a      	cbz	r2, 10461e <osRtxThreadDelayRemove+0x46>
  104616:	6113      	str	r3, [r2, #16]
  104618:	2300      	movs	r3, #0
  10461a:	6143      	str	r3, [r0, #20]
  10461c:	bd10      	pop	{r4, pc}
  10461e:	4a01      	ldr	r2, [pc, #4]	; (104624 <osRtxThreadDelayRemove+0x4c>)
  104620:	6353      	str	r3, [r2, #52]	; 0x34
  104622:	bd10      	pop	{r4, pc}
  104624:	3fff40a8 	.word	0x3fff40a8

00104628 <osRtxThreadDelayTick>:
  104628:	b538      	push	{r3, r4, r5, lr}
  10462a:	4b2d      	ldr	r3, [pc, #180]	; (1046e0 <osRtxThreadDelayTick+0xb8>)
  10462c:	6b5c      	ldr	r4, [r3, #52]	; 0x34
  10462e:	461d      	mov	r5, r3
  104630:	2c00      	cmp	r4, #0
  104632:	d054      	beq.n	1046de <osRtxThreadDelayTick+0xb6>
  104634:	69e3      	ldr	r3, [r4, #28]
  104636:	3b01      	subs	r3, #1
  104638:	61e3      	str	r3, [r4, #28]
  10463a:	2b00      	cmp	r3, #0
  10463c:	d14f      	bne.n	1046de <osRtxThreadDelayTick+0xb6>
  10463e:	7863      	ldrb	r3, [r4, #1]
  104640:	2b53      	cmp	r3, #83	; 0x53
  104642:	d027      	beq.n	104694 <osRtxThreadDelayTick+0x6c>
  104644:	d808      	bhi.n	104658 <osRtxThreadDelayTick+0x30>
  104646:	2b33      	cmp	r3, #51	; 0x33
  104648:	d01b      	beq.n	104682 <osRtxThreadDelayTick+0x5a>
  10464a:	2b43      	cmp	r3, #67	; 0x43
  10464c:	d01c      	beq.n	104688 <osRtxThreadDelayTick+0x60>
  10464e:	2b13      	cmp	r3, #19
  104650:	d131      	bne.n	1046b6 <osRtxThreadDelayTick+0x8e>
  104652:	f7fe fd6b 	bl	10312c <EvrRtxThreadDelayCompleted>
  104656:	e02e      	b.n	1046b6 <osRtxThreadDelayTick+0x8e>
  104658:	2b73      	cmp	r3, #115	; 0x73
  10465a:	d021      	beq.n	1046a0 <osRtxThreadDelayTick+0x78>
  10465c:	d807      	bhi.n	10466e <osRtxThreadDelayTick+0x46>
  10465e:	2b63      	cmp	r3, #99	; 0x63
  104660:	d129      	bne.n	1046b6 <osRtxThreadDelayTick+0x8e>
  104662:	4620      	mov	r0, r4
  104664:	f7ff ff69 	bl	10453a <osRtxThreadListRoot>
  104668:	f7fe fd6f 	bl	10314a <EvrRtxSemaphoreAcquireTimeout>
  10466c:	e023      	b.n	1046b6 <osRtxThreadDelayTick+0x8e>
  10466e:	2b83      	cmp	r3, #131	; 0x83
  104670:	d01c      	beq.n	1046ac <osRtxThreadDelayTick+0x84>
  104672:	2b93      	cmp	r3, #147	; 0x93
  104674:	d11f      	bne.n	1046b6 <osRtxThreadDelayTick+0x8e>
  104676:	4620      	mov	r0, r4
  104678:	f7ff ff5f 	bl	10453a <osRtxThreadListRoot>
  10467c:	f7fe fd6c 	bl	103158 <EvrRtxMessageQueuePutTimeout>
  104680:	e019      	b.n	1046b6 <osRtxThreadDelayTick+0x8e>
  104682:	f7fe fd50 	bl	103126 <EvrRtxThreadFlagsWaitTimeout>
  104686:	e016      	b.n	1046b6 <osRtxThreadDelayTick+0x8e>
  104688:	4620      	mov	r0, r4
  10468a:	f7ff ff56 	bl	10453a <osRtxThreadListRoot>
  10468e:	f7fe fd4f 	bl	103130 <EvrRtxEventFlagsWaitTimeout>
  104692:	e010      	b.n	1046b6 <osRtxThreadDelayTick+0x8e>
  104694:	4620      	mov	r0, r4
  104696:	f7ff ff50 	bl	10453a <osRtxThreadListRoot>
  10469a:	f7fe fd4f 	bl	10313c <EvrRtxMutexAcquireTimeout>
  10469e:	e00a      	b.n	1046b6 <osRtxThreadDelayTick+0x8e>
  1046a0:	4620      	mov	r0, r4
  1046a2:	f7ff ff4a 	bl	10453a <osRtxThreadListRoot>
  1046a6:	f7fe fd51 	bl	10314c <EvrRtxMemoryPoolAllocTimeout>
  1046aa:	e004      	b.n	1046b6 <osRtxThreadDelayTick+0x8e>
  1046ac:	4620      	mov	r0, r4
  1046ae:	f7ff ff44 	bl	10453a <osRtxThreadListRoot>
  1046b2:	f7fe fd57 	bl	103164 <EvrRtxMessageQueueGetTimeout>
  1046b6:	6ba3      	ldr	r3, [r4, #56]	; 0x38
  1046b8:	4620      	mov	r0, r4
  1046ba:	6a19      	ldr	r1, [r3, #32]
  1046bc:	f7fe fd2f 	bl	10311e <EvrRtxThreadUnblocked>
  1046c0:	4620      	mov	r0, r4
  1046c2:	f7ff ff41 	bl	104548 <osRtxThreadListRemove>
  1046c6:	4620      	mov	r0, r4
  1046c8:	f7ff ff5a 	bl	104580 <osRtxThreadReadyPut>
  1046cc:	6924      	ldr	r4, [r4, #16]
  1046ce:	b124      	cbz	r4, 1046da <osRtxThreadDelayTick+0xb2>
  1046d0:	69e3      	ldr	r3, [r4, #28]
  1046d2:	2b00      	cmp	r3, #0
  1046d4:	d0b3      	beq.n	10463e <osRtxThreadDelayTick+0x16>
  1046d6:	2300      	movs	r3, #0
  1046d8:	6163      	str	r3, [r4, #20]
  1046da:	636c      	str	r4, [r5, #52]	; 0x34
  1046dc:	bd38      	pop	{r3, r4, r5, pc}
  1046de:	bd38      	pop	{r3, r4, r5, pc}
  1046e0:	3fff40a8 	.word	0x3fff40a8

001046e4 <osRtxThreadRegPtr>:
  1046e4:	6b80      	ldr	r0, [r0, #56]	; 0x38
  1046e6:	3020      	adds	r0, #32
  1046e8:	4770      	bx	lr
	...

001046ec <osRtxThreadBlock>:
  1046ec:	b510      	push	{r4, lr}
  1046ee:	2301      	movs	r3, #1
  1046f0:	4a09      	ldr	r2, [pc, #36]	; (104718 <osRtxThreadBlock+0x2c>)
  1046f2:	7043      	strb	r3, [r0, #1]
  1046f4:	f990 1020 	ldrsb.w	r1, [r0, #32]
  1046f8:	6ad3      	ldr	r3, [r2, #44]	; 0x2c
  1046fa:	3224      	adds	r2, #36	; 0x24
  1046fc:	b133      	cbz	r3, 10470c <osRtxThreadBlock+0x20>
  1046fe:	f993 4020 	ldrsb.w	r4, [r3, #32]
  104702:	428c      	cmp	r4, r1
  104704:	dd02      	ble.n	10470c <osRtxThreadBlock+0x20>
  104706:	461a      	mov	r2, r3
  104708:	689b      	ldr	r3, [r3, #8]
  10470a:	e7f7      	b.n	1046fc <osRtxThreadBlock+0x10>
  10470c:	60c2      	str	r2, [r0, #12]
  10470e:	6083      	str	r3, [r0, #8]
  104710:	6090      	str	r0, [r2, #8]
  104712:	b103      	cbz	r3, 104716 <osRtxThreadBlock+0x2a>
  104714:	60d8      	str	r0, [r3, #12]
  104716:	bd10      	pop	{r4, pc}
  104718:	3fff40a8 	.word	0x3fff40a8

0010471c <thread_switch_helper>:
  10471c:	4b04      	ldr	r3, [pc, #16]	; (104730 <thread_switch_helper+0x14>)
  10471e:	681b      	ldr	r3, [r3, #0]
  104720:	b12b      	cbz	r3, 10472e <thread_switch_helper+0x12>
  104722:	691b      	ldr	r3, [r3, #16]
  104724:	b11b      	cbz	r3, 10472e <thread_switch_helper+0x12>
  104726:	4a03      	ldr	r2, [pc, #12]	; (104734 <thread_switch_helper+0x18>)
  104728:	6a12      	ldr	r2, [r2, #32]
  10472a:	6c50      	ldr	r0, [r2, #68]	; 0x44
  10472c:	4718      	bx	r3
  10472e:	4770      	bx	lr
  104730:	3fff60e0 	.word	0x3fff60e0
  104734:	3fff40a8 	.word	0x3fff40a8

00104738 <osRtxThreadStackCheck>:
  104738:	4b07      	ldr	r3, [pc, #28]	; (104758 <osRtxThreadStackCheck+0x20>)
  10473a:	69d9      	ldr	r1, [r3, #28]
  10473c:	b151      	cbz	r1, 104754 <osRtxThreadStackCheck+0x1c>
  10473e:	6b0b      	ldr	r3, [r1, #48]	; 0x30
  104740:	6b8a      	ldr	r2, [r1, #56]	; 0x38
  104742:	4293      	cmp	r3, r2
  104744:	d203      	bcs.n	10474e <osRtxThreadStackCheck+0x16>
  104746:	681a      	ldr	r2, [r3, #0]
  104748:	4b04      	ldr	r3, [pc, #16]	; (10475c <osRtxThreadStackCheck+0x24>)
  10474a:	429a      	cmp	r2, r3
  10474c:	d002      	beq.n	104754 <osRtxThreadStackCheck+0x1c>
  10474e:	2001      	movs	r0, #1
  104750:	f7fe bc6e 	b.w	103030 <osRtxErrorNotify>
  104754:	4770      	bx	lr
  104756:	bf00      	nop
  104758:	3fff40a8 	.word	0x3fff40a8
  10475c:	e25a2ea5 	.word	0xe25a2ea5

00104760 <osRtxThreadSwitch>:
  104760:	b510      	push	{r4, lr}
  104762:	4604      	mov	r4, r0
  104764:	2302      	movs	r3, #2
  104766:	7043      	strb	r3, [r0, #1]
  104768:	4b04      	ldr	r3, [pc, #16]	; (10477c <osRtxThreadSwitch+0x1c>)
  10476a:	6218      	str	r0, [r3, #32]
  10476c:	f7ff ffe4 	bl	104738 <osRtxThreadStackCheck>
  104770:	4620      	mov	r0, r4
  104772:	e8bd 4010 	ldmia.w	sp!, {r4, lr}
  104776:	f7fe bcd3 	b.w	103120 <EvrRtxThreadSwitch>
  10477a:	bf00      	nop
  10477c:	3fff40a8 	.word	0x3fff40a8

00104780 <osRtxThreadDispatch>:
  104780:	b510      	push	{r4, lr}
  104782:	4b15      	ldr	r3, [pc, #84]	; (1047d8 <osRtxThreadDispatch+0x58>)
  104784:	4604      	mov	r4, r0
  104786:	7a1a      	ldrb	r2, [r3, #8]
  104788:	69d9      	ldr	r1, [r3, #28]
  10478a:	b970      	cbnz	r0, 1047aa <osRtxThreadDispatch+0x2a>
  10478c:	2a02      	cmp	r2, #2
  10478e:	6adc      	ldr	r4, [r3, #44]	; 0x2c
  104790:	d121      	bne.n	1047d6 <osRtxThreadDispatch+0x56>
  104792:	b301      	cbz	r1, 1047d6 <osRtxThreadDispatch+0x56>
  104794:	b1fc      	cbz	r4, 1047d6 <osRtxThreadDispatch+0x56>
  104796:	f994 2020 	ldrsb.w	r2, [r4, #32]
  10479a:	f991 3020 	ldrsb.w	r3, [r1, #32]
  10479e:	429a      	cmp	r2, r3
  1047a0:	dd19      	ble.n	1047d6 <osRtxThreadDispatch+0x56>
  1047a2:	4620      	mov	r0, r4
  1047a4:	f7ff fed0 	bl	104548 <osRtxThreadListRemove>
  1047a8:	e008      	b.n	1047bc <osRtxThreadDispatch+0x3c>
  1047aa:	2a02      	cmp	r2, #2
  1047ac:	d10e      	bne.n	1047cc <osRtxThreadDispatch+0x4c>
  1047ae:	b169      	cbz	r1, 1047cc <osRtxThreadDispatch+0x4c>
  1047b0:	f990 2020 	ldrsb.w	r2, [r0, #32]
  1047b4:	f991 3020 	ldrsb.w	r3, [r1, #32]
  1047b8:	429a      	cmp	r2, r3
  1047ba:	dd07      	ble.n	1047cc <osRtxThreadDispatch+0x4c>
  1047bc:	4608      	mov	r0, r1
  1047be:	f7ff ff95 	bl	1046ec <osRtxThreadBlock>
  1047c2:	4620      	mov	r0, r4
  1047c4:	e8bd 4010 	ldmia.w	sp!, {r4, lr}
  1047c8:	f7ff bfca 	b.w	104760 <osRtxThreadSwitch>
  1047cc:	4620      	mov	r0, r4
  1047ce:	e8bd 4010 	ldmia.w	sp!, {r4, lr}
  1047d2:	f7ff bed5 	b.w	104580 <osRtxThreadReadyPut>
  1047d6:	bd10      	pop	{r4, pc}
  1047d8:	3fff40a8 	.word	0x3fff40a8

001047dc <osRtxThreadWaitExit>:
  1047dc:	b570      	push	{r4, r5, r6, lr}
  1047de:	4604      	mov	r4, r0
  1047e0:	460e      	mov	r6, r1
  1047e2:	4615      	mov	r5, r2
  1047e4:	f7fe fc9b 	bl	10311e <EvrRtxThreadUnblocked>
  1047e8:	6ba3      	ldr	r3, [r4, #56]	; 0x38
  1047ea:	4620      	mov	r0, r4
  1047ec:	621e      	str	r6, [r3, #32]
  1047ee:	f7ff fef3 	bl	1045d8 <osRtxThreadDelayRemove>
  1047f2:	4620      	mov	r0, r4
  1047f4:	b11d      	cbz	r5, 1047fe <osRtxThreadWaitExit+0x22>
  1047f6:	e8bd 4070 	ldmia.w	sp!, {r4, r5, r6, lr}
  1047fa:	f7ff bfc1 	b.w	104780 <osRtxThreadDispatch>
  1047fe:	e8bd 4070 	ldmia.w	sp!, {r4, r5, r6, lr}
  104802:	f7ff bebd 	b.w	104580 <osRtxThreadReadyPut>

00104806 <osRtxThreadPostProcess>:
  104806:	b538      	push	{r3, r4, r5, lr}
  104808:	7843      	ldrb	r3, [r0, #1]
  10480a:	4604      	mov	r4, r0
  10480c:	2b33      	cmp	r3, #51	; 0x33
  10480e:	d113      	bne.n	104838 <osRtxThreadPostProcess+0x32>
  104810:	f890 2023 	ldrb.w	r2, [r0, #35]	; 0x23
  104814:	6a41      	ldr	r1, [r0, #36]	; 0x24
  104816:	f7ff fded 	bl	1043f4 <ThreadFlagsCheck>
  10481a:	4605      	mov	r5, r0
  10481c:	b160      	cbz	r0, 104838 <osRtxThreadPostProcess+0x32>
  10481e:	4601      	mov	r1, r0
  104820:	2200      	movs	r2, #0
  104822:	4620      	mov	r0, r4
  104824:	f7ff ffda 	bl	1047dc <osRtxThreadWaitExit>
  104828:	462a      	mov	r2, r5
  10482a:	f894 1023 	ldrb.w	r1, [r4, #35]	; 0x23
  10482e:	6a60      	ldr	r0, [r4, #36]	; 0x24
  104830:	e8bd 4038 	ldmia.w	sp!, {r3, r4, r5, lr}
  104834:	f7fe bc78 	b.w	103128 <EvrRtxThreadFlagsWaitCompleted>
  104838:	bd38      	pop	{r3, r4, r5, pc}
	...

0010483c <svcRtxThreadNew>:
  10483c:	e92d 4ff0 	stmdb	sp!, {r4, r5, r6, r7, r8, r9, r10, r11, lr}
  104840:	b085      	sub	sp, #20
  104842:	9103      	str	r1, [sp, #12]
  104844:	9302      	str	r3, [sp, #8]
  104846:	4681      	mov	r9, r0
  104848:	b910      	cbnz	r0, 104850 <svcRtxThreadNew+0x14>
  10484a:	f06f 0103 	mvn.w	r1, #3
  10484e:	e01e      	b.n	10488e <svcRtxThreadNew+0x52>
  104850:	b382      	cbz	r2, 1048b4 <svcRtxThreadNew+0x78>
  104852:	6894      	ldr	r4, [r2, #8]
  104854:	f102 0510 	add.w	r5, r2, #16
  104858:	cde0      	ldmia	r5, {r5, r6, r7}
  10485a:	b13c      	cbz	r4, 10486c <svcRtxThreadNew+0x30>
  10485c:	07a3      	lsls	r3, r4, #30
  10485e:	d102      	bne.n	104866 <svcRtxThreadNew+0x2a>
  104860:	68d3      	ldr	r3, [r2, #12]
  104862:	2b47      	cmp	r3, #71	; 0x47
  104864:	d805      	bhi.n	104872 <svcRtxThreadNew+0x36>
  104866:	f06f 0108 	mvn.w	r1, #8
  10486a:	e00f      	b.n	10488c <svcRtxThreadNew+0x50>
  10486c:	68d3      	ldr	r3, [r2, #12]
  10486e:	2b00      	cmp	r3, #0
  104870:	d1f9      	bne.n	104866 <svcRtxThreadNew+0x2a>
  104872:	b12d      	cbz	r5, 104880 <svcRtxThreadNew+0x44>
  104874:	0768      	lsls	r0, r5, #29
  104876:	d100      	bne.n	10487a <svcRtxThreadNew+0x3e>
  104878:	b97e      	cbnz	r6, 10489a <svcRtxThreadNew+0x5e>
  10487a:	f06f 010a 	mvn.w	r1, #10
  10487e:	e005      	b.n	10488c <svcRtxThreadNew+0x50>
  104880:	b147      	cbz	r7, 104894 <svcRtxThreadNew+0x58>
  104882:	1e7b      	subs	r3, r7, #1
  104884:	2b37      	cmp	r3, #55	; 0x37
  104886:	d906      	bls.n	104896 <svcRtxThreadNew+0x5a>
  104888:	f06f 010b 	mvn.w	r1, #11
  10488c:	2000      	movs	r0, #0
  10488e:	f7fe fc3f 	bl	103110 <EvrRtxThreadError>
  104892:	e056      	b.n	104942 <svcRtxThreadNew+0x106>
  104894:	2718      	movs	r7, #24
  104896:	b13e      	cbz	r6, 1048a8 <svcRtxThreadNew+0x6c>
  104898:	e002      	b.n	1048a0 <svcRtxThreadNew+0x64>
  10489a:	2f00      	cmp	r7, #0
  10489c:	d1f1      	bne.n	104882 <svcRtxThreadNew+0x46>
  10489e:	2718      	movs	r7, #24
  1048a0:	0771      	lsls	r1, r6, #29
  1048a2:	d1ea      	bne.n	10487a <svcRtxThreadNew+0x3e>
  1048a4:	2e47      	cmp	r6, #71	; 0x47
  1048a6:	d9e8      	bls.n	10487a <svcRtxThreadNew+0x3e>
  1048a8:	6813      	ldr	r3, [r2, #0]
  1048aa:	f8d2 b004 	ldr.w	r11, [r2, #4]
  1048ae:	9301      	str	r3, [sp, #4]
  1048b0:	b9cc      	cbnz	r4, 1048e6 <svcRtxThreadNew+0xaa>
  1048b2:	e004      	b.n	1048be <svcRtxThreadNew+0x82>
  1048b4:	4616      	mov	r6, r2
  1048b6:	4615      	mov	r5, r2
  1048b8:	4693      	mov	r11, r2
  1048ba:	2718      	movs	r7, #24
  1048bc:	9201      	str	r2, [sp, #4]
  1048be:	4b5a      	ldr	r3, [pc, #360]	; (104a28 <svcRtxThreadNew+0x1ec>)
  1048c0:	f8d3 0090 	ldr.w	r0, [r3, #144]	; 0x90
  1048c4:	b110      	cbz	r0, 1048cc <svcRtxThreadNew+0x90>
  1048c6:	f7fe feb2 	bl	10362e <osRtxMemoryPoolAlloc>
  1048ca:	e005      	b.n	1048d8 <svcRtxThreadNew+0x9c>
  1048cc:	2201      	movs	r2, #1
  1048ce:	2148      	movs	r1, #72	; 0x48
  1048d0:	f8d3 0088 	ldr.w	r0, [r3, #136]	; 0x88
  1048d4:	f7fe fe1e 	bl	103514 <osRtxMemoryAlloc>
  1048d8:	4604      	mov	r4, r0
  1048da:	b938      	cbnz	r0, 1048ec <svcRtxThreadNew+0xb0>
  1048dc:	f06f 0104 	mvn.w	r1, #4
  1048e0:	f7fe fc16 	bl	103110 <EvrRtxThreadError>
  1048e4:	e09b      	b.n	104a1e <svcRtxThreadNew+0x1e2>
  1048e6:	f04f 0a00 	mov.w	r10, #0
  1048ea:	e001      	b.n	1048f0 <svcRtxThreadNew+0xb4>
  1048ec:	f04f 0a01 	mov.w	r10, #1
  1048f0:	bb8d      	cbnz	r5, 104956 <svcRtxThreadNew+0x11a>
  1048f2:	f8df 8134 	ldr.w	r8, [pc, #308]	; 104a28 <svcRtxThreadNew+0x1ec>
  1048f6:	b9a6      	cbnz	r6, 104922 <svcRtxThreadNew+0xe6>
  1048f8:	4a4c      	ldr	r2, [pc, #304]	; (104a2c <svcRtxThreadNew+0x1f0>)
  1048fa:	f8d8 008c 	ldr.w	r0, [r8, #140]	; 0x8c
  1048fe:	6d56      	ldr	r6, [r2, #84]	; 0x54
  104900:	b178      	cbz	r0, 104922 <svcRtxThreadNew+0xe6>
  104902:	f7fe fe94 	bl	10362e <osRtxMemoryPoolAlloc>
  104906:	4605      	mov	r5, r0
  104908:	b940      	cbnz	r0, 10491c <svcRtxThreadNew+0xe0>
  10490a:	f06f 0104 	mvn.w	r1, #4
  10490e:	2000      	movs	r0, #0
  104910:	f7fe fbfe 	bl	103110 <EvrRtxThreadError>
  104914:	f1ba 0f00 	cmp.w	r10, #0
  104918:	d10c      	bne.n	104934 <svcRtxThreadNew+0xf8>
  10491a:	e012      	b.n	104942 <svcRtxThreadNew+0x106>
  10491c:	f04a 0a10 	orr.w	r10, r10, #16
  104920:	e017      	b.n	104952 <svcRtxThreadNew+0x116>
  104922:	462a      	mov	r2, r5
  104924:	4631      	mov	r1, r6
  104926:	f8d8 007c 	ldr.w	r0, [r8, #124]	; 0x7c
  10492a:	f7fe fdf3 	bl	103514 <osRtxMemoryAlloc>
  10492e:	4605      	mov	r5, r0
  104930:	b978      	cbnz	r0, 104952 <svcRtxThreadNew+0x116>
  104932:	e7ea      	b.n	10490a <svcRtxThreadNew+0xce>
  104934:	f8d8 5090 	ldr.w	r5, [r8, #144]	; 0x90
  104938:	4621      	mov	r1, r4
  10493a:	b125      	cbz	r5, 104946 <svcRtxThreadNew+0x10a>
  10493c:	4628      	mov	r0, r5
  10493e:	f7fe fea5 	bl	10368c <osRtxMemoryPoolFree>
  104942:	2000      	movs	r0, #0
  104944:	e06c      	b.n	104a20 <svcRtxThreadNew+0x1e4>
  104946:	4b38      	ldr	r3, [pc, #224]	; (104a28 <svcRtxThreadNew+0x1ec>)
  104948:	f8d3 0088 	ldr.w	r0, [r3, #136]	; 0x88
  10494c:	f7fe fe18 	bl	103580 <osRtxMemoryFree>
  104950:	e7f7      	b.n	104942 <svcRtxThreadNew+0x106>
  104952:	f04a 0a02 	orr.w	r10, r10, #2
  104956:	9b01      	ldr	r3, [sp, #4]
  104958:	2201      	movs	r2, #1
  10495a:	6063      	str	r3, [r4, #4]
  10495c:	2300      	movs	r3, #0
  10495e:	60a3      	str	r3, [r4, #8]
  104960:	60e3      	str	r3, [r4, #12]
  104962:	6123      	str	r3, [r4, #16]
  104964:	6163      	str	r3, [r4, #20]
  104966:	61a3      	str	r3, [r4, #24]
  104968:	61e3      	str	r3, [r4, #28]
  10496a:	f884 3023 	strb.w	r3, [r4, #35]	; 0x23
  10496e:	6263      	str	r3, [r4, #36]	; 0x24
  104970:	62a3      	str	r3, [r4, #40]	; 0x28
  104972:	62e3      	str	r3, [r4, #44]	; 0x2c
  104974:	f1a6 0340 	sub.w	r3, r6, #64	; 0x40
  104978:	442b      	add	r3, r5
  10497a:	63a3      	str	r3, [r4, #56]	; 0x38
  10497c:	4b2c      	ldr	r3, [pc, #176]	; (104a30 <svcRtxThreadNew+0x1f4>)
  10497e:	7022      	strb	r2, [r4, #0]
  104980:	7062      	strb	r2, [r4, #1]
  104982:	b2ff      	uxtb	r7, r7
  104984:	22fd      	movs	r2, #253	; 0xfd
  104986:	f884 a002 	strb.w	r10, [r4, #2]
  10498a:	f884 b003 	strb.w	r11, [r4, #3]
  10498e:	f884 7020 	strb.w	r7, [r4, #32]
  104992:	f884 7021 	strb.w	r7, [r4, #33]	; 0x21
  104996:	f884 2022 	strb.w	r2, [r4, #34]	; 0x22
  10499a:	6325      	str	r5, [r4, #48]	; 0x30
  10499c:	6366      	str	r6, [r4, #52]	; 0x34
  10499e:	f8c4 903c 	str.w	r9, [r4, #60]	; 0x3c
  1049a2:	602b      	str	r3, [r5, #0]
  1049a4:	4b21      	ldr	r3, [pc, #132]	; (104a2c <svcRtxThreadNew+0x1f0>)
  1049a6:	681b      	ldr	r3, [r3, #0]
  1049a8:	075b      	lsls	r3, r3, #29
  1049aa:	d511      	bpl.n	1049d0 <svcRtxThreadNew+0x194>
  1049ac:	3504      	adds	r5, #4
  1049ae:	462a      	mov	r2, r5
  1049b0:	08b6      	lsrs	r6, r6, #2
  1049b2:	f1a6 0311 	sub.w	r3, r6, #17
  1049b6:	f04f 31cc 	mov.w	r1, #3435973836	; 0xcccccccc
  1049ba:	b11b      	cbz	r3, 1049c4 <svcRtxThreadNew+0x188>
  1049bc:	f842 1b04 	str.w	r1, [r2], #4
  1049c0:	3b01      	subs	r3, #1
  1049c2:	e7fa      	b.n	1049ba <svcRtxThreadNew+0x17e>
  1049c4:	f106 4680 	add.w	r6, r6, #1073741824	; 0x40000000
  1049c8:	3e11      	subs	r6, #17
  1049ca:	eb05 0586 	add.w	r5, r5, r6, lsl #2
  1049ce:	e000      	b.n	1049d2 <svcRtxThreadNew+0x196>
  1049d0:	6ba5      	ldr	r5, [r4, #56]	; 0x38
  1049d2:	462b      	mov	r3, r5
  1049d4:	f105 0234 	add.w	r2, r5, #52	; 0x34
  1049d8:	2100      	movs	r1, #0
  1049da:	f843 1b04 	str.w	r1, [r3], #4
  1049de:	4293      	cmp	r3, r2
  1049e0:	d1fb      	bne.n	1049da <svcRtxThreadNew+0x19e>
  1049e2:	4b14      	ldr	r3, [pc, #80]	; (104a34 <svcRtxThreadNew+0x1f8>)
  1049e4:	4a14      	ldr	r2, [pc, #80]	; (104a38 <svcRtxThreadNew+0x1fc>)
  1049e6:	636b      	str	r3, [r5, #52]	; 0x34
  1049e8:	f04f 7380 	mov.w	r3, #16777216	; 0x1000000
  1049ec:	63eb      	str	r3, [r5, #60]	; 0x3c
  1049ee:	9b03      	ldr	r3, [sp, #12]
  1049f0:	f8c5 9038 	str.w	r9, [r5, #56]	; 0x38
  1049f4:	622b      	str	r3, [r5, #32]
  1049f6:	4b0c      	ldr	r3, [pc, #48]	; (104a28 <svcRtxThreadNew+0x1ec>)
  1049f8:	4620      	mov	r0, r4
  1049fa:	669a      	str	r2, [r3, #104]	; 0x68
  1049fc:	f7fe fb8a 	bl	103114 <EvrRtxThreadCreated>
  104a00:	4b0e      	ldr	r3, [pc, #56]	; (104a3c <svcRtxThreadNew+0x200>)
  104a02:	681b      	ldr	r3, [r3, #0]
  104a04:	b133      	cbz	r3, 104a14 <svcRtxThreadNew+0x1d8>
  104a06:	689b      	ldr	r3, [r3, #8]
  104a08:	b123      	cbz	r3, 104a14 <svcRtxThreadNew+0x1d8>
  104a0a:	9902      	ldr	r1, [sp, #8]
  104a0c:	4620      	mov	r0, r4
  104a0e:	4798      	blx	r3
  104a10:	6460      	str	r0, [r4, #68]	; 0x44
  104a12:	e001      	b.n	104a18 <svcRtxThreadNew+0x1dc>
  104a14:	9b02      	ldr	r3, [sp, #8]
  104a16:	6463      	str	r3, [r4, #68]	; 0x44
  104a18:	4620      	mov	r0, r4
  104a1a:	f7ff feb1 	bl	104780 <osRtxThreadDispatch>
  104a1e:	4620      	mov	r0, r4
  104a20:	b005      	add	sp, #20
  104a22:	e8bd 8ff0 	ldmia.w	sp!, {r4, r5, r6, r7, r8, r9, r10, r11, pc}
  104a26:	bf00      	nop
  104a28:	3fff40a8 	.word	0x3fff40a8
  104a2c:	0010de58 	.word	0x0010de58
  104a30:	e25a2ea5 	.word	0xe25a2ea5
  104a34:	001043d9 	.word	0x001043d9
  104a38:	00104807 	.word	0x00104807
  104a3c:	3fff60e0 	.word	0x3fff60e0

00104a40 <osRtxThreadWaitEnter>:
  104a40:	b5f8      	push	{r3, r4, r5, r6, r7, lr}
  104a42:	4d10      	ldr	r5, [pc, #64]	; (104a84 <osRtxThreadWaitEnter+0x44>)
  104a44:	4607      	mov	r7, r0
  104a46:	69ec      	ldr	r4, [r5, #28]
  104a48:	460e      	mov	r6, r1
  104a4a:	b1cc      	cbz	r4, 104a80 <osRtxThreadWaitEnter+0x40>
  104a4c:	7a2b      	ldrb	r3, [r5, #8]
  104a4e:	2b02      	cmp	r3, #2
  104a50:	d004      	beq.n	104a5c <osRtxThreadWaitEnter+0x1c>
  104a52:	4620      	mov	r0, r4
  104a54:	f7ff fd78 	bl	104548 <osRtxThreadListRemove>
  104a58:	2000      	movs	r0, #0
  104a5a:	bdf8      	pop	{r3, r4, r5, r6, r7, pc}
  104a5c:	6ae8      	ldr	r0, [r5, #44]	; 0x2c
  104a5e:	b180      	cbz	r0, 104a82 <osRtxThreadWaitEnter+0x42>
  104a60:	4620      	mov	r0, r4
  104a62:	f7fe fb5b 	bl	10311c <EvrRtxThreadBlocked>
  104a66:	4631      	mov	r1, r6
  104a68:	4620      	mov	r0, r4
  104a6a:	7067      	strb	r7, [r4, #1]
  104a6c:	f7ff fd90 	bl	104590 <osRtxThreadDelayInsert>
  104a70:	f105 0024 	add.w	r0, r5, #36	; 0x24
  104a74:	f7ff fd57 	bl	104526 <osRtxThreadListGet>
  104a78:	f7ff fe72 	bl	104760 <osRtxThreadSwitch>
  104a7c:	2001      	movs	r0, #1
  104a7e:	bdf8      	pop	{r3, r4, r5, r6, r7, pc}
  104a80:	4620      	mov	r0, r4
  104a82:	bdf8      	pop	{r3, r4, r5, r6, r7, pc}
  104a84:	3fff40a8 	.word	0x3fff40a8

00104a88 <svcRtxThreadExit>:
  104a88:	b570      	push	{r4, r5, r6, lr}
  104a8a:	4d1c      	ldr	r5, [pc, #112]	; (104afc <svcRtxThreadExit+0x74>)
  104a8c:	69ec      	ldr	r4, [r5, #28]
  104a8e:	2c00      	cmp	r4, #0
  104a90:	d032      	beq.n	104af8 <svcRtxThreadExit+0x70>
  104a92:	6ae0      	ldr	r0, [r4, #44]	; 0x2c
  104a94:	f7ff fb04 	bl	1040a0 <osRtxMutexOwnerRelease>
  104a98:	69a0      	ldr	r0, [r4, #24]
  104a9a:	b130      	cbz	r0, 104aaa <svcRtxThreadExit+0x22>
  104a9c:	2200      	movs	r2, #0
  104a9e:	4611      	mov	r1, r2
  104aa0:	f7ff fe9c 	bl	1047dc <osRtxThreadWaitExit>
  104aa4:	69a0      	ldr	r0, [r4, #24]
  104aa6:	f7fe fb38 	bl	10311a <EvrRtxThreadJoined>
  104aaa:	7a2b      	ldrb	r3, [r5, #8]
  104aac:	4e13      	ldr	r6, [pc, #76]	; (104afc <svcRtxThreadExit+0x74>)
  104aae:	2b02      	cmp	r3, #2
  104ab0:	d122      	bne.n	104af8 <svcRtxThreadExit+0x70>
  104ab2:	6af3      	ldr	r3, [r6, #44]	; 0x2c
  104ab4:	b303      	cbz	r3, 104af8 <svcRtxThreadExit+0x70>
  104ab6:	f3ef 8309 	mrs	r3, PSP
  104aba:	63a3      	str	r3, [r4, #56]	; 0x38
  104abc:	f106 0024 	add.w	r0, r6, #36	; 0x24
  104ac0:	f7ff fd31 	bl	104526 <osRtxThreadListGet>
  104ac4:	f7ff fe4c 	bl	104760 <osRtxThreadSwitch>
  104ac8:	2300      	movs	r3, #0
  104aca:	61f3      	str	r3, [r6, #28]
  104acc:	78e3      	ldrb	r3, [r4, #3]
  104ace:	07db      	lsls	r3, r3, #31
  104ad0:	d501      	bpl.n	104ad6 <svcRtxThreadExit+0x4e>
  104ad2:	69a3      	ldr	r3, [r4, #24]
  104ad4:	b11b      	cbz	r3, 104ade <svcRtxThreadExit+0x56>
  104ad6:	4620      	mov	r0, r4
  104ad8:	f7ff fcc2 	bl	104460 <osRtxThreadFree>
  104adc:	e007      	b.n	104aee <svcRtxThreadExit+0x66>
  104ade:	2204      	movs	r2, #4
  104ae0:	7062      	strb	r2, [r4, #1]
  104ae2:	60e3      	str	r3, [r4, #12]
  104ae4:	6bf3      	ldr	r3, [r6, #60]	; 0x3c
  104ae6:	60a3      	str	r3, [r4, #8]
  104ae8:	b103      	cbz	r3, 104aec <svcRtxThreadExit+0x64>
  104aea:	60dc      	str	r4, [r3, #12]
  104aec:	63ec      	str	r4, [r5, #60]	; 0x3c
  104aee:	4620      	mov	r0, r4
  104af0:	e8bd 4070 	ldmia.w	sp!, {r4, r5, r6, lr}
  104af4:	f7fe bb16 	b.w	103124 <EvrRtxThreadDestroyed>
  104af8:	bd70      	pop	{r4, r5, r6, pc}
  104afa:	bf00      	nop
  104afc:	3fff40a8 	.word	0x3fff40a8

00104b00 <osThreadContextNew>:
  104b00:	b5f8      	push	{r3, r4, r5, r6, r7, lr}
  104b02:	4607      	mov	r7, r0
  104b04:	460e      	mov	r6, r1
  104b06:	4615      	mov	r5, r2
  104b08:	461c      	mov	r4, r3
  104b0a:	f7fe fb02 	bl	103112 <EvrRtxThreadNew>
  104b0e:	f3ef 8305 	mrs	r3, IPSR
  104b12:	b92b      	cbnz	r3, 104b20 <osThreadContextNew+0x20>
  104b14:	f3ef 8310 	mrs	r3, PRIMASK
  104b18:	b913      	cbnz	r3, 104b20 <osThreadContextNew+0x20>
  104b1a:	f3ef 8311 	mrs	r3, BASEPRI
  104b1e:	b133      	cbz	r3, 104b2e <osThreadContextNew+0x2e>
  104b20:	f06f 0105 	mvn.w	r1, #5
  104b24:	2000      	movs	r0, #0
  104b26:	f7fe faf3 	bl	103110 <EvrRtxThreadError>
  104b2a:	2000      	movs	r0, #0
  104b2c:	bdf8      	pop	{r3, r4, r5, r6, r7, pc}
  104b2e:	4638      	mov	r0, r7
  104b30:	4631      	mov	r1, r6
  104b32:	462a      	mov	r2, r5
  104b34:	4623      	mov	r3, r4
  104b36:	f8df c020 	ldr.w	r12, [pc, #32]	; 104b58 <osThreadContextNew+0x58>
  104b3a:	f3ef 8414 	mrs	r4, CONTROL
  104b3e:	f014 0f02 	tst.w	r4, #2
  104b42:	d106      	bne.n	104b52 <osThreadContextNew+0x52>
  104b44:	f3ef 8408 	mrs	r4, MSP
  104b48:	3c20      	subs	r4, #32
  104b4a:	f024 0407 	bic.w	r4, r4, #7
  104b4e:	f384 8809 	msr	PSP, r4
  104b52:	df00      	svc	0
  104b54:	bdf8      	pop	{r3, r4, r5, r6, r7, pc}
  104b56:	bf00      	nop
  104b58:	0010483d 	.word	0x0010483d

00104b5c <osThreadNew>:
  104b5c:	2300      	movs	r3, #0
  104b5e:	f7ff bfcf 	b.w	104b00 <osThreadContextNew>
	...

00104b64 <osThreadGetName>:
  104b64:	b508      	push	{r3, lr}
  104b66:	4603      	mov	r3, r0
  104b68:	f3ef 8205 	mrs	r2, IPSR
  104b6c:	b92a      	cbnz	r2, 104b7a <osThreadGetName+0x16>
  104b6e:	f3ef 8210 	mrs	r2, PRIMASK
  104b72:	b912      	cbnz	r2, 104b7a <osThreadGetName+0x16>
  104b74:	f3ef 8211 	mrs	r2, BASEPRI
  104b78:	b12a      	cbz	r2, 104b86 <osThreadGetName+0x22>
  104b7a:	4618      	mov	r0, r3
  104b7c:	2100      	movs	r1, #0
  104b7e:	f7fe faca 	bl	103116 <EvrRtxThreadGetName>
  104b82:	2000      	movs	r0, #0
  104b84:	bd08      	pop	{r3, pc}
  104b86:	f8df c008 	ldr.w	r12, [pc, #8]	; 104b90 <osThreadGetName+0x2c>
  104b8a:	df00      	svc	0
  104b8c:	bd08      	pop	{r3, pc}
  104b8e:	bf00      	nop
  104b90:	001044b5 	.word	0x001044b5

00104b94 <osThreadGetId>:
  104b94:	b508      	push	{r3, lr}
  104b96:	f3ef 8305 	mrs	r3, IPSR
  104b9a:	b92b      	cbnz	r3, 104ba8 <osThreadGetId+0x14>
  104b9c:	f3ef 8310 	mrs	r3, PRIMASK
  104ba0:	b913      	cbnz	r3, 104ba8 <osThreadGetId+0x14>
  104ba2:	f3ef 8311 	mrs	r3, BASEPRI
  104ba6:	b123      	cbz	r3, 104bb2 <osThreadGetId+0x1e>
  104ba8:	2000      	movs	r0, #0
  104baa:	f7fe fab5 	bl	103118 <EvrRtxThreadGetId>
  104bae:	2000      	movs	r0, #0
  104bb0:	bd08      	pop	{r3, pc}
  104bb2:	f8df c008 	ldr.w	r12, [pc, #8]	; 104bbc <osThreadGetId+0x28>
  104bb6:	df00      	svc	0
  104bb8:	bd08      	pop	{r3, pc}
  104bba:	bf00      	nop
  104bbc:	001043c5 	.word	0x001043c5

00104bc0 <TimerInsert>:
  104bc0:	4a0c      	ldr	r2, [pc, #48]	; (104bf4 <TimerInsert+0x34>)
  104bc2:	b530      	push	{r4, r5, lr}
  104bc4:	6cd3      	ldr	r3, [r2, #76]	; 0x4c
  104bc6:	2400      	movs	r4, #0
  104bc8:	b133      	cbz	r3, 104bd8 <TimerInsert+0x18>
  104bca:	691d      	ldr	r5, [r3, #16]
  104bcc:	42a9      	cmp	r1, r5
  104bce:	d303      	bcc.n	104bd8 <TimerInsert+0x18>
  104bd0:	461c      	mov	r4, r3
  104bd2:	1b49      	subs	r1, r1, r5
  104bd4:	68db      	ldr	r3, [r3, #12]
  104bd6:	e7f7      	b.n	104bc8 <TimerInsert+0x8>
  104bd8:	6101      	str	r1, [r0, #16]
  104bda:	6084      	str	r4, [r0, #8]
  104bdc:	60c3      	str	r3, [r0, #12]
  104bde:	b11b      	cbz	r3, 104be8 <TimerInsert+0x28>
  104be0:	691d      	ldr	r5, [r3, #16]
  104be2:	6098      	str	r0, [r3, #8]
  104be4:	1a69      	subs	r1, r5, r1
  104be6:	6119      	str	r1, [r3, #16]
  104be8:	b10c      	cbz	r4, 104bee <TimerInsert+0x2e>
  104bea:	60e0      	str	r0, [r4, #12]
  104bec:	bd30      	pop	{r4, r5, pc}
  104bee:	64d0      	str	r0, [r2, #76]	; 0x4c
  104bf0:	bd30      	pop	{r4, r5, pc}
  104bf2:	bf00      	nop
  104bf4:	3fff40a8 	.word	0x3fff40a8

00104bf8 <osRtxTimerTick>:
  104bf8:	b570      	push	{r4, r5, r6, lr}
  104bfa:	4d13      	ldr	r5, [pc, #76]	; (104c48 <osRtxTimerTick+0x50>)
  104bfc:	6cec      	ldr	r4, [r5, #76]	; 0x4c
  104bfe:	b314      	cbz	r4, 104c46 <osRtxTimerTick+0x4e>
  104c00:	6923      	ldr	r3, [r4, #16]
  104c02:	2601      	movs	r6, #1
  104c04:	3b01      	subs	r3, #1
  104c06:	6123      	str	r3, [r4, #16]
  104c08:	6923      	ldr	r3, [r4, #16]
  104c0a:	b9e3      	cbnz	r3, 104c46 <osRtxTimerTick+0x4e>
  104c0c:	68e3      	ldr	r3, [r4, #12]
  104c0e:	b10b      	cbz	r3, 104c14 <osRtxTimerTick+0x1c>
  104c10:	68a2      	ldr	r2, [r4, #8]
  104c12:	609a      	str	r2, [r3, #8]
  104c14:	64eb      	str	r3, [r5, #76]	; 0x4c
  104c16:	2300      	movs	r3, #0
  104c18:	461a      	mov	r2, r3
  104c1a:	f104 0118 	add.w	r1, r4, #24
  104c1e:	6d68      	ldr	r0, [r5, #84]	; 0x54
  104c20:	f7ff f818 	bl	103c54 <osMessageQueuePut>
  104c24:	b118      	cbz	r0, 104c2e <osRtxTimerTick+0x36>
  104c26:	4621      	mov	r1, r4
  104c28:	2003      	movs	r0, #3
  104c2a:	f7fe fa01 	bl	103030 <osRtxErrorNotify>
  104c2e:	78e3      	ldrb	r3, [r4, #3]
  104c30:	2b01      	cmp	r3, #1
  104c32:	d104      	bne.n	104c3e <osRtxTimerTick+0x46>
  104c34:	6961      	ldr	r1, [r4, #20]
  104c36:	4620      	mov	r0, r4
  104c38:	f7ff ffc2 	bl	104bc0 <TimerInsert>
  104c3c:	e000      	b.n	104c40 <osRtxTimerTick+0x48>
  104c3e:	7066      	strb	r6, [r4, #1]
  104c40:	6cec      	ldr	r4, [r5, #76]	; 0x4c
  104c42:	2c00      	cmp	r4, #0
  104c44:	d1e0      	bne.n	104c08 <osRtxTimerTick+0x10>
  104c46:	bd70      	pop	{r4, r5, r6, pc}
  104c48:	3fff40a8 	.word	0x3fff40a8

00104c4c <osRtxTimerThread>:
  104c4c:	4b0f      	ldr	r3, [pc, #60]	; (104c8c <osRtxTimerThread+0x40>)
  104c4e:	b513      	push	{r0, r1, r4, lr}
  104c50:	6e1a      	ldr	r2, [r3, #96]	; 0x60
  104c52:	2108      	movs	r1, #8
  104c54:	6e58      	ldr	r0, [r3, #100]	; 0x64
  104c56:	f7fe ffd1 	bl	103bfc <osMessageQueueNew>
  104c5a:	4c0d      	ldr	r4, [pc, #52]	; (104c90 <osRtxTimerThread+0x44>)
  104c5c:	6560      	str	r0, [r4, #84]	; 0x54
  104c5e:	b190      	cbz	r0, 104c86 <osRtxTimerThread+0x3a>
  104c60:	4b0c      	ldr	r3, [pc, #48]	; (104c94 <osRtxTimerThread+0x48>)
  104c62:	65a3      	str	r3, [r4, #88]	; 0x58
  104c64:	f04f 33ff 	mov.w	r3, #4294967295
  104c68:	2200      	movs	r2, #0
  104c6a:	4669      	mov	r1, sp
  104c6c:	6d60      	ldr	r0, [r4, #84]	; 0x54
  104c6e:	f7ff f84b 	bl	103d08 <osMessageQueueGet>
  104c72:	2800      	cmp	r0, #0
  104c74:	d1f6      	bne.n	104c64 <osRtxTimerThread+0x18>
  104c76:	e89d 0003 	ldmia.w	sp, {r0, r1}
  104c7a:	f7fe fa58 	bl	10312e <EvrRtxTimerCallback>
  104c7e:	9801      	ldr	r0, [sp, #4]
  104c80:	9b00      	ldr	r3, [sp, #0]
  104c82:	4798      	blx	r3
  104c84:	e7ee      	b.n	104c64 <osRtxTimerThread+0x18>
  104c86:	b002      	add	sp, #8
  104c88:	bd10      	pop	{r4, pc}
  104c8a:	bf00      	nop
  104c8c:	0010de58 	.word	0x0010de58
  104c90:	3fff40a8 	.word	0x3fff40a8
  104c94:	00104bf9 	.word	0x00104bf9

00104c98 <HardFault_Handler>:
  104c98:	e7fe      	b.n	104c98 <HardFault_Handler>

00104c9a <fIrqTim0Handler>:
  104c9a:	f000 bc69 	b.w	105570 <us_timer_isr>

00104c9e <fIrqTim1Handler>:
  104c9e:	f000 bce3 	b.w	105668 <us_ticker_isr>

00104ca2 <fIrqGpioHandler>:
  104ca2:	f000 b863 	b.w	104d6c <fGpioHandler>

00104ca6 <fIrqSpiHandler>:
  104ca6:	e7fe      	b.n	104ca6 <fIrqSpiHandler>

00104ca8 <fIrqUart1Handler>:
  104ca8:	f001 b816 	b.w	105cd8 <Uart1_Irq>

00104cac <fIrqUart2Handler>:
  104cac:	f001 b82c 	b.w	105d08 <Uart2_Irq>

00104cb0 <fIrqRtcHandler>:
  104cb0:	f000 bef2 	b.w	105a98 <fRtcHandler>

00104cb4 <fIrqI2CHandler>:
  104cb4:	e7fe      	b.n	104cb4 <fIrqI2CHandler>

00104cb6 <fIrqI2C2Handler>:
  104cb6:	e7fe      	b.n	104cb6 <fIrqI2C2Handler>

00104cb8 <fIrqSpi2Handler>:
  104cb8:	e7fe      	b.n	104cb8 <fIrqSpi2Handler>

00104cba <fIrqUviHandler>:
  104cba:	e7fe      	b.n	104cba <fIrqUviHandler>

00104cbc <fIrqAdcHandler>:
  104cbc:	e7fe      	b.n	104cbc <fIrqAdcHandler>

00104cbe <gpio_set>:
  104cbe:	1c43      	adds	r3, r0, #1
  104cc0:	b510      	push	{r4, lr}
  104cc2:	4604      	mov	r4, r0
  104cc4:	d005      	beq.n	104cd2 <gpio_set+0x14>
  104cc6:	2100      	movs	r1, #0
  104cc8:	f000 fe96 	bl	1059f8 <pin_function>
  104ccc:	2001      	movs	r0, #1
  104cce:	40a0      	lsls	r0, r4
  104cd0:	bd10      	pop	{r4, pc}
  104cd2:	2000      	movs	r0, #0
  104cd4:	bd10      	pop	{r4, pc}
	...

00104cd8 <gpio_init>:
  104cd8:	b538      	push	{r3, r4, r5, lr}
  104cda:	4605      	mov	r5, r0
  104cdc:	4b0f      	ldr	r3, [pc, #60]	; (104d1c <gpio_init+0x44>)
  104cde:	460c      	mov	r4, r1
  104ce0:	6003      	str	r3, [r0, #0]
  104ce2:	7129      	strb	r1, [r5, #4]
  104ce4:	4608      	mov	r0, r1
  104ce6:	f7ff ffea 	bl	104cbe <gpio_set>
  104cea:	4b0d      	ldr	r3, [pc, #52]	; (104d20 <gpio_init+0x48>)
  104cec:	60a8      	str	r0, [r5, #8]
  104cee:	691a      	ldr	r2, [r3, #16]
  104cf0:	00a1      	lsls	r1, r4, #2
  104cf2:	f422 5280 	bic.w	r2, r2, #4096	; 0x1000
  104cf6:	611a      	str	r2, [r3, #16]
  104cf8:	691a      	ldr	r2, [r3, #16]
  104cfa:	f101 4180 	add.w	r1, r1, #1073741824	; 0x40000000
  104cfe:	f022 5280 	bic.w	r2, r2, #268435456	; 0x10000000
  104d02:	611a      	str	r2, [r3, #16]
  104d04:	f501 31e0 	add.w	r1, r1, #114688	; 0x1c000
  104d08:	780a      	ldrb	r2, [r1, #0]
  104d0a:	2001      	movs	r0, #1
  104d0c:	f360 0284 	bfi	r2, r0, #2, #3
  104d10:	700a      	strb	r2, [r1, #0]
  104d12:	691a      	ldr	r2, [r3, #16]
  104d14:	f042 5280 	orr.w	r2, r2, #268435456	; 0x10000000
  104d18:	611a      	str	r2, [r3, #16]
  104d1a:	bd38      	pop	{r3, r4, r5, pc}
  104d1c:	4000c000 	.word	0x4000c000
  104d20:	4001b000 	.word	0x4001b000

00104d24 <gpio_mode>:
  104d24:	f990 0004 	ldrsb.w	r0, [r0, #4]
  104d28:	f000 be78 	b.w	105a1c <pin_mode>

00104d2c <gpio_dir>:
  104d2c:	4a07      	ldr	r2, [pc, #28]	; (104d4c <gpio_dir+0x20>)
  104d2e:	6913      	ldr	r3, [r2, #16]
  104d30:	f423 5380 	bic.w	r3, r3, #4096	; 0x1000
  104d34:	6113      	str	r3, [r2, #16]
  104d36:	b919      	cbnz	r1, 104d40 <gpio_dir+0x14>
  104d38:	6803      	ldr	r3, [r0, #0]
  104d3a:	6882      	ldr	r2, [r0, #8]
  104d3c:	60da      	str	r2, [r3, #12]
  104d3e:	4770      	bx	lr
  104d40:	2901      	cmp	r1, #1
  104d42:	bf02      	ittt	eq
  104d44:	6803      	ldreq	r3, [r0, #0]
  104d46:	6882      	ldreq	r2, [r0, #8]
  104d48:	609a      	streq	r2, [r3, #8]
  104d4a:	4770      	bx	lr
  104d4c:	4001b000 	.word	0x4001b000

00104d50 <gpio_write>:
  104d50:	4a05      	ldr	r2, [pc, #20]	; (104d68 <gpio_write+0x18>)
  104d52:	6913      	ldr	r3, [r2, #16]
  104d54:	f423 5380 	bic.w	r3, r3, #4096	; 0x1000
  104d58:	6113      	str	r3, [r2, #16]
  104d5a:	6803      	ldr	r3, [r0, #0]
  104d5c:	6882      	ldr	r2, [r0, #8]
  104d5e:	b109      	cbz	r1, 104d64 <gpio_write+0x14>
  104d60:	601a      	str	r2, [r3, #0]
  104d62:	4770      	bx	lr
  104d64:	605a      	str	r2, [r3, #4]
  104d66:	4770      	bx	lr
  104d68:	4001b000 	.word	0x4001b000

00104d6c <fGpioHandler>:
  104d6c:	e92d 47f0 	stmdb	sp!, {r4, r5, r6, r7, r8, r9, r10, lr}
  104d70:	4a2c      	ldr	r2, [pc, #176]	; (104e24 <fGpioHandler+0xb8>)
  104d72:	f8df 80c0 	ldr.w	r8, [pc, #192]	; 104e34 <fGpioHandler+0xc8>
  104d76:	6913      	ldr	r3, [r2, #16]
  104d78:	4e2b      	ldr	r6, [pc, #172]	; (104e28 <fGpioHandler+0xbc>)
  104d7a:	f423 5380 	bic.w	r3, r3, #4096	; 0x1000
  104d7e:	6113      	str	r3, [r2, #16]
  104d80:	2300      	movs	r3, #0
  104d82:	461c      	mov	r4, r3
  104d84:	f8d8 2004 	ldr.w	r2, [r8, #4]
  104d88:	2a00      	cmp	r2, #0
  104d8a:	d046      	beq.n	104e1a <fGpioHandler+0xae>
  104d8c:	f8d8 7004 	ldr.w	r7, [r8, #4]
  104d90:	220a      	movs	r2, #10
  104d92:	2101      	movs	r1, #1
  104d94:	f8d8 0004 	ldr.w	r0, [r8, #4]
  104d98:	fa01 f502 	lsl.w	r5, r1, r2
  104d9c:	4205      	tst	r5, r0
  104d9e:	d024      	beq.n	104dea <fGpioHandler+0x7e>
  104da0:	3a0a      	subs	r2, #10
  104da2:	2a07      	cmp	r2, #7
  104da4:	d825      	bhi.n	104df2 <fGpioHandler+0x86>
  104da6:	e8df f002 	tbb	[pc, r2]
  104daa:	2404      	.short	0x2404
  104dac:	063a2424 	.word	0x063a2424
  104db0:	0a08      	.short	0x0a08
  104db2:	2400      	movs	r4, #0
  104db4:	e01d      	b.n	104df2 <fGpioHandler+0x86>
  104db6:	2402      	movs	r4, #2
  104db8:	e01b      	b.n	104df2 <fGpioHandler+0x86>
  104dba:	2403      	movs	r4, #3
  104dbc:	e019      	b.n	104df2 <fGpioHandler+0x86>
  104dbe:	4d1b      	ldr	r5, [pc, #108]	; (104e2c <fGpioHandler+0xc0>)
  104dc0:	f8df 906c 	ldr.w	r9, [pc, #108]	; 104e30 <fGpioHandler+0xc4>
  104dc4:	f105 0a20 	add.w	r10, r5, #32
  104dc8:	2300      	movs	r3, #0
  104dca:	f855 0f04 	ldr.w	r0, [r5, #4]!
  104dce:	b148      	cbz	r0, 104de4 <fGpioHandler+0x78>
  104dd0:	f8d9 3000 	ldr.w	r3, [r9]
  104dd4:	2101      	movs	r1, #1
  104dd6:	4798      	blx	r3
  104dd8:	f8d9 3000 	ldr.w	r3, [r9]
  104ddc:	2102      	movs	r1, #2
  104dde:	6828      	ldr	r0, [r5, #0]
  104de0:	4798      	blx	r3
  104de2:	2301      	movs	r3, #1
  104de4:	4555      	cmp	r5, r10
  104de6:	d1f0      	bne.n	104dca <fGpioHandler+0x5e>
  104de8:	e002      	b.n	104df0 <fGpioHandler+0x84>
  104dea:	3201      	adds	r2, #1
  104dec:	2a12      	cmp	r2, #18
  104dee:	d1d1      	bne.n	104d94 <fGpioHandler+0x28>
  104df0:	b96b      	cbnz	r3, 104e0e <fGpioHandler+0xa2>
  104df2:	f856 0024 	ldr.w	r0, [r6, r4, lsl #2]
  104df6:	b160      	cbz	r0, 104e12 <fGpioHandler+0xa6>
  104df8:	4d0d      	ldr	r5, [pc, #52]	; (104e30 <fGpioHandler+0xc4>)
  104dfa:	2101      	movs	r1, #1
  104dfc:	682b      	ldr	r3, [r5, #0]
  104dfe:	4798      	blx	r3
  104e00:	682b      	ldr	r3, [r5, #0]
  104e02:	2102      	movs	r1, #2
  104e04:	f856 0024 	ldr.w	r0, [r6, r4, lsl #2]
  104e08:	4798      	blx	r3
  104e0a:	2300      	movs	r3, #0
  104e0c:	e002      	b.n	104e14 <fGpioHandler+0xa8>
  104e0e:	2301      	movs	r3, #1
  104e10:	e000      	b.n	104e14 <fGpioHandler+0xa8>
  104e12:	4603      	mov	r3, r0
  104e14:	f8c8 7030 	str.w	r7, [r8, #48]	; 0x30
  104e18:	e7b4      	b.n	104d84 <fGpioHandler+0x18>
  104e1a:	e8bd 87f0 	ldmia.w	sp!, {r4, r5, r6, r7, r8, r9, r10, pc}
  104e1e:	2401      	movs	r4, #1
  104e20:	e7e7      	b.n	104df2 <fGpioHandler+0x86>
  104e22:	bf00      	nop
  104e24:	4001b000 	.word	0x4001b000
  104e28:	3fff4c90 	.word	0x3fff4c90
  104e2c:	3fff4c9c 	.word	0x3fff4c9c
  104e30:	3fff4cd8 	.word	0x3fff4cd8
  104e34:	4000c000 	.word	0x4000c000

00104e38 <gpio_irq_init>:
  104e38:	b510      	push	{r4, lr}
  104e3a:	1c4c      	adds	r4, r1, #1
  104e3c:	d102      	bne.n	104e44 <gpio_irq_init+0xc>
  104e3e:	f04f 30ff 	mov.w	r0, #4294967295
  104e42:	bd10      	pop	{r4, pc}
  104e44:	2401      	movs	r4, #1
  104e46:	408c      	lsls	r4, r1
  104e48:	6001      	str	r1, [r0, #0]
  104e4a:	390a      	subs	r1, #10
  104e4c:	6044      	str	r4, [r0, #4]
  104e4e:	2907      	cmp	r1, #7
  104e50:	d832      	bhi.n	104eb8 <gpio_irq_init+0x80>
  104e52:	e8df f001 	tbb	[pc, r1]
  104e56:	3104      	.short	0x3104
  104e58:	0a073131 	.word	0x0a073131
  104e5c:	100d      	.short	0x100d
  104e5e:	4923      	ldr	r1, [pc, #140]	; (104eec <gpio_irq_init+0xb4>)
  104e60:	600b      	str	r3, [r1, #0]
  104e62:	e029      	b.n	104eb8 <gpio_irq_init+0x80>
  104e64:	4921      	ldr	r1, [pc, #132]	; (104eec <gpio_irq_init+0xb4>)
  104e66:	604b      	str	r3, [r1, #4]
  104e68:	e026      	b.n	104eb8 <gpio_irq_init+0x80>
  104e6a:	4920      	ldr	r1, [pc, #128]	; (104eec <gpio_irq_init+0xb4>)
  104e6c:	608b      	str	r3, [r1, #8]
  104e6e:	e023      	b.n	104eb8 <gpio_irq_init+0x80>
  104e70:	491e      	ldr	r1, [pc, #120]	; (104eec <gpio_irq_init+0xb4>)
  104e72:	60cb      	str	r3, [r1, #12]
  104e74:	e020      	b.n	104eb8 <gpio_irq_init+0x80>
  104e76:	491d      	ldr	r1, [pc, #116]	; (104eec <gpio_irq_init+0xb4>)
  104e78:	690c      	ldr	r4, [r1, #16]
  104e7a:	b90c      	cbnz	r4, 104e80 <gpio_irq_init+0x48>
  104e7c:	610b      	str	r3, [r1, #16]
  104e7e:	e01b      	b.n	104eb8 <gpio_irq_init+0x80>
  104e80:	694c      	ldr	r4, [r1, #20]
  104e82:	b90c      	cbnz	r4, 104e88 <gpio_irq_init+0x50>
  104e84:	614b      	str	r3, [r1, #20]
  104e86:	e017      	b.n	104eb8 <gpio_irq_init+0x80>
  104e88:	698c      	ldr	r4, [r1, #24]
  104e8a:	b90c      	cbnz	r4, 104e90 <gpio_irq_init+0x58>
  104e8c:	618b      	str	r3, [r1, #24]
  104e8e:	e013      	b.n	104eb8 <gpio_irq_init+0x80>
  104e90:	69cc      	ldr	r4, [r1, #28]
  104e92:	b90c      	cbnz	r4, 104e98 <gpio_irq_init+0x60>
  104e94:	61cb      	str	r3, [r1, #28]
  104e96:	e00f      	b.n	104eb8 <gpio_irq_init+0x80>
  104e98:	6a0c      	ldr	r4, [r1, #32]
  104e9a:	b90c      	cbnz	r4, 104ea0 <gpio_irq_init+0x68>
  104e9c:	620b      	str	r3, [r1, #32]
  104e9e:	e00b      	b.n	104eb8 <gpio_irq_init+0x80>
  104ea0:	6a4c      	ldr	r4, [r1, #36]	; 0x24
  104ea2:	b90c      	cbnz	r4, 104ea8 <gpio_irq_init+0x70>
  104ea4:	624b      	str	r3, [r1, #36]	; 0x24
  104ea6:	e007      	b.n	104eb8 <gpio_irq_init+0x80>
  104ea8:	6a8c      	ldr	r4, [r1, #40]	; 0x28
  104eaa:	b90c      	cbnz	r4, 104eb0 <gpio_irq_init+0x78>
  104eac:	628b      	str	r3, [r1, #40]	; 0x28
  104eae:	e003      	b.n	104eb8 <gpio_irq_init+0x80>
  104eb0:	6acc      	ldr	r4, [r1, #44]	; 0x2c
  104eb2:	2c00      	cmp	r4, #0
  104eb4:	d1c3      	bne.n	104e3e <gpio_irq_init+0x6>
  104eb6:	62cb      	str	r3, [r1, #44]	; 0x2c
  104eb8:	490d      	ldr	r1, [pc, #52]	; (104ef0 <gpio_irq_init+0xb8>)
  104eba:	690b      	ldr	r3, [r1, #16]
  104ebc:	f423 5380 	bic.w	r3, r3, #4096	; 0x1000
  104ec0:	610b      	str	r3, [r1, #16]
  104ec2:	6841      	ldr	r1, [r0, #4]
  104ec4:	4b0b      	ldr	r3, [pc, #44]	; (104ef4 <gpio_irq_init+0xbc>)
  104ec6:	6083      	str	r3, [r0, #8]
  104ec8:	60d9      	str	r1, [r3, #12]
  104eca:	6319      	str	r1, [r3, #48]	; 0x30
  104ecc:	6199      	str	r1, [r3, #24]
  104ece:	6219      	str	r1, [r3, #32]
  104ed0:	6119      	str	r1, [r3, #16]
  104ed2:	4b09      	ldr	r3, [pc, #36]	; (104ef8 <gpio_irq_init+0xc0>)
  104ed4:	2000      	movs	r0, #0
  104ed6:	601a      	str	r2, [r3, #0]
  104ed8:	4b08      	ldr	r3, [pc, #32]	; (104efc <gpio_irq_init+0xc4>)
  104eda:	2220      	movs	r2, #32
  104edc:	f883 2306 	strb.w	r2, [r3, #774]	; 0x306
  104ee0:	2240      	movs	r2, #64	; 0x40
  104ee2:	f8c3 2180 	str.w	r2, [r3, #384]	; 0x180
  104ee6:	601a      	str	r2, [r3, #0]
  104ee8:	bd10      	pop	{r4, pc}
  104eea:	bf00      	nop
  104eec:	3fff4c90 	.word	0x3fff4c90
  104ef0:	4001b000 	.word	0x4001b000
  104ef4:	4000c000 	.word	0x4000c000
  104ef8:	3fff4cd8 	.word	0x3fff4cd8
  104efc:	e000e100 	.word	0xe000e100

00104f00 <gpio_irq_free>:
  104f00:	4a06      	ldr	r2, [pc, #24]	; (104f1c <gpio_irq_free+0x1c>)
  104f02:	2100      	movs	r1, #0
  104f04:	6913      	ldr	r3, [r2, #16]
  104f06:	f423 5380 	bic.w	r3, r3, #4096	; 0x1000
  104f0a:	6113      	str	r3, [r2, #16]
  104f0c:	6883      	ldr	r3, [r0, #8]
  104f0e:	6842      	ldr	r2, [r0, #4]
  104f10:	615a      	str	r2, [r3, #20]
  104f12:	6802      	ldr	r2, [r0, #0]
  104f14:	4b02      	ldr	r3, [pc, #8]	; (104f20 <gpio_irq_free+0x20>)
  104f16:	f843 1022 	str.w	r1, [r3, r2, lsl #2]
  104f1a:	4770      	bx	lr
  104f1c:	4001b000 	.word	0x4001b000
  104f20:	3fff4c90 	.word	0x3fff4c90

00104f24 <i2c_wait>:
  104f24:	b082      	sub	sp, #8
  104f26:	2300      	movs	r3, #0
  104f28:	9301      	str	r3, [sp, #4]
  104f2a:	9001      	str	r0, [sp, #4]
  104f2c:	9b01      	ldr	r3, [sp, #4]
  104f2e:	b123      	cbz	r3, 104f3a <i2c_wait+0x16>
  104f30:	bf00      	nop
  104f32:	9b01      	ldr	r3, [sp, #4]
  104f34:	3b01      	subs	r3, #1
  104f36:	9301      	str	r3, [sp, #4]
  104f38:	e7f8      	b.n	104f2c <i2c_wait+0x8>
  104f3a:	b002      	add	sp, #8
  104f3c:	4770      	bx	lr
	...

00104f40 <i2c_do_Write.isra.0>:
  104f40:	b5f8      	push	{r3, r4, r5, r6, r7, lr}
  104f42:	4606      	mov	r6, r0
  104f44:	4c17      	ldr	r4, [pc, #92]	; (104fa4 <i2c_do_Write.isra.0+0x64>)
  104f46:	2500      	movs	r5, #0
  104f48:	2712      	movs	r7, #18
  104f4a:	4295      	cmp	r5, r2
  104f4c:	d228      	bcs.n	104fa0 <i2c_do_Write.isra.0+0x60>
  104f4e:	60a7      	str	r7, [r4, #8]
  104f50:	20c8      	movs	r0, #200	; 0xc8
  104f52:	f7ff ffe7 	bl	104f24 <i2c_wait>
  104f56:	5d4b      	ldrb	r3, [r1, r5]
  104f58:	2b13      	cmp	r3, #19
  104f5a:	d10a      	bne.n	104f72 <i2c_do_Write.isra.0+0x32>
  104f5c:	2310      	movs	r3, #16
  104f5e:	2011      	movs	r0, #17
  104f60:	60a3      	str	r3, [r4, #8]
  104f62:	60a3      	str	r3, [r4, #8]
  104f64:	60a3      	str	r3, [r4, #8]
  104f66:	60a0      	str	r0, [r4, #8]
  104f68:	60a3      	str	r3, [r4, #8]
  104f6a:	60a3      	str	r3, [r4, #8]
  104f6c:	60a0      	str	r0, [r4, #8]
  104f6e:	60a0      	str	r0, [r4, #8]
  104f70:	e001      	b.n	104f76 <i2c_do_Write.isra.0+0x36>
  104f72:	3501      	adds	r5, #1
  104f74:	60a3      	str	r3, [r4, #8]
  104f76:	20c8      	movs	r0, #200	; 0xc8
  104f78:	f7ff ffd4 	bl	104f24 <i2c_wait>
  104f7c:	2316      	movs	r3, #22
  104f7e:	20c8      	movs	r0, #200	; 0xc8
  104f80:	60a3      	str	r3, [r4, #8]
  104f82:	f7ff ffcf 	bl	104f24 <i2c_wait>
  104f86:	6830      	ldr	r0, [r6, #0]
  104f88:	6803      	ldr	r3, [r0, #0]
  104f8a:	06db      	lsls	r3, r3, #27
  104f8c:	d4fc      	bmi.n	104f88 <i2c_do_Write.isra.0+0x48>
  104f8e:	20c8      	movs	r0, #200	; 0xc8
  104f90:	f7ff ffc8 	bl	104f24 <i2c_wait>
  104f94:	6833      	ldr	r3, [r6, #0]
  104f96:	681b      	ldr	r3, [r3, #0]
  104f98:	075b      	lsls	r3, r3, #29
  104f9a:	d5d6      	bpl.n	104f4a <i2c_do_Write.isra.0+0xa>
  104f9c:	2002      	movs	r0, #2
  104f9e:	bdf8      	pop	{r3, r4, r5, r6, r7, pc}
  104fa0:	2000      	movs	r0, #0
  104fa2:	bdf8      	pop	{r3, r4, r5, r6, r7, pc}
  104fa4:	40007000 	.word	0x40007000

00104fa8 <i2c_init>:
  104fa8:	f000 b928 	b.w	1051fc <fI2cInit>

00104fac <i2c_frequency>:
  104fac:	f000 b9c6 	b.w	10533c <fI2cFrequency>

00104fb0 <i2c_start>:
  104fb0:	f000 b9d7 	b.w	105362 <fI2cStart>

00104fb4 <i2c_stop>:
  104fb4:	f000 b9e3 	b.w	10537e <fI2cStop>

00104fb8 <i2c_read>:
  104fb8:	e92d 41f3 	stmdb	sp!, {r0, r1, r4, r5, r6, r7, r8, lr}
  104fbc:	4606      	mov	r6, r0
  104fbe:	9101      	str	r1, [sp, #4]
  104fc0:	4617      	mov	r7, r2
  104fc2:	461c      	mov	r4, r3
  104fc4:	f7ff fff4 	bl	104fb0 <i2c_start>
  104fc8:	9b01      	ldr	r3, [sp, #4]
  104fca:	a902      	add	r1, sp, #8
  104fcc:	f043 0301 	orr.w	r3, r3, #1
  104fd0:	f841 3d04 	str.w	r3, [r1, #-4]!
  104fd4:	2201      	movs	r2, #1
  104fd6:	f106 000c 	add.w	r0, r6, #12
  104fda:	f7ff ffb1 	bl	104f40 <i2c_do_Write.isra.0>
  104fde:	4605      	mov	r5, r0
  104fe0:	bb28      	cbnz	r0, 10502e <i2c_read+0x76>
  104fe2:	4601      	mov	r1, r0
  104fe4:	1e7a      	subs	r2, r7, #1
  104fe6:	4f1a      	ldr	r7, [pc, #104]	; (105050 <i2c_read+0x98>)
  104fe8:	f04f 0813 	mov.w	r8, #19
  104fec:	428c      	cmp	r4, r1
  104fee:	d91d      	bls.n	10502c <i2c_read+0x74>
  104ff0:	f8c7 8008 	str.w	r8, [r7, #8]
  104ff4:	20c8      	movs	r0, #200	; 0xc8
  104ff6:	f7ff ff95 	bl	104f24 <i2c_wait>
  104ffa:	68f3      	ldr	r3, [r6, #12]
  104ffc:	6818      	ldr	r0, [r3, #0]
  104ffe:	0780      	lsls	r0, r0, #30
  105000:	d403      	bmi.n	10500a <i2c_read+0x52>
  105002:	6818      	ldr	r0, [r3, #0]
  105004:	0740      	lsls	r0, r0, #29
  105006:	d5f9      	bpl.n	104ffc <i2c_read+0x44>
  105008:	2502      	movs	r5, #2
  10500a:	687b      	ldr	r3, [r7, #4]
  10500c:	3101      	adds	r1, #1
  10500e:	428c      	cmp	r4, r1
  105010:	f802 3f01 	strb.w	r3, [r2, #1]!
  105014:	bf84      	itt	hi
  105016:	2310      	movhi	r3, #16
  105018:	60bb      	strhi	r3, [r7, #8]
  10501a:	68f3      	ldr	r3, [r6, #12]
  10501c:	6818      	ldr	r0, [r3, #0]
  10501e:	0600      	lsls	r0, r0, #24
  105020:	d411      	bmi.n	105046 <i2c_read+0x8e>
  105022:	681b      	ldr	r3, [r3, #0]
  105024:	075b      	lsls	r3, r3, #29
  105026:	d5e1      	bpl.n	104fec <i2c_read+0x34>
  105028:	2502      	movs	r5, #2
  10502a:	e000      	b.n	10502e <i2c_read+0x76>
  10502c:	b125      	cbz	r5, 105038 <i2c_read+0x80>
  10502e:	4630      	mov	r0, r6
  105030:	f7ff ffc0 	bl	104fb4 <i2c_stop>
  105034:	4628      	mov	r0, r5
  105036:	e008      	b.n	10504a <i2c_read+0x92>
  105038:	9b08      	ldr	r3, [sp, #32]
  10503a:	b113      	cbz	r3, 105042 <i2c_read+0x8a>
  10503c:	4630      	mov	r0, r6
  10503e:	f7ff ffb9 	bl	104fb4 <i2c_stop>
  105042:	4620      	mov	r0, r4
  105044:	e001      	b.n	10504a <i2c_read+0x92>
  105046:	2503      	movs	r5, #3
  105048:	e7f1      	b.n	10502e <i2c_read+0x76>
  10504a:	b002      	add	sp, #8
  10504c:	e8bd 81f0 	ldmia.w	sp!, {r4, r5, r6, r7, r8, pc}
  105050:	40007000 	.word	0x40007000

00105054 <i2c_write>:
  105054:	e92d 41f3 	stmdb	sp!, {r0, r1, r4, r5, r6, r7, r8, lr}
  105058:	4605      	mov	r5, r0
  10505a:	ae02      	add	r6, sp, #8
  10505c:	f846 1d04 	str.w	r1, [r6, #-4]!
  105060:	f105 070c 	add.w	r7, r5, #12
  105064:	4690      	mov	r8, r2
  105066:	461c      	mov	r4, r3
  105068:	f7ff ffa2 	bl	104fb0 <i2c_start>
  10506c:	4631      	mov	r1, r6
  10506e:	2201      	movs	r2, #1
  105070:	4638      	mov	r0, r7
  105072:	f7ff ff65 	bl	104f40 <i2c_do_Write.isra.0>
  105076:	4606      	mov	r6, r0
  105078:	b930      	cbnz	r0, 105088 <i2c_write+0x34>
  10507a:	4622      	mov	r2, r4
  10507c:	4641      	mov	r1, r8
  10507e:	4638      	mov	r0, r7
  105080:	f7ff ff5e 	bl	104f40 <i2c_do_Write.isra.0>
  105084:	4606      	mov	r6, r0
  105086:	b120      	cbz	r0, 105092 <i2c_write+0x3e>
  105088:	4628      	mov	r0, r5
  10508a:	f7ff ff93 	bl	104fb4 <i2c_stop>
  10508e:	4630      	mov	r0, r6
  105090:	e005      	b.n	10509e <i2c_write+0x4a>
  105092:	9b08      	ldr	r3, [sp, #32]
  105094:	b113      	cbz	r3, 10509c <i2c_write+0x48>
  105096:	4628      	mov	r0, r5
  105098:	f7ff ff8c 	bl	104fb4 <i2c_stop>
  10509c:	4620      	mov	r0, r4
  10509e:	b002      	add	sp, #8
  1050a0:	e8bd 81f0 	ldmia.w	sp!, {r4, r5, r6, r7, r8, pc}

001050a4 <expReset_AppLedON>:
  1050a4:	b57f      	push	{r0, r1, r2, r3, r4, r5, r6, lr}
  1050a6:	2400      	movs	r4, #0
  1050a8:	4b4e      	ldr	r3, [pc, #312]	; (1051e4 <expReset_AppLedON+0x140>)
  1050aa:	f8ad 4000 	strh.w	r4, [sp]
  1050ae:	f88d 4002 	strb.w	r4, [sp, #2]
  1050b2:	691a      	ldr	r2, [r3, #16]
  1050b4:	494c      	ldr	r1, [pc, #304]	; (1051e8 <expReset_AppLedON+0x144>)
  1050b6:	f422 5280 	bic.w	r2, r2, #4096	; 0x1000
  1050ba:	611a      	str	r2, [r3, #16]
  1050bc:	688a      	ldr	r2, [r1, #8]
  1050be:	4620      	mov	r0, r4
  1050c0:	f042 020c 	orr.w	r2, r2, #12
  1050c4:	608a      	str	r2, [r1, #8]
  1050c6:	691a      	ldr	r2, [r3, #16]
  1050c8:	212f      	movs	r1, #47	; 0x2f
  1050ca:	f022 5280 	bic.w	r2, r2, #268435456	; 0x10000000
  1050ce:	611a      	str	r2, [r3, #16]
  1050d0:	4a46      	ldr	r2, [pc, #280]	; (1051ec <expReset_AppLedON+0x148>)
  1050d2:	2620      	movs	r6, #32
  1050d4:	6091      	str	r1, [r2, #8]
  1050d6:	60d1      	str	r1, [r2, #12]
  1050d8:	691a      	ldr	r2, [r3, #16]
  1050da:	2105      	movs	r1, #5
  1050dc:	f422 3280 	bic.w	r2, r2, #65536	; 0x10000
  1050e0:	611a      	str	r2, [r3, #16]
  1050e2:	4a43      	ldr	r2, [pc, #268]	; (1051f0 <expReset_AppLedON+0x14c>)
  1050e4:	2503      	movs	r5, #3
  1050e6:	6091      	str	r1, [r2, #8]
  1050e8:	60d1      	str	r1, [r2, #12]
  1050ea:	691a      	ldr	r2, [r3, #16]
  1050ec:	4941      	ldr	r1, [pc, #260]	; (1051f4 <expReset_AppLedON+0x150>)
  1050ee:	f442 3280 	orr.w	r2, r2, #65536	; 0x10000
  1050f2:	611a      	str	r2, [r3, #16]
  1050f4:	691a      	ldr	r2, [r3, #16]
  1050f6:	f022 0280 	bic.w	r2, r2, #128	; 0x80
  1050fa:	611a      	str	r2, [r3, #16]
  1050fc:	f5a3 33a0 	sub.w	r3, r3, #81920	; 0x14000
  105100:	7c1a      	ldrb	r2, [r3, #16]
  105102:	f042 0280 	orr.w	r2, r2, #128	; 0x80
  105106:	741a      	strb	r2, [r3, #16]
  105108:	7c1a      	ldrb	r2, [r3, #16]
  10510a:	f042 0240 	orr.w	r2, r2, #64	; 0x40
  10510e:	741a      	strb	r2, [r3, #16]
  105110:	7c1a      	ldrb	r2, [r3, #16]
  105112:	f042 0220 	orr.w	r2, r2, #32
  105116:	741a      	strb	r2, [r3, #16]
  105118:	f000 f910 	bl	10533c <fI2cFrequency>
  10511c:	2307      	movs	r3, #7
  10511e:	4620      	mov	r0, r4
  105120:	f88d 3001 	strb.w	r3, [sp, #1]
  105124:	f88d 6000 	strb.w	r6, [sp]
  105128:	f88d 4002 	strb.w	r4, [sp, #2]
  10512c:	f7ff ff40 	bl	104fb0 <i2c_start>
  105130:	2203      	movs	r2, #3
  105132:	4669      	mov	r1, sp
  105134:	200c      	movs	r0, #12
  105136:	f7ff ff03 	bl	104f40 <i2c_do_Write.isra.0>
  10513a:	4620      	mov	r0, r4
  10513c:	f7ff ff3a 	bl	104fb4 <i2c_stop>
  105140:	4620      	mov	r0, r4
  105142:	f88d 6000 	strb.w	r6, [sp]
  105146:	f88d 5001 	strb.w	r5, [sp, #1]
  10514a:	f88d 4002 	strb.w	r4, [sp, #2]
  10514e:	f7ff ff2f 	bl	104fb0 <i2c_start>
  105152:	462a      	mov	r2, r5
  105154:	4669      	mov	r1, sp
  105156:	200c      	movs	r0, #12
  105158:	f7ff fef2 	bl	104f40 <i2c_do_Write.isra.0>
  10515c:	4620      	mov	r0, r4
  10515e:	f7ff ff29 	bl	104fb4 <i2c_stop>
  105162:	f64f 70ff 	movw	r0, #65535	; 0xffff
  105166:	f7ff fedd 	bl	104f24 <i2c_wait>
  10516a:	f88d 6000 	strb.w	r6, [sp]
  10516e:	4620      	mov	r0, r4
  105170:	26ff      	movs	r6, #255	; 0xff
  105172:	f88d 5001 	strb.w	r5, [sp, #1]
  105176:	f88d 6002 	strb.w	r6, [sp, #2]
  10517a:	f7ff ff19 	bl	104fb0 <i2c_start>
  10517e:	462a      	mov	r2, r5
  105180:	4669      	mov	r1, sp
  105182:	200c      	movs	r0, #12
  105184:	f7ff fedc 	bl	104f40 <i2c_do_Write.isra.0>
  105188:	4620      	mov	r0, r4
  10518a:	f7ff ff13 	bl	104fb4 <i2c_stop>
  10518e:	4a1a      	ldr	r2, [pc, #104]	; (1051f8 <expReset_AppLedON+0x154>)
  105190:	ab01      	add	r3, sp, #4
  105192:	6851      	ldr	r1, [r2, #4]
  105194:	6810      	ldr	r0, [r2, #0]
  105196:	f88d 6001 	strb.w	r6, [sp, #1]
  10519a:	c303      	stmia	r3!, {r0, r1}
  10519c:	8911      	ldrh	r1, [r2, #8]
  10519e:	7a92      	ldrb	r2, [r2, #10]
  1051a0:	8019      	strh	r1, [r3, #0]
  1051a2:	709a      	strb	r2, [r3, #2]
  1051a4:	2306      	movs	r3, #6
  1051a6:	f88d 3000 	strb.w	r3, [sp]
  1051aa:	f88d 6002 	strb.w	r6, [sp, #2]
  1051ae:	2000      	movs	r0, #0
  1051b0:	f7ff fefe 	bl	104fb0 <i2c_start>
  1051b4:	ab01      	add	r3, sp, #4
  1051b6:	1919      	adds	r1, r3, r4
  1051b8:	2201      	movs	r2, #1
  1051ba:	200c      	movs	r0, #12
  1051bc:	f7ff fec0 	bl	104f40 <i2c_do_Write.isra.0>
  1051c0:	2203      	movs	r2, #3
  1051c2:	4669      	mov	r1, sp
  1051c4:	200c      	movs	r0, #12
  1051c6:	f7ff febb 	bl	104f40 <i2c_do_Write.isra.0>
  1051ca:	2000      	movs	r0, #0
  1051cc:	f7ff fef2 	bl	104fb4 <i2c_stop>
  1051d0:	3401      	adds	r4, #1
  1051d2:	f64f 70ff 	movw	r0, #65535	; 0xffff
  1051d6:	f7ff fea5 	bl	104f24 <i2c_wait>
  1051da:	2c0c      	cmp	r4, #12
  1051dc:	d1e7      	bne.n	1051ae <expReset_AppLedON+0x10a>
  1051de:	b004      	add	sp, #16
  1051e0:	bd70      	pop	{r4, r5, r6, pc}
  1051e2:	bf00      	nop
  1051e4:	4001b000 	.word	0x4001b000
  1051e8:	4000c000 	.word	0x4000c000
  1051ec:	4001c000 	.word	0x4001c000
  1051f0:	40010000 	.word	0x40010000
  1051f4:	000f4240 	.word	0x000f4240
  1051f8:	0010df24 	.word	0x0010df24

001051fc <fI2cInit>:
  1051fc:	b5f8      	push	{r3, r4, r5, r6, r7, lr}
  1051fe:	460d      	mov	r5, r1
  105200:	4604      	mov	r4, r0
  105202:	4945      	ldr	r1, [pc, #276]	; (105318 <fI2cInit+0x11c>)
  105204:	4628      	mov	r0, r5
  105206:	4616      	mov	r6, r2
  105208:	f7fd fcba 	bl	102b80 <pinmap_peripheral>
  10520c:	4943      	ldr	r1, [pc, #268]	; (10531c <fI2cInit+0x120>)
  10520e:	4607      	mov	r7, r0
  105210:	4630      	mov	r0, r6
  105212:	f7fd fcb5 	bl	102b80 <pinmap_peripheral>
  105216:	4601      	mov	r1, r0
  105218:	4638      	mov	r0, r7
  10521a:	f7fd fc93 	bl	102b44 <pinmap_merge>
  10521e:	60e0      	str	r0, [r4, #12]
  105220:	3001      	adds	r0, #1
  105222:	d104      	bne.n	10522e <fI2cInit+0x32>
  105224:	2249      	movs	r2, #73	; 0x49
  105226:	493e      	ldr	r1, [pc, #248]	; (105320 <fI2cInit+0x124>)
  105228:	483e      	ldr	r0, [pc, #248]	; (105324 <fI2cInit+0x128>)
  10522a:	f7fd fd87 	bl	102d3c <mbed_assert_internal>
  10522e:	68e3      	ldr	r3, [r4, #12]
  105230:	2200      	movs	r2, #0
  105232:	60da      	str	r2, [r3, #12]
  105234:	68e2      	ldr	r2, [r4, #12]
  105236:	4b3c      	ldr	r3, [pc, #240]	; (105328 <fI2cInit+0x12c>)
  105238:	429a      	cmp	r2, r3
  10523a:	4a3c      	ldr	r2, [pc, #240]	; (10532c <fI2cInit+0x130>)
  10523c:	4b3c      	ldr	r3, [pc, #240]	; (105330 <fI2cInit+0x134>)
  10523e:	6911      	ldr	r1, [r2, #16]
  105240:	bf0b      	itete	eq
  105242:	f021 0180 	biceq.w	r1, r1, #128	; 0x80
  105246:	f421 5100 	bicne.w	r1, r1, #8192	; 0x2000
  10524a:	6111      	streq	r1, [r2, #16]
  10524c:	6111      	strne	r1, [r2, #16]
  10524e:	bf0c      	ite	eq
  105250:	2220      	moveq	r2, #32
  105252:	f44f 2280 	movne.w	r2, #262144	; 0x40000
  105256:	f8c3 2180 	str.w	r2, [r3, #384]	; 0x180
  10525a:	601a      	str	r2, [r3, #0]
  10525c:	68e2      	ldr	r2, [r4, #12]
  10525e:	7c13      	ldrb	r3, [r2, #16]
  105260:	f043 0340 	orr.w	r3, r3, #64	; 0x40
  105264:	7413      	strb	r3, [r2, #16]
  105266:	68e2      	ldr	r2, [r4, #12]
  105268:	7c13      	ldrb	r3, [r2, #16]
  10526a:	f043 0320 	orr.w	r3, r3, #32
  10526e:	7413      	strb	r3, [r2, #16]
  105270:	f000 fb7e 	bl	105970 <fClockGetPeriphClockfrequency>
  105274:	4b2f      	ldr	r3, [pc, #188]	; (105334 <fI2cInit+0x138>)
  105276:	68e2      	ldr	r2, [r4, #12]
  105278:	fbb0 f0f3 	udiv	r0, r0, r3
  10527c:	7c13      	ldrb	r3, [r2, #16]
  10527e:	0880      	lsrs	r0, r0, #2
  105280:	3802      	subs	r0, #2
  105282:	f360 0304 	bfi	r3, r0, #0, #5
  105286:	7413      	strb	r3, [r2, #16]
  105288:	68e3      	ldr	r3, [r4, #12]
  10528a:	f3c0 1047 	ubfx	r0, r0, #5, #8
  10528e:	6158      	str	r0, [r3, #20]
  105290:	4921      	ldr	r1, [pc, #132]	; (105318 <fI2cInit+0x11c>)
  105292:	4628      	mov	r0, r5
  105294:	f7fd fc38 	bl	102b08 <pinmap_pinout>
  105298:	4630      	mov	r0, r6
  10529a:	4920      	ldr	r1, [pc, #128]	; (10531c <fI2cInit+0x120>)
  10529c:	f7fd fc34 	bl	102b08 <pinmap_pinout>
  1052a0:	4628      	mov	r0, r5
  1052a2:	2105      	movs	r1, #5
  1052a4:	f000 fbba 	bl	105a1c <pin_mode>
  1052a8:	4630      	mov	r0, r6
  1052aa:	2105      	movs	r1, #5
  1052ac:	f000 fbb6 	bl	105a1c <pin_mode>
  1052b0:	4b1e      	ldr	r3, [pc, #120]	; (10532c <fI2cInit+0x130>)
  1052b2:	00a8      	lsls	r0, r5, #2
  1052b4:	691a      	ldr	r2, [r3, #16]
  1052b6:	f100 4080 	add.w	r0, r0, #1073741824	; 0x40000000
  1052ba:	f022 5280 	bic.w	r2, r2, #268435456	; 0x10000000
  1052be:	611a      	str	r2, [r3, #16]
  1052c0:	f500 30e0 	add.w	r0, r0, #114688	; 0x1c000
  1052c4:	7807      	ldrb	r7, [r0, #0]
  1052c6:	2201      	movs	r2, #1
  1052c8:	00b1      	lsls	r1, r6, #2
  1052ca:	f362 0784 	bfi	r7, r2, #2, #3
  1052ce:	f101 4180 	add.w	r1, r1, #1073741824	; 0x40000000
  1052d2:	7007      	strb	r7, [r0, #0]
  1052d4:	f501 31e0 	add.w	r1, r1, #114688	; 0x1c000
  1052d8:	7808      	ldrb	r0, [r1, #0]
  1052da:	fa02 f505 	lsl.w	r5, r2, r5
  1052de:	f362 0084 	bfi	r0, r2, #2, #3
  1052e2:	7008      	strb	r0, [r1, #0]
  1052e4:	6919      	ldr	r1, [r3, #16]
  1052e6:	4814      	ldr	r0, [pc, #80]	; (105338 <fI2cInit+0x13c>)
  1052e8:	f041 5180 	orr.w	r1, r1, #268435456	; 0x10000000
  1052ec:	6119      	str	r1, [r3, #16]
  1052ee:	6919      	ldr	r1, [r3, #16]
  1052f0:	fa02 f606 	lsl.w	r6, r2, r6
  1052f4:	f421 5180 	bic.w	r1, r1, #4096	; 0x1000
  1052f8:	6119      	str	r1, [r3, #16]
  1052fa:	6881      	ldr	r1, [r0, #8]
  1052fc:	432e      	orrs	r6, r5
  1052fe:	430e      	orrs	r6, r1
  105300:	6086      	str	r6, [r0, #8]
  105302:	691a      	ldr	r2, [r3, #16]
  105304:	f442 5280 	orr.w	r2, r2, #4096	; 0x1000
  105308:	611a      	str	r2, [r3, #16]
  10530a:	68e2      	ldr	r2, [r4, #12]
  10530c:	7c13      	ldrb	r3, [r2, #16]
  10530e:	f043 0380 	orr.w	r3, r3, #128	; 0x80
  105312:	7413      	strb	r3, [r2, #16]
  105314:	bdf8      	pop	{r3, r4, r5, r6, r7, pc}
  105316:	bf00      	nop
  105318:	0010e040 	.word	0x0010e040
  10531c:	0010e0b8 	.word	0x0010e0b8
  105320:	0010df2f 	.word	0x0010df2f
  105324:	0010df7b 	.word	0x0010df7b
  105328:	40007000 	.word	0x40007000
  10532c:	4001b000 	.word	0x4001b000
  105330:	e000e100 	.word	0xe000e100
  105334:	000186a0 	.word	0x000186a0
  105338:	4000c000 	.word	0x4000c000

0010533c <fI2cFrequency>:
  10533c:	b538      	push	{r3, r4, r5, lr}
  10533e:	4605      	mov	r5, r0
  105340:	460c      	mov	r4, r1
  105342:	f000 fb15 	bl	105970 <fClockGetPeriphClockfrequency>
  105346:	fbb0 f0f4 	udiv	r0, r0, r4
  10534a:	68ea      	ldr	r2, [r5, #12]
  10534c:	0880      	lsrs	r0, r0, #2
  10534e:	7c13      	ldrb	r3, [r2, #16]
  105350:	3802      	subs	r0, #2
  105352:	f360 0304 	bfi	r3, r0, #0, #5
  105356:	7413      	strb	r3, [r2, #16]
  105358:	68eb      	ldr	r3, [r5, #12]
  10535a:	f3c0 1047 	ubfx	r0, r0, #5, #8
  10535e:	6158      	str	r0, [r3, #20]
  105360:	bd38      	pop	{r3, r4, r5, pc}

00105362 <fI2cStart>:
  105362:	b510      	push	{r4, lr}
  105364:	4604      	mov	r4, r0
  105366:	68c2      	ldr	r2, [r0, #12]
  105368:	6813      	ldr	r3, [r2, #0]
  10536a:	07db      	lsls	r3, r3, #31
  10536c:	d5fc      	bpl.n	105368 <fI2cStart+0x6>
  10536e:	2001      	movs	r0, #1
  105370:	f001 fd90 	bl	106e94 <wait_us>
  105374:	68e3      	ldr	r3, [r4, #12]
  105376:	2215      	movs	r2, #21
  105378:	609a      	str	r2, [r3, #8]
  10537a:	2000      	movs	r0, #0
  10537c:	bd10      	pop	{r4, pc}

0010537e <fI2cStop>:
  10537e:	b510      	push	{r4, lr}
  105380:	4604      	mov	r4, r0
  105382:	68c2      	ldr	r2, [r0, #12]
  105384:	6813      	ldr	r3, [r2, #0]
  105386:	07db      	lsls	r3, r3, #31
  105388:	d5fc      	bpl.n	105384 <fI2cStop+0x6>
  10538a:	2001      	movs	r0, #1
  10538c:	f001 fd82 	bl	106e94 <wait_us>
  105390:	68e3      	ldr	r3, [r4, #12]
  105392:	2214      	movs	r2, #20
  105394:	609a      	str	r2, [r3, #8]
  105396:	681b      	ldr	r3, [r3, #0]
  105398:	f013 0f34 	tst.w	r3, #52	; 0x34
  10539c:	bf14      	ite	ne
  10539e:	f06f 0001 	mvnne.w	r0, #1
  1053a2:	2000      	moveq	r0, #0
  1053a4:	bd10      	pop	{r4, pc}

001053a6 <lp_ticker_init>:
  1053a6:	f000 bb91 	b.w	105acc <fRtcInit>

001053aa <lp_ticker_read>:
  1053aa:	b508      	push	{r3, lr}
  1053ac:	f000 fbe0 	bl	105b70 <fRtcRead>
  1053b0:	bd08      	pop	{r3, pc}

001053b2 <lp_ticker_set_interrupt>:
  1053b2:	f000 bc0f 	b.w	105bd4 <fRtcSetInterrupt>

001053b6 <lp_ticker_disable_interrupt>:
  1053b6:	f000 bbc5 	b.w	105b44 <fRtcDisableInterrupt>

001053ba <lp_ticker_clear_interrupt>:
  1053ba:	f000 bbcf 	b.w	105b5c <fRtcClearInterrupt>
	...

001053c0 <fSpiInit>:
  1053c0:	e92d 4ff7 	stmdb	sp!, {r0, r1, r2, r4, r5, r6, r7, r8, r9, r10, r11, lr}
  1053c4:	468a      	mov	r10, r1
  1053c6:	4606      	mov	r6, r0
  1053c8:	495f      	ldr	r1, [pc, #380]	; (105548 <fSpiInit+0x188>)
  1053ca:	4650      	mov	r0, r10
  1053cc:	4691      	mov	r9, r2
  1053ce:	461c      	mov	r4, r3
  1053d0:	f99d 8030 	ldrsb.w	r8, [sp, #48]	; 0x30
  1053d4:	f7fd fbd4 	bl	102b80 <pinmap_peripheral>
  1053d8:	495c      	ldr	r1, [pc, #368]	; (10554c <fSpiInit+0x18c>)
  1053da:	4605      	mov	r5, r0
  1053dc:	4648      	mov	r0, r9
  1053de:	f7fd fbcf 	bl	102b80 <pinmap_peripheral>
  1053e2:	495b      	ldr	r1, [pc, #364]	; (105550 <fSpiInit+0x190>)
  1053e4:	9001      	str	r0, [sp, #4]
  1053e6:	4620      	mov	r0, r4
  1053e8:	f7fd fbca 	bl	102b80 <pinmap_peripheral>
  1053ec:	4959      	ldr	r1, [pc, #356]	; (105554 <fSpiInit+0x194>)
  1053ee:	4607      	mov	r7, r0
  1053f0:	4640      	mov	r0, r8
  1053f2:	f7fd fbc5 	bl	102b80 <pinmap_peripheral>
  1053f6:	9b01      	ldr	r3, [sp, #4]
  1053f8:	4683      	mov	r11, r0
  1053fa:	4619      	mov	r1, r3
  1053fc:	4628      	mov	r0, r5
  1053fe:	f7fd fba1 	bl	102b44 <pinmap_merge>
  105402:	4659      	mov	r1, r11
  105404:	4605      	mov	r5, r0
  105406:	4638      	mov	r0, r7
  105408:	f7fd fb9c 	bl	102b44 <pinmap_merge>
  10540c:	4601      	mov	r1, r0
  10540e:	4628      	mov	r0, r5
  105410:	f7fd fb98 	bl	102b44 <pinmap_merge>
  105414:	6030      	str	r0, [r6, #0]
  105416:	3001      	adds	r0, #1
  105418:	d104      	bne.n	105424 <fSpiInit+0x64>
  10541a:	2243      	movs	r2, #67	; 0x43
  10541c:	494e      	ldr	r1, [pc, #312]	; (105558 <fSpiInit+0x198>)
  10541e:	484f      	ldr	r0, [pc, #316]	; (10555c <fSpiInit+0x19c>)
  105420:	f7fd fc8c 	bl	102d3c <mbed_assert_internal>
  105424:	4d4e      	ldr	r5, [pc, #312]	; (105560 <fSpiInit+0x1a0>)
  105426:	6832      	ldr	r2, [r6, #0]
  105428:	4b4e      	ldr	r3, [pc, #312]	; (105564 <fSpiInit+0x1a4>)
  10542a:	4620      	mov	r0, r4
  10542c:	429a      	cmp	r2, r3
  10542e:	692b      	ldr	r3, [r5, #16]
  105430:	4947      	ldr	r1, [pc, #284]	; (105550 <fSpiInit+0x190>)
  105432:	bf0c      	ite	eq
  105434:	f023 0340 	biceq.w	r3, r3, #64	; 0x40
  105438:	f423 7300 	bicne.w	r3, r3, #512	; 0x200
  10543c:	612b      	str	r3, [r5, #16]
  10543e:	692b      	ldr	r3, [r5, #16]
  105440:	2701      	movs	r7, #1
  105442:	f423 3380 	bic.w	r3, r3, #65536	; 0x10000
  105446:	612b      	str	r3, [r5, #16]
  105448:	f7fd fb5e 	bl	102b08 <pinmap_pinout>
  10544c:	493e      	ldr	r1, [pc, #248]	; (105548 <fSpiInit+0x188>)
  10544e:	4650      	mov	r0, r10
  105450:	f7fd fb5a 	bl	102b08 <pinmap_pinout>
  105454:	692b      	ldr	r3, [r5, #16]
  105456:	fa07 f004 	lsl.w	r0, r7, r4
  10545a:	f423 5380 	bic.w	r3, r3, #4096	; 0x1000
  10545e:	612b      	str	r3, [r5, #16]
  105460:	4b41      	ldr	r3, [pc, #260]	; (105568 <fSpiInit+0x1a8>)
  105462:	fa07 f208 	lsl.w	r2, r7, r8
  105466:	6899      	ldr	r1, [r3, #8]
  105468:	4302      	orrs	r2, r0
  10546a:	fa07 f00a 	lsl.w	r0, r7, r10
  10546e:	4302      	orrs	r2, r0
  105470:	430a      	orrs	r2, r1
  105472:	609a      	str	r2, [r3, #8]
  105474:	68da      	ldr	r2, [r3, #12]
  105476:	fa07 f109 	lsl.w	r1, r7, r9
  10547a:	430a      	orrs	r2, r1
  10547c:	60da      	str	r2, [r3, #12]
  10547e:	692b      	ldr	r3, [r5, #16]
  105480:	4620      	mov	r0, r4
  105482:	f023 5380 	bic.w	r3, r3, #268435456	; 0x10000000
  105486:	00a4      	lsls	r4, r4, #2
  105488:	612b      	str	r3, [r5, #16]
  10548a:	2100      	movs	r1, #0
  10548c:	f104 4480 	add.w	r4, r4, #1073741824	; 0x40000000
  105490:	f000 fac4 	bl	105a1c <pin_mode>
  105494:	f504 34e0 	add.w	r4, r4, #114688	; 0x1c000
  105498:	2102      	movs	r1, #2
  10549a:	4650      	mov	r0, r10
  10549c:	f000 fabe 	bl	105a1c <pin_mode>
  1054a0:	7823      	ldrb	r3, [r4, #0]
  1054a2:	f1b9 3fff 	cmp.w	r9, #4294967295
  1054a6:	f367 0384 	bfi	r3, r7, #2, #3
  1054aa:	7023      	strb	r3, [r4, #0]
  1054ac:	7923      	ldrb	r3, [r4, #4]
  1054ae:	f367 0384 	bfi	r3, r7, #2, #3
  1054b2:	7123      	strb	r3, [r4, #4]
  1054b4:	d00b      	beq.n	1054ce <fSpiInit+0x10e>
  1054b6:	4925      	ldr	r1, [pc, #148]	; (10554c <fSpiInit+0x18c>)
  1054b8:	4648      	mov	r0, r9
  1054ba:	f7fd fb25 	bl	102b08 <pinmap_pinout>
  1054be:	2105      	movs	r1, #5
  1054c0:	4648      	mov	r0, r9
  1054c2:	f000 faab 	bl	105a1c <pin_mode>
  1054c6:	7a23      	ldrb	r3, [r4, #8]
  1054c8:	f367 0384 	bfi	r3, r7, #2, #3
  1054cc:	7223      	strb	r3, [r4, #8]
  1054ce:	f1b8 3fff 	cmp.w	r8, #4294967295
  1054d2:	d011      	beq.n	1054f8 <fSpiInit+0x138>
  1054d4:	491f      	ldr	r1, [pc, #124]	; (105554 <fSpiInit+0x194>)
  1054d6:	4640      	mov	r0, r8
  1054d8:	f7fd fb16 	bl	102b08 <pinmap_pinout>
  1054dc:	2102      	movs	r1, #2
  1054de:	4640      	mov	r0, r8
  1054e0:	f000 fa9c 	bl	105a1c <pin_mode>
  1054e4:	7b23      	ldrb	r3, [r4, #12]
  1054e6:	2201      	movs	r2, #1
  1054e8:	f362 0384 	bfi	r3, r2, #2, #3
  1054ec:	4a1d      	ldr	r2, [pc, #116]	; (105564 <fSpiInit+0x1a4>)
  1054ee:	7323      	strb	r3, [r4, #12]
  1054f0:	7d13      	ldrb	r3, [r2, #20]
  1054f2:	f36f 0303 	bfc	r3, #0, #4
  1054f6:	7513      	strb	r3, [r2, #20]
  1054f8:	4b19      	ldr	r3, [pc, #100]	; (105560 <fSpiInit+0x1a0>)
  1054fa:	2400      	movs	r4, #0
  1054fc:	691a      	ldr	r2, [r3, #16]
  1054fe:	f042 5280 	orr.w	r2, r2, #268435456	; 0x10000000
  105502:	611a      	str	r2, [r3, #16]
  105504:	691a      	ldr	r2, [r3, #16]
  105506:	f442 5280 	orr.w	r2, r2, #4096	; 0x1000
  10550a:	611a      	str	r2, [r3, #16]
  10550c:	691a      	ldr	r2, [r3, #16]
  10550e:	f442 3280 	orr.w	r2, r2, #65536	; 0x10000
  105512:	611a      	str	r2, [r3, #16]
  105514:	6833      	ldr	r3, [r6, #0]
  105516:	60dc      	str	r4, [r3, #12]
  105518:	f000 fa2a 	bl	105970 <fClockGetPeriphClockfrequency>
  10551c:	4b13      	ldr	r3, [pc, #76]	; (10556c <fSpiInit+0x1ac>)
  10551e:	2201      	movs	r2, #1
  105520:	fbb0 f0f3 	udiv	r0, r0, r3
  105524:	6833      	ldr	r3, [r6, #0]
  105526:	0840      	lsrs	r0, r0, #1
  105528:	3801      	subs	r0, #1
  10552a:	6098      	str	r0, [r3, #8]
  10552c:	629a      	str	r2, [r3, #40]	; 0x28
  10552e:	62da      	str	r2, [r3, #44]	; 0x2c
  105530:	22ff      	movs	r2, #255	; 0xff
  105532:	61dc      	str	r4, [r3, #28]
  105534:	625a      	str	r2, [r3, #36]	; 0x24
  105536:	2210      	movs	r2, #16
  105538:	615a      	str	r2, [r3, #20]
  10553a:	6833      	ldr	r3, [r6, #0]
  10553c:	2225      	movs	r2, #37	; 0x25
  10553e:	619c      	str	r4, [r3, #24]
  105540:	60da      	str	r2, [r3, #12]
  105542:	b003      	add	sp, #12
  105544:	e8bd 8ff0 	ldmia.w	sp!, {r4, r5, r6, r7, r8, r9, r10, r11, pc}
  105548:	0010e130 	.word	0x0010e130
  10554c:	0010dfe0 	.word	0x0010dfe0
  105550:	0010e010 	.word	0x0010e010
  105554:	0010e160 	.word	0x0010e160
  105558:	0010df93 	.word	0x0010df93
  10555c:	0010df7b 	.word	0x0010df7b
  105560:	4001b000 	.word	0x4001b000
  105564:	40006000 	.word	0x40006000
  105568:	4000c000 	.word	0x4000c000
  10556c:	000f4240 	.word	0x000f4240

00105570 <us_timer_isr>:
  105570:	2200      	movs	r2, #0
  105572:	f04f 4380 	mov.w	r3, #1073741824	; 0x40000000
  105576:	60da      	str	r2, [r3, #12]
  105578:	4a02      	ldr	r2, [pc, #8]	; (105584 <us_timer_isr+0x14>)
  10557a:	6813      	ldr	r3, [r2, #0]
  10557c:	3301      	adds	r3, #1
  10557e:	6013      	str	r3, [r2, #0]
  105580:	4770      	bx	lr
  105582:	bf00      	nop
  105584:	3fff4cdc 	.word	0x3fff4cdc

00105588 <us_timer_init>:
  105588:	4b16      	ldr	r3, [pc, #88]	; (1055e4 <us_timer_init+0x5c>)
  10558a:	21d4      	movs	r1, #212	; 0xd4
  10558c:	691a      	ldr	r2, [r3, #16]
  10558e:	f022 0201 	bic.w	r2, r2, #1
  105592:	611a      	str	r2, [r3, #16]
  105594:	691a      	ldr	r2, [r3, #16]
  105596:	f022 0202 	bic.w	r2, r2, #2
  10559a:	611a      	str	r2, [r3, #16]
  10559c:	f64f 72ff 	movw	r2, #65535	; 0xffff
  1055a0:	f04f 4380 	mov.w	r3, #1073741824	; 0x40000000
  1055a4:	601a      	str	r2, [r3, #0]
  1055a6:	6099      	str	r1, [r3, #8]
  1055a8:	f503 5380 	add.w	r3, r3, #4096	; 0x1000
  1055ac:	601a      	str	r2, [r3, #0]
  1055ae:	2254      	movs	r2, #84	; 0x54
  1055b0:	609a      	str	r2, [r3, #8]
  1055b2:	4b0d      	ldr	r3, [pc, #52]	; (1055e8 <us_timer_init+0x60>)
  1055b4:	490d      	ldr	r1, [pc, #52]	; (1055ec <us_timer_init+0x64>)
  1055b6:	689a      	ldr	r2, [r3, #8]
  1055b8:	6411      	str	r1, [r2, #64]	; 0x40
  1055ba:	689b      	ldr	r3, [r3, #8]
  1055bc:	4a0c      	ldr	r2, [pc, #48]	; (1055f0 <us_timer_init+0x68>)
  1055be:	2102      	movs	r1, #2
  1055c0:	645a      	str	r2, [r3, #68]	; 0x44
  1055c2:	4b0c      	ldr	r3, [pc, #48]	; (1055f4 <us_timer_init+0x6c>)
  1055c4:	2210      	movs	r2, #16
  1055c6:	f883 2300 	strb.w	r2, [r3, #768]	; 0x300
  1055ca:	2220      	movs	r2, #32
  1055cc:	f883 2301 	strb.w	r2, [r3, #769]	; 0x301
  1055d0:	2201      	movs	r2, #1
  1055d2:	f8c3 2180 	str.w	r2, [r3, #384]	; 0x180
  1055d6:	f8c3 1180 	str.w	r1, [r3, #384]	; 0x180
  1055da:	601a      	str	r2, [r3, #0]
  1055dc:	6019      	str	r1, [r3, #0]
  1055de:	4b06      	ldr	r3, [pc, #24]	; (1055f8 <us_timer_init+0x70>)
  1055e0:	601a      	str	r2, [r3, #0]
  1055e2:	4770      	bx	lr
  1055e4:	4001b000 	.word	0x4001b000
  1055e8:	e000ed00 	.word	0xe000ed00
  1055ec:	00105571 	.word	0x00105571
  1055f0:	00105669 	.word	0x00105669
  1055f4:	e000e100 	.word	0xe000e100
  1055f8:	3fff4ce4 	.word	0x3fff4ce4

001055fc <us_ticker_init>:
  1055fc:	4b02      	ldr	r3, [pc, #8]	; (105608 <us_ticker_init+0xc>)
  1055fe:	681b      	ldr	r3, [r3, #0]
  105600:	b90b      	cbnz	r3, 105606 <us_ticker_init+0xa>
  105602:	f7ff bfc1 	b.w	105588 <us_timer_init>
  105606:	4770      	bx	lr
  105608:	3fff4ce4 	.word	0x3fff4ce4

0010560c <us_ticker_read>:
  10560c:	b508      	push	{r3, lr}
  10560e:	4b13      	ldr	r3, [pc, #76]	; (10565c <us_ticker_read+0x50>)
  105610:	681b      	ldr	r3, [r3, #0]
  105612:	b90b      	cbnz	r3, 105618 <us_ticker_read+0xc>
  105614:	f7ff ffb8 	bl	105588 <us_timer_init>
  105618:	4911      	ldr	r1, [pc, #68]	; (105660 <us_ticker_read+0x54>)
  10561a:	f04f 4280 	mov.w	r2, #1073741824	; 0x40000000
  10561e:	2001      	movs	r0, #1
  105620:	6853      	ldr	r3, [r2, #4]
  105622:	f8c1 0080 	str.w	r0, [r1, #128]	; 0x80
  105626:	f3bf 8f4f 	dsb	sy
  10562a:	f3bf 8f6f 	isb	sy
  10562e:	6891      	ldr	r1, [r2, #8]
  105630:	f411 7f80 	tst.w	r1, #256	; 0x100
  105634:	bf18      	it	ne
  105636:	2300      	movne	r3, #0
  105638:	490a      	ldr	r1, [pc, #40]	; (105664 <us_ticker_read+0x58>)
  10563a:	bf1f      	itttt	ne
  10563c:	60d3      	strne	r3, [r2, #12]
  10563e:	680b      	ldrne	r3, [r1, #0]
  105640:	3301      	addne	r3, #1
  105642:	600b      	strne	r3, [r1, #0]
  105644:	bf18      	it	ne
  105646:	6853      	ldrne	r3, [r2, #4]
  105648:	6808      	ldr	r0, [r1, #0]
  10564a:	4a05      	ldr	r2, [pc, #20]	; (105660 <us_ticker_read+0x54>)
  10564c:	f5c3 437f 	rsb	r3, r3, #65280	; 0xff00
  105650:	33ff      	adds	r3, #255	; 0xff
  105652:	2101      	movs	r1, #1
  105654:	6011      	str	r1, [r2, #0]
  105656:	ea43 4000 	orr.w	r0, r3, r0, lsl #16
  10565a:	bd08      	pop	{r3, pc}
  10565c:	3fff4ce4 	.word	0x3fff4ce4
  105660:	e000e100 	.word	0xe000e100
  105664:	3fff4cdc 	.word	0x3fff4cdc

00105668 <us_ticker_isr>:
  105668:	b570      	push	{r4, r5, r6, lr}
  10566a:	4c10      	ldr	r4, [pc, #64]	; (1056ac <us_ticker_isr+0x44>)
  10566c:	2600      	movs	r6, #0
  10566e:	4b10      	ldr	r3, [pc, #64]	; (1056b0 <us_ticker_isr+0x48>)
  105670:	60e6      	str	r6, [r4, #12]
  105672:	681d      	ldr	r5, [r3, #0]
  105674:	f7ff ffca 	bl	10560c <us_ticker_read>
  105678:	1a28      	subs	r0, r5, r0
  10567a:	42b0      	cmp	r0, r6
  10567c:	dc07      	bgt.n	10568e <us_ticker_isr+0x26>
  10567e:	8923      	ldrh	r3, [r4, #8]
  105680:	f366 13c7 	bfi	r3, r6, #7, #1
  105684:	8123      	strh	r3, [r4, #8]
  105686:	e8bd 4070 	ldmia.w	sp!, {r4, r5, r6, lr}
  10568a:	f7fd bb51 	b.w	102d30 <us_ticker_irq_handler>
  10568e:	f64f 73ff 	movw	r3, #65535	; 0xffff
  105692:	4298      	cmp	r0, r3
  105694:	bfa8      	it	ge
  105696:	4618      	movge	r0, r3
  105698:	8923      	ldrh	r3, [r4, #8]
  10569a:	f366 13c7 	bfi	r3, r6, #7, #1
  10569e:	8123      	strh	r3, [r4, #8]
  1056a0:	6020      	str	r0, [r4, #0]
  1056a2:	8923      	ldrh	r3, [r4, #8]
  1056a4:	f043 0380 	orr.w	r3, r3, #128	; 0x80
  1056a8:	8123      	strh	r3, [r4, #8]
  1056aa:	bd70      	pop	{r4, r5, r6, pc}
  1056ac:	40001000 	.word	0x40001000
  1056b0:	3fff4ce0 	.word	0x3fff4ce0

001056b4 <us_ticker_disable_interrupt>:
  1056b4:	4b02      	ldr	r3, [pc, #8]	; (1056c0 <us_ticker_disable_interrupt+0xc>)
  1056b6:	891a      	ldrh	r2, [r3, #8]
  1056b8:	f36f 12c7 	bfc	r2, #7, #1
  1056bc:	811a      	strh	r2, [r3, #8]
  1056be:	4770      	bx	lr
  1056c0:	40001000 	.word	0x40001000

001056c4 <us_ticker_clear_interrupt>:
  1056c4:	4b01      	ldr	r3, [pc, #4]	; (1056cc <us_ticker_clear_interrupt+0x8>)
  1056c6:	2200      	movs	r2, #0
  1056c8:	60da      	str	r2, [r3, #12]
  1056ca:	4770      	bx	lr
  1056cc:	40001000 	.word	0x40001000

001056d0 <us_ticker_set_interrupt>:
  1056d0:	4b0e      	ldr	r3, [pc, #56]	; (10570c <us_ticker_set_interrupt+0x3c>)
  1056d2:	b510      	push	{r4, lr}
  1056d4:	4604      	mov	r4, r0
  1056d6:	6018      	str	r0, [r3, #0]
  1056d8:	f7ff ff98 	bl	10560c <us_ticker_read>
  1056dc:	1a20      	subs	r0, r4, r0
  1056de:	2800      	cmp	r0, #0
  1056e0:	dc04      	bgt.n	1056ec <us_ticker_set_interrupt+0x1c>
