
NCS36510/4_SmartSystem_v02_(BLE).elf:     file format elf32-littlearm
architecture: arm, flags 0x00000112:
EXEC_P, HAS_SYMS, D_PAGED
start address 0x00108211


Disassembly of section .text:

00102090 <deregister_tm_clones>:
  102090:	4b04      	ldr	r3, [pc, #16]	; (1020a4 <deregister_tm_clones+0x14>)
  102092:	4805      	ldr	r0, [pc, #20]	; (1020a8 <deregister_tm_clones+0x18>)
  102094:	1a1b      	subs	r3, r3, r0
  102096:	2b06      	cmp	r3, #6
  102098:	d902      	bls.n	1020a0 <deregister_tm_clones+0x10>
  10209a:	4b04      	ldr	r3, [pc, #16]	; (1020ac <deregister_tm_clones+0x1c>)
  10209c:	b103      	cbz	r3, 1020a0 <deregister_tm_clones+0x10>
  10209e:	4718      	bx	r3
  1020a0:	4770      	bx	lr
  1020a2:	bf00      	nop
  1020a4:	3fff65a3 	.word	0x3fff65a3
  1020a8:	3fff65a0 	.word	0x3fff65a0
  1020ac:	00000000 	.word	0x00000000

001020b0 <register_tm_clones>:
  1020b0:	4905      	ldr	r1, [pc, #20]	; (1020c8 <register_tm_clones+0x18>)
  1020b2:	4806      	ldr	r0, [pc, #24]	; (1020cc <register_tm_clones+0x1c>)
  1020b4:	1a09      	subs	r1, r1, r0
  1020b6:	1089      	asrs	r1, r1, #2
  1020b8:	eb01 71d1 	add.w	r1, r1, r1, lsr #31
  1020bc:	1049      	asrs	r1, r1, #1
  1020be:	d002      	beq.n	1020c6 <register_tm_clones+0x16>
  1020c0:	4b03      	ldr	r3, [pc, #12]	; (1020d0 <register_tm_clones+0x20>)
  1020c2:	b103      	cbz	r3, 1020c6 <register_tm_clones+0x16>
  1020c4:	4718      	bx	r3
  1020c6:	4770      	bx	lr
  1020c8:	3fff65a0 	.word	0x3fff65a0
  1020cc:	3fff65a0 	.word	0x3fff65a0
  1020d0:	00000000 	.word	0x00000000

001020d4 <__do_global_dtors_aux>:
  1020d4:	b510      	push	{r4, lr}
  1020d6:	4c06      	ldr	r4, [pc, #24]	; (1020f0 <__do_global_dtors_aux+0x1c>)
  1020d8:	7823      	ldrb	r3, [r4, #0]
  1020da:	b943      	cbnz	r3, 1020ee <__do_global_dtors_aux+0x1a>
  1020dc:	f7ff ffd8 	bl	102090 <deregister_tm_clones>
  1020e0:	4b04      	ldr	r3, [pc, #16]	; (1020f4 <__do_global_dtors_aux+0x20>)
  1020e2:	b113      	cbz	r3, 1020ea <__do_global_dtors_aux+0x16>
  1020e4:	4804      	ldr	r0, [pc, #16]	; (1020f8 <__do_global_dtors_aux+0x24>)
  1020e6:	f3af 8000 	nop.w
  1020ea:	2301      	movs	r3, #1
  1020ec:	7023      	strb	r3, [r4, #0]
  1020ee:	bd10      	pop	{r4, pc}
  1020f0:	3fff65a0 	.word	0x3fff65a0
  1020f4:	00000000 	.word	0x00000000
  1020f8:	0010fa10 	.word	0x0010fa10

001020fc <frame_dummy>:
  1020fc:	b508      	push	{r3, lr}
  1020fe:	4b08      	ldr	r3, [pc, #32]	; (102120 <frame_dummy+0x24>)
  102100:	b11b      	cbz	r3, 10210a <frame_dummy+0xe>
  102102:	4908      	ldr	r1, [pc, #32]	; (102124 <frame_dummy+0x28>)
  102104:	4808      	ldr	r0, [pc, #32]	; (102128 <frame_dummy+0x2c>)
  102106:	f3af 8000 	nop.w
  10210a:	4808      	ldr	r0, [pc, #32]	; (10212c <frame_dummy+0x30>)
  10210c:	6803      	ldr	r3, [r0, #0]
  10210e:	b913      	cbnz	r3, 102116 <frame_dummy+0x1a>
  102110:	e8bd 4008 	ldmia.w	sp!, {r3, lr}
  102114:	e7cc      	b.n	1020b0 <register_tm_clones>
  102116:	4b06      	ldr	r3, [pc, #24]	; (102130 <frame_dummy+0x34>)
  102118:	2b00      	cmp	r3, #0
  10211a:	d0f9      	beq.n	102110 <frame_dummy+0x14>
  10211c:	4798      	blx	r3
  10211e:	e7f7      	b.n	102110 <frame_dummy+0x14>
  102120:	00000000 	.word	0x00000000
  102124:	3fff65a4 	.word	0x3fff65a4
  102128:	0010fa10 	.word	0x0010fa10
  10212c:	3fff65a0 	.word	0x3fff65a0
  102130:	00000000 	.word	0x00000000

00102134 <void mbed::Callback<void ()>::function_call<void (*)()>(void const*)>:
  102134:	6803      	ldr	r3, [r0, #0]
  102136:	4718      	bx	r3

00102138 <void mbed::Callback<void ()>::function_move<void (*)()>(void*, void const*)>:
  102138:	b108      	cbz	r0, 10213e <void mbed::Callback<void ()>::function_move<void (*)()>(void*, void const*)+0x6>
  10213a:	680b      	ldr	r3, [r1, #0]
  10213c:	6003      	str	r3, [r0, #0]
  10213e:	4770      	bx	lr

00102140 <void mbed::Callback<void ()>::function_dtor<void (*)()>(void*)>:
  102140:	4770      	bx	lr
	...

00102144 <__tcf_0>:
  102144:	b538      	push	{r3, r4, r5, lr}
  102146:	4d06      	ldr	r5, [pc, #24]	; (102160 <__tcf_0+0x1c>)
  102148:	2400      	movs	r4, #0
  10214a:	f504 70b4 	add.w	r0, r4, #360	; 0x168
  10214e:	4428      	add	r0, r5
  102150:	3c18      	subs	r4, #24
  102152:	f006 f89d 	bl	108290 <std::__cxx11::basic_string<char, std::char_traits<char>, std::allocator<char> >::_M_dispose()>
  102156:	f514 7fc0 	cmn.w	r4, #384	; 0x180
  10215a:	d1f6      	bne.n	10214a <__tcf_0+0x6>
  10215c:	bd38      	pop	{r3, r4, r5, pc}
  10215e:	bf00      	nop
  102160:	3fff65bc 	.word	0x3fff65bc

00102164 <IRQ_SecCounter_()>:
  102164:	4a02      	ldr	r2, [pc, #8]	; (102170 <IRQ_SecCounter_()+0xc>)
  102166:	6813      	ldr	r3, [r2, #0]
  102168:	3301      	adds	r3, #1
  10216a:	6013      	str	r3, [r2, #0]
  10216c:	4770      	bx	lr
  10216e:	bf00      	nop
  102170:	3fff6b68 	.word	0x3fff6b68

00102174 <RSL10_BLE::~RSL10_BLE()>:
  102174:	b510      	push	{r4, lr}
  102176:	4604      	mov	r4, r0
  102178:	4b03      	ldr	r3, [pc, #12]	; (102188 <RSL10_BLE::~RSL10_BLE()+0x14>)
  10217a:	f840 3b04 	str.w	r3, [r0], #4
  10217e:	f001 fa7f 	bl	103680 <PCA9655E::~PCA9655E()>
  102182:	4620      	mov	r0, r4
  102184:	bd10      	pop	{r4, pc}
  102186:	bf00      	nop
  102188:	0010e640 	.word	0x0010e640

0010218c <RSL10_BLE::~RSL10_BLE()>:
  10218c:	b510      	push	{r4, lr}
  10218e:	4604      	mov	r4, r0
  102190:	f7ff fff0 	bl	102174 <RSL10_BLE::~RSL10_BLE()>
  102194:	4620      	mov	r0, r4
  102196:	f005 fe11 	bl	107dbc <operator delete(void*)>
  10219a:	4620      	mov	r0, r4
  10219c:	bd10      	pop	{r4, pc}

0010219e <NHD_C0216CZ::~NHD_C0216CZ()>:
  10219e:	b510      	push	{r4, lr}
  1021a0:	4604      	mov	r4, r0
  1021a2:	3040      	adds	r0, #64	; 0x40
  1021a4:	f001 fa6c 	bl	103680 <PCA9655E::~PCA9655E()>
  1021a8:	4620      	mov	r0, r4
  1021aa:	bd10      	pop	{r4, pc}

001021ac <std::__cxx11::basic_string<char, std::char_traits<char>, std::allocator<char> >::basic_string(char const*, std::allocator<char> const&) [clone .isra.21]>:
  1021ac:	f100 0308 	add.w	r3, r0, #8
  1021b0:	b573      	push	{r0, r1, r4, r5, r6, lr}
  1021b2:	4604      	mov	r4, r0
  1021b4:	6003      	str	r3, [r0, #0]
  1021b6:	460d      	mov	r5, r1
  1021b8:	b181      	cbz	r1, 1021dc <std::__cxx11::basic_string<char, std::char_traits<char>, std::allocator<char> >::basic_string(char const*, std::allocator<char> const&) [clone .isra.21]+0x30>
  1021ba:	4608      	mov	r0, r1
  1021bc:	f009 f821 	bl	10b202 <strlen>
  1021c0:	280f      	cmp	r0, #15
  1021c2:	eb05 0600 	add.w	r6, r5, r0
  1021c6:	9001      	str	r0, [sp, #4]
  1021c8:	d90b      	bls.n	1021e2 <std::__cxx11::basic_string<char, std::char_traits<char>, std::allocator<char> >::basic_string(char const*, std::allocator<char> const&) [clone .isra.21]+0x36>
  1021ca:	2200      	movs	r2, #0
  1021cc:	a901      	add	r1, sp, #4
  1021ce:	4620      	mov	r0, r4
  1021d0:	f006 f842 	bl	108258 <std::__cxx11::basic_string<char, std::char_traits<char>, std::allocator<char> >::_M_create(unsigned int&, unsigned int)>
  1021d4:	9b01      	ldr	r3, [sp, #4]
  1021d6:	6020      	str	r0, [r4, #0]
  1021d8:	60a3      	str	r3, [r4, #8]
  1021da:	e002      	b.n	1021e2 <std::__cxx11::basic_string<char, std::char_traits<char>, std::allocator<char> >::basic_string(char const*, std::allocator<char> const&) [clone .isra.21]+0x36>
  1021dc:	4807      	ldr	r0, [pc, #28]	; (1021fc <std::__cxx11::basic_string<char, std::char_traits<char>, std::allocator<char> >::basic_string(char const*, std::allocator<char> const&) [clone .isra.21]+0x50>)
  1021de:	f006 f831 	bl	108244 <std::__throw_logic_error(char const*)>
  1021e2:	4632      	mov	r2, r6
  1021e4:	4629      	mov	r1, r5
  1021e6:	6820      	ldr	r0, [r4, #0]
  1021e8:	f006 f863 	bl	1082b2 <std::__cxx11::basic_string<char, std::char_traits<char>, std::allocator<char> >::_S_copy_chars(char*, char const*, char const*)>
  1021ec:	4620      	mov	r0, r4
  1021ee:	9b01      	ldr	r3, [sp, #4]
  1021f0:	6822      	ldr	r2, [r4, #0]
  1021f2:	2100      	movs	r1, #0
  1021f4:	6063      	str	r3, [r4, #4]
  1021f6:	54d1      	strb	r1, [r2, r3]
  1021f8:	b002      	add	sp, #8
  1021fa:	bd70      	pop	{r4, r5, r6, pc}
  1021fc:	0010e654 	.word	0x0010e654

00102200 <UartBUS_init()>:
  102200:	b508      	push	{r3, lr}
  102202:	4804      	ldr	r0, [pc, #16]	; (102214 <UartBUS_init()+0x14>)
  102204:	f000 fa4c 	bl	1026a0 <GPS::deactivate()>
  102208:	e8bd 4008 	ldmia.w	sp!, {r3, lr}
  10220c:	4802      	ldr	r0, [pc, #8]	; (102218 <UartBUS_init()+0x18>)
  10220e:	f000 bc09 	b.w	102a24 <GSM::deactivate()>
  102212:	bf00      	nop
  102214:	3fff6b6c 	.word	0x3fff6b6c
  102218:	3fff6840 	.word	0x3fff6840

0010221c <BLE_ReadReceivedData()>:
  10221c:	b510      	push	{r4, lr}
  10221e:	4808      	ldr	r0, [pc, #32]	; (102240 <BLE_ReadReceivedData()+0x24>)
  102220:	f001 fc0c 	bl	103a3c <RSL10_BLE::readable()>
  102224:	4c07      	ldr	r4, [pc, #28]	; (102244 <BLE_ReadReceivedData()+0x28>)
  102226:	b148      	cbz	r0, 10223c <BLE_ReadReceivedData()+0x20>
  102228:	4907      	ldr	r1, [pc, #28]	; (102248 <BLE_ReadReceivedData()+0x2c>)
  10222a:	2214      	movs	r2, #20
  10222c:	4804      	ldr	r0, [pc, #16]	; (102240 <BLE_ReadReceivedData()+0x24>)
  10222e:	f001 fc27 	bl	103a80 <RSL10_BLE::recv(char*, unsigned int)>
  102232:	4905      	ldr	r1, [pc, #20]	; (102248 <BLE_ReadReceivedData()+0x2c>)
  102234:	6020      	str	r0, [r4, #0]
  102236:	4805      	ldr	r0, [pc, #20]	; (10224c <BLE_ReadReceivedData()+0x30>)
  102238:	f008 ffdb 	bl	10b1f2 <strcpy>
  10223c:	6820      	ldr	r0, [r4, #0]
  10223e:	bd10      	pop	{r4, pc}
  102240:	3fff6980 	.word	0x3fff6980
  102244:	3fff7034 	.word	0x3fff7034
  102248:	3fff6a24 	.word	0x3fff6a24
  10224c:	3fff6ae8 	.word	0x3fff6ae8

00102250 <IRQ_Watchdoq_ContinuoslyRun()>:
  102250:	b510      	push	{r4, lr}
  102252:	b08e      	sub	sp, #56	; 0x38
  102254:	4668      	mov	r0, sp
  102256:	f001 f8df 	bl	103418 <LED::LED()>
  10225a:	4b16      	ldr	r3, [pc, #88]	; (1022b4 <IRQ_Watchdoq_ContinuoslyRun()+0x64>)
  10225c:	7819      	ldrb	r1, [r3, #0]
  10225e:	b149      	cbz	r1, 102274 <IRQ_Watchdoq_ContinuoslyRun()+0x24>
  102260:	2100      	movs	r1, #0
  102262:	4668      	mov	r0, sp
  102264:	7019      	strb	r1, [r3, #0]
  102266:	f001 f8f1 	bl	10344c <LED::ledOn(myLED)>
  10226a:	2101      	movs	r1, #1
  10226c:	4668      	mov	r0, sp
  10226e:	f001 f90b 	bl	103488 <LED::ledOff(myLED)>
  102272:	e008      	b.n	102286 <IRQ_Watchdoq_ContinuoslyRun()+0x36>
  102274:	2401      	movs	r4, #1
  102276:	4668      	mov	r0, sp
  102278:	701c      	strb	r4, [r3, #0]
  10227a:	f001 f905 	bl	103488 <LED::ledOff(myLED)>
  10227e:	4621      	mov	r1, r4
  102280:	4668      	mov	r0, sp
  102282:	f001 f8e3 	bl	10344c <LED::ledOn(myLED)>
  102286:	f7ff ffc9 	bl	10221c <BLE_ReadReceivedData()>
  10228a:	490b      	ldr	r1, [pc, #44]	; (1022b8 <IRQ_Watchdoq_ContinuoslyRun()+0x68>)
  10228c:	a801      	add	r0, sp, #4
  10228e:	f008 ffb0 	bl	10b1f2 <strcpy>
  102292:	aa01      	add	r2, sp, #4
  102294:	4909      	ldr	r1, [pc, #36]	; (1022bc <IRQ_Watchdoq_ContinuoslyRun()+0x6c>)
  102296:	480a      	ldr	r0, [pc, #40]	; (1022c0 <IRQ_Watchdoq_ContinuoslyRun()+0x70>)
  102298:	f005 ff06 	bl	1080a8 <mbed::Stream::printf(char const*, ...)>
  10229c:	2301      	movs	r3, #1
  10229e:	2202      	movs	r2, #2
  1022a0:	a901      	add	r1, sp, #4
  1022a2:	4808      	ldr	r0, [pc, #32]	; (1022c4 <IRQ_Watchdoq_ContinuoslyRun()+0x74>)
  1022a4:	f001 fb5e 	bl	103964 <NHD_C0216CZ::displayStringToPos(char const*, int, int)>
  1022a8:	4803      	ldr	r0, [pc, #12]	; (1022b8 <IRQ_Watchdoq_ContinuoslyRun()+0x68>)
  1022aa:	f000 fdc5 	bl	102e38 <Ble_Menu(char*)>
  1022ae:	b00e      	add	sp, #56	; 0x38
  1022b0:	bd10      	pop	{r4, pc}
  1022b2:	bf00      	nop
  1022b4:	3fff6b64 	.word	0x3fff6b64
  1022b8:	3fff6ae8 	.word	0x3fff6ae8
  1022bc:	0010e67e 	.word	0x0010e67e
  1022c0:	3fff6a70 	.word	0x3fff6a70
  1022c4:	3fff673c 	.word	0x3fff673c

001022c8 <mbed::Callback<void ()>::~Callback()>:
  1022c8:	68c3      	ldr	r3, [r0, #12]
  1022ca:	b510      	push	{r4, lr}
  1022cc:	4604      	mov	r4, r0
  1022ce:	b10b      	cbz	r3, 1022d4 <mbed::Callback<void ()>::~Callback()+0xc>
  1022d0:	689b      	ldr	r3, [r3, #8]
  1022d2:	4798      	blx	r3
  1022d4:	4620      	mov	r0, r4
  1022d6:	bd10      	pop	{r4, pc}

001022d8 <mbed::SerialBase::~SerialBase()>:
  1022d8:	b570      	push	{r4, r5, r6, lr}
  1022da:	4605      	mov	r5, r0
  1022dc:	4b07      	ldr	r3, [pc, #28]	; (1022fc <mbed::SerialBase::~SerialBase()+0x24>)
  1022de:	4606      	mov	r6, r0
  1022e0:	f845 3b10 	str.w	r3, [r5], #16
  1022e4:	b145      	cbz	r5, 1022f8 <mbed::SerialBase::~SerialBase()+0x20>
  1022e6:	f100 0430 	add.w	r4, r0, #48	; 0x30
  1022ea:	42ac      	cmp	r4, r5
  1022ec:	d004      	beq.n	1022f8 <mbed::SerialBase::~SerialBase()+0x20>
  1022ee:	3c10      	subs	r4, #16
  1022f0:	4620      	mov	r0, r4
  1022f2:	f7ff ffe9 	bl	1022c8 <mbed::Callback<void ()>::~Callback()>
  1022f6:	e7f8      	b.n	1022ea <mbed::SerialBase::~SerialBase()+0x12>
  1022f8:	4630      	mov	r0, r6
  1022fa:	bd70      	pop	{r4, r5, r6, pc}
  1022fc:	0010f25c 	.word	0x0010f25c

00102300 <mbed::SerialBase::~SerialBase()>:
  102300:	b510      	push	{r4, lr}
  102302:	4604      	mov	r4, r0
  102304:	f7ff ffe8 	bl	1022d8 <mbed::SerialBase::~SerialBase()>
  102308:	4620      	mov	r0, r4
  10230a:	f005 fd57 	bl	107dbc <operator delete(void*)>
  10230e:	4620      	mov	r0, r4
  102310:	bd10      	pop	{r4, pc}
	...

00102314 <mbed::Serial::~Serial()>:
  102314:	b510      	push	{r4, lr}
  102316:	4604      	mov	r4, r0
  102318:	4b0a      	ldr	r3, [pc, #40]	; (102344 <mbed::Serial::~Serial()+0x30>)
  10231a:	304c      	adds	r0, #76	; 0x4c
  10231c:	f103 0220 	add.w	r2, r3, #32
  102320:	f840 3c4c 	str.w	r3, [r0, #-76]
  102324:	337c      	adds	r3, #124	; 0x7c
  102326:	f840 2c18 	str.w	r2, [r0, #-24]
  10232a:	f840 3c14 	str.w	r3, [r0, #-20]
  10232e:	f005 ff14 	bl	10815a <rtos::Mutex::~Mutex()>
  102332:	f104 0034 	add.w	r0, r4, #52	; 0x34
  102336:	f005 fea5 	bl	108084 <mbed::Stream::~Stream()>
  10233a:	4620      	mov	r0, r4
  10233c:	f7ff ffcc 	bl	1022d8 <mbed::SerialBase::~SerialBase()>
  102340:	4620      	mov	r0, r4
  102342:	bd10      	pop	{r4, pc}
  102344:	0010f1d0 	.word	0x0010f1d0

00102348 <non-virtual thunk to mbed::Serial::~Serial()>:
  102348:	f1a0 0034 	sub.w	r0, r0, #52	; 0x34
  10234c:	e7e2      	b.n	102314 <mbed::Serial::~Serial()>

0010234e <non-virtual thunk to mbed::Serial::~Serial()>:
  10234e:	f1a0 0038 	sub.w	r0, r0, #56	; 0x38
  102352:	e7df      	b.n	102314 <mbed::Serial::~Serial()>

00102354 <mbed::Ticker::~Ticker()>:
  102354:	b538      	push	{r3, r4, r5, lr}
  102356:	4605      	mov	r5, r0
  102358:	4604      	mov	r4, r0
  10235a:	4b06      	ldr	r3, [pc, #24]	; (102374 <mbed::Ticker::~Ticker()+0x20>)
  10235c:	f845 3b28 	str.w	r3, [r5], #40
  102360:	f005 fa1a 	bl	107798 <mbed::Ticker::detach()>
  102364:	4628      	mov	r0, r5
  102366:	f7ff ffaf 	bl	1022c8 <mbed::Callback<void ()>::~Callback()>
  10236a:	4620      	mov	r0, r4
  10236c:	f005 fa60 	bl	107830 <mbed::TimerEvent::~TimerEvent()>
  102370:	4620      	mov	r0, r4
  102372:	bd38      	pop	{r3, r4, r5, pc}
  102374:	0010f294 	.word	0x0010f294

00102378 <mbed::Ticker::~Ticker()>:
  102378:	b510      	push	{r4, lr}
  10237a:	4604      	mov	r4, r0
  10237c:	f7ff ffea 	bl	102354 <mbed::Ticker::~Ticker()>
  102380:	4620      	mov	r0, r4
  102382:	f005 fd1b 	bl	107dbc <operator delete(void*)>
  102386:	4620      	mov	r0, r4
  102388:	bd10      	pop	{r4, pc}

0010238a <mbed::Callback<void ()>::Callback(mbed::Callback<void ()> const&)>:
  10238a:	b538      	push	{r3, r4, r5, lr}
  10238c:	68cb      	ldr	r3, [r1, #12]
  10238e:	4604      	mov	r4, r0
  102390:	460d      	mov	r5, r1
  102392:	b10b      	cbz	r3, 102398 <mbed::Callback<void ()>::Callback(mbed::Callback<void ()> const&)+0xe>
  102394:	685b      	ldr	r3, [r3, #4]
  102396:	4798      	blx	r3
  102398:	68eb      	ldr	r3, [r5, #12]
  10239a:	4620      	mov	r0, r4
  10239c:	60e3      	str	r3, [r4, #12]
  10239e:	bd38      	pop	{r3, r4, r5, pc}

001023a0 <mbed::Ticker::attach(mbed::Callback<void ()>, float)>:
  1023a0:	e92d 437f 	stmdb	sp!, {r0, r1, r2, r3, r4, r5, r6, r8, r9, lr}
  1023a4:	4615      	mov	r5, r2
  1023a6:	4606      	mov	r6, r0
  1023a8:	4668      	mov	r0, sp
  1023aa:	f7ff ffee 	bl	10238a <mbed::Callback<void ()>::Callback(mbed::Callback<void ()> const&)>
  1023ae:	4910      	ldr	r1, [pc, #64]	; (1023f0 <mbed::Ticker::attach(mbed::Callback<void ()>, float)+0x50>)
  1023b0:	4628      	mov	r0, r5
  1023b2:	f006 fb11 	bl	1089d8 <__aeabi_fmul>
  1023b6:	466c      	mov	r4, sp
  1023b8:	f006 fc9c 	bl	108cf4 <__aeabi_f2ulz>
  1023bc:	f106 0528 	add.w	r5, r6, #40	; 0x28
  1023c0:	42a5      	cmp	r5, r4
  1023c2:	4680      	mov	r8, r0
  1023c4:	4689      	mov	r9, r1
  1023c6:	d007      	beq.n	1023d8 <mbed::Ticker::attach(mbed::Callback<void ()>, float)+0x38>
  1023c8:	4628      	mov	r0, r5
  1023ca:	f7ff ff7d 	bl	1022c8 <mbed::Callback<void ()>::~Callback()>
  1023ce:	b11d      	cbz	r5, 1023d8 <mbed::Ticker::attach(mbed::Callback<void ()>, float)+0x38>
  1023d0:	4669      	mov	r1, sp
  1023d2:	4628      	mov	r0, r5
  1023d4:	f7ff ffd9 	bl	10238a <mbed::Callback<void ()>::Callback(mbed::Callback<void ()> const&)>
  1023d8:	4642      	mov	r2, r8
  1023da:	464b      	mov	r3, r9
  1023dc:	4630      	mov	r0, r6
  1023de:	f005 f9c3 	bl	107768 <mbed::Ticker::setup(unsigned long long)>
  1023e2:	4620      	mov	r0, r4
  1023e4:	f7ff ff70 	bl	1022c8 <mbed::Callback<void ()>::~Callback()>
  1023e8:	b004      	add	sp, #16
  1023ea:	e8bd 8370 	ldmia.w	sp!, {r4, r5, r6, r8, r9, pc}
  1023ee:	bf00      	nop
  1023f0:	49742400 	.word	0x49742400

001023f4 <main>:
  1023f4:	b51f      	push	{r0, r1, r2, r3, r4, lr}
  1023f6:	4814      	ldr	r0, [pc, #80]	; (102448 <main+0x54>)
  1023f8:	f001 fa38 	bl	10386c <NHD_C0216CZ::init()>
  1023fc:	f7ff ff00 	bl	102200 <UartBUS_init()>
  102400:	4912      	ldr	r1, [pc, #72]	; (10244c <main+0x58>)
  102402:	4811      	ldr	r0, [pc, #68]	; (102448 <main+0x54>)
  102404:	f001 fac8 	bl	103998 <NHD_C0216CZ::displayString(char const*)>
  102408:	f04f 4080 	mov.w	r0, #1073741824	; 0x40000000
  10240c:	f005 fda8 	bl	107f60 <wait>
  102410:	480d      	ldr	r0, [pc, #52]	; (102448 <main+0x54>)
  102412:	f001 f9db 	bl	1037cc <NHD_C0216CZ::clearDisplay()>
  102416:	4c0e      	ldr	r4, [pc, #56]	; (102450 <main+0x5c>)
  102418:	4b0e      	ldr	r3, [pc, #56]	; (102454 <main+0x60>)
  10241a:	4a0f      	ldr	r2, [pc, #60]	; (102458 <main+0x64>)
  10241c:	4669      	mov	r1, sp
  10241e:	480f      	ldr	r0, [pc, #60]	; (10245c <main+0x68>)
  102420:	9300      	str	r3, [sp, #0]
  102422:	9403      	str	r4, [sp, #12]
  102424:	f7ff ffbc 	bl	1023a0 <mbed::Ticker::attach(mbed::Callback<void ()>, float)>
  102428:	4668      	mov	r0, sp
  10242a:	f7ff ff4d 	bl	1022c8 <mbed::Callback<void ()>::~Callback()>
  10242e:	4b0c      	ldr	r3, [pc, #48]	; (102460 <main+0x6c>)
  102430:	480c      	ldr	r0, [pc, #48]	; (102464 <main+0x70>)
  102432:	f04f 527e 	mov.w	r2, #1065353216	; 0x3f800000
  102436:	4669      	mov	r1, sp
  102438:	9300      	str	r3, [sp, #0]
  10243a:	9403      	str	r4, [sp, #12]
  10243c:	f7ff ffb0 	bl	1023a0 <mbed::Ticker::attach(mbed::Callback<void ()>, float)>
  102440:	4668      	mov	r0, sp
  102442:	f7ff ff41 	bl	1022c8 <mbed::Callback<void ()>::~Callback()>
  102446:	e7fe      	b.n	102446 <main+0x52>
  102448:	3fff673c 	.word	0x3fff673c
  10244c:	0010e694 	.word	0x0010e694
  102450:	0010e648 	.word	0x0010e648
  102454:	00102251 	.word	0x00102251
  102458:	3e99999a 	.word	0x3e99999a
  10245c:	3fff6910 	.word	0x3fff6910
  102460:	00102165 	.word	0x00102165
  102464:	3fff6808 	.word	0x3fff6808

00102468 <mbed::Serial::~Serial()>:
  102468:	b510      	push	{r4, lr}
  10246a:	4604      	mov	r4, r0
  10246c:	f7ff ff52 	bl	102314 <mbed::Serial::~Serial()>
  102470:	4620      	mov	r0, r4
  102472:	f005 fca3 	bl	107dbc <operator delete(void*)>
  102476:	4620      	mov	r0, r4
  102478:	bd10      	pop	{r4, pc}

0010247a <non-virtual thunk to mbed::Serial::~Serial()>:
  10247a:	f1a0 0034 	sub.w	r0, r0, #52	; 0x34
  10247e:	e7f3      	b.n	102468 <mbed::Serial::~Serial()>

00102480 <non-virtual thunk to mbed::Serial::~Serial()>:
  102480:	f1a0 0038 	sub.w	r0, r0, #56	; 0x38
  102484:	e7f0      	b.n	102468 <mbed::Serial::~Serial()>
	...

00102488 <_GLOBAL__sub_I_TOUCH_LC717A00_mode>:
  102488:	b573      	push	{r0, r1, r4, r5, r6, lr}
  10248a:	4957      	ldr	r1, [pc, #348]	; (1025e8 <_GLOBAL__sub_I_TOUCH_LC717A00_mode+0x160>)
  10248c:	4857      	ldr	r0, [pc, #348]	; (1025ec <_GLOBAL__sub_I_TOUCH_LC717A00_mode+0x164>)
  10248e:	f7ff fe8d 	bl	1021ac <std::__cxx11::basic_string<char, std::char_traits<char>, std::allocator<char> >::basic_string(char const*, std::allocator<char> const&) [clone .isra.21]>
  102492:	4a57      	ldr	r2, [pc, #348]	; (1025f0 <_GLOBAL__sub_I_TOUCH_LC717A00_mode+0x168>)
  102494:	4957      	ldr	r1, [pc, #348]	; (1025f4 <_GLOBAL__sub_I_TOUCH_LC717A00_mode+0x16c>)
  102496:	4855      	ldr	r0, [pc, #340]	; (1025ec <_GLOBAL__sub_I_TOUCH_LC717A00_mode+0x164>)
  102498:	f005 fc5b 	bl	107d52 <__aeabi_atexit>
  10249c:	4b56      	ldr	r3, [pc, #344]	; (1025f8 <_GLOBAL__sub_I_TOUCH_LC717A00_mode+0x170>)
  10249e:	2200      	movs	r2, #0
  1024a0:	f503 70c0 	add.w	r0, r3, #384	; 0x180
  1024a4:	4619      	mov	r1, r3
  1024a6:	f843 2c04 	str.w	r2, [r3, #-4]
  1024aa:	f843 3c08 	str.w	r3, [r3, #-8]
  1024ae:	f801 2b18 	strb.w	r2, [r1], #24
  1024b2:	6119      	str	r1, [r3, #16]
  1024b4:	615a      	str	r2, [r3, #20]
  1024b6:	761a      	strb	r2, [r3, #24]
  1024b8:	3330      	adds	r3, #48	; 0x30
  1024ba:	4283      	cmp	r3, r0
  1024bc:	f04f 0400 	mov.w	r4, #0
  1024c0:	d1f0      	bne.n	1024a4 <_GLOBAL__sub_I_TOUCH_LC717A00_mode+0x1c>
  1024c2:	4a4b      	ldr	r2, [pc, #300]	; (1025f0 <_GLOBAL__sub_I_TOUCH_LC717A00_mode+0x168>)
  1024c4:	494d      	ldr	r1, [pc, #308]	; (1025fc <_GLOBAL__sub_I_TOUCH_LC717A00_mode+0x174>)
  1024c6:	4620      	mov	r0, r4
  1024c8:	f005 fc43 	bl	107d52 <__aeabi_atexit>
  1024cc:	4946      	ldr	r1, [pc, #280]	; (1025e8 <_GLOBAL__sub_I_TOUCH_LC717A00_mode+0x160>)
  1024ce:	484c      	ldr	r0, [pc, #304]	; (102600 <_GLOBAL__sub_I_TOUCH_LC717A00_mode+0x178>)
  1024d0:	f7ff fe6c 	bl	1021ac <std::__cxx11::basic_string<char, std::char_traits<char>, std::allocator<char> >::basic_string(char const*, std::allocator<char> const&) [clone .isra.21]>
  1024d4:	4a46      	ldr	r2, [pc, #280]	; (1025f0 <_GLOBAL__sub_I_TOUCH_LC717A00_mode+0x168>)
  1024d6:	4947      	ldr	r1, [pc, #284]	; (1025f4 <_GLOBAL__sub_I_TOUCH_LC717A00_mode+0x16c>)
  1024d8:	4849      	ldr	r0, [pc, #292]	; (102600 <_GLOBAL__sub_I_TOUCH_LC717A00_mode+0x178>)
  1024da:	f005 fc3a 	bl	107d52 <__aeabi_atexit>
  1024de:	4942      	ldr	r1, [pc, #264]	; (1025e8 <_GLOBAL__sub_I_TOUCH_LC717A00_mode+0x160>)
  1024e0:	4848      	ldr	r0, [pc, #288]	; (102604 <_GLOBAL__sub_I_TOUCH_LC717A00_mode+0x17c>)
  1024e2:	f7ff fe63 	bl	1021ac <std::__cxx11::basic_string<char, std::char_traits<char>, std::allocator<char> >::basic_string(char const*, std::allocator<char> const&) [clone .isra.21]>
  1024e6:	4a42      	ldr	r2, [pc, #264]	; (1025f0 <_GLOBAL__sub_I_TOUCH_LC717A00_mode+0x168>)
  1024e8:	4942      	ldr	r1, [pc, #264]	; (1025f4 <_GLOBAL__sub_I_TOUCH_LC717A00_mode+0x16c>)
  1024ea:	4846      	ldr	r0, [pc, #280]	; (102604 <_GLOBAL__sub_I_TOUCH_LC717A00_mode+0x17c>)
  1024ec:	f005 fc31 	bl	107d52 <__aeabi_atexit>
  1024f0:	493d      	ldr	r1, [pc, #244]	; (1025e8 <_GLOBAL__sub_I_TOUCH_LC717A00_mode+0x160>)
  1024f2:	4845      	ldr	r0, [pc, #276]	; (102608 <_GLOBAL__sub_I_TOUCH_LC717A00_mode+0x180>)
  1024f4:	f7ff fe5a 	bl	1021ac <std::__cxx11::basic_string<char, std::char_traits<char>, std::allocator<char> >::basic_string(char const*, std::allocator<char> const&) [clone .isra.21]>
  1024f8:	4a3d      	ldr	r2, [pc, #244]	; (1025f0 <_GLOBAL__sub_I_TOUCH_LC717A00_mode+0x168>)
  1024fa:	493e      	ldr	r1, [pc, #248]	; (1025f4 <_GLOBAL__sub_I_TOUCH_LC717A00_mode+0x16c>)
  1024fc:	4842      	ldr	r0, [pc, #264]	; (102608 <_GLOBAL__sub_I_TOUCH_LC717A00_mode+0x180>)
  1024fe:	4d43      	ldr	r5, [pc, #268]	; (10260c <_GLOBAL__sub_I_TOUCH_LC717A00_mode+0x184>)
  102500:	f005 fc27 	bl	107d52 <__aeabi_atexit>
  102504:	4842      	ldr	r0, [pc, #264]	; (102610 <_GLOBAL__sub_I_TOUCH_LC717A00_mode+0x188>)
  102506:	f005 fe1b 	bl	108140 <rtos::Mutex::Mutex()>
  10250a:	f04f 36ff 	mov.w	r6, #4294967295
  10250e:	4a38      	ldr	r2, [pc, #224]	; (1025f0 <_GLOBAL__sub_I_TOUCH_LC717A00_mode+0x168>)
  102510:	4940      	ldr	r1, [pc, #256]	; (102614 <_GLOBAL__sub_I_TOUCH_LC717A00_mode+0x18c>)
  102512:	483f      	ldr	r0, [pc, #252]	; (102610 <_GLOBAL__sub_I_TOUCH_LC717A00_mode+0x188>)
  102514:	f005 fc1d 	bl	107d52 <__aeabi_atexit>
  102518:	9600      	str	r6, [sp, #0]
  10251a:	2304      	movs	r3, #4
  10251c:	2206      	movs	r2, #6
  10251e:	2105      	movs	r1, #5
  102520:	4628      	mov	r0, r5
  102522:	f005 f865 	bl	1075f0 <mbed::SPI::SPI(PinName, PinName, PinName, PinName)>
  102526:	62ec      	str	r4, [r5, #44]	; 0x2c
  102528:	f885 4030 	strb.w	r4, [r5, #48]	; 0x30
  10252c:	636c      	str	r4, [r5, #52]	; 0x34
  10252e:	4631      	mov	r1, r6
  102530:	f105 002c 	add.w	r0, r5, #44	; 0x2c
  102534:	f001 fb48 	bl	103bc8 <gpio_init_out>
  102538:	2320      	movs	r3, #32
  10253a:	9600      	str	r6, [sp, #0]
  10253c:	2202      	movs	r2, #2
  10253e:	2103      	movs	r1, #3
  102540:	f105 0040 	add.w	r0, r5, #64	; 0x40
  102544:	f000 ffd8 	bl	1034f8 <PCA9655E::PCA9655E(PinName, PinName, unsigned char, PinName)>
  102548:	4a29      	ldr	r2, [pc, #164]	; (1025f0 <_GLOBAL__sub_I_TOUCH_LC717A00_mode+0x168>)
  10254a:	4933      	ldr	r1, [pc, #204]	; (102618 <_GLOBAL__sub_I_TOUCH_LC717A00_mode+0x190>)
  10254c:	4628      	mov	r0, r5
  10254e:	f005 fc00 	bl	107d52 <__aeabi_atexit>
  102552:	4832      	ldr	r0, [pc, #200]	; (10261c <_GLOBAL__sub_I_TOUCH_LC717A00_mode+0x194>)
  102554:	f000 f93a 	bl	1027cc <GPS::GPS()>
  102558:	4a25      	ldr	r2, [pc, #148]	; (1025f0 <_GLOBAL__sub_I_TOUCH_LC717A00_mode+0x168>)
  10255a:	4931      	ldr	r1, [pc, #196]	; (102620 <_GLOBAL__sub_I_TOUCH_LC717A00_mode+0x198>)
  10255c:	482f      	ldr	r0, [pc, #188]	; (10261c <_GLOBAL__sub_I_TOUCH_LC717A00_mode+0x194>)
  10255e:	f005 fbf8 	bl	107d52 <__aeabi_atexit>
  102562:	4d30      	ldr	r5, [pc, #192]	; (102624 <_GLOBAL__sub_I_TOUCH_LC717A00_mode+0x19c>)
  102564:	4830      	ldr	r0, [pc, #192]	; (102628 <_GLOBAL__sub_I_TOUCH_LC717A00_mode+0x1a0>)
  102566:	f000 fa79 	bl	102a5c <GSM::GSM()>
  10256a:	4e30      	ldr	r6, [pc, #192]	; (10262c <_GLOBAL__sub_I_TOUCH_LC717A00_mode+0x1a4>)
  10256c:	4a20      	ldr	r2, [pc, #128]	; (1025f0 <_GLOBAL__sub_I_TOUCH_LC717A00_mode+0x168>)
  10256e:	4930      	ldr	r1, [pc, #192]	; (102630 <_GLOBAL__sub_I_TOUCH_LC717A00_mode+0x1a8>)
  102570:	482d      	ldr	r0, [pc, #180]	; (102628 <_GLOBAL__sub_I_TOUCH_LC717A00_mode+0x1a0>)
  102572:	f005 fbee 	bl	107d52 <__aeabi_atexit>
  102576:	4628      	mov	r0, r5
  102578:	f005 f932 	bl	1077e0 <mbed::TimerEvent::TimerEvent()>
  10257c:	602e      	str	r6, [r5, #0]
  10257e:	636c      	str	r4, [r5, #52]	; 0x34
  102580:	4628      	mov	r0, r5
  102582:	4d2c      	ldr	r5, [pc, #176]	; (102634 <_GLOBAL__sub_I_TOUCH_LC717A00_mode+0x1ac>)
  102584:	4a1a      	ldr	r2, [pc, #104]	; (1025f0 <_GLOBAL__sub_I_TOUCH_LC717A00_mode+0x168>)
  102586:	492c      	ldr	r1, [pc, #176]	; (102638 <_GLOBAL__sub_I_TOUCH_LC717A00_mode+0x1b0>)
  102588:	f005 fbe3 	bl	107d52 <__aeabi_atexit>
  10258c:	4628      	mov	r0, r5
  10258e:	f005 f927 	bl	1077e0 <mbed::TimerEvent::TimerEvent()>
  102592:	602e      	str	r6, [r5, #0]
  102594:	636c      	str	r4, [r5, #52]	; 0x34
  102596:	4628      	mov	r0, r5
  102598:	4d28      	ldr	r5, [pc, #160]	; (10263c <_GLOBAL__sub_I_TOUCH_LC717A00_mode+0x1b4>)
  10259a:	4a15      	ldr	r2, [pc, #84]	; (1025f0 <_GLOBAL__sub_I_TOUCH_LC717A00_mode+0x168>)
  10259c:	4926      	ldr	r1, [pc, #152]	; (102638 <_GLOBAL__sub_I_TOUCH_LC717A00_mode+0x1b0>)
  10259e:	f005 fbd8 	bl	107d52 <__aeabi_atexit>
  1025a2:	4628      	mov	r0, r5
  1025a4:	f005 f91c 	bl	1077e0 <mbed::TimerEvent::TimerEvent()>
  1025a8:	636c      	str	r4, [r5, #52]	; 0x34
  1025aa:	4a11      	ldr	r2, [pc, #68]	; (1025f0 <_GLOBAL__sub_I_TOUCH_LC717A00_mode+0x168>)
  1025ac:	4922      	ldr	r1, [pc, #136]	; (102638 <_GLOBAL__sub_I_TOUCH_LC717A00_mode+0x1b0>)
  1025ae:	4628      	mov	r0, r5
  1025b0:	602e      	str	r6, [r5, #0]
  1025b2:	f005 fbce 	bl	107d52 <__aeabi_atexit>
  1025b6:	f44f 33e1 	mov.w	r3, #115200	; 0x1c200
  1025ba:	9300      	str	r3, [sp, #0]
  1025bc:	2209      	movs	r2, #9
  1025be:	4623      	mov	r3, r4
  1025c0:	2108      	movs	r1, #8
  1025c2:	481f      	ldr	r0, [pc, #124]	; (102640 <_GLOBAL__sub_I_TOUCH_LC717A00_mode+0x1b8>)
  1025c4:	f004 ff52 	bl	10746c <mbed::Serial::Serial(PinName, PinName, char const*, int)>
  1025c8:	4a09      	ldr	r2, [pc, #36]	; (1025f0 <_GLOBAL__sub_I_TOUCH_LC717A00_mode+0x168>)
  1025ca:	491e      	ldr	r1, [pc, #120]	; (102644 <_GLOBAL__sub_I_TOUCH_LC717A00_mode+0x1bc>)
  1025cc:	481c      	ldr	r0, [pc, #112]	; (102640 <_GLOBAL__sub_I_TOUCH_LC717A00_mode+0x1b8>)
  1025ce:	f005 fbc0 	bl	107d52 <__aeabi_atexit>
  1025d2:	481d      	ldr	r0, [pc, #116]	; (102648 <_GLOBAL__sub_I_TOUCH_LC717A00_mode+0x1c0>)
  1025d4:	f001 f9fa 	bl	1039cc <RSL10_BLE::RSL10_BLE()>
  1025d8:	4a05      	ldr	r2, [pc, #20]	; (1025f0 <_GLOBAL__sub_I_TOUCH_LC717A00_mode+0x168>)
  1025da:	491c      	ldr	r1, [pc, #112]	; (10264c <_GLOBAL__sub_I_TOUCH_LC717A00_mode+0x1c4>)
  1025dc:	481a      	ldr	r0, [pc, #104]	; (102648 <_GLOBAL__sub_I_TOUCH_LC717A00_mode+0x1c0>)
  1025de:	b002      	add	sp, #8
  1025e0:	e8bd 4070 	ldmia.w	sp!, {r4, r5, r6, lr}
  1025e4:	f005 bbb5 	b.w	107d52 <__aeabi_atexit>
  1025e8:	0010f4f1 	.word	0x0010f4f1
  1025ec:	3fff67d8 	.word	0x3fff67d8
  1025f0:	3fff40a0 	.word	0x3fff40a0
  1025f4:	001082bd 	.word	0x001082bd
  1025f8:	3fff65c4 	.word	0x3fff65c4
  1025fc:	00102145 	.word	0x00102145
  102600:	3fff6a0c 	.word	0x3fff6a0c
  102604:	3fff67f0 	.word	0x3fff67f0
  102608:	3fff6b4c 	.word	0x3fff6b4c
  10260c:	3fff673c 	.word	0x3fff673c
  102610:	3fff6ab8 	.word	0x3fff6ab8
  102614:	0010815b 	.word	0x0010815b
  102618:	0010219f 	.word	0x0010219f
  10261c:	3fff6b6c 	.word	0x3fff6b6c
  102620:	00102651 	.word	0x00102651
  102624:	3fff6910 	.word	0x3fff6910
  102628:	3fff6840 	.word	0x3fff6840
  10262c:	0010f294 	.word	0x0010f294
  102630:	001029d5 	.word	0x001029d5
  102634:	3fff6808 	.word	0x3fff6808
  102638:	00102355 	.word	0x00102355
  10263c:	3fff6948 	.word	0x3fff6948
  102640:	3fff6a3c 	.word	0x3fff6a3c
  102644:	00102315 	.word	0x00102315
  102648:	3fff6980 	.word	0x3fff6980
  10264c:	00102175 	.word	0x00102175

00102650 <GPS::~GPS()>:
  102650:	4770      	bx	lr
	...

00102654 <__tcf_0>:
  102654:	b538      	push	{r3, r4, r5, lr}
  102656:	4d06      	ldr	r5, [pc, #24]	; (102670 <__tcf_0+0x1c>)
  102658:	2400      	movs	r4, #0
  10265a:	f504 70b4 	add.w	r0, r4, #360	; 0x168
  10265e:	4428      	add	r0, r5
  102660:	3c18      	subs	r4, #24
  102662:	f005 fe15 	bl	108290 <std::__cxx11::basic_string<char, std::char_traits<char>, std::allocator<char> >::_M_dispose()>
  102666:	f514 7fc0 	cmn.w	r4, #384	; 0x180
  10266a:	d1f6      	bne.n	10265a <__tcf_0+0x6>
  10266c:	bd38      	pop	{r3, r4, r5, pc}
  10266e:	bf00      	nop
  102670:	3fff70d4 	.word	0x3fff70d4

00102674 <GPS::~GPS()>:
  102674:	b510      	push	{r4, lr}
  102676:	4604      	mov	r4, r0
  102678:	f005 fba0 	bl	107dbc <operator delete(void*)>
  10267c:	4620      	mov	r0, r4
  10267e:	bd10      	pop	{r4, pc}

00102680 <std::__cxx11::basic_string<char, std::char_traits<char>, std::allocator<char> >::basic_string(char const*, std::allocator<char> const&) [clone .isra.14] [clone .constprop.16]>:
  102680:	b510      	push	{r4, lr}
  102682:	4604      	mov	r4, r0
  102684:	4a05      	ldr	r2, [pc, #20]	; (10269c <std::__cxx11::basic_string<char, std::char_traits<char>, std::allocator<char> >::basic_string(char const*, std::allocator<char> const&) [clone .isra.14] [clone .constprop.16]+0x1c>)
  102686:	3008      	adds	r0, #8
  102688:	6020      	str	r0, [r4, #0]
  10268a:	4611      	mov	r1, r2
  10268c:	f005 fe11 	bl	1082b2 <std::__cxx11::basic_string<char, std::char_traits<char>, std::allocator<char> >::_S_copy_chars(char*, char const*, char const*)>
  102690:	6822      	ldr	r2, [r4, #0]
  102692:	2300      	movs	r3, #0
  102694:	6063      	str	r3, [r4, #4]
  102696:	7013      	strb	r3, [r2, #0]
  102698:	4620      	mov	r0, r4
  10269a:	bd10      	pop	{r4, pc}
  10269c:	0010f4f1 	.word	0x0010f4f1

001026a0 <GPS::deactivate()>:
  1026a0:	b538      	push	{r3, r4, r5, lr}
  1026a2:	4605      	mov	r5, r0
  1026a4:	4c0b      	ldr	r4, [pc, #44]	; (1026d4 <GPS::deactivate()+0x34>)
  1026a6:	f001 fc0b 	bl	103ec0 <core_util_critical_section_enter>
  1026aa:	2101      	movs	r1, #1
  1026ac:	4620      	mov	r0, r4
  1026ae:	f003 fba7 	bl	105e00 <gpio_dir>
  1026b2:	f001 fc31 	bl	103f18 <core_util_critical_section_exit>
  1026b6:	f001 fc03 	bl	103ec0 <core_util_critical_section_enter>
  1026ba:	2102      	movs	r1, #2
  1026bc:	4620      	mov	r0, r4
  1026be:	f003 fb9b 	bl	105df8 <gpio_mode>
  1026c2:	f001 fc29 	bl	103f18 <core_util_critical_section_exit>
  1026c6:	2101      	movs	r1, #1
  1026c8:	4620      	mov	r0, r4
  1026ca:	f003 fbab 	bl	105e24 <gpio_write>
  1026ce:	2300      	movs	r3, #0
  1026d0:	712b      	strb	r3, [r5, #4]
  1026d2:	bd38      	pop	{r3, r4, r5, pc}
  1026d4:	3fff72e4 	.word	0x3fff72e4

001026d8 <GPS::send(char*)>:
  1026d8:	b538      	push	{r3, r4, r5, lr}
  1026da:	460c      	mov	r4, r1
  1026dc:	1d45      	adds	r5, r0, #5
  1026de:	4629      	mov	r1, r5
  1026e0:	4620      	mov	r0, r4
  1026e2:	f008 fd7c 	bl	10b1de <strcmp>
  1026e6:	b140      	cbz	r0, 1026fa <GPS::send(char*)+0x22>
  1026e8:	4621      	mov	r1, r4
  1026ea:	4628      	mov	r0, r5
  1026ec:	f008 fd81 	bl	10b1f2 <strcpy>
  1026f0:	4620      	mov	r0, r4
  1026f2:	e8bd 4038 	ldmia.w	sp!, {r3, r4, r5, lr}
  1026f6:	f000 bd91 	b.w	10321c <Send_UART(char*)>
  1026fa:	bd38      	pop	{r3, r4, r5, pc}

001026fc <GPS::control(int, bool)>:
  1026fc:	b510      	push	{r4, lr}
  1026fe:	2902      	cmp	r1, #2
  102700:	b09a      	sub	sp, #104	; 0x68
  102702:	d116      	bne.n	102732 <GPS::control(int, bool)+0x36>
  102704:	b152      	cbz	r2, 10271c <GPS::control(int, bool)+0x20>
  102706:	4922      	ldr	r1, [pc, #136]	; (102790 <GPS::control(int, bool)+0x94>)
  102708:	a801      	add	r0, sp, #4
  10270a:	f008 fd72 	bl	10b1f2 <strcpy>
  10270e:	a801      	add	r0, sp, #4
  102710:	f000 fd84 	bl	10321c <Send_UART(char*)>
  102714:	4b1f      	ldr	r3, [pc, #124]	; (102794 <GPS::control(int, bool)+0x98>)
  102716:	4820      	ldr	r0, [pc, #128]	; (102798 <GPS::control(int, bool)+0x9c>)
  102718:	6819      	ldr	r1, [r3, #0]
  10271a:	e032      	b.n	102782 <GPS::control(int, bool)+0x86>
  10271c:	491f      	ldr	r1, [pc, #124]	; (10279c <GPS::control(int, bool)+0xa0>)
  10271e:	a801      	add	r0, sp, #4
  102720:	f008 fd67 	bl	10b1f2 <strcpy>
  102724:	a801      	add	r0, sp, #4
  102726:	f000 fd79 	bl	10321c <Send_UART(char*)>
  10272a:	4b1d      	ldr	r3, [pc, #116]	; (1027a0 <GPS::control(int, bool)+0xa4>)
  10272c:	481d      	ldr	r0, [pc, #116]	; (1027a4 <GPS::control(int, bool)+0xa8>)
  10272e:	6819      	ldr	r1, [r3, #0]
  102730:	e027      	b.n	102782 <GPS::control(int, bool)+0x86>
  102732:	2901      	cmp	r1, #1
  102734:	d10d      	bne.n	102752 <GPS::control(int, bool)+0x56>
  102736:	4c1c      	ldr	r4, [pc, #112]	; (1027a8 <GPS::control(int, bool)+0xac>)
  102738:	b10a      	cbz	r2, 10273e <GPS::control(int, bool)+0x42>
  10273a:	4915      	ldr	r1, [pc, #84]	; (102790 <GPS::control(int, bool)+0x94>)
  10273c:	e000      	b.n	102740 <GPS::control(int, bool)+0x44>
  10273e:	491b      	ldr	r1, [pc, #108]	; (1027ac <GPS::control(int, bool)+0xb0>)
  102740:	a801      	add	r0, sp, #4
  102742:	f008 fd56 	bl	10b1f2 <strcpy>
  102746:	a801      	add	r0, sp, #4
  102748:	f000 fd68 	bl	10321c <Send_UART(char*)>
  10274c:	6821      	ldr	r1, [r4, #0]
  10274e:	4818      	ldr	r0, [pc, #96]	; (1027b0 <GPS::control(int, bool)+0xb4>)
  102750:	e017      	b.n	102782 <GPS::control(int, bool)+0x86>
  102752:	2963      	cmp	r1, #99	; 0x63
  102754:	d11a      	bne.n	10278c <GPS::control(int, bool)+0x90>
  102756:	b152      	cbz	r2, 10276e <GPS::control(int, bool)+0x72>
  102758:	4916      	ldr	r1, [pc, #88]	; (1027b4 <GPS::control(int, bool)+0xb8>)
  10275a:	a801      	add	r0, sp, #4
  10275c:	f008 fd49 	bl	10b1f2 <strcpy>
  102760:	a801      	add	r0, sp, #4
  102762:	f000 fd5b 	bl	10321c <Send_UART(char*)>
  102766:	4b14      	ldr	r3, [pc, #80]	; (1027b8 <GPS::control(int, bool)+0xbc>)
  102768:	4814      	ldr	r0, [pc, #80]	; (1027bc <GPS::control(int, bool)+0xc0>)
  10276a:	6819      	ldr	r1, [r3, #0]
  10276c:	e009      	b.n	102782 <GPS::control(int, bool)+0x86>
  10276e:	4914      	ldr	r1, [pc, #80]	; (1027c0 <GPS::control(int, bool)+0xc4>)
  102770:	a801      	add	r0, sp, #4
  102772:	f008 fd3e 	bl	10b1f2 <strcpy>
  102776:	a801      	add	r0, sp, #4
  102778:	f000 fd50 	bl	10321c <Send_UART(char*)>
  10277c:	4b11      	ldr	r3, [pc, #68]	; (1027c4 <GPS::control(int, bool)+0xc8>)
  10277e:	4812      	ldr	r0, [pc, #72]	; (1027c8 <GPS::control(int, bool)+0xcc>)
  102780:	6819      	ldr	r1, [r3, #0]
  102782:	f000 fd59 	bl	103238 <Send_UART_nonPrintableChar(int*, int)>
  102786:	20c8      	movs	r0, #200	; 0xc8
  102788:	f005 fbf6 	bl	107f78 <wait_ms>
  10278c:	b01a      	add	sp, #104	; 0x68
  10278e:	bd10      	pop	{r4, pc}
  102790:	0010e6be 	.word	0x0010e6be
  102794:	3fff40a4 	.word	0x3fff40a4
  102798:	3fff5268 	.word	0x3fff5268
  10279c:	0010e6d6 	.word	0x0010e6d6
  1027a0:	3fff5264 	.word	0x3fff5264
  1027a4:	3fff40a8 	.word	0x3fff40a8
  1027a8:	3fff525c 	.word	0x3fff525c
  1027ac:	0010e6ef 	.word	0x0010e6ef
  1027b0:	3fff5230 	.word	0x3fff5230
  1027b4:	0010e704 	.word	0x0010e704
  1027b8:	3fff5294 	.word	0x3fff5294
  1027bc:	3fff40d4 	.word	0x3fff40d4
  1027c0:	0010e720 	.word	0x0010e720
  1027c4:	3fff5260 	.word	0x3fff5260
  1027c8:	3fff5298 	.word	0x3fff5298

001027cc <GPS::GPS()>:
  1027cc:	4a02      	ldr	r2, [pc, #8]	; (1027d8 <GPS::GPS()+0xc>)
  1027ce:	6002      	str	r2, [r0, #0]
  1027d0:	2200      	movs	r2, #0
  1027d2:	f8c0 2134 	str.w	r2, [r0, #308]	; 0x134
  1027d6:	4770      	bx	lr
  1027d8:	0010e6a0 	.word	0x0010e6a0

001027dc <_GLOBAL__sub_I_TOUCH_LC717A00_mode>:
  1027dc:	b573      	push	{r0, r1, r4, r5, r6, lr}
  1027de:	4835      	ldr	r0, [pc, #212]	; (1028b4 <_GLOBAL__sub_I_TOUCH_LC717A00_mode+0xd8>)
  1027e0:	f7ff ff4e 	bl	102680 <std::__cxx11::basic_string<char, std::char_traits<char>, std::allocator<char> >::basic_string(char const*, std::allocator<char> const&) [clone .isra.14] [clone .constprop.16]>
  1027e4:	4a34      	ldr	r2, [pc, #208]	; (1028b8 <_GLOBAL__sub_I_TOUCH_LC717A00_mode+0xdc>)
  1027e6:	4935      	ldr	r1, [pc, #212]	; (1028bc <_GLOBAL__sub_I_TOUCH_LC717A00_mode+0xe0>)
  1027e8:	4832      	ldr	r0, [pc, #200]	; (1028b4 <_GLOBAL__sub_I_TOUCH_LC717A00_mode+0xd8>)
  1027ea:	f005 fab2 	bl	107d52 <__aeabi_atexit>
  1027ee:	4b34      	ldr	r3, [pc, #208]	; (1028c0 <_GLOBAL__sub_I_TOUCH_LC717A00_mode+0xe4>)
  1027f0:	2200      	movs	r2, #0
  1027f2:	f503 70c0 	add.w	r0, r3, #384	; 0x180
  1027f6:	4619      	mov	r1, r3
  1027f8:	f843 2c04 	str.w	r2, [r3, #-4]
  1027fc:	f843 3c08 	str.w	r3, [r3, #-8]
  102800:	f801 2b18 	strb.w	r2, [r1], #24
  102804:	6119      	str	r1, [r3, #16]
  102806:	615a      	str	r2, [r3, #20]
  102808:	761a      	strb	r2, [r3, #24]
  10280a:	3330      	adds	r3, #48	; 0x30
  10280c:	4283      	cmp	r3, r0
  10280e:	f04f 0400 	mov.w	r4, #0
  102812:	d1f0      	bne.n	1027f6 <_GLOBAL__sub_I_TOUCH_LC717A00_mode+0x1a>
  102814:	4a28      	ldr	r2, [pc, #160]	; (1028b8 <_GLOBAL__sub_I_TOUCH_LC717A00_mode+0xdc>)
  102816:	492b      	ldr	r1, [pc, #172]	; (1028c4 <_GLOBAL__sub_I_TOUCH_LC717A00_mode+0xe8>)
  102818:	4620      	mov	r0, r4
  10281a:	f005 fa9a 	bl	107d52 <__aeabi_atexit>
  10281e:	482a      	ldr	r0, [pc, #168]	; (1028c8 <_GLOBAL__sub_I_TOUCH_LC717A00_mode+0xec>)
  102820:	f7ff ff2e 	bl	102680 <std::__cxx11::basic_string<char, std::char_traits<char>, std::allocator<char> >::basic_string(char const*, std::allocator<char> const&) [clone .isra.14] [clone .constprop.16]>
  102824:	4a24      	ldr	r2, [pc, #144]	; (1028b8 <_GLOBAL__sub_I_TOUCH_LC717A00_mode+0xdc>)
  102826:	4925      	ldr	r1, [pc, #148]	; (1028bc <_GLOBAL__sub_I_TOUCH_LC717A00_mode+0xe0>)
  102828:	4827      	ldr	r0, [pc, #156]	; (1028c8 <_GLOBAL__sub_I_TOUCH_LC717A00_mode+0xec>)
  10282a:	f005 fa92 	bl	107d52 <__aeabi_atexit>
  10282e:	4827      	ldr	r0, [pc, #156]	; (1028cc <_GLOBAL__sub_I_TOUCH_LC717A00_mode+0xf0>)
  102830:	f7ff ff26 	bl	102680 <std::__cxx11::basic_string<char, std::char_traits<char>, std::allocator<char> >::basic_string(char const*, std::allocator<char> const&) [clone .isra.14] [clone .constprop.16]>
  102834:	4a20      	ldr	r2, [pc, #128]	; (1028b8 <_GLOBAL__sub_I_TOUCH_LC717A00_mode+0xdc>)
  102836:	4921      	ldr	r1, [pc, #132]	; (1028bc <_GLOBAL__sub_I_TOUCH_LC717A00_mode+0xe0>)
  102838:	4824      	ldr	r0, [pc, #144]	; (1028cc <_GLOBAL__sub_I_TOUCH_LC717A00_mode+0xf0>)
  10283a:	f005 fa8a 	bl	107d52 <__aeabi_atexit>
  10283e:	4824      	ldr	r0, [pc, #144]	; (1028d0 <_GLOBAL__sub_I_TOUCH_LC717A00_mode+0xf4>)
  102840:	f7ff ff1e 	bl	102680 <std::__cxx11::basic_string<char, std::char_traits<char>, std::allocator<char> >::basic_string(char const*, std::allocator<char> const&) [clone .isra.14] [clone .constprop.16]>
  102844:	4a1c      	ldr	r2, [pc, #112]	; (1028b8 <_GLOBAL__sub_I_TOUCH_LC717A00_mode+0xdc>)
  102846:	491d      	ldr	r1, [pc, #116]	; (1028bc <_GLOBAL__sub_I_TOUCH_LC717A00_mode+0xe0>)
  102848:	4821      	ldr	r0, [pc, #132]	; (1028d0 <_GLOBAL__sub_I_TOUCH_LC717A00_mode+0xf4>)
  10284a:	4d22      	ldr	r5, [pc, #136]	; (1028d4 <_GLOBAL__sub_I_TOUCH_LC717A00_mode+0xf8>)
  10284c:	f005 fa81 	bl	107d52 <__aeabi_atexit>
  102850:	4821      	ldr	r0, [pc, #132]	; (1028d8 <_GLOBAL__sub_I_TOUCH_LC717A00_mode+0xfc>)
  102852:	f005 fc75 	bl	108140 <rtos::Mutex::Mutex()>
  102856:	f04f 36ff 	mov.w	r6, #4294967295
  10285a:	4a17      	ldr	r2, [pc, #92]	; (1028b8 <_GLOBAL__sub_I_TOUCH_LC717A00_mode+0xdc>)
  10285c:	491f      	ldr	r1, [pc, #124]	; (1028dc <_GLOBAL__sub_I_TOUCH_LC717A00_mode+0x100>)
  10285e:	481e      	ldr	r0, [pc, #120]	; (1028d8 <_GLOBAL__sub_I_TOUCH_LC717A00_mode+0xfc>)
  102860:	f005 fa77 	bl	107d52 <__aeabi_atexit>
  102864:	2304      	movs	r3, #4
  102866:	2206      	movs	r2, #6
  102868:	9600      	str	r6, [sp, #0]
  10286a:	2105      	movs	r1, #5
  10286c:	4628      	mov	r0, r5
  10286e:	f004 febf 	bl	1075f0 <mbed::SPI::SPI(PinName, PinName, PinName, PinName)>
  102872:	4631      	mov	r1, r6
  102874:	f105 002c 	add.w	r0, r5, #44	; 0x2c
  102878:	62ec      	str	r4, [r5, #44]	; 0x2c
  10287a:	f885 4030 	strb.w	r4, [r5, #48]	; 0x30
  10287e:	636c      	str	r4, [r5, #52]	; 0x34
  102880:	f001 f9a2 	bl	103bc8 <gpio_init_out>
  102884:	2320      	movs	r3, #32
  102886:	9600      	str	r6, [sp, #0]
  102888:	2202      	movs	r2, #2
  10288a:	2103      	movs	r1, #3
  10288c:	f105 0040 	add.w	r0, r5, #64	; 0x40
  102890:	f000 fe32 	bl	1034f8 <PCA9655E::PCA9655E(PinName, PinName, unsigned char, PinName)>
  102894:	4a08      	ldr	r2, [pc, #32]	; (1028b8 <_GLOBAL__sub_I_TOUCH_LC717A00_mode+0xdc>)
  102896:	4912      	ldr	r1, [pc, #72]	; (1028e0 <_GLOBAL__sub_I_TOUCH_LC717A00_mode+0x104>)
  102898:	4628      	mov	r0, r5
  10289a:	f005 fa5a 	bl	107d52 <__aeabi_atexit>
  10289e:	4811      	ldr	r0, [pc, #68]	; (1028e4 <_GLOBAL__sub_I_TOUCH_LC717A00_mode+0x108>)
  1028a0:	210c      	movs	r1, #12
  1028a2:	6004      	str	r4, [r0, #0]
  1028a4:	7104      	strb	r4, [r0, #4]
  1028a6:	6084      	str	r4, [r0, #8]
  1028a8:	b002      	add	sp, #8
  1028aa:	e8bd 4070 	ldmia.w	sp!, {r4, r5, r6, lr}
  1028ae:	f001 b964 	b.w	103b7a <gpio_init_in>
  1028b2:	bf00      	nop
  1028b4:	3fff7254 	.word	0x3fff7254
  1028b8:	3fff40a0 	.word	0x3fff40a0
  1028bc:	001082bd 	.word	0x001082bd
  1028c0:	3fff70dc 	.word	0x3fff70dc
  1028c4:	00102655 	.word	0x00102655
  1028c8:	3fff7284 	.word	0x3fff7284
  1028cc:	3fff726c 	.word	0x3fff726c
  1028d0:	3fff72cc 	.word	0x3fff72cc
  1028d4:	3fff7038 	.word	0x3fff7038
  1028d8:	3fff729c 	.word	0x3fff729c
  1028dc:	0010815b 	.word	0x0010815b
  1028e0:	0010219f 	.word	0x0010219f
  1028e4:	3fff72e4 	.word	0x3fff72e4

001028e8 <__tcf_0>:
  1028e8:	b538      	push	{r3, r4, r5, lr}
  1028ea:	4d06      	ldr	r5, [pc, #24]	; (102904 <__tcf_0+0x1c>)
  1028ec:	2400      	movs	r4, #0
  1028ee:	f504 70b4 	add.w	r0, r4, #360	; 0x168
  1028f2:	4428      	add	r0, r5
  1028f4:	3c18      	subs	r4, #24
  1028f6:	f005 fccb 	bl	108290 <std::__cxx11::basic_string<char, std::char_traits<char>, std::allocator<char> >::_M_dispose()>
  1028fa:	f514 7fc0 	cmn.w	r4, #384	; 0x180
  1028fe:	d1f6      	bne.n	1028ee <__tcf_0+0x6>
  102900:	bd38      	pop	{r3, r4, r5, pc}
  102902:	bf00      	nop
  102904:	3fff72f0 	.word	0x3fff72f0

00102908 <std::__cxx11::basic_string<char, std::char_traits<char>, std::allocator<char> >::basic_string(char const*, std::allocator<char> const&) [clone .isra.14] [clone .constprop.16]>:
  102908:	b510      	push	{r4, lr}
  10290a:	4604      	mov	r4, r0
  10290c:	4a05      	ldr	r2, [pc, #20]	; (102924 <std::__cxx11::basic_string<char, std::char_traits<char>, std::allocator<char> >::basic_string(char const*, std::allocator<char> const&) [clone .isra.14] [clone .constprop.16]+0x1c>)
  10290e:	3008      	adds	r0, #8
  102910:	6020      	str	r0, [r4, #0]
  102912:	4611      	mov	r1, r2
  102914:	f005 fccd 	bl	1082b2 <std::__cxx11::basic_string<char, std::char_traits<char>, std::allocator<char> >::_S_copy_chars(char*, char const*, char const*)>
  102918:	6822      	ldr	r2, [r4, #0]
  10291a:	2300      	movs	r3, #0
  10291c:	6063      	str	r3, [r4, #4]
  10291e:	7013      	strb	r3, [r2, #0]
  102920:	4620      	mov	r0, r4
  102922:	bd10      	pop	{r4, pc}
  102924:	0010f4f1 	.word	0x0010f4f1

00102928 <_GLOBAL__sub_I_TOUCH_LC717A00_mode>:
  102928:	b508      	push	{r3, lr}
  10292a:	4820      	ldr	r0, [pc, #128]	; (1029ac <_GLOBAL__sub_I_TOUCH_LC717A00_mode+0x84>)
  10292c:	f7ff ffec 	bl	102908 <std::__cxx11::basic_string<char, std::char_traits<char>, std::allocator<char> >::basic_string(char const*, std::allocator<char> const&) [clone .isra.14] [clone .constprop.16]>
  102930:	4a1f      	ldr	r2, [pc, #124]	; (1029b0 <_GLOBAL__sub_I_TOUCH_LC717A00_mode+0x88>)
  102932:	4920      	ldr	r1, [pc, #128]	; (1029b4 <_GLOBAL__sub_I_TOUCH_LC717A00_mode+0x8c>)
  102934:	481d      	ldr	r0, [pc, #116]	; (1029ac <_GLOBAL__sub_I_TOUCH_LC717A00_mode+0x84>)
  102936:	f005 fa0c 	bl	107d52 <__aeabi_atexit>
  10293a:	4b1f      	ldr	r3, [pc, #124]	; (1029b8 <_GLOBAL__sub_I_TOUCH_LC717A00_mode+0x90>)
  10293c:	2200      	movs	r2, #0
  10293e:	f503 70c0 	add.w	r0, r3, #384	; 0x180
  102942:	4619      	mov	r1, r3
  102944:	f843 2c04 	str.w	r2, [r3, #-4]
  102948:	f843 3c08 	str.w	r3, [r3, #-8]
  10294c:	f801 2b18 	strb.w	r2, [r1], #24
  102950:	6119      	str	r1, [r3, #16]
  102952:	615a      	str	r2, [r3, #20]
  102954:	761a      	strb	r2, [r3, #24]
  102956:	3330      	adds	r3, #48	; 0x30
  102958:	4283      	cmp	r3, r0
  10295a:	d1f2      	bne.n	102942 <_GLOBAL__sub_I_TOUCH_LC717A00_mode+0x1a>
  10295c:	4a14      	ldr	r2, [pc, #80]	; (1029b0 <_GLOBAL__sub_I_TOUCH_LC717A00_mode+0x88>)
  10295e:	4917      	ldr	r1, [pc, #92]	; (1029bc <_GLOBAL__sub_I_TOUCH_LC717A00_mode+0x94>)
  102960:	2000      	movs	r0, #0
  102962:	f005 f9f6 	bl	107d52 <__aeabi_atexit>
  102966:	4816      	ldr	r0, [pc, #88]	; (1029c0 <_GLOBAL__sub_I_TOUCH_LC717A00_mode+0x98>)
  102968:	f7ff ffce 	bl	102908 <std::__cxx11::basic_string<char, std::char_traits<char>, std::allocator<char> >::basic_string(char const*, std::allocator<char> const&) [clone .isra.14] [clone .constprop.16]>
  10296c:	4a10      	ldr	r2, [pc, #64]	; (1029b0 <_GLOBAL__sub_I_TOUCH_LC717A00_mode+0x88>)
  10296e:	4911      	ldr	r1, [pc, #68]	; (1029b4 <_GLOBAL__sub_I_TOUCH_LC717A00_mode+0x8c>)
  102970:	4813      	ldr	r0, [pc, #76]	; (1029c0 <_GLOBAL__sub_I_TOUCH_LC717A00_mode+0x98>)
  102972:	f005 f9ee 	bl	107d52 <__aeabi_atexit>
  102976:	4813      	ldr	r0, [pc, #76]	; (1029c4 <_GLOBAL__sub_I_TOUCH_LC717A00_mode+0x9c>)
  102978:	f7ff ffc6 	bl	102908 <std::__cxx11::basic_string<char, std::char_traits<char>, std::allocator<char> >::basic_string(char const*, std::allocator<char> const&) [clone .isra.14] [clone .constprop.16]>
  10297c:	4a0c      	ldr	r2, [pc, #48]	; (1029b0 <_GLOBAL__sub_I_TOUCH_LC717A00_mode+0x88>)
  10297e:	490d      	ldr	r1, [pc, #52]	; (1029b4 <_GLOBAL__sub_I_TOUCH_LC717A00_mode+0x8c>)
  102980:	4810      	ldr	r0, [pc, #64]	; (1029c4 <_GLOBAL__sub_I_TOUCH_LC717A00_mode+0x9c>)
  102982:	f005 f9e6 	bl	107d52 <__aeabi_atexit>
  102986:	4810      	ldr	r0, [pc, #64]	; (1029c8 <_GLOBAL__sub_I_TOUCH_LC717A00_mode+0xa0>)
  102988:	f7ff ffbe 	bl	102908 <std::__cxx11::basic_string<char, std::char_traits<char>, std::allocator<char> >::basic_string(char const*, std::allocator<char> const&) [clone .isra.14] [clone .constprop.16]>
  10298c:	4a08      	ldr	r2, [pc, #32]	; (1029b0 <_GLOBAL__sub_I_TOUCH_LC717A00_mode+0x88>)
  10298e:	4909      	ldr	r1, [pc, #36]	; (1029b4 <_GLOBAL__sub_I_TOUCH_LC717A00_mode+0x8c>)
  102990:	480d      	ldr	r0, [pc, #52]	; (1029c8 <_GLOBAL__sub_I_TOUCH_LC717A00_mode+0xa0>)
  102992:	f005 f9de 	bl	107d52 <__aeabi_atexit>
  102996:	480d      	ldr	r0, [pc, #52]	; (1029cc <_GLOBAL__sub_I_TOUCH_LC717A00_mode+0xa4>)
  102998:	f005 fbd2 	bl	108140 <rtos::Mutex::Mutex()>
  10299c:	e8bd 4008 	ldmia.w	sp!, {r3, lr}
  1029a0:	4a03      	ldr	r2, [pc, #12]	; (1029b0 <_GLOBAL__sub_I_TOUCH_LC717A00_mode+0x88>)
  1029a2:	490b      	ldr	r1, [pc, #44]	; (1029d0 <_GLOBAL__sub_I_TOUCH_LC717A00_mode+0xa8>)
  1029a4:	4809      	ldr	r0, [pc, #36]	; (1029cc <_GLOBAL__sub_I_TOUCH_LC717A00_mode+0xa4>)
  1029a6:	f005 b9d4 	b.w	107d52 <__aeabi_atexit>
  1029aa:	bf00      	nop
  1029ac:	3fff7470 	.word	0x3fff7470
  1029b0:	3fff40a0 	.word	0x3fff40a0
  1029b4:	001082bd 	.word	0x001082bd
  1029b8:	3fff72f8 	.word	0x3fff72f8
  1029bc:	001028e9 	.word	0x001028e9
  1029c0:	3fff74a0 	.word	0x3fff74a0
  1029c4:	3fff7488 	.word	0x3fff7488
  1029c8:	3fff74e8 	.word	0x3fff74e8
  1029cc:	3fff74b8 	.word	0x3fff74b8
  1029d0:	0010815b 	.word	0x0010815b

001029d4 <GSM::~GSM()>:
  1029d4:	4770      	bx	lr
	...

001029d8 <__tcf_0>:
  1029d8:	b538      	push	{r3, r4, r5, lr}
  1029da:	4d06      	ldr	r5, [pc, #24]	; (1029f4 <__tcf_0+0x1c>)
  1029dc:	2400      	movs	r4, #0
  1029de:	f504 70b4 	add.w	r0, r4, #360	; 0x168
  1029e2:	4428      	add	r0, r5
  1029e4:	3c18      	subs	r4, #24
  1029e6:	f005 fc53 	bl	108290 <std::__cxx11::basic_string<char, std::char_traits<char>, std::allocator<char> >::_M_dispose()>
  1029ea:	f514 7fc0 	cmn.w	r4, #384	; 0x180
  1029ee:	d1f6      	bne.n	1029de <__tcf_0+0x6>
  1029f0:	bd38      	pop	{r3, r4, r5, pc}
  1029f2:	bf00      	nop
  1029f4:	3fff7500 	.word	0x3fff7500

001029f8 <GSM::~GSM()>:
  1029f8:	b510      	push	{r4, lr}
  1029fa:	4604      	mov	r4, r0
  1029fc:	f005 f9de 	bl	107dbc <operator delete(void*)>
  102a00:	4620      	mov	r0, r4
  102a02:	bd10      	pop	{r4, pc}

00102a04 <std::__cxx11::basic_string<char, std::char_traits<char>, std::allocator<char> >::basic_string(char const*, std::allocator<char> const&) [clone .isra.14] [clone .constprop.16]>:
  102a04:	b510      	push	{r4, lr}
  102a06:	4604      	mov	r4, r0
  102a08:	4a05      	ldr	r2, [pc, #20]	; (102a20 <std::__cxx11::basic_string<char, std::char_traits<char>, std::allocator<char> >::basic_string(char const*, std::allocator<char> const&) [clone .isra.14] [clone .constprop.16]+0x1c>)
  102a0a:	3008      	adds	r0, #8
  102a0c:	6020      	str	r0, [r4, #0]
  102a0e:	4611      	mov	r1, r2
  102a10:	f005 fc4f 	bl	1082b2 <std::__cxx11::basic_string<char, std::char_traits<char>, std::allocator<char> >::_S_copy_chars(char*, char const*, char const*)>
  102a14:	6822      	ldr	r2, [r4, #0]
  102a16:	2300      	movs	r3, #0
  102a18:	6063      	str	r3, [r4, #4]
  102a1a:	7013      	strb	r3, [r2, #0]
  102a1c:	4620      	mov	r0, r4
  102a1e:	bd10      	pop	{r4, pc}
  102a20:	0010f4f1 	.word	0x0010f4f1

00102a24 <GSM::deactivate()>:
  102a24:	b538      	push	{r3, r4, r5, lr}
  102a26:	4605      	mov	r5, r0
  102a28:	4c0b      	ldr	r4, [pc, #44]	; (102a58 <GSM::deactivate()+0x34>)
  102a2a:	f001 fa49 	bl	103ec0 <core_util_critical_section_enter>
  102a2e:	2101      	movs	r1, #1
  102a30:	4620      	mov	r0, r4
  102a32:	f003 f9e5 	bl	105e00 <gpio_dir>
  102a36:	f001 fa6f 	bl	103f18 <core_util_critical_section_exit>
  102a3a:	f001 fa41 	bl	103ec0 <core_util_critical_section_enter>
  102a3e:	2102      	movs	r1, #2
  102a40:	4620      	mov	r0, r4
  102a42:	f003 f9d9 	bl	105df8 <gpio_mode>
  102a46:	f001 fa67 	bl	103f18 <core_util_critical_section_exit>
  102a4a:	2101      	movs	r1, #1
  102a4c:	4620      	mov	r0, r4
  102a4e:	f003 f9e9 	bl	105e24 <gpio_write>
  102a52:	2300      	movs	r3, #0
  102a54:	712b      	strb	r3, [r5, #4]
  102a56:	bd38      	pop	{r3, r4, r5, pc}
  102a58:	3fff76c8 	.word	0x3fff76c8

00102a5c <GSM::GSM()>:
  102a5c:	4b01      	ldr	r3, [pc, #4]	; (102a64 <GSM::GSM()+0x8>)
  102a5e:	6003      	str	r3, [r0, #0]
  102a60:	4770      	bx	lr
  102a62:	bf00      	nop
  102a64:	0010e748 	.word	0x0010e748

00102a68 <_GLOBAL__sub_I_TOUCH_LC717A00_mode>:
  102a68:	b510      	push	{r4, lr}
  102a6a:	4824      	ldr	r0, [pc, #144]	; (102afc <_GLOBAL__sub_I_TOUCH_LC717A00_mode+0x94>)
  102a6c:	f7ff ffca 	bl	102a04 <std::__cxx11::basic_string<char, std::char_traits<char>, std::allocator<char> >::basic_string(char const*, std::allocator<char> const&) [clone .isra.14] [clone .constprop.16]>
  102a70:	4a23      	ldr	r2, [pc, #140]	; (102b00 <_GLOBAL__sub_I_TOUCH_LC717A00_mode+0x98>)
  102a72:	4924      	ldr	r1, [pc, #144]	; (102b04 <_GLOBAL__sub_I_TOUCH_LC717A00_mode+0x9c>)
  102a74:	4821      	ldr	r0, [pc, #132]	; (102afc <_GLOBAL__sub_I_TOUCH_LC717A00_mode+0x94>)
  102a76:	f005 f96c 	bl	107d52 <__aeabi_atexit>
  102a7a:	4b23      	ldr	r3, [pc, #140]	; (102b08 <_GLOBAL__sub_I_TOUCH_LC717A00_mode+0xa0>)
  102a7c:	2200      	movs	r2, #0
  102a7e:	f503 70c0 	add.w	r0, r3, #384	; 0x180
  102a82:	4619      	mov	r1, r3
  102a84:	f843 2c04 	str.w	r2, [r3, #-4]
  102a88:	f843 3c08 	str.w	r3, [r3, #-8]
  102a8c:	f801 2b18 	strb.w	r2, [r1], #24
  102a90:	6119      	str	r1, [r3, #16]
  102a92:	615a      	str	r2, [r3, #20]
  102a94:	761a      	strb	r2, [r3, #24]
  102a96:	3330      	adds	r3, #48	; 0x30
  102a98:	4283      	cmp	r3, r0
  102a9a:	f04f 0400 	mov.w	r4, #0
  102a9e:	d1f0      	bne.n	102a82 <_GLOBAL__sub_I_TOUCH_LC717A00_mode+0x1a>
  102aa0:	4a17      	ldr	r2, [pc, #92]	; (102b00 <_GLOBAL__sub_I_TOUCH_LC717A00_mode+0x98>)
  102aa2:	491a      	ldr	r1, [pc, #104]	; (102b0c <_GLOBAL__sub_I_TOUCH_LC717A00_mode+0xa4>)
  102aa4:	4620      	mov	r0, r4
  102aa6:	f005 f954 	bl	107d52 <__aeabi_atexit>
  102aaa:	4819      	ldr	r0, [pc, #100]	; (102b10 <_GLOBAL__sub_I_TOUCH_LC717A00_mode+0xa8>)
  102aac:	f7ff ffaa 	bl	102a04 <std::__cxx11::basic_string<char, std::char_traits<char>, std::allocator<char> >::basic_string(char const*, std::allocator<char> const&) [clone .isra.14] [clone .constprop.16]>
  102ab0:	4a13      	ldr	r2, [pc, #76]	; (102b00 <_GLOBAL__sub_I_TOUCH_LC717A00_mode+0x98>)
  102ab2:	4914      	ldr	r1, [pc, #80]	; (102b04 <_GLOBAL__sub_I_TOUCH_LC717A00_mode+0x9c>)
  102ab4:	4816      	ldr	r0, [pc, #88]	; (102b10 <_GLOBAL__sub_I_TOUCH_LC717A00_mode+0xa8>)
  102ab6:	f005 f94c 	bl	107d52 <__aeabi_atexit>
  102aba:	4816      	ldr	r0, [pc, #88]	; (102b14 <_GLOBAL__sub_I_TOUCH_LC717A00_mode+0xac>)
  102abc:	f7ff ffa2 	bl	102a04 <std::__cxx11::basic_string<char, std::char_traits<char>, std::allocator<char> >::basic_string(char const*, std::allocator<char> const&) [clone .isra.14] [clone .constprop.16]>
  102ac0:	4a0f      	ldr	r2, [pc, #60]	; (102b00 <_GLOBAL__sub_I_TOUCH_LC717A00_mode+0x98>)
  102ac2:	4910      	ldr	r1, [pc, #64]	; (102b04 <_GLOBAL__sub_I_TOUCH_LC717A00_mode+0x9c>)
  102ac4:	4813      	ldr	r0, [pc, #76]	; (102b14 <_GLOBAL__sub_I_TOUCH_LC717A00_mode+0xac>)
  102ac6:	f005 f944 	bl	107d52 <__aeabi_atexit>
  102aca:	4813      	ldr	r0, [pc, #76]	; (102b18 <_GLOBAL__sub_I_TOUCH_LC717A00_mode+0xb0>)
  102acc:	f7ff ff9a 	bl	102a04 <std::__cxx11::basic_string<char, std::char_traits<char>, std::allocator<char> >::basic_string(char const*, std::allocator<char> const&) [clone .isra.14] [clone .constprop.16]>
  102ad0:	4a0b      	ldr	r2, [pc, #44]	; (102b00 <_GLOBAL__sub_I_TOUCH_LC717A00_mode+0x98>)
  102ad2:	490c      	ldr	r1, [pc, #48]	; (102b04 <_GLOBAL__sub_I_TOUCH_LC717A00_mode+0x9c>)
  102ad4:	4810      	ldr	r0, [pc, #64]	; (102b18 <_GLOBAL__sub_I_TOUCH_LC717A00_mode+0xb0>)
  102ad6:	f005 f93c 	bl	107d52 <__aeabi_atexit>
  102ada:	4810      	ldr	r0, [pc, #64]	; (102b1c <_GLOBAL__sub_I_TOUCH_LC717A00_mode+0xb4>)
  102adc:	f005 fb30 	bl	108140 <rtos::Mutex::Mutex()>
  102ae0:	490f      	ldr	r1, [pc, #60]	; (102b20 <_GLOBAL__sub_I_TOUCH_LC717A00_mode+0xb8>)
  102ae2:	4a07      	ldr	r2, [pc, #28]	; (102b00 <_GLOBAL__sub_I_TOUCH_LC717A00_mode+0x98>)
  102ae4:	480d      	ldr	r0, [pc, #52]	; (102b1c <_GLOBAL__sub_I_TOUCH_LC717A00_mode+0xb4>)
  102ae6:	f005 f934 	bl	107d52 <__aeabi_atexit>
  102aea:	480e      	ldr	r0, [pc, #56]	; (102b24 <_GLOBAL__sub_I_TOUCH_LC717A00_mode+0xbc>)
  102aec:	2110      	movs	r1, #16
  102aee:	6004      	str	r4, [r0, #0]
  102af0:	7104      	strb	r4, [r0, #4]
  102af2:	6084      	str	r4, [r0, #8]
  102af4:	e8bd 4010 	ldmia.w	sp!, {r4, lr}
  102af8:	f001 b83f 	b.w	103b7a <gpio_init_in>
  102afc:	3fff7680 	.word	0x3fff7680
  102b00:	3fff40a0 	.word	0x3fff40a0
  102b04:	001082bd 	.word	0x001082bd
  102b08:	3fff7508 	.word	0x3fff7508
  102b0c:	001029d9 	.word	0x001029d9
  102b10:	3fff76b0 	.word	0x3fff76b0
  102b14:	3fff7698 	.word	0x3fff7698
  102b18:	3fff7704 	.word	0x3fff7704
  102b1c:	3fff76d4 	.word	0x3fff76d4
  102b20:	0010815b 	.word	0x0010815b
  102b24:	3fff76c8 	.word	0x3fff76c8

00102b28 <__tcf_0>:
  102b28:	b538      	push	{r3, r4, r5, lr}
  102b2a:	4d06      	ldr	r5, [pc, #24]	; (102b44 <__tcf_0+0x1c>)
  102b2c:	2400      	movs	r4, #0
  102b2e:	f504 70b4 	add.w	r0, r4, #360	; 0x168
  102b32:	4428      	add	r0, r5
  102b34:	3c18      	subs	r4, #24
  102b36:	f005 fbab 	bl	108290 <std::__cxx11::basic_string<char, std::char_traits<char>, std::allocator<char> >::_M_dispose()>
  102b3a:	f514 7fc0 	cmn.w	r4, #384	; 0x180
  102b3e:	d1f6      	bne.n	102b2e <__tcf_0+0x6>
  102b40:	bd38      	pop	{r3, r4, r5, pc}
  102b42:	bf00      	nop
  102b44:	3fff771c 	.word	0x3fff771c

00102b48 <std::__cxx11::basic_string<char, std::char_traits<char>, std::allocator<char> >::basic_string(char const*, std::allocator<char> const&) [clone .isra.14] [clone .constprop.16]>:
  102b48:	b510      	push	{r4, lr}
  102b4a:	4604      	mov	r4, r0
  102b4c:	4a05      	ldr	r2, [pc, #20]	; (102b64 <std::__cxx11::basic_string<char, std::char_traits<char>, std::allocator<char> >::basic_string(char const*, std::allocator<char> const&) [clone .isra.14] [clone .constprop.16]+0x1c>)
  102b4e:	3008      	adds	r0, #8
  102b50:	6020      	str	r0, [r4, #0]
  102b52:	4611      	mov	r1, r2
  102b54:	f005 fbad 	bl	1082b2 <std::__cxx11::basic_string<char, std::char_traits<char>, std::allocator<char> >::_S_copy_chars(char*, char const*, char const*)>
  102b58:	6822      	ldr	r2, [r4, #0]
  102b5a:	2300      	movs	r3, #0
  102b5c:	6063      	str	r3, [r4, #4]
  102b5e:	7013      	strb	r3, [r2, #0]
  102b60:	4620      	mov	r0, r4
  102b62:	bd10      	pop	{r4, pc}
  102b64:	0010f4f1 	.word	0x0010f4f1

00102b68 <_GLOBAL__sub_I_TOUCH_LC717A00_mode>:
  102b68:	b508      	push	{r3, lr}
  102b6a:	4820      	ldr	r0, [pc, #128]	; (102bec <_GLOBAL__sub_I_TOUCH_LC717A00_mode+0x84>)
  102b6c:	f7ff ffec 	bl	102b48 <std::__cxx11::basic_string<char, std::char_traits<char>, std::allocator<char> >::basic_string(char const*, std::allocator<char> const&) [clone .isra.14] [clone .constprop.16]>
  102b70:	4a1f      	ldr	r2, [pc, #124]	; (102bf0 <_GLOBAL__sub_I_TOUCH_LC717A00_mode+0x88>)
  102b72:	4920      	ldr	r1, [pc, #128]	; (102bf4 <_GLOBAL__sub_I_TOUCH_LC717A00_mode+0x8c>)
  102b74:	481d      	ldr	r0, [pc, #116]	; (102bec <_GLOBAL__sub_I_TOUCH_LC717A00_mode+0x84>)
  102b76:	f005 f8ec 	bl	107d52 <__aeabi_atexit>
  102b7a:	4b1f      	ldr	r3, [pc, #124]	; (102bf8 <_GLOBAL__sub_I_TOUCH_LC717A00_mode+0x90>)
  102b7c:	2200      	movs	r2, #0
  102b7e:	f503 70c0 	add.w	r0, r3, #384	; 0x180
  102b82:	4619      	mov	r1, r3
  102b84:	f843 2c04 	str.w	r2, [r3, #-4]
  102b88:	f843 3c08 	str.w	r3, [r3, #-8]
  102b8c:	f801 2b18 	strb.w	r2, [r1], #24
  102b90:	6119      	str	r1, [r3, #16]
  102b92:	615a      	str	r2, [r3, #20]
  102b94:	761a      	strb	r2, [r3, #24]
  102b96:	3330      	adds	r3, #48	; 0x30
  102b98:	4283      	cmp	r3, r0
  102b9a:	d1f2      	bne.n	102b82 <_GLOBAL__sub_I_TOUCH_LC717A00_mode+0x1a>
  102b9c:	4a14      	ldr	r2, [pc, #80]	; (102bf0 <_GLOBAL__sub_I_TOUCH_LC717A00_mode+0x88>)
  102b9e:	4917      	ldr	r1, [pc, #92]	; (102bfc <_GLOBAL__sub_I_TOUCH_LC717A00_mode+0x94>)
  102ba0:	2000      	movs	r0, #0
  102ba2:	f005 f8d6 	bl	107d52 <__aeabi_atexit>
  102ba6:	4816      	ldr	r0, [pc, #88]	; (102c00 <_GLOBAL__sub_I_TOUCH_LC717A00_mode+0x98>)
  102ba8:	f7ff ffce 	bl	102b48 <std::__cxx11::basic_string<char, std::char_traits<char>, std::allocator<char> >::basic_string(char const*, std::allocator<char> const&) [clone .isra.14] [clone .constprop.16]>
  102bac:	4a10      	ldr	r2, [pc, #64]	; (102bf0 <_GLOBAL__sub_I_TOUCH_LC717A00_mode+0x88>)
  102bae:	4911      	ldr	r1, [pc, #68]	; (102bf4 <_GLOBAL__sub_I_TOUCH_LC717A00_mode+0x8c>)
  102bb0:	4813      	ldr	r0, [pc, #76]	; (102c00 <_GLOBAL__sub_I_TOUCH_LC717A00_mode+0x98>)
  102bb2:	f005 f8ce 	bl	107d52 <__aeabi_atexit>
  102bb6:	4813      	ldr	r0, [pc, #76]	; (102c04 <_GLOBAL__sub_I_TOUCH_LC717A00_mode+0x9c>)
  102bb8:	f7ff ffc6 	bl	102b48 <std::__cxx11::basic_string<char, std::char_traits<char>, std::allocator<char> >::basic_string(char const*, std::allocator<char> const&) [clone .isra.14] [clone .constprop.16]>
  102bbc:	4a0c      	ldr	r2, [pc, #48]	; (102bf0 <_GLOBAL__sub_I_TOUCH_LC717A00_mode+0x88>)
  102bbe:	490d      	ldr	r1, [pc, #52]	; (102bf4 <_GLOBAL__sub_I_TOUCH_LC717A00_mode+0x8c>)
  102bc0:	4810      	ldr	r0, [pc, #64]	; (102c04 <_GLOBAL__sub_I_TOUCH_LC717A00_mode+0x9c>)
  102bc2:	f005 f8c6 	bl	107d52 <__aeabi_atexit>
  102bc6:	4810      	ldr	r0, [pc, #64]	; (102c08 <_GLOBAL__sub_I_TOUCH_LC717A00_mode+0xa0>)
  102bc8:	f7ff ffbe 	bl	102b48 <std::__cxx11::basic_string<char, std::char_traits<char>, std::allocator<char> >::basic_string(char const*, std::allocator<char> const&) [clone .isra.14] [clone .constprop.16]>
  102bcc:	4a08      	ldr	r2, [pc, #32]	; (102bf0 <_GLOBAL__sub_I_TOUCH_LC717A00_mode+0x88>)
  102bce:	4909      	ldr	r1, [pc, #36]	; (102bf4 <_GLOBAL__sub_I_TOUCH_LC717A00_mode+0x8c>)
  102bd0:	480d      	ldr	r0, [pc, #52]	; (102c08 <_GLOBAL__sub_I_TOUCH_LC717A00_mode+0xa0>)
  102bd2:	f005 f8be 	bl	107d52 <__aeabi_atexit>
  102bd6:	480d      	ldr	r0, [pc, #52]	; (102c0c <_GLOBAL__sub_I_TOUCH_LC717A00_mode+0xa4>)
  102bd8:	f005 fab2 	bl	108140 <rtos::Mutex::Mutex()>
  102bdc:	e8bd 4008 	ldmia.w	sp!, {r3, lr}
  102be0:	4a03      	ldr	r2, [pc, #12]	; (102bf0 <_GLOBAL__sub_I_TOUCH_LC717A00_mode+0x88>)
  102be2:	490b      	ldr	r1, [pc, #44]	; (102c10 <_GLOBAL__sub_I_TOUCH_LC717A00_mode+0xa8>)
  102be4:	4809      	ldr	r0, [pc, #36]	; (102c0c <_GLOBAL__sub_I_TOUCH_LC717A00_mode+0xa4>)
  102be6:	f005 b8b4 	b.w	107d52 <__aeabi_atexit>
  102bea:	bf00      	nop
  102bec:	3fff789c 	.word	0x3fff789c
  102bf0:	3fff40a0 	.word	0x3fff40a0
  102bf4:	001082bd 	.word	0x001082bd
  102bf8:	3fff7724 	.word	0x3fff7724
  102bfc:	00102b29 	.word	0x00102b29
  102c00:	3fff78cc 	.word	0x3fff78cc
  102c04:	3fff78b4 	.word	0x3fff78b4
  102c08:	3fff7914 	.word	0x3fff7914
  102c0c:	3fff78e4 	.word	0x3fff78e4
  102c10:	0010815b 	.word	0x0010815b

00102c14 <__tcf_0>:
  102c14:	b538      	push	{r3, r4, r5, lr}
  102c16:	4d06      	ldr	r5, [pc, #24]	; (102c30 <__tcf_0+0x1c>)
  102c18:	2400      	movs	r4, #0
  102c1a:	f504 70b4 	add.w	r0, r4, #360	; 0x168
  102c1e:	4428      	add	r0, r5
  102c20:	3c18      	subs	r4, #24
  102c22:	f005 fb35 	bl	108290 <std::__cxx11::basic_string<char, std::char_traits<char>, std::allocator<char> >::_M_dispose()>
  102c26:	f514 7fc0 	cmn.w	r4, #384	; 0x180
  102c2a:	d1f6      	bne.n	102c1a <__tcf_0+0x6>
  102c2c:	bd38      	pop	{r3, r4, r5, pc}
  102c2e:	bf00      	nop
  102c30:	3fff792c 	.word	0x3fff792c

00102c34 <std::__cxx11::basic_string<char, std::char_traits<char>, std::allocator<char> >::basic_string(char const*, std::allocator<char> const&) [clone .isra.21] [clone .constprop.23]>:
  102c34:	b510      	push	{r4, lr}
  102c36:	4604      	mov	r4, r0
  102c38:	4a05      	ldr	r2, [pc, #20]	; (102c50 <std::__cxx11::basic_string<char, std::char_traits<char>, std::allocator<char> >::basic_string(char const*, std::allocator<char> const&) [clone .isra.21] [clone .constprop.23]+0x1c>)
  102c3a:	3008      	adds	r0, #8
  102c3c:	6020      	str	r0, [r4, #0]
  102c3e:	4611      	mov	r1, r2
  102c40:	f005 fb37 	bl	1082b2 <std::__cxx11::basic_string<char, std::char_traits<char>, std::allocator<char> >::_S_copy_chars(char*, char const*, char const*)>
  102c44:	6822      	ldr	r2, [r4, #0]
  102c46:	2300      	movs	r3, #0
  102c48:	6063      	str	r3, [r4, #4]
  102c4a:	7013      	strb	r3, [r2, #0]
  102c4c:	4620      	mov	r0, r4
  102c4e:	bd10      	pop	{r4, pc}
  102c50:	0010f4f1 	.word	0x0010f4f1

00102c54 <_GLOBAL__sub_I_TOUCH_LC717A00_mode>:
  102c54:	b573      	push	{r0, r1, r4, r5, r6, lr}
  102c56:	4851      	ldr	r0, [pc, #324]	; (102d9c <_GLOBAL__sub_I_TOUCH_LC717A00_mode+0x148>)
  102c58:	f7ff ffec 	bl	102c34 <std::__cxx11::basic_string<char, std::char_traits<char>, std::allocator<char> >::basic_string(char const*, std::allocator<char> const&) [clone .isra.21] [clone .constprop.23]>
  102c5c:	4a50      	ldr	r2, [pc, #320]	; (102da0 <_GLOBAL__sub_I_TOUCH_LC717A00_mode+0x14c>)
  102c5e:	4951      	ldr	r1, [pc, #324]	; (102da4 <_GLOBAL__sub_I_TOUCH_LC717A00_mode+0x150>)
  102c60:	484e      	ldr	r0, [pc, #312]	; (102d9c <_GLOBAL__sub_I_TOUCH_LC717A00_mode+0x148>)
  102c62:	f005 f876 	bl	107d52 <__aeabi_atexit>
  102c66:	4b50      	ldr	r3, [pc, #320]	; (102da8 <_GLOBAL__sub_I_TOUCH_LC717A00_mode+0x154>)
  102c68:	2200      	movs	r2, #0
  102c6a:	f503 70c0 	add.w	r0, r3, #384	; 0x180
  102c6e:	4619      	mov	r1, r3
  102c70:	f843 2c04 	str.w	r2, [r3, #-4]
  102c74:	f843 3c08 	str.w	r3, [r3, #-8]
  102c78:	f801 2b18 	strb.w	r2, [r1], #24
  102c7c:	6119      	str	r1, [r3, #16]
  102c7e:	615a      	str	r2, [r3, #20]
  102c80:	761a      	strb	r2, [r3, #24]
  102c82:	3330      	adds	r3, #48	; 0x30
  102c84:	4283      	cmp	r3, r0
  102c86:	f04f 0400 	mov.w	r4, #0
  102c8a:	d1f0      	bne.n	102c6e <_GLOBAL__sub_I_TOUCH_LC717A00_mode+0x1a>
  102c8c:	4a44      	ldr	r2, [pc, #272]	; (102da0 <_GLOBAL__sub_I_TOUCH_LC717A00_mode+0x14c>)
  102c8e:	4947      	ldr	r1, [pc, #284]	; (102dac <_GLOBAL__sub_I_TOUCH_LC717A00_mode+0x158>)
  102c90:	4620      	mov	r0, r4
  102c92:	f005 f85e 	bl	107d52 <__aeabi_atexit>
  102c96:	4846      	ldr	r0, [pc, #280]	; (102db0 <_GLOBAL__sub_I_TOUCH_LC717A00_mode+0x15c>)
  102c98:	f7ff ffcc 	bl	102c34 <std::__cxx11::basic_string<char, std::char_traits<char>, std::allocator<char> >::basic_string(char const*, std::allocator<char> const&) [clone .isra.21] [clone .constprop.23]>
  102c9c:	4a40      	ldr	r2, [pc, #256]	; (102da0 <_GLOBAL__sub_I_TOUCH_LC717A00_mode+0x14c>)
  102c9e:	4941      	ldr	r1, [pc, #260]	; (102da4 <_GLOBAL__sub_I_TOUCH_LC717A00_mode+0x150>)
  102ca0:	4843      	ldr	r0, [pc, #268]	; (102db0 <_GLOBAL__sub_I_TOUCH_LC717A00_mode+0x15c>)
  102ca2:	f005 f856 	bl	107d52 <__aeabi_atexit>
  102ca6:	4843      	ldr	r0, [pc, #268]	; (102db4 <_GLOBAL__sub_I_TOUCH_LC717A00_mode+0x160>)
  102ca8:	f7ff ffc4 	bl	102c34 <std::__cxx11::basic_string<char, std::char_traits<char>, std::allocator<char> >::basic_string(char const*, std::allocator<char> const&) [clone .isra.21] [clone .constprop.23]>
  102cac:	4a3c      	ldr	r2, [pc, #240]	; (102da0 <_GLOBAL__sub_I_TOUCH_LC717A00_mode+0x14c>)
  102cae:	493d      	ldr	r1, [pc, #244]	; (102da4 <_GLOBAL__sub_I_TOUCH_LC717A00_mode+0x150>)
  102cb0:	4840      	ldr	r0, [pc, #256]	; (102db4 <_GLOBAL__sub_I_TOUCH_LC717A00_mode+0x160>)
  102cb2:	f005 f84e 	bl	107d52 <__aeabi_atexit>
  102cb6:	4840      	ldr	r0, [pc, #256]	; (102db8 <_GLOBAL__sub_I_TOUCH_LC717A00_mode+0x164>)
  102cb8:	f7ff ffbc 	bl	102c34 <std::__cxx11::basic_string<char, std::char_traits<char>, std::allocator<char> >::basic_string(char const*, std::allocator<char> const&) [clone .isra.21] [clone .constprop.23]>
  102cbc:	4a38      	ldr	r2, [pc, #224]	; (102da0 <_GLOBAL__sub_I_TOUCH_LC717A00_mode+0x14c>)
  102cbe:	4939      	ldr	r1, [pc, #228]	; (102da4 <_GLOBAL__sub_I_TOUCH_LC717A00_mode+0x150>)
  102cc0:	483d      	ldr	r0, [pc, #244]	; (102db8 <_GLOBAL__sub_I_TOUCH_LC717A00_mode+0x164>)
  102cc2:	4d3e      	ldr	r5, [pc, #248]	; (102dbc <_GLOBAL__sub_I_TOUCH_LC717A00_mode+0x168>)
  102cc4:	f005 f845 	bl	107d52 <__aeabi_atexit>
  102cc8:	483d      	ldr	r0, [pc, #244]	; (102dc0 <_GLOBAL__sub_I_TOUCH_LC717A00_mode+0x16c>)
  102cca:	f005 fa39 	bl	108140 <rtos::Mutex::Mutex()>
  102cce:	f04f 36ff 	mov.w	r6, #4294967295
  102cd2:	4a33      	ldr	r2, [pc, #204]	; (102da0 <_GLOBAL__sub_I_TOUCH_LC717A00_mode+0x14c>)
  102cd4:	493b      	ldr	r1, [pc, #236]	; (102dc4 <_GLOBAL__sub_I_TOUCH_LC717A00_mode+0x170>)
  102cd6:	483a      	ldr	r0, [pc, #232]	; (102dc0 <_GLOBAL__sub_I_TOUCH_LC717A00_mode+0x16c>)
  102cd8:	f005 f83b 	bl	107d52 <__aeabi_atexit>
  102cdc:	9600      	str	r6, [sp, #0]
  102cde:	2304      	movs	r3, #4
  102ce0:	2206      	movs	r2, #6
  102ce2:	2105      	movs	r1, #5
  102ce4:	4628      	mov	r0, r5
  102ce6:	f004 fc83 	bl	1075f0 <mbed::SPI::SPI(PinName, PinName, PinName, PinName)>
  102cea:	62ec      	str	r4, [r5, #44]	; 0x2c
  102cec:	f885 4030 	strb.w	r4, [r5, #48]	; 0x30
  102cf0:	636c      	str	r4, [r5, #52]	; 0x34
  102cf2:	4631      	mov	r1, r6
  102cf4:	f105 002c 	add.w	r0, r5, #44	; 0x2c
  102cf8:	f000 ff66 	bl	103bc8 <gpio_init_out>
  102cfc:	2320      	movs	r3, #32
  102cfe:	9600      	str	r6, [sp, #0]
  102d00:	2202      	movs	r2, #2
  102d02:	2103      	movs	r1, #3
  102d04:	f105 0040 	add.w	r0, r5, #64	; 0x40
  102d08:	f000 fbf6 	bl	1034f8 <PCA9655E::PCA9655E(PinName, PinName, unsigned char, PinName)>
  102d0c:	4a24      	ldr	r2, [pc, #144]	; (102da0 <_GLOBAL__sub_I_TOUCH_LC717A00_mode+0x14c>)
  102d0e:	492e      	ldr	r1, [pc, #184]	; (102dc8 <_GLOBAL__sub_I_TOUCH_LC717A00_mode+0x174>)
  102d10:	4628      	mov	r0, r5
  102d12:	f005 f81e 	bl	107d52 <__aeabi_atexit>
  102d16:	482d      	ldr	r0, [pc, #180]	; (102dcc <_GLOBAL__sub_I_TOUCH_LC717A00_mode+0x178>)
  102d18:	f7ff fd58 	bl	1027cc <GPS::GPS()>
  102d1c:	4a20      	ldr	r2, [pc, #128]	; (102da0 <_GLOBAL__sub_I_TOUCH_LC717A00_mode+0x14c>)
  102d1e:	492c      	ldr	r1, [pc, #176]	; (102dd0 <_GLOBAL__sub_I_TOUCH_LC717A00_mode+0x17c>)
  102d20:	482a      	ldr	r0, [pc, #168]	; (102dcc <_GLOBAL__sub_I_TOUCH_LC717A00_mode+0x178>)
  102d22:	f005 f816 	bl	107d52 <__aeabi_atexit>
  102d26:	4d2b      	ldr	r5, [pc, #172]	; (102dd4 <_GLOBAL__sub_I_TOUCH_LC717A00_mode+0x180>)
  102d28:	482b      	ldr	r0, [pc, #172]	; (102dd8 <_GLOBAL__sub_I_TOUCH_LC717A00_mode+0x184>)
  102d2a:	f7ff fe97 	bl	102a5c <GSM::GSM()>
  102d2e:	4e2b      	ldr	r6, [pc, #172]	; (102ddc <_GLOBAL__sub_I_TOUCH_LC717A00_mode+0x188>)
  102d30:	4a1b      	ldr	r2, [pc, #108]	; (102da0 <_GLOBAL__sub_I_TOUCH_LC717A00_mode+0x14c>)
  102d32:	492b      	ldr	r1, [pc, #172]	; (102de0 <_GLOBAL__sub_I_TOUCH_LC717A00_mode+0x18c>)
  102d34:	4828      	ldr	r0, [pc, #160]	; (102dd8 <_GLOBAL__sub_I_TOUCH_LC717A00_mode+0x184>)
  102d36:	f005 f80c 	bl	107d52 <__aeabi_atexit>
  102d3a:	4628      	mov	r0, r5
  102d3c:	f004 fd50 	bl	1077e0 <mbed::TimerEvent::TimerEvent()>
  102d40:	602e      	str	r6, [r5, #0]
  102d42:	636c      	str	r4, [r5, #52]	; 0x34
  102d44:	4628      	mov	r0, r5
  102d46:	4d27      	ldr	r5, [pc, #156]	; (102de4 <_GLOBAL__sub_I_TOUCH_LC717A00_mode+0x190>)
  102d48:	4a15      	ldr	r2, [pc, #84]	; (102da0 <_GLOBAL__sub_I_TOUCH_LC717A00_mode+0x14c>)
  102d4a:	4927      	ldr	r1, [pc, #156]	; (102de8 <_GLOBAL__sub_I_TOUCH_LC717A00_mode+0x194>)
  102d4c:	f005 f801 	bl	107d52 <__aeabi_atexit>
  102d50:	4628      	mov	r0, r5
  102d52:	f004 fd45 	bl	1077e0 <mbed::TimerEvent::TimerEvent()>
  102d56:	602e      	str	r6, [r5, #0]
  102d58:	636c      	str	r4, [r5, #52]	; 0x34
  102d5a:	4628      	mov	r0, r5
  102d5c:	4d23      	ldr	r5, [pc, #140]	; (102dec <_GLOBAL__sub_I_TOUCH_LC717A00_mode+0x198>)
  102d5e:	4a10      	ldr	r2, [pc, #64]	; (102da0 <_GLOBAL__sub_I_TOUCH_LC717A00_mode+0x14c>)
  102d60:	4921      	ldr	r1, [pc, #132]	; (102de8 <_GLOBAL__sub_I_TOUCH_LC717A00_mode+0x194>)
  102d62:	f004 fff6 	bl	107d52 <__aeabi_atexit>
  102d66:	4628      	mov	r0, r5
  102d68:	f004 fd3a 	bl	1077e0 <mbed::TimerEvent::TimerEvent()>
  102d6c:	636c      	str	r4, [r5, #52]	; 0x34
  102d6e:	4a0c      	ldr	r2, [pc, #48]	; (102da0 <_GLOBAL__sub_I_TOUCH_LC717A00_mode+0x14c>)
  102d70:	491d      	ldr	r1, [pc, #116]	; (102de8 <_GLOBAL__sub_I_TOUCH_LC717A00_mode+0x194>)
  102d72:	4628      	mov	r0, r5
  102d74:	602e      	str	r6, [r5, #0]
  102d76:	f004 ffec 	bl	107d52 <__aeabi_atexit>
  102d7a:	f44f 33e1 	mov.w	r3, #115200	; 0x1c200
  102d7e:	9300      	str	r3, [sp, #0]
  102d80:	2209      	movs	r2, #9
  102d82:	4623      	mov	r3, r4
  102d84:	2108      	movs	r1, #8
  102d86:	481a      	ldr	r0, [pc, #104]	; (102df0 <_GLOBAL__sub_I_TOUCH_LC717A00_mode+0x19c>)
  102d88:	f004 fb70 	bl	10746c <mbed::Serial::Serial(PinName, PinName, char const*, int)>
  102d8c:	4a04      	ldr	r2, [pc, #16]	; (102da0 <_GLOBAL__sub_I_TOUCH_LC717A00_mode+0x14c>)
  102d8e:	4919      	ldr	r1, [pc, #100]	; (102df4 <_GLOBAL__sub_I_TOUCH_LC717A00_mode+0x1a0>)
  102d90:	4817      	ldr	r0, [pc, #92]	; (102df0 <_GLOBAL__sub_I_TOUCH_LC717A00_mode+0x19c>)
  102d92:	b002      	add	sp, #8
  102d94:	e8bd 4070 	ldmia.w	sp!, {r4, r5, r6, lr}
  102d98:	f004 bfdb 	b.w	107d52 <__aeabi_atexit>
  102d9c:	3fff7b48 	.word	0x3fff7b48
  102da0:	3fff40a0 	.word	0x3fff40a0
  102da4:	001082bd 	.word	0x001082bd
  102da8:	3fff7934 	.word	0x3fff7934
  102dac:	00102c15 	.word	0x00102c15
  102db0:	3fff7cb8 	.word	0x3fff7cb8
  102db4:	3fff7b60 	.word	0x3fff7b60
  102db8:	3fff7db4 	.word	0x3fff7db4
  102dbc:	3fff7aac 	.word	0x3fff7aac
  102dc0:	3fff7d84 	.word	0x3fff7d84
  102dc4:	0010815b 	.word	0x0010815b
  102dc8:	0010219f 	.word	0x0010219f
  102dcc:	3fff7dcc 	.word	0x3fff7dcc
  102dd0:	00102651 	.word	0x00102651
  102dd4:	3fff7cd0 	.word	0x3fff7cd0
  102dd8:	3fff7bb0 	.word	0x3fff7bb0
  102ddc:	0010f294 	.word	0x0010f294
  102de0:	001029d5 	.word	0x001029d5
  102de4:	3fff7b78 	.word	0x3fff7b78
  102de8:	00102355 	.word	0x00102355
  102dec:	3fff7c80 	.word	0x3fff7c80
  102df0:	3fff7d08 	.word	0x3fff7d08
  102df4:	00102315 	.word	0x00102315

00102df8 <__tcf_0>:
  102df8:	b538      	push	{r3, r4, r5, lr}
  102dfa:	4d06      	ldr	r5, [pc, #24]	; (102e14 <__tcf_0+0x1c>)
  102dfc:	2400      	movs	r4, #0
  102dfe:	f504 70b4 	add.w	r0, r4, #360	; 0x168
  102e02:	4428      	add	r0, r5
  102e04:	3c18      	subs	r4, #24
  102e06:	f005 fa43 	bl	108290 <std::__cxx11::basic_string<char, std::char_traits<char>, std::allocator<char> >::_M_dispose()>
  102e0a:	f514 7fc0 	cmn.w	r4, #384	; 0x180
  102e0e:	d1f6      	bne.n	102dfe <__tcf_0+0x6>
  102e10:	bd38      	pop	{r3, r4, r5, pc}
  102e12:	bf00      	nop
  102e14:	3fff84ec 	.word	0x3fff84ec

00102e18 <std::__cxx11::basic_string<char, std::char_traits<char>, std::allocator<char> >::basic_string(char const*, std::allocator<char> const&) [clone .isra.14] [clone .constprop.16]>:
  102e18:	b510      	push	{r4, lr}
  102e1a:	4604      	mov	r4, r0
  102e1c:	4a05      	ldr	r2, [pc, #20]	; (102e34 <std::__cxx11::basic_string<char, std::char_traits<char>, std::allocator<char> >::basic_string(char const*, std::allocator<char> const&) [clone .isra.14] [clone .constprop.16]+0x1c>)
  102e1e:	3008      	adds	r0, #8
  102e20:	6020      	str	r0, [r4, #0]
  102e22:	4611      	mov	r1, r2
  102e24:	f005 fa45 	bl	1082b2 <std::__cxx11::basic_string<char, std::char_traits<char>, std::allocator<char> >::_S_copy_chars(char*, char const*, char const*)>
  102e28:	6822      	ldr	r2, [r4, #0]
  102e2a:	2300      	movs	r3, #0
  102e2c:	6063      	str	r3, [r4, #4]
  102e2e:	7013      	strb	r3, [r2, #0]
  102e30:	4620      	mov	r0, r4
  102e32:	bd10      	pop	{r4, pc}
  102e34:	0010f4f1 	.word	0x0010f4f1

00102e38 <Ble_Menu(char*)>:
  102e38:	e92d 41f0 	stmdb	sp!, {r4, r5, r6, r7, r8, lr}
  102e3c:	4938      	ldr	r1, [pc, #224]	; (102f20 <Ble_Menu(char*)+0xe8>)
  102e3e:	b09a      	sub	sp, #104	; 0x68
  102e40:	4606      	mov	r6, r0
  102e42:	f009 f81d 	bl	10be80 <strtok>
  102e46:	4605      	mov	r5, r0
  102e48:	4f36      	ldr	r7, [pc, #216]	; (102f24 <Ble_Menu(char*)+0xec>)
  102e4a:	2400      	movs	r4, #0
  102e4c:	f04f 081e 	mov.w	r8, #30
  102e50:	b15d      	cbz	r5, 102e6a <Ble_Menu(char*)+0x32>
  102e52:	4629      	mov	r1, r5
  102e54:	fb08 7004 	mla	r0, r8, r4, r7
  102e58:	f008 f9cb 	bl	10b1f2 <strcpy>
  102e5c:	4930      	ldr	r1, [pc, #192]	; (102f20 <Ble_Menu(char*)+0xe8>)
  102e5e:	4630      	mov	r0, r6
  102e60:	f009 f80e 	bl	10be80 <strtok>
  102e64:	3401      	adds	r4, #1
  102e66:	4605      	mov	r5, r0
  102e68:	e7f2      	b.n	102e50 <Ble_Menu(char*)+0x18>
  102e6a:	4623      	mov	r3, r4
  102e6c:	4a2d      	ldr	r2, [pc, #180]	; (102f24 <Ble_Menu(char*)+0xec>)
  102e6e:	492e      	ldr	r1, [pc, #184]	; (102f28 <Ble_Menu(char*)+0xf0>)
  102e70:	a801      	add	r0, sp, #4
  102e72:	f008 f921 	bl	10b0b8 <siprintf>
  102e76:	2301      	movs	r3, #1
  102e78:	461a      	mov	r2, r3
  102e7a:	492a      	ldr	r1, [pc, #168]	; (102f24 <Ble_Menu(char*)+0xec>)
  102e7c:	482b      	ldr	r0, [pc, #172]	; (102f2c <Ble_Menu(char*)+0xf4>)
  102e7e:	f000 fd71 	bl	103964 <NHD_C0216CZ::displayStringToPos(char const*, int, int)>
  102e82:	4928      	ldr	r1, [pc, #160]	; (102f24 <Ble_Menu(char*)+0xec>)
  102e84:	482a      	ldr	r0, [pc, #168]	; (102f30 <Ble_Menu(char*)+0xf8>)
  102e86:	f7ff fc27 	bl	1026d8 <GPS::send(char*)>
  102e8a:	2301      	movs	r3, #1
  102e8c:	2202      	movs	r2, #2
  102e8e:	4929      	ldr	r1, [pc, #164]	; (102f34 <Ble_Menu(char*)+0xfc>)
  102e90:	4826      	ldr	r0, [pc, #152]	; (102f2c <Ble_Menu(char*)+0xf4>)
  102e92:	f000 fd67 	bl	103964 <NHD_C0216CZ::displayStringToPos(char const*, int, int)>
  102e96:	4927      	ldr	r1, [pc, #156]	; (102f34 <Ble_Menu(char*)+0xfc>)
  102e98:	4825      	ldr	r0, [pc, #148]	; (102f30 <Ble_Menu(char*)+0xf8>)
  102e9a:	f7ff fc1d 	bl	1026d8 <GPS::send(char*)>
  102e9e:	4926      	ldr	r1, [pc, #152]	; (102f38 <Ble_Menu(char*)+0x100>)
  102ea0:	4820      	ldr	r0, [pc, #128]	; (102f24 <Ble_Menu(char*)+0xec>)
  102ea2:	f008 f99c 	bl	10b1de <strcmp>
  102ea6:	2800      	cmp	r0, #0
  102ea8:	d133      	bne.n	102f12 <Ble_Menu(char*)+0xda>
  102eaa:	2301      	movs	r3, #1
  102eac:	461a      	mov	r2, r3
  102eae:	491d      	ldr	r1, [pc, #116]	; (102f24 <Ble_Menu(char*)+0xec>)
  102eb0:	481e      	ldr	r0, [pc, #120]	; (102f2c <Ble_Menu(char*)+0xf4>)
  102eb2:	f000 fd57 	bl	103964 <NHD_C0216CZ::displayStringToPos(char const*, int, int)>
  102eb6:	4921      	ldr	r1, [pc, #132]	; (102f3c <Ble_Menu(char*)+0x104>)
  102eb8:	481e      	ldr	r0, [pc, #120]	; (102f34 <Ble_Menu(char*)+0xfc>)
  102eba:	f008 f990 	bl	10b1de <strcmp>
  102ebe:	4604      	mov	r4, r0
  102ec0:	b908      	cbnz	r0, 102ec6 <Ble_Menu(char*)+0x8e>
  102ec2:	2201      	movs	r2, #1
  102ec4:	e006      	b.n	102ed4 <Ble_Menu(char*)+0x9c>
  102ec6:	491e      	ldr	r1, [pc, #120]	; (102f40 <Ble_Menu(char*)+0x108>)
  102ec8:	481a      	ldr	r0, [pc, #104]	; (102f34 <Ble_Menu(char*)+0xfc>)
  102eca:	f008 f988 	bl	10b1de <strcmp>
  102ece:	4604      	mov	r4, r0
  102ed0:	b910      	cbnz	r0, 102ed8 <Ble_Menu(char*)+0xa0>
  102ed2:	462a      	mov	r2, r5
  102ed4:	2102      	movs	r1, #2
  102ed6:	e018      	b.n	102f0a <Ble_Menu(char*)+0xd2>
  102ed8:	491a      	ldr	r1, [pc, #104]	; (102f44 <Ble_Menu(char*)+0x10c>)
  102eda:	4816      	ldr	r0, [pc, #88]	; (102f34 <Ble_Menu(char*)+0xfc>)
  102edc:	f008 f97f 	bl	10b1de <strcmp>
  102ee0:	4604      	mov	r4, r0
  102ee2:	b910      	cbnz	r0, 102eea <Ble_Menu(char*)+0xb2>
  102ee4:	2201      	movs	r2, #1
  102ee6:	4611      	mov	r1, r2
  102ee8:	e00f      	b.n	102f0a <Ble_Menu(char*)+0xd2>
  102eea:	4917      	ldr	r1, [pc, #92]	; (102f48 <Ble_Menu(char*)+0x110>)
  102eec:	4811      	ldr	r0, [pc, #68]	; (102f34 <Ble_Menu(char*)+0xfc>)
  102eee:	f008 f976 	bl	10b1de <strcmp>
  102ef2:	4604      	mov	r4, r0
  102ef4:	b908      	cbnz	r0, 102efa <Ble_Menu(char*)+0xc2>
  102ef6:	2201      	movs	r2, #1
  102ef8:	e006      	b.n	102f08 <Ble_Menu(char*)+0xd0>
  102efa:	4914      	ldr	r1, [pc, #80]	; (102f4c <Ble_Menu(char*)+0x114>)
  102efc:	480d      	ldr	r0, [pc, #52]	; (102f34 <Ble_Menu(char*)+0xfc>)
  102efe:	f008 f96e 	bl	10b1de <strcmp>
  102f02:	4604      	mov	r4, r0
  102f04:	b938      	cbnz	r0, 102f16 <Ble_Menu(char*)+0xde>
  102f06:	462a      	mov	r2, r5
  102f08:	2163      	movs	r1, #99	; 0x63
  102f0a:	4809      	ldr	r0, [pc, #36]	; (102f30 <Ble_Menu(char*)+0xf8>)
  102f0c:	f7ff fbf6 	bl	1026fc <GPS::control(int, bool)>
  102f10:	e002      	b.n	102f18 <Ble_Menu(char*)+0xe0>
  102f12:	462c      	mov	r4, r5
  102f14:	e000      	b.n	102f18 <Ble_Menu(char*)+0xe0>
  102f16:	2401      	movs	r4, #1
  102f18:	4620      	mov	r0, r4
  102f1a:	b01a      	add	sp, #104	; 0x68
  102f1c:	e8bd 81f0 	ldmia.w	sp!, {r4, r5, r6, r7, r8, pc}
  102f20:	0010e73d 	.word	0x0010e73d
  102f24:	3fff8294 	.word	0x3fff8294
  102f28:	0010e750 	.word	0x0010e750
  102f2c:	3fff8bc4 	.word	0x3fff8bc4
  102f30:	3fff86b4 	.word	0x3fff86b4
  102f34:	3fff82b2 	.word	0x3fff82b2
  102f38:	0010e758 	.word	0x0010e758
  102f3c:	0010e75d 	.word	0x0010e75d
  102f40:	0010e763 	.word	0x0010e763
  102f44:	0010e76a 	.word	0x0010e76a
  102f48:	0010e771 	.word	0x0010e771
  102f4c:	0010e777 	.word	0x0010e777

00102f50 <_GLOBAL__sub_I_TOUCH_LC717A00_mode>:
  102f50:	b573      	push	{r0, r1, r4, r5, r6, lr}
  102f52:	4835      	ldr	r0, [pc, #212]	; (103028 <_GLOBAL__sub_I_TOUCH_LC717A00_mode+0xd8>)
  102f54:	f7ff ff60 	bl	102e18 <std::__cxx11::basic_string<char, std::char_traits<char>, std::allocator<char> >::basic_string(char const*, std::allocator<char> const&) [clone .isra.14] [clone .constprop.16]>
  102f58:	4a34      	ldr	r2, [pc, #208]	; (10302c <_GLOBAL__sub_I_TOUCH_LC717A00_mode+0xdc>)
  102f5a:	4935      	ldr	r1, [pc, #212]	; (103030 <_GLOBAL__sub_I_TOUCH_LC717A00_mode+0xe0>)
  102f5c:	4832      	ldr	r0, [pc, #200]	; (103028 <_GLOBAL__sub_I_TOUCH_LC717A00_mode+0xd8>)
  102f5e:	f004 fef8 	bl	107d52 <__aeabi_atexit>
  102f62:	4b34      	ldr	r3, [pc, #208]	; (103034 <_GLOBAL__sub_I_TOUCH_LC717A00_mode+0xe4>)
  102f64:	2200      	movs	r2, #0
  102f66:	f503 70c0 	add.w	r0, r3, #384	; 0x180
  102f6a:	4619      	mov	r1, r3
  102f6c:	f843 2c04 	str.w	r2, [r3, #-4]
  102f70:	f843 3c08 	str.w	r3, [r3, #-8]
  102f74:	f801 2b18 	strb.w	r2, [r1], #24
  102f78:	6119      	str	r1, [r3, #16]
  102f7a:	615a      	str	r2, [r3, #20]
  102f7c:	761a      	strb	r2, [r3, #24]
  102f7e:	3330      	adds	r3, #48	; 0x30
  102f80:	4298      	cmp	r0, r3
  102f82:	f04f 0500 	mov.w	r5, #0
  102f86:	d1f0      	bne.n	102f6a <_GLOBAL__sub_I_TOUCH_LC717A00_mode+0x1a>
  102f88:	4a28      	ldr	r2, [pc, #160]	; (10302c <_GLOBAL__sub_I_TOUCH_LC717A00_mode+0xdc>)
  102f8a:	492b      	ldr	r1, [pc, #172]	; (103038 <_GLOBAL__sub_I_TOUCH_LC717A00_mode+0xe8>)
  102f8c:	4628      	mov	r0, r5
  102f8e:	f004 fee0 	bl	107d52 <__aeabi_atexit>
  102f92:	482a      	ldr	r0, [pc, #168]	; (10303c <_GLOBAL__sub_I_TOUCH_LC717A00_mode+0xec>)
  102f94:	f7ff ff40 	bl	102e18 <std::__cxx11::basic_string<char, std::char_traits<char>, std::allocator<char> >::basic_string(char const*, std::allocator<char> const&) [clone .isra.14] [clone .constprop.16]>
  102f98:	4a24      	ldr	r2, [pc, #144]	; (10302c <_GLOBAL__sub_I_TOUCH_LC717A00_mode+0xdc>)
  102f9a:	4925      	ldr	r1, [pc, #148]	; (103030 <_GLOBAL__sub_I_TOUCH_LC717A00_mode+0xe0>)
  102f9c:	4827      	ldr	r0, [pc, #156]	; (10303c <_GLOBAL__sub_I_TOUCH_LC717A00_mode+0xec>)
  102f9e:	f004 fed8 	bl	107d52 <__aeabi_atexit>
  102fa2:	4827      	ldr	r0, [pc, #156]	; (103040 <_GLOBAL__sub_I_TOUCH_LC717A00_mode+0xf0>)
  102fa4:	f7ff ff38 	bl	102e18 <std::__cxx11::basic_string<char, std::char_traits<char>, std::allocator<char> >::basic_string(char const*, std::allocator<char> const&) [clone .isra.14] [clone .constprop.16]>
  102fa8:	4a20      	ldr	r2, [pc, #128]	; (10302c <_GLOBAL__sub_I_TOUCH_LC717A00_mode+0xdc>)
  102faa:	4921      	ldr	r1, [pc, #132]	; (103030 <_GLOBAL__sub_I_TOUCH_LC717A00_mode+0xe0>)
  102fac:	4824      	ldr	r0, [pc, #144]	; (103040 <_GLOBAL__sub_I_TOUCH_LC717A00_mode+0xf0>)
  102fae:	f004 fed0 	bl	107d52 <__aeabi_atexit>
  102fb2:	4824      	ldr	r0, [pc, #144]	; (103044 <_GLOBAL__sub_I_TOUCH_LC717A00_mode+0xf4>)
  102fb4:	f7ff ff30 	bl	102e18 <std::__cxx11::basic_string<char, std::char_traits<char>, std::allocator<char> >::basic_string(char const*, std::allocator<char> const&) [clone .isra.14] [clone .constprop.16]>
  102fb8:	4a1c      	ldr	r2, [pc, #112]	; (10302c <_GLOBAL__sub_I_TOUCH_LC717A00_mode+0xdc>)
  102fba:	491d      	ldr	r1, [pc, #116]	; (103030 <_GLOBAL__sub_I_TOUCH_LC717A00_mode+0xe0>)
  102fbc:	4821      	ldr	r0, [pc, #132]	; (103044 <_GLOBAL__sub_I_TOUCH_LC717A00_mode+0xf4>)
  102fbe:	f004 fec8 	bl	107d52 <__aeabi_atexit>
  102fc2:	4821      	ldr	r0, [pc, #132]	; (103048 <_GLOBAL__sub_I_TOUCH_LC717A00_mode+0xf8>)
  102fc4:	f005 f8bc 	bl	108140 <rtos::Mutex::Mutex()>
  102fc8:	4a18      	ldr	r2, [pc, #96]	; (10302c <_GLOBAL__sub_I_TOUCH_LC717A00_mode+0xdc>)
  102fca:	4920      	ldr	r1, [pc, #128]	; (10304c <_GLOBAL__sub_I_TOUCH_LC717A00_mode+0xfc>)
  102fcc:	481e      	ldr	r0, [pc, #120]	; (103048 <_GLOBAL__sub_I_TOUCH_LC717A00_mode+0xf8>)
  102fce:	4c20      	ldr	r4, [pc, #128]	; (103050 <_GLOBAL__sub_I_TOUCH_LC717A00_mode+0x100>)
  102fd0:	f004 febf 	bl	107d52 <__aeabi_atexit>
  102fd4:	481f      	ldr	r0, [pc, #124]	; (103054 <_GLOBAL__sub_I_TOUCH_LC717A00_mode+0x104>)
  102fd6:	f7ff fbf9 	bl	1027cc <GPS::GPS()>
  102fda:	f04f 36ff 	mov.w	r6, #4294967295
  102fde:	4a13      	ldr	r2, [pc, #76]	; (10302c <_GLOBAL__sub_I_TOUCH_LC717A00_mode+0xdc>)
  102fe0:	491d      	ldr	r1, [pc, #116]	; (103058 <_GLOBAL__sub_I_TOUCH_LC717A00_mode+0x108>)
  102fe2:	481c      	ldr	r0, [pc, #112]	; (103054 <_GLOBAL__sub_I_TOUCH_LC717A00_mode+0x104>)
  102fe4:	f004 feb5 	bl	107d52 <__aeabi_atexit>
  102fe8:	2304      	movs	r3, #4
  102fea:	2206      	movs	r2, #6
  102fec:	9600      	str	r6, [sp, #0]
  102fee:	2105      	movs	r1, #5
  102ff0:	4620      	mov	r0, r4
  102ff2:	f004 fafd 	bl	1075f0 <mbed::SPI::SPI(PinName, PinName, PinName, PinName)>
  102ff6:	4631      	mov	r1, r6
  102ff8:	f104 002c 	add.w	r0, r4, #44	; 0x2c
  102ffc:	62e5      	str	r5, [r4, #44]	; 0x2c
  102ffe:	f884 5030 	strb.w	r5, [r4, #48]	; 0x30
  103002:	6365      	str	r5, [r4, #52]	; 0x34
  103004:	f000 fde0 	bl	103bc8 <gpio_init_out>
  103008:	9600      	str	r6, [sp, #0]
  10300a:	2320      	movs	r3, #32
  10300c:	2202      	movs	r2, #2
  10300e:	2103      	movs	r1, #3
  103010:	f104 0040 	add.w	r0, r4, #64	; 0x40
  103014:	f000 fa70 	bl	1034f8 <PCA9655E::PCA9655E(PinName, PinName, unsigned char, PinName)>
  103018:	4620      	mov	r0, r4
  10301a:	4a04      	ldr	r2, [pc, #16]	; (10302c <_GLOBAL__sub_I_TOUCH_LC717A00_mode+0xdc>)
  10301c:	490f      	ldr	r1, [pc, #60]	; (10305c <_GLOBAL__sub_I_TOUCH_LC717A00_mode+0x10c>)
  10301e:	b002      	add	sp, #8
  103020:	e8bd 4070 	ldmia.w	sp!, {r4, r5, r6, lr}
  103024:	f004 be95 	b.w	107d52 <__aeabi_atexit>
  103028:	3fff866c 	.word	0x3fff866c
  10302c:	3fff40a0 	.word	0x3fff40a0
  103030:	001082bd 	.word	0x001082bd
  103034:	3fff84f4 	.word	0x3fff84f4
  103038:	00102df9 	.word	0x00102df9
  10303c:	3fff869c 	.word	0x3fff869c
  103040:	3fff8684 	.word	0x3fff8684
  103044:	3fff8bac 	.word	0x3fff8bac
  103048:	3fff8b7c 	.word	0x3fff8b7c
  10304c:	0010815b 	.word	0x0010815b
  103050:	3fff8bc4 	.word	0x3fff8bc4
  103054:	3fff86b4 	.word	0x3fff86b4
  103058:	00102651 	.word	0x00102651
  10305c:	0010219f 	.word	0x0010219f

00103060 <__tcf_0>:
  103060:	b538      	push	{r3, r4, r5, lr}
  103062:	4d06      	ldr	r5, [pc, #24]	; (10307c <__tcf_0+0x1c>)
  103064:	2400      	movs	r4, #0
  103066:	f504 70b4 	add.w	r0, r4, #360	; 0x168
  10306a:	4428      	add	r0, r5
  10306c:	3c18      	subs	r4, #24
  10306e:	f005 f90f 	bl	108290 <std::__cxx11::basic_string<char, std::char_traits<char>, std::allocator<char> >::_M_dispose()>
  103072:	f514 7fc0 	cmn.w	r4, #384	; 0x180
  103076:	d1f6      	bne.n	103066 <__tcf_0+0x6>
  103078:	bd38      	pop	{r3, r4, r5, pc}
  10307a:	bf00      	nop
  10307c:	3fff8c60 	.word	0x3fff8c60

00103080 <std::__cxx11::basic_string<char, std::char_traits<char>, std::allocator<char> >::basic_string(char const*, std::allocator<char> const&) [clone .isra.15] [clone .constprop.17]>:
  103080:	b510      	push	{r4, lr}
  103082:	4604      	mov	r4, r0
  103084:	4a05      	ldr	r2, [pc, #20]	; (10309c <std::__cxx11::basic_string<char, std::char_traits<char>, std::allocator<char> >::basic_string(char const*, std::allocator<char> const&) [clone .isra.15] [clone .constprop.17]+0x1c>)
  103086:	3008      	adds	r0, #8
  103088:	6020      	str	r0, [r4, #0]
  10308a:	4611      	mov	r1, r2
  10308c:	f005 f911 	bl	1082b2 <std::__cxx11::basic_string<char, std::char_traits<char>, std::allocator<char> >::_S_copy_chars(char*, char const*, char const*)>
  103090:	6822      	ldr	r2, [r4, #0]
  103092:	2300      	movs	r3, #0
  103094:	6063      	str	r3, [r4, #4]
  103096:	7013      	strb	r3, [r2, #0]
  103098:	4620      	mov	r0, r4
  10309a:	bd10      	pop	{r4, pc}
  10309c:	0010f4f1 	.word	0x0010f4f1

001030a0 <_GLOBAL__sub_I_TOUCH_LC717A00_mode>:
  1030a0:	b573      	push	{r0, r1, r4, r5, r6, lr}
  1030a2:	483d      	ldr	r0, [pc, #244]	; (103198 <_GLOBAL__sub_I_TOUCH_LC717A00_mode+0xf8>)
  1030a4:	f7ff ffec 	bl	103080 <std::__cxx11::basic_string<char, std::char_traits<char>, std::allocator<char> >::basic_string(char const*, std::allocator<char> const&) [clone .isra.15] [clone .constprop.17]>
  1030a8:	4a3c      	ldr	r2, [pc, #240]	; (10319c <_GLOBAL__sub_I_TOUCH_LC717A00_mode+0xfc>)
  1030aa:	493d      	ldr	r1, [pc, #244]	; (1031a0 <_GLOBAL__sub_I_TOUCH_LC717A00_mode+0x100>)
  1030ac:	483a      	ldr	r0, [pc, #232]	; (103198 <_GLOBAL__sub_I_TOUCH_LC717A00_mode+0xf8>)
  1030ae:	f004 fe50 	bl	107d52 <__aeabi_atexit>
  1030b2:	4b3c      	ldr	r3, [pc, #240]	; (1031a4 <_GLOBAL__sub_I_TOUCH_LC717A00_mode+0x104>)
  1030b4:	2200      	movs	r2, #0
  1030b6:	f503 70c0 	add.w	r0, r3, #384	; 0x180
  1030ba:	4619      	mov	r1, r3
  1030bc:	f843 2c04 	str.w	r2, [r3, #-4]
  1030c0:	f843 3c08 	str.w	r3, [r3, #-8]
  1030c4:	f801 2b18 	strb.w	r2, [r1], #24
  1030c8:	6119      	str	r1, [r3, #16]
  1030ca:	615a      	str	r2, [r3, #20]
  1030cc:	761a      	strb	r2, [r3, #24]
  1030ce:	3330      	adds	r3, #48	; 0x30
  1030d0:	4283      	cmp	r3, r0
  1030d2:	f04f 0500 	mov.w	r5, #0
  1030d6:	d1f0      	bne.n	1030ba <_GLOBAL__sub_I_TOUCH_LC717A00_mode+0x1a>
  1030d8:	4a30      	ldr	r2, [pc, #192]	; (10319c <_GLOBAL__sub_I_TOUCH_LC717A00_mode+0xfc>)
  1030da:	4933      	ldr	r1, [pc, #204]	; (1031a8 <_GLOBAL__sub_I_TOUCH_LC717A00_mode+0x108>)
  1030dc:	4628      	mov	r0, r5
  1030de:	f004 fe38 	bl	107d52 <__aeabi_atexit>
  1030e2:	4832      	ldr	r0, [pc, #200]	; (1031ac <_GLOBAL__sub_I_TOUCH_LC717A00_mode+0x10c>)
  1030e4:	f7ff ffcc 	bl	103080 <std::__cxx11::basic_string<char, std::char_traits<char>, std::allocator<char> >::basic_string(char const*, std::allocator<char> const&) [clone .isra.15] [clone .constprop.17]>
  1030e8:	4a2c      	ldr	r2, [pc, #176]	; (10319c <_GLOBAL__sub_I_TOUCH_LC717A00_mode+0xfc>)
  1030ea:	492d      	ldr	r1, [pc, #180]	; (1031a0 <_GLOBAL__sub_I_TOUCH_LC717A00_mode+0x100>)
  1030ec:	482f      	ldr	r0, [pc, #188]	; (1031ac <_GLOBAL__sub_I_TOUCH_LC717A00_mode+0x10c>)
  1030ee:	f004 fe30 	bl	107d52 <__aeabi_atexit>
  1030f2:	482f      	ldr	r0, [pc, #188]	; (1031b0 <_GLOBAL__sub_I_TOUCH_LC717A00_mode+0x110>)
  1030f4:	f7ff ffc4 	bl	103080 <std::__cxx11::basic_string<char, std::char_traits<char>, std::allocator<char> >::basic_string(char const*, std::allocator<char> const&) [clone .isra.15] [clone .constprop.17]>
  1030f8:	4a28      	ldr	r2, [pc, #160]	; (10319c <_GLOBAL__sub_I_TOUCH_LC717A00_mode+0xfc>)
  1030fa:	4929      	ldr	r1, [pc, #164]	; (1031a0 <_GLOBAL__sub_I_TOUCH_LC717A00_mode+0x100>)
  1030fc:	482c      	ldr	r0, [pc, #176]	; (1031b0 <_GLOBAL__sub_I_TOUCH_LC717A00_mode+0x110>)
  1030fe:	f004 fe28 	bl	107d52 <__aeabi_atexit>
  103102:	482c      	ldr	r0, [pc, #176]	; (1031b4 <_GLOBAL__sub_I_TOUCH_LC717A00_mode+0x114>)
  103104:	f7ff ffbc 	bl	103080 <std::__cxx11::basic_string<char, std::char_traits<char>, std::allocator<char> >::basic_string(char const*, std::allocator<char> const&) [clone .isra.15] [clone .constprop.17]>
  103108:	4a24      	ldr	r2, [pc, #144]	; (10319c <_GLOBAL__sub_I_TOUCH_LC717A00_mode+0xfc>)
  10310a:	4925      	ldr	r1, [pc, #148]	; (1031a0 <_GLOBAL__sub_I_TOUCH_LC717A00_mode+0x100>)
  10310c:	4829      	ldr	r0, [pc, #164]	; (1031b4 <_GLOBAL__sub_I_TOUCH_LC717A00_mode+0x114>)
  10310e:	f004 fe20 	bl	107d52 <__aeabi_atexit>
  103112:	4c29      	ldr	r4, [pc, #164]	; (1031b8 <_GLOBAL__sub_I_TOUCH_LC717A00_mode+0x118>)
  103114:	4829      	ldr	r0, [pc, #164]	; (1031bc <_GLOBAL__sub_I_TOUCH_LC717A00_mode+0x11c>)
  103116:	f005 f813 	bl	108140 <rtos::Mutex::Mutex()>
  10311a:	4a20      	ldr	r2, [pc, #128]	; (10319c <_GLOBAL__sub_I_TOUCH_LC717A00_mode+0xfc>)
  10311c:	4928      	ldr	r1, [pc, #160]	; (1031c0 <_GLOBAL__sub_I_TOUCH_LC717A00_mode+0x120>)
  10311e:	4827      	ldr	r0, [pc, #156]	; (1031bc <_GLOBAL__sub_I_TOUCH_LC717A00_mode+0x11c>)
  103120:	f004 fe17 	bl	107d52 <__aeabi_atexit>
  103124:	4620      	mov	r0, r4
  103126:	f004 fb5b 	bl	1077e0 <mbed::TimerEvent::TimerEvent()>
  10312a:	4b26      	ldr	r3, [pc, #152]	; (1031c4 <_GLOBAL__sub_I_TOUCH_LC717A00_mode+0x124>)
  10312c:	6365      	str	r5, [r4, #52]	; 0x34
  10312e:	4a1b      	ldr	r2, [pc, #108]	; (10319c <_GLOBAL__sub_I_TOUCH_LC717A00_mode+0xfc>)
  103130:	4925      	ldr	r1, [pc, #148]	; (1031c8 <_GLOBAL__sub_I_TOUCH_LC717A00_mode+0x128>)
  103132:	4620      	mov	r0, r4
  103134:	6023      	str	r3, [r4, #0]
  103136:	4c25      	ldr	r4, [pc, #148]	; (1031cc <_GLOBAL__sub_I_TOUCH_LC717A00_mode+0x12c>)
  103138:	f004 fe0b 	bl	107d52 <__aeabi_atexit>
  10313c:	f44f 5316 	mov.w	r3, #9600	; 0x2580
  103140:	4629      	mov	r1, r5
  103142:	2201      	movs	r2, #1
  103144:	4822      	ldr	r0, [pc, #136]	; (1031d0 <_GLOBAL__sub_I_TOUCH_LC717A00_mode+0x130>)
  103146:	f004 f9ad 	bl	1074a4 <mbed::Serial::Serial(PinName, PinName, int)>
  10314a:	f04f 36ff 	mov.w	r6, #4294967295
  10314e:	4a13      	ldr	r2, [pc, #76]	; (10319c <_GLOBAL__sub_I_TOUCH_LC717A00_mode+0xfc>)
  103150:	4920      	ldr	r1, [pc, #128]	; (1031d4 <_GLOBAL__sub_I_TOUCH_LC717A00_mode+0x134>)
  103152:	481f      	ldr	r0, [pc, #124]	; (1031d0 <_GLOBAL__sub_I_TOUCH_LC717A00_mode+0x130>)
  103154:	f004 fdfd 	bl	107d52 <__aeabi_atexit>
  103158:	2304      	movs	r3, #4
  10315a:	2206      	movs	r2, #6
  10315c:	9600      	str	r6, [sp, #0]
  10315e:	2105      	movs	r1, #5
  103160:	4620      	mov	r0, r4
  103162:	f004 fa45 	bl	1075f0 <mbed::SPI::SPI(PinName, PinName, PinName, PinName)>
  103166:	4631      	mov	r1, r6
  103168:	f104 002c 	add.w	r0, r4, #44	; 0x2c
  10316c:	62e5      	str	r5, [r4, #44]	; 0x2c
  10316e:	f884 5030 	strb.w	r5, [r4, #48]	; 0x30
  103172:	6365      	str	r5, [r4, #52]	; 0x34
  103174:	f000 fd28 	bl	103bc8 <gpio_init_out>
  103178:	9600      	str	r6, [sp, #0]
  10317a:	2320      	movs	r3, #32
  10317c:	2202      	movs	r2, #2
  10317e:	2103      	movs	r1, #3
  103180:	f104 0040 	add.w	r0, r4, #64	; 0x40
  103184:	f000 f9b8 	bl	1034f8 <PCA9655E::PCA9655E(PinName, PinName, unsigned char, PinName)>
  103188:	4620      	mov	r0, r4
  10318a:	4a04      	ldr	r2, [pc, #16]	; (10319c <_GLOBAL__sub_I_TOUCH_LC717A00_mode+0xfc>)
  10318c:	4912      	ldr	r1, [pc, #72]	; (1031d8 <_GLOBAL__sub_I_TOUCH_LC717A00_mode+0x138>)
  10318e:	b002      	add	sp, #8
  103190:	e8bd 4070 	ldmia.w	sp!, {r4, r5, r6, lr}
  103194:	f004 bddd 	b.w	107d52 <__aeabi_atexit>
  103198:	3fff8de0 	.word	0x3fff8de0
  10319c:	3fff40a0 	.word	0x3fff40a0
  1031a0:	001082bd 	.word	0x001082bd
  1031a4:	3fff8c68 	.word	0x3fff8c68
  1031a8:	00103061 	.word	0x00103061
  1031ac:	3fff8e48 	.word	0x3fff8e48
  1031b0:	3fff8df8 	.word	0x3fff8df8
  1031b4:	3fff8f0c 	.word	0x3fff8f0c
  1031b8:	3fff8e10 	.word	0x3fff8e10
  1031bc:	3fff8edc 	.word	0x3fff8edc
  1031c0:	0010815b 	.word	0x0010815b
  1031c4:	0010f294 	.word	0x0010f294
  1031c8:	00102355 	.word	0x00102355
  1031cc:	3fff8f24 	.word	0x3fff8f24
  1031d0:	3fff8e60 	.word	0x3fff8e60
  1031d4:	00102315 	.word	0x00102315
  1031d8:	0010219f 	.word	0x0010219f

001031dc <__tcf_0>:
  1031dc:	b538      	push	{r3, r4, r5, lr}
  1031de:	4d06      	ldr	r5, [pc, #24]	; (1031f8 <__tcf_0+0x1c>)
  1031e0:	2400      	movs	r4, #0
  1031e2:	f504 70b4 	add.w	r0, r4, #360	; 0x168
  1031e6:	4428      	add	r0, r5
  1031e8:	3c18      	subs	r4, #24
  1031ea:	f005 f851 	bl	108290 <std::__cxx11::basic_string<char, std::char_traits<char>, std::allocator<char> >::_M_dispose()>
  1031ee:	f514 7fc0 	cmn.w	r4, #384	; 0x180
  1031f2:	d1f6      	bne.n	1031e2 <__tcf_0+0x6>
  1031f4:	bd38      	pop	{r3, r4, r5, pc}
  1031f6:	bf00      	nop
  1031f8:	3fff8fc0 	.word	0x3fff8fc0

001031fc <std::__cxx11::basic_string<char, std::char_traits<char>, std::allocator<char> >::basic_string(char const*, std::allocator<char> const&) [clone .isra.15] [clone .constprop.17]>:
  1031fc:	b510      	push	{r4, lr}
  1031fe:	4604      	mov	r4, r0
  103200:	4a05      	ldr	r2, [pc, #20]	; (103218 <std::__cxx11::basic_string<char, std::char_traits<char>, std::allocator<char> >::basic_string(char const*, std::allocator<char> const&) [clone .isra.15] [clone .constprop.17]+0x1c>)
  103202:	3008      	adds	r0, #8
  103204:	6020      	str	r0, [r4, #0]
  103206:	4611      	mov	r1, r2
  103208:	f005 f853 	bl	1082b2 <std::__cxx11::basic_string<char, std::char_traits<char>, std::allocator<char> >::_S_copy_chars(char*, char const*, char const*)>
  10320c:	6822      	ldr	r2, [r4, #0]
  10320e:	2300      	movs	r3, #0
  103210:	6063      	str	r3, [r4, #4]
  103212:	7013      	strb	r3, [r2, #0]
  103214:	4620      	mov	r0, r4
  103216:	bd10      	pop	{r4, pc}
  103218:	0010f4f1 	.word	0x0010f4f1

0010321c <Send_UART(char*)>:
  10321c:	4602      	mov	r2, r0
  10321e:	b508      	push	{r3, lr}
  103220:	4903      	ldr	r1, [pc, #12]	; (103230 <Send_UART(char*)+0x14>)
  103222:	4804      	ldr	r0, [pc, #16]	; (103234 <Send_UART(char*)+0x18>)
  103224:	f004 ff40 	bl	1080a8 <mbed::Stream::printf(char const*, ...)>
  103228:	3000      	adds	r0, #0
  10322a:	bf18      	it	ne
  10322c:	2001      	movne	r0, #1
  10322e:	bd08      	pop	{r3, pc}
  103230:	0010e690 	.word	0x0010e690
  103234:	3fff9294 	.word	0x3fff9294

00103238 <Send_UART_nonPrintableChar(int*, int)>:
  103238:	b570      	push	{r4, r5, r6, lr}
  10323a:	4605      	mov	r5, r0
  10323c:	460e      	mov	r6, r1
  10323e:	2400      	movs	r4, #0
  103240:	42b4      	cmp	r4, r6
  103242:	dc07      	bgt.n	103254 <Send_UART_nonPrintableChar(int*, int)+0x1c>
  103244:	f855 2024 	ldr.w	r2, [r5, r4, lsl #2]
  103248:	4906      	ldr	r1, [pc, #24]	; (103264 <Send_UART_nonPrintableChar(int*, int)+0x2c>)
  10324a:	4807      	ldr	r0, [pc, #28]	; (103268 <Send_UART_nonPrintableChar(int*, int)+0x30>)
  10324c:	f004 ff2c 	bl	1080a8 <mbed::Stream::printf(char const*, ...)>
  103250:	3401      	adds	r4, #1
  103252:	e7f5      	b.n	103240 <Send_UART_nonPrintableChar(int*, int)+0x8>
  103254:	220d      	movs	r2, #13
  103256:	4905      	ldr	r1, [pc, #20]	; (10326c <Send_UART_nonPrintableChar(int*, int)+0x34>)
  103258:	4803      	ldr	r0, [pc, #12]	; (103268 <Send_UART_nonPrintableChar(int*, int)+0x30>)
  10325a:	f004 ff25 	bl	1080a8 <mbed::Stream::printf(char const*, ...)>
  10325e:	2000      	movs	r0, #0
  103260:	bd70      	pop	{r4, r5, r6, pc}
  103262:	bf00      	nop
  103264:	0010e7ce 	.word	0x0010e7ce
  103268:	3fff9294 	.word	0x3fff9294
  10326c:	0010e7d1 	.word	0x0010e7d1

00103270 <mbed::Callback<void ()>::operator=(mbed::Callback<void ()> const&)>:
  103270:	4288      	cmp	r0, r1
  103272:	b538      	push	{r3, r4, r5, lr}
  103274:	4604      	mov	r4, r0
  103276:	460d      	mov	r5, r1
  103278:	d00a      	beq.n	103290 <mbed::Callback<void ()>::operator=(mbed::Callback<void ()> const&)+0x20>
  10327a:	f7ff f825 	bl	1022c8 <mbed::Callback<void ()>::~Callback()>
  10327e:	b13c      	cbz	r4, 103290 <mbed::Callback<void ()>::operator=(mbed::Callback<void ()> const&)+0x20>
  103280:	68eb      	ldr	r3, [r5, #12]
  103282:	b11b      	cbz	r3, 10328c <mbed::Callback<void ()>::operator=(mbed::Callback<void ()> const&)+0x1c>
  103284:	685b      	ldr	r3, [r3, #4]
  103286:	4629      	mov	r1, r5
  103288:	4620      	mov	r0, r4
  10328a:	4798      	blx	r3
  10328c:	68eb      	ldr	r3, [r5, #12]
  10328e:	60e3      	str	r3, [r4, #12]
  103290:	4620      	mov	r0, r4
  103292:	bd38      	pop	{r3, r4, r5, pc}

00103294 <_GLOBAL__sub_I_TOUCH_LC717A00_mode>:
  103294:	b573      	push	{r0, r1, r4, r5, r6, lr}
  103296:	483d      	ldr	r0, [pc, #244]	; (10338c <_GLOBAL__sub_I_TOUCH_LC717A00_mode+0xf8>)
  103298:	f7ff ffb0 	bl	1031fc <std::__cxx11::basic_string<char, std::char_traits<char>, std::allocator<char> >::basic_string(char const*, std::allocator<char> const&) [clone .isra.15] [clone .constprop.17]>
  10329c:	4a3c      	ldr	r2, [pc, #240]	; (103390 <_GLOBAL__sub_I_TOUCH_LC717A00_mode+0xfc>)
  10329e:	493d      	ldr	r1, [pc, #244]	; (103394 <_GLOBAL__sub_I_TOUCH_LC717A00_mode+0x100>)
  1032a0:	483a      	ldr	r0, [pc, #232]	; (10338c <_GLOBAL__sub_I_TOUCH_LC717A00_mode+0xf8>)
  1032a2:	f004 fd56 	bl	107d52 <__aeabi_atexit>
  1032a6:	4b3c      	ldr	r3, [pc, #240]	; (103398 <_GLOBAL__sub_I_TOUCH_LC717A00_mode+0x104>)
  1032a8:	2200      	movs	r2, #0
  1032aa:	f503 70c0 	add.w	r0, r3, #384	; 0x180
  1032ae:	4619      	mov	r1, r3
  1032b0:	f843 2c04 	str.w	r2, [r3, #-4]
  1032b4:	f843 3c08 	str.w	r3, [r3, #-8]
  1032b8:	f801 2b18 	strb.w	r2, [r1], #24
  1032bc:	6119      	str	r1, [r3, #16]
  1032be:	615a      	str	r2, [r3, #20]
  1032c0:	761a      	strb	r2, [r3, #24]
  1032c2:	3330      	adds	r3, #48	; 0x30
  1032c4:	4283      	cmp	r3, r0
  1032c6:	f04f 0500 	mov.w	r5, #0
  1032ca:	d1f0      	bne.n	1032ae <_GLOBAL__sub_I_TOUCH_LC717A00_mode+0x1a>
  1032cc:	4a30      	ldr	r2, [pc, #192]	; (103390 <_GLOBAL__sub_I_TOUCH_LC717A00_mode+0xfc>)
  1032ce:	4933      	ldr	r1, [pc, #204]	; (10339c <_GLOBAL__sub_I_TOUCH_LC717A00_mode+0x108>)
  1032d0:	4628      	mov	r0, r5
  1032d2:	f004 fd3e 	bl	107d52 <__aeabi_atexit>
  1032d6:	4832      	ldr	r0, [pc, #200]	; (1033a0 <_GLOBAL__sub_I_TOUCH_LC717A00_mode+0x10c>)
  1032d8:	f7ff ff90 	bl	1031fc <std::__cxx11::basic_string<char, std::char_traits<char>, std::allocator<char> >::basic_string(char const*, std::allocator<char> const&) [clone .isra.15] [clone .constprop.17]>
  1032dc:	4a2c      	ldr	r2, [pc, #176]	; (103390 <_GLOBAL__sub_I_TOUCH_LC717A00_mode+0xfc>)
  1032de:	492d      	ldr	r1, [pc, #180]	; (103394 <_GLOBAL__sub_I_TOUCH_LC717A00_mode+0x100>)
  1032e0:	482f      	ldr	r0, [pc, #188]	; (1033a0 <_GLOBAL__sub_I_TOUCH_LC717A00_mode+0x10c>)
  1032e2:	f004 fd36 	bl	107d52 <__aeabi_atexit>
  1032e6:	482f      	ldr	r0, [pc, #188]	; (1033a4 <_GLOBAL__sub_I_TOUCH_LC717A00_mode+0x110>)
  1032e8:	f7ff ff88 	bl	1031fc <std::__cxx11::basic_string<char, std::char_traits<char>, std::allocator<char> >::basic_string(char const*, std::allocator<char> const&) [clone .isra.15] [clone .constprop.17]>
  1032ec:	4a28      	ldr	r2, [pc, #160]	; (103390 <_GLOBAL__sub_I_TOUCH_LC717A00_mode+0xfc>)
  1032ee:	4929      	ldr	r1, [pc, #164]	; (103394 <_GLOBAL__sub_I_TOUCH_LC717A00_mode+0x100>)
  1032f0:	482c      	ldr	r0, [pc, #176]	; (1033a4 <_GLOBAL__sub_I_TOUCH_LC717A00_mode+0x110>)
  1032f2:	f004 fd2e 	bl	107d52 <__aeabi_atexit>
  1032f6:	482c      	ldr	r0, [pc, #176]	; (1033a8 <_GLOBAL__sub_I_TOUCH_LC717A00_mode+0x114>)
  1032f8:	f7ff ff80 	bl	1031fc <std::__cxx11::basic_string<char, std::char_traits<char>, std::allocator<char> >::basic_string(char const*, std::allocator<char> const&) [clone .isra.15] [clone .constprop.17]>
  1032fc:	4a24      	ldr	r2, [pc, #144]	; (103390 <_GLOBAL__sub_I_TOUCH_LC717A00_mode+0xfc>)
  1032fe:	4925      	ldr	r1, [pc, #148]	; (103394 <_GLOBAL__sub_I_TOUCH_LC717A00_mode+0x100>)
  103300:	4829      	ldr	r0, [pc, #164]	; (1033a8 <_GLOBAL__sub_I_TOUCH_LC717A00_mode+0x114>)
  103302:	4c2a      	ldr	r4, [pc, #168]	; (1033ac <_GLOBAL__sub_I_TOUCH_LC717A00_mode+0x118>)
  103304:	f004 fd25 	bl	107d52 <__aeabi_atexit>
  103308:	4829      	ldr	r0, [pc, #164]	; (1033b0 <_GLOBAL__sub_I_TOUCH_LC717A00_mode+0x11c>)
  10330a:	f004 ff19 	bl	108140 <rtos::Mutex::Mutex()>
  10330e:	f04f 36ff 	mov.w	r6, #4294967295
  103312:	4a1f      	ldr	r2, [pc, #124]	; (103390 <_GLOBAL__sub_I_TOUCH_LC717A00_mode+0xfc>)
  103314:	4927      	ldr	r1, [pc, #156]	; (1033b4 <_GLOBAL__sub_I_TOUCH_LC717A00_mode+0x120>)
  103316:	4826      	ldr	r0, [pc, #152]	; (1033b0 <_GLOBAL__sub_I_TOUCH_LC717A00_mode+0x11c>)
  103318:	f004 fd1b 	bl	107d52 <__aeabi_atexit>
  10331c:	2304      	movs	r3, #4
  10331e:	2206      	movs	r2, #6
  103320:	9600      	str	r6, [sp, #0]
  103322:	2105      	movs	r1, #5
  103324:	4620      	mov	r0, r4
  103326:	f004 f963 	bl	1075f0 <mbed::SPI::SPI(PinName, PinName, PinName, PinName)>
  10332a:	62e5      	str	r5, [r4, #44]	; 0x2c
  10332c:	f884 5030 	strb.w	r5, [r4, #48]	; 0x30
  103330:	6365      	str	r5, [r4, #52]	; 0x34
  103332:	4631      	mov	r1, r6
  103334:	f104 002c 	add.w	r0, r4, #44	; 0x2c
  103338:	f000 fc46 	bl	103bc8 <gpio_init_out>
  10333c:	2320      	movs	r3, #32
  10333e:	9600      	str	r6, [sp, #0]
  103340:	2202      	movs	r2, #2
  103342:	2103      	movs	r1, #3
  103344:	f104 0040 	add.w	r0, r4, #64	; 0x40
  103348:	f000 f8d6 	bl	1034f8 <PCA9655E::PCA9655E(PinName, PinName, unsigned char, PinName)>
  10334c:	4620      	mov	r0, r4
  10334e:	4c1a      	ldr	r4, [pc, #104]	; (1033b8 <_GLOBAL__sub_I_TOUCH_LC717A00_mode+0x124>)
  103350:	4a0f      	ldr	r2, [pc, #60]	; (103390 <_GLOBAL__sub_I_TOUCH_LC717A00_mode+0xfc>)
  103352:	491a      	ldr	r1, [pc, #104]	; (1033bc <_GLOBAL__sub_I_TOUCH_LC717A00_mode+0x128>)
  103354:	f004 fcfd 	bl	107d52 <__aeabi_atexit>
  103358:	4620      	mov	r0, r4
  10335a:	f004 fa41 	bl	1077e0 <mbed::TimerEvent::TimerEvent()>
  10335e:	4b18      	ldr	r3, [pc, #96]	; (1033c0 <_GLOBAL__sub_I_TOUCH_LC717A00_mode+0x12c>)
  103360:	6365      	str	r5, [r4, #52]	; 0x34
  103362:	4a0b      	ldr	r2, [pc, #44]	; (103390 <_GLOBAL__sub_I_TOUCH_LC717A00_mode+0xfc>)
  103364:	4917      	ldr	r1, [pc, #92]	; (1033c4 <_GLOBAL__sub_I_TOUCH_LC717A00_mode+0x130>)
  103366:	4620      	mov	r0, r4
  103368:	6023      	str	r3, [r4, #0]
  10336a:	f004 fcf2 	bl	107d52 <__aeabi_atexit>
  10336e:	4629      	mov	r1, r5
  103370:	f44f 5316 	mov.w	r3, #9600	; 0x2580
  103374:	2201      	movs	r2, #1
  103376:	4814      	ldr	r0, [pc, #80]	; (1033c8 <_GLOBAL__sub_I_TOUCH_LC717A00_mode+0x134>)
  103378:	f004 f894 	bl	1074a4 <mbed::Serial::Serial(PinName, PinName, int)>
  10337c:	4a04      	ldr	r2, [pc, #16]	; (103390 <_GLOBAL__sub_I_TOUCH_LC717A00_mode+0xfc>)
  10337e:	4913      	ldr	r1, [pc, #76]	; (1033cc <_GLOBAL__sub_I_TOUCH_LC717A00_mode+0x138>)
  103380:	4811      	ldr	r0, [pc, #68]	; (1033c8 <_GLOBAL__sub_I_TOUCH_LC717A00_mode+0x134>)
  103382:	b002      	add	sp, #8
  103384:	e8bd 4070 	ldmia.w	sp!, {r4, r5, r6, lr}
  103388:	f004 bce3 	b.w	107d52 <__aeabi_atexit>
  10338c:	3fff91dc 	.word	0x3fff91dc
  103390:	3fff40a0 	.word	0x3fff40a0
  103394:	001082bd 	.word	0x001082bd
  103398:	3fff8fc8 	.word	0x3fff8fc8
  10339c:	001031dd 	.word	0x001031dd
  1033a0:	3fff9248 	.word	0x3fff9248
  1033a4:	3fff91f4 	.word	0x3fff91f4
  1033a8:	3fff930c 	.word	0x3fff930c
  1033ac:	3fff9140 	.word	0x3fff9140
  1033b0:	3fff92dc 	.word	0x3fff92dc
  1033b4:	0010815b 	.word	0x0010815b
  1033b8:	3fff9210 	.word	0x3fff9210
  1033bc:	0010219f 	.word	0x0010219f
  1033c0:	0010f294 	.word	0x0010f294
  1033c4:	00102355 	.word	0x00102355
  1033c8:	3fff9260 	.word	0x3fff9260
  1033cc:	00102315 	.word	0x00102315

001033d0 <_start>:
  1033d0:	4808      	ldr	r0, [pc, #32]	; (1033f4 <_start+0x24>)
  1033d2:	4a09      	ldr	r2, [pc, #36]	; (1033f8 <_start+0x28>)
  1033d4:	b508      	push	{r3, lr}
  1033d6:	1a12      	subs	r2, r2, r0
  1033d8:	2100      	movs	r1, #0
  1033da:	f006 fbd9 	bl	109b90 <memset>
  1033de:	f000 fe63 	bl	1040a8 <software_init_hook>
  1033e2:	f006 fb1b 	bl	109a1c <__libc_init_array>
  1033e6:	f002 fec7 	bl	106178 <expReset_AppLedON>
  1033ea:	f000 fe55 	bl	104098 <__wrap_main>
  1033ee:	f004 fcb2 	bl	107d56 <__wrap_exit>
  1033f2:	bf00      	nop
  1033f4:	3fff65a0 	.word	0x3fff65a0
  1033f8:	3fffad7c 	.word	0x3fffad7c

001033fc <__wrap__isatty>:
  1033fc:	2802      	cmp	r0, #2
  1033fe:	dd01      	ble.n	103404 <__wrap__isatty+0x8>
  103400:	f004 bc2e 	b.w	107c60 <_isatty>
  103404:	2001      	movs	r0, #1
  103406:	4770      	bx	lr

00103408 <abort>:
  103408:	b508      	push	{r3, lr}
  10340a:	2001      	movs	r0, #1
  10340c:	f004 fca3 	bl	107d56 <__wrap_exit>

00103410 <__cxa_pure_virtual>:
  103410:	b508      	push	{r3, lr}
  103412:	f7ff fff9 	bl	103408 <abort>
	...

00103418 <LED::LED()>:
  103418:	b538      	push	{r3, r4, r5, lr}
  10341a:	4605      	mov	r5, r0
  10341c:	4c09      	ldr	r4, [pc, #36]	; (103444 <LED::LED()+0x2c>)
  10341e:	490a      	ldr	r1, [pc, #40]	; (103448 <LED::LED()+0x30>)
  103420:	4620      	mov	r0, r4
  103422:	f000 f87d 	bl	103520 <PCA9655E::frequency(int)>
  103426:	4620      	mov	r0, r4
  103428:	2300      	movs	r3, #0
  10342a:	2202      	movs	r2, #2
  10342c:	2101      	movs	r1, #1
  10342e:	f000 f8f7 	bl	103620 <PCA9655E::setDirection(Port, signed char, Direction)>
  103432:	4620      	mov	r0, r4
  103434:	2300      	movs	r3, #0
  103436:	2203      	movs	r2, #3
  103438:	2101      	movs	r1, #1
  10343a:	f000 f8f1 	bl	103620 <PCA9655E::setDirection(Port, signed char, Direction)>
  10343e:	4628      	mov	r0, r5
  103440:	bd38      	pop	{r3, r4, r5, pc}
  103442:	bf00      	nop
  103444:	3fff9324 	.word	0x3fff9324
  103448:	000f4240 	.word	0x000f4240

0010344c <LED::ledOn(myLED)>:
  10344c:	2901      	cmp	r1, #1
  10344e:	b510      	push	{r4, lr}
  103450:	460a      	mov	r2, r1
  103452:	d006      	beq.n	103462 <LED::ledOn(myLED)+0x16>
  103454:	d302      	bcc.n	10345c <LED::ledOn(myLED)+0x10>
  103456:	2902      	cmp	r1, #2
  103458:	d006      	beq.n	103468 <LED::ledOn(myLED)+0x1c>
  10345a:	bd10      	pop	{r4, pc}
  10345c:	2300      	movs	r3, #0
  10345e:	2202      	movs	r2, #2
  103460:	e009      	b.n	103476 <LED::ledOn(myLED)+0x2a>
  103462:	2300      	movs	r3, #0
  103464:	2203      	movs	r2, #3
  103466:	e007      	b.n	103478 <LED::ledOn(myLED)+0x2c>
  103468:	2300      	movs	r3, #0
  10346a:	2101      	movs	r1, #1
  10346c:	4805      	ldr	r0, [pc, #20]	; (103484 <LED::ledOn(myLED)+0x38>)
  10346e:	f000 f8a7 	bl	1035c0 <PCA9655E::setValue(Port, signed char, SetVal)>
  103472:	2300      	movs	r3, #0
  103474:	2203      	movs	r2, #3
  103476:	2101      	movs	r1, #1
  103478:	4802      	ldr	r0, [pc, #8]	; (103484 <LED::ledOn(myLED)+0x38>)
  10347a:	e8bd 4010 	ldmia.w	sp!, {r4, lr}
  10347e:	f000 b89f 	b.w	1035c0 <PCA9655E::setValue(Port, signed char, SetVal)>
  103482:	bf00      	nop
  103484:	3fff9324 	.word	0x3fff9324

00103488 <LED::ledOff(myLED)>:
  103488:	2901      	cmp	r1, #1
  10348a:	b510      	push	{r4, lr}
  10348c:	460a      	mov	r2, r1
  10348e:	d006      	beq.n	10349e <LED::ledOff(myLED)+0x16>
  103490:	d302      	bcc.n	103498 <LED::ledOff(myLED)+0x10>
  103492:	2902      	cmp	r1, #2
  103494:	d006      	beq.n	1034a4 <LED::ledOff(myLED)+0x1c>
  103496:	bd10      	pop	{r4, pc}
  103498:	2301      	movs	r3, #1
  10349a:	2202      	movs	r2, #2
  10349c:	e009      	b.n	1034b2 <LED::ledOff(myLED)+0x2a>
  10349e:	460b      	mov	r3, r1
  1034a0:	2203      	movs	r2, #3
  1034a2:	e007      	b.n	1034b4 <LED::ledOff(myLED)+0x2c>
  1034a4:	2301      	movs	r3, #1
  1034a6:	4619      	mov	r1, r3
  1034a8:	4805      	ldr	r0, [pc, #20]	; (1034c0 <LED::ledOff(myLED)+0x38>)
  1034aa:	f000 f889 	bl	1035c0 <PCA9655E::setValue(Port, signed char, SetVal)>
  1034ae:	2301      	movs	r3, #1
  1034b0:	2203      	movs	r2, #3
  1034b2:	4619      	mov	r1, r3
  1034b4:	e8bd 4010 	ldmia.w	sp!, {r4, lr}
  1034b8:	4801      	ldr	r0, [pc, #4]	; (1034c0 <LED::ledOff(myLED)+0x38>)
  1034ba:	f000 b881 	b.w	1035c0 <PCA9655E::setValue(Port, signed char, SetVal)>
  1034be:	bf00      	nop
  1034c0:	3fff9324 	.word	0x3fff9324

001034c4 <_GLOBAL__sub_I_led_ioexp>:
  1034c4:	b513      	push	{r0, r1, r4, lr}
  1034c6:	4c09      	ldr	r4, [pc, #36]	; (1034ec <_GLOBAL__sub_I_led_ioexp+0x28>)
  1034c8:	f04f 33ff 	mov.w	r3, #4294967295
  1034cc:	9300      	str	r3, [sp, #0]
  1034ce:	2202      	movs	r2, #2
  1034d0:	2320      	movs	r3, #32
  1034d2:	2103      	movs	r1, #3
  1034d4:	4620      	mov	r0, r4
  1034d6:	f000 f80f 	bl	1034f8 <PCA9655E::PCA9655E(PinName, PinName, unsigned char, PinName)>
  1034da:	4620      	mov	r0, r4
  1034dc:	4a04      	ldr	r2, [pc, #16]	; (1034f0 <_GLOBAL__sub_I_led_ioexp+0x2c>)
  1034de:	4905      	ldr	r1, [pc, #20]	; (1034f4 <_GLOBAL__sub_I_led_ioexp+0x30>)
  1034e0:	b002      	add	sp, #8
  1034e2:	e8bd 4010 	ldmia.w	sp!, {r4, lr}
  1034e6:	f004 bc34 	b.w	107d52 <__aeabi_atexit>
  1034ea:	bf00      	nop
  1034ec:	3fff9324 	.word	0x3fff9324
  1034f0:	3fff40a0 	.word	0x3fff40a0
  1034f4:	00103681 	.word	0x00103681

001034f8 <PCA9655E::PCA9655E(PinName, PinName, unsigned char, PinName)>:
  1034f8:	b538      	push	{r3, r4, r5, lr}
  1034fa:	4604      	mov	r4, r0
  1034fc:	461d      	mov	r5, r3
  1034fe:	f003 fe49 	bl	107194 <mbed::I2C::I2C(PinName, PinName)>
  103502:	f99d 1010 	ldrsb.w	r1, [sp, #16]
  103506:	f104 0020 	add.w	r0, r4, #32
  10350a:	f003 ff29 	bl	107360 <mbed::InterruptIn::InterruptIn(PinName)>
  10350e:	4620      	mov	r0, r4
  103510:	7725      	strb	r5, [r4, #28]
  103512:	4902      	ldr	r1, [pc, #8]	; (10351c <PCA9655E::PCA9655E(PinName, PinName, unsigned char, PinName)+0x24>)
  103514:	f003 fe5c 	bl	1071d0 <mbed::I2C::frequency(int)>
  103518:	4620      	mov	r0, r4
  10351a:	bd38      	pop	{r3, r4, r5, pc}
  10351c:	000f4240 	.word	0x000f4240

00103520 <PCA9655E::frequency(int)>:
  103520:	b508      	push	{r3, lr}
  103522:	b672      	cpsid	i
  103524:	f003 fe54 	bl	1071d0 <mbed::I2C::frequency(int)>
  103528:	b662      	cpsie	i
  10352a:	bd08      	pop	{r3, pc}

0010352c <PCA9655E::write(Register, char)>:
  10352c:	b51f      	push	{r0, r1, r2, r3, r4, lr}
  10352e:	b672      	cpsid	i
  103530:	2300      	movs	r3, #0
  103532:	f88d 100c 	strb.w	r1, [sp, #12]
  103536:	f88d 200d 	strb.w	r2, [sp, #13]
  10353a:	7f01      	ldrb	r1, [r0, #28]
  10353c:	aa03      	add	r2, sp, #12
  10353e:	9300      	str	r3, [sp, #0]
  103540:	2302      	movs	r3, #2
  103542:	f003 fe71 	bl	107228 <mbed::I2C::write(int, char const*, int, bool)>
  103546:	b662      	cpsie	i
  103548:	b005      	add	sp, #20
  10354a:	f85d fb04 	ldr.w	pc, [sp], #4

0010354e <PCA9655E::read(Register)>:
  10354e:	b530      	push	{r4, r5, lr}
  103550:	b085      	sub	sp, #20
  103552:	aa04      	add	r2, sp, #16
  103554:	4604      	mov	r4, r0
  103556:	f802 1d01 	strb.w	r1, [r2, #-1]!
  10355a:	b672      	cpsid	i
  10355c:	2501      	movs	r5, #1
  10355e:	7f01      	ldrb	r1, [r0, #28]
  103560:	462b      	mov	r3, r5
  103562:	9500      	str	r5, [sp, #0]
  103564:	f003 fe60 	bl	107228 <mbed::I2C::write(int, char const*, int, bool)>
  103568:	2300      	movs	r3, #0
  10356a:	9300      	str	r3, [sp, #0]
  10356c:	7f21      	ldrb	r1, [r4, #28]
  10356e:	462b      	mov	r3, r5
  103570:	f10d 020e 	add.w	r2, sp, #14
  103574:	4620      	mov	r0, r4
  103576:	f003 fe77 	bl	107268 <mbed::I2C::read(int, char*, int, bool)>
  10357a:	b662      	cpsie	i
  10357c:	f89d 000e 	ldrb.w	r0, [sp, #14]
  103580:	b005      	add	sp, #20
  103582:	bd30      	pop	{r4, r5, pc}

00103584 <PCA9655E::readPinVal(Port, signed char)>:
  103584:	b2d3      	uxtb	r3, r2
  103586:	2b07      	cmp	r3, #7
  103588:	b570      	push	{r4, r5, r6, lr}
  10358a:	4606      	mov	r6, r0
  10358c:	460d      	mov	r5, r1
  10358e:	4614      	mov	r4, r2
  103590:	d904      	bls.n	10359c <PCA9655E::readPinVal(Port, signed char)+0x18>
  103592:	2233      	movs	r2, #51	; 0x33
  103594:	4908      	ldr	r1, [pc, #32]	; (1035b8 <PCA9655E::readPinVal(Port, signed char)+0x34>)
  103596:	4809      	ldr	r0, [pc, #36]	; (1035bc <PCA9655E::readPinVal(Port, signed char)+0x38>)
  103598:	f000 fc3a 	bl	103e10 <mbed_assert_internal>
  10359c:	b10d      	cbz	r5, 1035a2 <PCA9655E::readPinVal(Port, signed char)+0x1e>
  10359e:	2d01      	cmp	r5, #1
  1035a0:	d107      	bne.n	1035b2 <PCA9655E::readPinVal(Port, signed char)+0x2e>
  1035a2:	4629      	mov	r1, r5
  1035a4:	4630      	mov	r0, r6
  1035a6:	f7ff ffd2 	bl	10354e <PCA9655E::read(Register)>
  1035aa:	4120      	asrs	r0, r4
  1035ac:	f000 0001 	and.w	r0, r0, #1
  1035b0:	bd70      	pop	{r4, r5, r6, pc}
  1035b2:	f04f 30ff 	mov.w	r0, #4294967295
  1035b6:	bd70      	pop	{r4, r5, r6, pc}
  1035b8:	0010e7d4 	.word	0x0010e7d4
  1035bc:	0010e7f9 	.word	0x0010e7f9

001035c0 <PCA9655E::setValue(Port, signed char, SetVal)>:
  1035c0:	b5f8      	push	{r3, r4, r5, r6, r7, lr}
  1035c2:	461c      	mov	r4, r3
  1035c4:	b2d3      	uxtb	r3, r2
  1035c6:	2b07      	cmp	r3, #7
  1035c8:	4606      	mov	r6, r0
  1035ca:	460d      	mov	r5, r1
  1035cc:	4617      	mov	r7, r2
  1035ce:	d904      	bls.n	1035da <PCA9655E::setValue(Port, signed char, SetVal)+0x1a>
  1035d0:	225c      	movs	r2, #92	; 0x5c
  1035d2:	4911      	ldr	r1, [pc, #68]	; (103618 <PCA9655E::setValue(Port, signed char, SetVal)+0x58>)
  1035d4:	4811      	ldr	r0, [pc, #68]	; (10361c <PCA9655E::setValue(Port, signed char, SetVal)+0x5c>)
  1035d6:	f000 fc1b 	bl	103e10 <mbed_assert_internal>
  1035da:	b11d      	cbz	r5, 1035e4 <PCA9655E::setValue(Port, signed char, SetVal)+0x24>
  1035dc:	2d01      	cmp	r5, #1
  1035de:	d11a      	bne.n	103616 <PCA9655E::setValue(Port, signed char, SetVal)+0x56>
  1035e0:	2503      	movs	r5, #3
  1035e2:	e000      	b.n	1035e6 <PCA9655E::setValue(Port, signed char, SetVal)+0x26>
  1035e4:	2502      	movs	r5, #2
  1035e6:	4629      	mov	r1, r5
  1035e8:	4630      	mov	r0, r6
  1035ea:	f7ff ffb0 	bl	10354e <PCA9655E::read(Register)>
  1035ee:	b13c      	cbz	r4, 103600 <PCA9655E::setValue(Port, signed char, SetVal)+0x40>
  1035f0:	2c01      	cmp	r4, #1
  1035f2:	d001      	beq.n	1035f8 <PCA9655E::setValue(Port, signed char, SetVal)+0x38>
  1035f4:	b2c2      	uxtb	r2, r0
  1035f6:	e008      	b.n	10360a <PCA9655E::setValue(Port, signed char, SetVal)+0x4a>
  1035f8:	fa04 f207 	lsl.w	r2, r4, r7
  1035fc:	4302      	orrs	r2, r0
  1035fe:	e003      	b.n	103608 <PCA9655E::setValue(Port, signed char, SetVal)+0x48>
  103600:	2201      	movs	r2, #1
  103602:	40ba      	lsls	r2, r7
  103604:	ea20 0202 	bic.w	r2, r0, r2
  103608:	b2d2      	uxtb	r2, r2
  10360a:	4629      	mov	r1, r5
  10360c:	4630      	mov	r0, r6
  10360e:	e8bd 40f8 	ldmia.w	sp!, {r3, r4, r5, r6, r7, lr}
  103612:	f7ff bf8b 	b.w	10352c <PCA9655E::write(Register, char)>
  103616:	bdf8      	pop	{r3, r4, r5, r6, r7, pc}
  103618:	0010e7d4 	.word	0x0010e7d4
  10361c:	0010e7f9 	.word	0x0010e7f9

00103620 <PCA9655E::setDirection(Port, signed char, Direction)>:
  103620:	b5f8      	push	{r3, r4, r5, r6, r7, lr}
  103622:	461c      	mov	r4, r3
  103624:	b2d3      	uxtb	r3, r2
  103626:	2b07      	cmp	r3, #7
  103628:	4606      	mov	r6, r0
  10362a:	460d      	mov	r5, r1
  10362c:	4617      	mov	r7, r2
  10362e:	d904      	bls.n	10363a <PCA9655E::setDirection(Port, signed char, Direction)+0x1a>
  103630:	227b      	movs	r2, #123	; 0x7b
  103632:	4911      	ldr	r1, [pc, #68]	; (103678 <PCA9655E::setDirection(Port, signed char, Direction)+0x58>)
  103634:	4811      	ldr	r0, [pc, #68]	; (10367c <PCA9655E::setDirection(Port, signed char, Direction)+0x5c>)
  103636:	f000 fbeb 	bl	103e10 <mbed_assert_internal>
  10363a:	b11d      	cbz	r5, 103644 <PCA9655E::setDirection(Port, signed char, Direction)+0x24>
  10363c:	2d01      	cmp	r5, #1
  10363e:	d11a      	bne.n	103676 <PCA9655E::setDirection(Port, signed char, Direction)+0x56>
  103640:	2507      	movs	r5, #7
  103642:	e000      	b.n	103646 <PCA9655E::setDirection(Port, signed char, Direction)+0x26>
  103644:	2506      	movs	r5, #6
  103646:	4629      	mov	r1, r5
  103648:	4630      	mov	r0, r6
  10364a:	f7ff ff80 	bl	10354e <PCA9655E::read(Register)>
  10364e:	b11c      	cbz	r4, 103658 <PCA9655E::setDirection(Port, signed char, Direction)+0x38>
  103650:	2c01      	cmp	r4, #1
  103652:	d006      	beq.n	103662 <PCA9655E::setDirection(Port, signed char, Direction)+0x42>
  103654:	b2c2      	uxtb	r2, r0
  103656:	e008      	b.n	10366a <PCA9655E::setDirection(Port, signed char, Direction)+0x4a>
  103658:	2201      	movs	r2, #1
  10365a:	40ba      	lsls	r2, r7
  10365c:	ea20 0202 	bic.w	r2, r0, r2
  103660:	e002      	b.n	103668 <PCA9655E::setDirection(Port, signed char, Direction)+0x48>
  103662:	fa04 f207 	lsl.w	r2, r4, r7
  103666:	4302      	orrs	r2, r0
  103668:	b2d2      	uxtb	r2, r2
  10366a:	4629      	mov	r1, r5
  10366c:	4630      	mov	r0, r6
  10366e:	e8bd 40f8 	ldmia.w	sp!, {r3, r4, r5, r6, r7, lr}
  103672:	f7ff bf5b 	b.w	10352c <PCA9655E::write(Register, char)>
  103676:	bdf8      	pop	{r3, r4, r5, r6, r7, pc}
  103678:	0010e7d4 	.word	0x0010e7d4
  10367c:	0010e7f9 	.word	0x0010e7f9

00103680 <PCA9655E::~PCA9655E()>:
  103680:	b510      	push	{r4, lr}
  103682:	4604      	mov	r4, r0
  103684:	3020      	adds	r0, #32
  103686:	f003 fe4d 	bl	107324 <mbed::InterruptIn::~InterruptIn()>
  10368a:	4620      	mov	r0, r4
  10368c:	bd10      	pop	{r4, pc}

0010368e <NHD_C0216CZ::getDdramAddr(int, int, unsigned char*)>:
  10368e:	1e48      	subs	r0, r1, #1
  103690:	2801      	cmp	r0, #1
  103692:	d809      	bhi.n	1036a8 <NHD_C0216CZ::getDdramAddr(int, int, unsigned char*)+0x1a>
  103694:	1e50      	subs	r0, r2, #1
  103696:	280f      	cmp	r0, #15
  103698:	d806      	bhi.n	1036a8 <NHD_C0216CZ::getDdramAddr(int, int, unsigned char*)+0x1a>
  10369a:	2902      	cmp	r1, #2
  10369c:	bf0a      	itet	eq
  10369e:	323f      	addeq	r2, #63	; 0x3f
  1036a0:	7018      	strbne	r0, [r3, #0]
  1036a2:	701a      	strbeq	r2, [r3, #0]
  1036a4:	2001      	movs	r0, #1
  1036a6:	4770      	bx	lr
  1036a8:	2000      	movs	r0, #0
  1036aa:	4770      	bx	lr

001036ac <NHD_C0216CZ::i2cCsEnable()>:
  1036ac:	b510      	push	{r4, lr}
  1036ae:	f100 0440 	add.w	r4, r0, #64	; 0x40
  1036b2:	2301      	movs	r3, #1
  1036b4:	2202      	movs	r2, #2
  1036b6:	2100      	movs	r1, #0
  1036b8:	4620      	mov	r0, r4
  1036ba:	f7ff ff81 	bl	1035c0 <PCA9655E::setValue(Port, signed char, SetVal)>
  1036be:	2014      	movs	r0, #20
  1036c0:	f004 fc36 	bl	107f30 <wait_us>
  1036c4:	2001      	movs	r0, #1
  1036c6:	f004 fc33 	bl	107f30 <wait_us>
  1036ca:	2300      	movs	r3, #0
  1036cc:	4620      	mov	r0, r4
  1036ce:	2202      	movs	r2, #2
  1036d0:	4619      	mov	r1, r3
  1036d2:	f7ff ff75 	bl	1035c0 <PCA9655E::setValue(Port, signed char, SetVal)>
  1036d6:	2014      	movs	r0, #20
  1036d8:	f004 fc2a 	bl	107f30 <wait_us>
  1036dc:	e8bd 4010 	ldmia.w	sp!, {r4, lr}
  1036e0:	2001      	movs	r0, #1
  1036e2:	f004 bc25 	b.w	107f30 <wait_us>

001036e6 <NHD_C0216CZ::i2cCsDisable()>:
  1036e6:	b510      	push	{r4, lr}
  1036e8:	4604      	mov	r4, r0
  1036ea:	2001      	movs	r0, #1
  1036ec:	f004 fc20 	bl	107f30 <wait_us>
  1036f0:	f104 0040 	add.w	r0, r4, #64	; 0x40
  1036f4:	2301      	movs	r3, #1
  1036f6:	2202      	movs	r2, #2
  1036f8:	2100      	movs	r1, #0
  1036fa:	f7ff ff61 	bl	1035c0 <PCA9655E::setValue(Port, signed char, SetVal)>
  1036fe:	e8bd 4010 	ldmia.w	sp!, {r4, lr}
  103702:	2014      	movs	r0, #20
  103704:	f004 bc14 	b.w	107f30 <wait_us>

00103708 <NHD_C0216CZ::setRsPin(NHD_C0216CZ::LEVEL_T)>:
  103708:	b538      	push	{r3, r4, r5, lr}
  10370a:	460c      	mov	r4, r1
  10370c:	4605      	mov	r5, r0
  10370e:	f44f 70fa 	mov.w	r0, #500	; 0x1f4
  103712:	f004 fc0d 	bl	107f30 <wait_us>
  103716:	b12c      	cbz	r4, 103724 <NHD_C0216CZ::setRsPin(NHD_C0216CZ::LEVEL_T)+0x1c>
  103718:	2c01      	cmp	r4, #1
  10371a:	d10a      	bne.n	103732 <NHD_C0216CZ::setRsPin(NHD_C0216CZ::LEVEL_T)+0x2a>
  10371c:	4623      	mov	r3, r4
  10371e:	2203      	movs	r2, #3
  103720:	2100      	movs	r1, #0
  103722:	e002      	b.n	10372a <NHD_C0216CZ::setRsPin(NHD_C0216CZ::LEVEL_T)+0x22>
  103724:	4623      	mov	r3, r4
  103726:	4621      	mov	r1, r4
  103728:	2203      	movs	r2, #3
  10372a:	f105 0040 	add.w	r0, r5, #64	; 0x40
  10372e:	f7ff ff47 	bl	1035c0 <PCA9655E::setValue(Port, signed char, SetVal)>
  103732:	2014      	movs	r0, #20
  103734:	f004 fbfc 	bl	107f30 <wait_us>
  103738:	e8bd 4038 	ldmia.w	sp!, {r3, r4, r5, lr}
  10373c:	f44f 70fa 	mov.w	r0, #500	; 0x1f4
  103740:	f004 bbf6 	b.w	107f30 <wait_us>

00103744 <NHD_C0216CZ::setSpiParams()>:
  103744:	b510      	push	{r4, lr}
  103746:	4604      	mov	r4, r0
  103748:	2108      	movs	r1, #8
  10374a:	2200      	movs	r2, #0
  10374c:	f003 ff7a 	bl	107644 <mbed::SPI::format(int, int)>
  103750:	4620      	mov	r0, r4
  103752:	e8bd 4010 	ldmia.w	sp!, {r4, lr}
  103756:	4901      	ldr	r1, [pc, #4]	; (10375c <NHD_C0216CZ::setSpiParams()+0x18>)
  103758:	f003 bf8c 	b.w	107674 <mbed::SPI::frequency(int)>
  10375c:	0007a120 	.word	0x0007a120

00103760 <NHD_C0216CZ::resetSpiParams()>:
  103760:	b510      	push	{r4, lr}
  103762:	4604      	mov	r4, r0
  103764:	2108      	movs	r1, #8
  103766:	2200      	movs	r2, #0
  103768:	f003 ff6c 	bl	107644 <mbed::SPI::format(int, int)>
  10376c:	4620      	mov	r0, r4
  10376e:	e8bd 4010 	ldmia.w	sp!, {r4, lr}
  103772:	4901      	ldr	r1, [pc, #4]	; (103778 <NHD_C0216CZ::resetSpiParams()+0x18>)
  103774:	f003 bf7e 	b.w	107674 <mbed::SPI::frequency(int)>
  103778:	000f4240 	.word	0x000f4240

0010377c <NHD_C0216CZ::sendCommand(unsigned char)>:
  10377c:	b538      	push	{r3, r4, r5, lr}
  10377e:	4604      	mov	r4, r0
  103780:	460d      	mov	r5, r1
  103782:	4811      	ldr	r0, [pc, #68]	; (1037c8 <NHD_C0216CZ::sendCommand(unsigned char)+0x4c>)
  103784:	f04f 31ff 	mov.w	r1, #4294967295
  103788:	f004 fce1 	bl	10814e <rtos::Mutex::lock(unsigned long)>
  10378c:	4620      	mov	r0, r4
  10378e:	f7ff ffd9 	bl	103744 <NHD_C0216CZ::setSpiParams()>
  103792:	4620      	mov	r0, r4
  103794:	f7ff ff8a 	bl	1036ac <NHD_C0216CZ::i2cCsEnable()>
  103798:	4620      	mov	r0, r4
  10379a:	2100      	movs	r1, #0
  10379c:	f7ff ffb4 	bl	103708 <NHD_C0216CZ::setRsPin(NHD_C0216CZ::LEVEL_T)>
  1037a0:	4629      	mov	r1, r5
  1037a2:	4620      	mov	r0, r4
  1037a4:	f003 ff7c 	bl	1076a0 <mbed::SPI::write(int)>
  1037a8:	4620      	mov	r0, r4
  1037aa:	f7ff ff9c 	bl	1036e6 <NHD_C0216CZ::i2cCsDisable()>
  1037ae:	2d01      	cmp	r5, #1
  1037b0:	4620      	mov	r0, r4
  1037b2:	bf04      	itt	eq
  1037b4:	63a5      	streq	r5, [r4, #56]	; 0x38
  1037b6:	63e5      	streq	r5, [r4, #60]	; 0x3c
  1037b8:	f7ff ffd2 	bl	103760 <NHD_C0216CZ::resetSpiParams()>
  1037bc:	e8bd 4038 	ldmia.w	sp!, {r3, r4, r5, lr}
  1037c0:	4801      	ldr	r0, [pc, #4]	; (1037c8 <NHD_C0216CZ::sendCommand(unsigned char)+0x4c>)
  1037c2:	f004 bcc7 	b.w	108154 <rtos::Mutex::unlock()>
  1037c6:	bf00      	nop
  1037c8:	3fff6ab8 	.word	0x3fff6ab8

001037cc <NHD_C0216CZ::clearDisplay()>:
  1037cc:	2101      	movs	r1, #1
  1037ce:	f7ff bfd5 	b.w	10377c <NHD_C0216CZ::sendCommand(unsigned char)>

001037d2 <NHD_C0216CZ::setPosition(int, int)>:
  1037d2:	b573      	push	{r0, r1, r4, r5, r6, lr}
  1037d4:	f10d 0307 	add.w	r3, sp, #7
  1037d8:	4604      	mov	r4, r0
  1037da:	4615      	mov	r5, r2
  1037dc:	f7ff ff57 	bl	10368e <NHD_C0216CZ::getDdramAddr(int, int, unsigned char*)>
  1037e0:	b150      	cbz	r0, 1037f8 <NHD_C0216CZ::setPosition(int, int)+0x26>
  1037e2:	63a1      	str	r1, [r4, #56]	; 0x38
  1037e4:	f89d 1007 	ldrb.w	r1, [sp, #7]
  1037e8:	4620      	mov	r0, r4
  1037ea:	63e5      	str	r5, [r4, #60]	; 0x3c
  1037ec:	f041 0180 	orr.w	r1, r1, #128	; 0x80
  1037f0:	f7ff ffc4 	bl	10377c <NHD_C0216CZ::sendCommand(unsigned char)>
  1037f4:	2000      	movs	r0, #0
  1037f6:	e001      	b.n	1037fc <NHD_C0216CZ::setPosition(int, int)+0x2a>
  1037f8:	f04f 30ff 	mov.w	r0, #4294967295
  1037fc:	b002      	add	sp, #8
  1037fe:	bd70      	pop	{r4, r5, r6, pc}

00103800 <NHD_C0216CZ::intializeLcd()>:
  103800:	b510      	push	{r4, lr}
  103802:	4604      	mov	r4, r0
  103804:	2130      	movs	r1, #48	; 0x30
  103806:	f7ff ffb9 	bl	10377c <NHD_C0216CZ::sendCommand(unsigned char)>
  10380a:	2002      	movs	r0, #2
  10380c:	f004 fbb4 	bl	107f78 <wait_ms>
  103810:	4620      	mov	r0, r4
  103812:	2130      	movs	r1, #48	; 0x30
  103814:	f7ff ffb2 	bl	10377c <NHD_C0216CZ::sendCommand(unsigned char)>
  103818:	4620      	mov	r0, r4
  10381a:	2130      	movs	r1, #48	; 0x30
  10381c:	f7ff ffae 	bl	10377c <NHD_C0216CZ::sendCommand(unsigned char)>
  103820:	4620      	mov	r0, r4
  103822:	2139      	movs	r1, #57	; 0x39
  103824:	f7ff ffaa 	bl	10377c <NHD_C0216CZ::sendCommand(unsigned char)>
  103828:	4620      	mov	r0, r4
  10382a:	2114      	movs	r1, #20
  10382c:	f7ff ffa6 	bl	10377c <NHD_C0216CZ::sendCommand(unsigned char)>
  103830:	4620      	mov	r0, r4
  103832:	2156      	movs	r1, #86	; 0x56
  103834:	f7ff ffa2 	bl	10377c <NHD_C0216CZ::sendCommand(unsigned char)>
  103838:	4620      	mov	r0, r4
  10383a:	216d      	movs	r1, #109	; 0x6d
  10383c:	f7ff ff9e 	bl	10377c <NHD_C0216CZ::sendCommand(unsigned char)>
  103840:	4620      	mov	r0, r4
  103842:	2170      	movs	r1, #112	; 0x70
  103844:	f7ff ff9a 	bl	10377c <NHD_C0216CZ::sendCommand(unsigned char)>
  103848:	4620      	mov	r0, r4
  10384a:	210c      	movs	r1, #12
  10384c:	f7ff ff96 	bl	10377c <NHD_C0216CZ::sendCommand(unsigned char)>
  103850:	4620      	mov	r0, r4
  103852:	2106      	movs	r1, #6
  103854:	f7ff ff92 	bl	10377c <NHD_C0216CZ::sendCommand(unsigned char)>
  103858:	4620      	mov	r0, r4
  10385a:	2101      	movs	r1, #1
  10385c:	f7ff ff8e 	bl	10377c <NHD_C0216CZ::sendCommand(unsigned char)>
  103860:	e8bd 4010 	ldmia.w	sp!, {r4, lr}
  103864:	200a      	movs	r0, #10
  103866:	f004 bb87 	b.w	107f78 <wait_ms>
	...

0010386c <NHD_C0216CZ::init()>:
  10386c:	b538      	push	{r3, r4, r5, lr}
  10386e:	4604      	mov	r4, r0
  103870:	f100 0540 	add.w	r5, r0, #64	; 0x40
  103874:	4628      	mov	r0, r5
  103876:	490f      	ldr	r1, [pc, #60]	; (1038b4 <NHD_C0216CZ::init()+0x48>)
  103878:	f7ff fe52 	bl	103520 <PCA9655E::frequency(int)>
  10387c:	2300      	movs	r3, #0
  10387e:	4619      	mov	r1, r3
  103880:	4628      	mov	r0, r5
  103882:	2202      	movs	r2, #2
  103884:	f7ff fecc 	bl	103620 <PCA9655E::setDirection(Port, signed char, Direction)>
  103888:	2300      	movs	r3, #0
  10388a:	4619      	mov	r1, r3
  10388c:	2203      	movs	r2, #3
  10388e:	4628      	mov	r0, r5
  103890:	f7ff fec6 	bl	103620 <PCA9655E::setDirection(Port, signed char, Direction)>
  103894:	4620      	mov	r0, r4
  103896:	f7ff ff26 	bl	1036e6 <NHD_C0216CZ::i2cCsDisable()>
  10389a:	4620      	mov	r0, r4
  10389c:	f7ff ff52 	bl	103744 <NHD_C0216CZ::setSpiParams()>
  1038a0:	4620      	mov	r0, r4
  1038a2:	f7ff ffad 	bl	103800 <NHD_C0216CZ::intializeLcd()>
  1038a6:	2201      	movs	r2, #1
  1038a8:	4620      	mov	r0, r4
  1038aa:	e8bd 4038 	ldmia.w	sp!, {r3, r4, r5, lr}
  1038ae:	4611      	mov	r1, r2
  1038b0:	f7ff bf8f 	b.w	1037d2 <NHD_C0216CZ::setPosition(int, int)>
  1038b4:	000f4240 	.word	0x000f4240

001038b8 <NHD_C0216CZ::sendData(char const*, int)>:
  1038b8:	e92d 41f0 	stmdb	sp!, {r4, r5, r6, r7, r8, lr}
  1038bc:	1e16      	subs	r6, r2, #0
  1038be:	4604      	mov	r4, r0
  1038c0:	460d      	mov	r5, r1
  1038c2:	dd48      	ble.n	103956 <NHD_C0216CZ::sendData(char const*, int)+0x9e>
  1038c4:	2900      	cmp	r1, #0
  1038c6:	d046      	beq.n	103956 <NHD_C0216CZ::sendData(char const*, int)+0x9e>
  1038c8:	f04f 31ff 	mov.w	r1, #4294967295
  1038cc:	4824      	ldr	r0, [pc, #144]	; (103960 <NHD_C0216CZ::sendData(char const*, int)+0xa8>)
  1038ce:	f004 fc3e 	bl	10814e <rtos::Mutex::lock(unsigned long)>
  1038d2:	4620      	mov	r0, r4
  1038d4:	f7ff ff36 	bl	103744 <NHD_C0216CZ::setSpiParams()>
  1038d8:	4620      	mov	r0, r4
  1038da:	f7ff fee7 	bl	1036ac <NHD_C0216CZ::i2cCsEnable()>
  1038de:	2101      	movs	r1, #1
  1038e0:	4620      	mov	r0, r4
  1038e2:	f7ff ff11 	bl	103708 <NHD_C0216CZ::setRsPin(NHD_C0216CZ::LEVEL_T)>
  1038e6:	442e      	add	r6, r5
  1038e8:	f04f 0801 	mov.w	r8, #1
  1038ec:	6be3      	ldr	r3, [r4, #60]	; 0x3c
  1038ee:	f815 7b01 	ldrb.w	r7, [r5], #1
  1038f2:	2b10      	cmp	r3, #16
  1038f4:	dc09      	bgt.n	10390a <NHD_C0216CZ::sendData(char const*, int)+0x52>
  1038f6:	2f0a      	cmp	r7, #10
  1038f8:	d007      	beq.n	10390a <NHD_C0216CZ::sendData(char const*, int)+0x52>
  1038fa:	4639      	mov	r1, r7
  1038fc:	4620      	mov	r0, r4
  1038fe:	f003 fecf 	bl	1076a0 <mbed::SPI::write(int)>
  103902:	6be3      	ldr	r3, [r4, #60]	; 0x3c
  103904:	3301      	adds	r3, #1
  103906:	63e3      	str	r3, [r4, #60]	; 0x3c
  103908:	e017      	b.n	10393a <NHD_C0216CZ::sendData(char const*, int)+0x82>
  10390a:	6ba1      	ldr	r1, [r4, #56]	; 0x38
  10390c:	2201      	movs	r2, #1
  10390e:	3101      	adds	r1, #1
  103910:	2902      	cmp	r1, #2
  103912:	bfc8      	it	gt
  103914:	2101      	movgt	r1, #1
  103916:	63a1      	str	r1, [r4, #56]	; 0x38
  103918:	f8c4 803c 	str.w	r8, [r4, #60]	; 0x3c
  10391c:	4620      	mov	r0, r4
  10391e:	f7ff ff58 	bl	1037d2 <NHD_C0216CZ::setPosition(int, int)>
  103922:	4620      	mov	r0, r4
  103924:	f7ff ff0e 	bl	103744 <NHD_C0216CZ::setSpiParams()>
  103928:	2101      	movs	r1, #1
  10392a:	4620      	mov	r0, r4
  10392c:	f7ff feec 	bl	103708 <NHD_C0216CZ::setRsPin(NHD_C0216CZ::LEVEL_T)>
  103930:	4620      	mov	r0, r4
  103932:	f7ff febb 	bl	1036ac <NHD_C0216CZ::i2cCsEnable()>
  103936:	2f0a      	cmp	r7, #10
  103938:	d1df      	bne.n	1038fa <NHD_C0216CZ::sendData(char const*, int)+0x42>
  10393a:	42b5      	cmp	r5, r6
  10393c:	d1d6      	bne.n	1038ec <NHD_C0216CZ::sendData(char const*, int)+0x34>
  10393e:	4620      	mov	r0, r4
  103940:	f7ff fed1 	bl	1036e6 <NHD_C0216CZ::i2cCsDisable()>
  103944:	4620      	mov	r0, r4
  103946:	f7ff ff0b 	bl	103760 <NHD_C0216CZ::resetSpiParams()>
  10394a:	4805      	ldr	r0, [pc, #20]	; (103960 <NHD_C0216CZ::sendData(char const*, int)+0xa8>)
  10394c:	f004 fc02 	bl	108154 <rtos::Mutex::unlock()>
  103950:	2000      	movs	r0, #0
  103952:	e8bd 81f0 	ldmia.w	sp!, {r4, r5, r6, r7, r8, pc}
  103956:	f04f 30ff 	mov.w	r0, #4294967295
  10395a:	e8bd 81f0 	ldmia.w	sp!, {r4, r5, r6, r7, r8, pc}
  10395e:	bf00      	nop
  103960:	3fff6ab8 	.word	0x3fff6ab8

00103964 <NHD_C0216CZ::displayStringToPos(char const*, int, int)>:
  103964:	b570      	push	{r4, r5, r6, lr}
  103966:	4606      	mov	r6, r0
  103968:	4614      	mov	r4, r2
  10396a:	460d      	mov	r5, r1
  10396c:	b911      	cbnz	r1, 103974 <NHD_C0216CZ::displayStringToPos(char const*, int, int)+0x10>
  10396e:	f04f 30ff 	mov.w	r0, #4294967295
  103972:	bd70      	pop	{r4, r5, r6, pc}
  103974:	461a      	mov	r2, r3
  103976:	4621      	mov	r1, r4
  103978:	f7ff ff2b 	bl	1037d2 <NHD_C0216CZ::setPosition(int, int)>
  10397c:	2800      	cmp	r0, #0
  10397e:	d1f6      	bne.n	10396e <NHD_C0216CZ::displayStringToPos(char const*, int, int)+0xa>
  103980:	462b      	mov	r3, r5
  103982:	1b5a      	subs	r2, r3, r5
  103984:	f813 4b01 	ldrb.w	r4, [r3], #1
  103988:	2c00      	cmp	r4, #0
  10398a:	d1fa      	bne.n	103982 <NHD_C0216CZ::displayStringToPos(char const*, int, int)+0x1e>
  10398c:	4629      	mov	r1, r5
  10398e:	4630      	mov	r0, r6
  103990:	f7ff ff92 	bl	1038b8 <NHD_C0216CZ::sendData(char const*, int)>
  103994:	4620      	mov	r0, r4
  103996:	bd70      	pop	{r4, r5, r6, pc}

00103998 <NHD_C0216CZ::displayString(char const*)>:
  103998:	b570      	push	{r4, r5, r6, lr}
  10399a:	4604      	mov	r4, r0
  10399c:	460d      	mov	r5, r1
  10399e:	f7ff ff15 	bl	1037cc <NHD_C0216CZ::clearDisplay()>
  1039a2:	2301      	movs	r3, #1
  1039a4:	4629      	mov	r1, r5
  1039a6:	4620      	mov	r0, r4
  1039a8:	e8bd 4070 	ldmia.w	sp!, {r4, r5, r6, lr}
  1039ac:	461a      	mov	r2, r3
  1039ae:	f7ff bfd9 	b.w	103964 <NHD_C0216CZ::displayStringToPos(char const*, int, int)>

001039b2 <RSL10_BLE::spiCsEnable()>:
  1039b2:	2300      	movs	r3, #0
  1039b4:	461a      	mov	r2, r3
  1039b6:	2101      	movs	r1, #1
  1039b8:	3004      	adds	r0, #4
  1039ba:	f7ff be01 	b.w	1035c0 <PCA9655E::setValue(Port, signed char, SetVal)>

001039be <RSL10_BLE::spiCsDisable()>:
  1039be:	2301      	movs	r3, #1
  1039c0:	2200      	movs	r2, #0
  1039c2:	4619      	mov	r1, r3
  1039c4:	3004      	adds	r0, #4
  1039c6:	f7ff bdfb 	b.w	1035c0 <PCA9655E::setValue(Port, signed char, SetVal)>
	...

001039cc <RSL10_BLE::RSL10_BLE()>:
  1039cc:	b573      	push	{r0, r1, r4, r5, r6, lr}
  1039ce:	4604      	mov	r4, r0
  1039d0:	4605      	mov	r5, r0
  1039d2:	4b18      	ldr	r3, [pc, #96]	; (103a34 <RSL10_BLE::RSL10_BLE()+0x68>)
  1039d4:	2202      	movs	r2, #2
  1039d6:	f844 3b04 	str.w	r3, [r4], #4
  1039da:	2311      	movs	r3, #17
  1039dc:	9300      	str	r3, [sp, #0]
  1039de:	2103      	movs	r1, #3
  1039e0:	234a      	movs	r3, #74	; 0x4a
  1039e2:	4620      	mov	r0, r4
  1039e4:	f7ff fd88 	bl	1034f8 <PCA9655E::PCA9655E(PinName, PinName, unsigned char, PinName)>
  1039e8:	f105 0660 	add.w	r6, r5, #96	; 0x60
  1039ec:	f04f 33ff 	mov.w	r3, #4294967295
  1039f0:	9300      	str	r3, [sp, #0]
  1039f2:	2206      	movs	r2, #6
  1039f4:	2304      	movs	r3, #4
  1039f6:	2105      	movs	r1, #5
  1039f8:	4630      	mov	r0, r6
  1039fa:	f003 fdf9 	bl	1075f0 <mbed::SPI::SPI(PinName, PinName, PinName, PinName)>
  1039fe:	2200      	movs	r2, #0
  103a00:	4630      	mov	r0, r6
  103a02:	2120      	movs	r1, #32
  103a04:	f003 fe1e 	bl	107644 <mbed::SPI::format(int, int)>
  103a08:	4630      	mov	r0, r6
  103a0a:	490b      	ldr	r1, [pc, #44]	; (103a38 <RSL10_BLE::RSL10_BLE()+0x6c>)
  103a0c:	f003 fe32 	bl	107674 <mbed::SPI::frequency(int)>
  103a10:	2300      	movs	r3, #0
  103a12:	461a      	mov	r2, r3
  103a14:	2101      	movs	r1, #1
  103a16:	4620      	mov	r0, r4
  103a18:	f7ff fe02 	bl	103620 <PCA9655E::setDirection(Port, signed char, Direction)>
  103a1c:	4628      	mov	r0, r5
  103a1e:	f7ff ffce 	bl	1039be <RSL10_BLE::spiCsDisable()>
  103a22:	2200      	movs	r2, #0
  103a24:	4620      	mov	r0, r4
  103a26:	2301      	movs	r3, #1
  103a28:	4611      	mov	r1, r2
  103a2a:	f7ff fdf9 	bl	103620 <PCA9655E::setDirection(Port, signed char, Direction)>
  103a2e:	4628      	mov	r0, r5
  103a30:	b002      	add	sp, #8
  103a32:	bd70      	pop	{r4, r5, r6, pc}
  103a34:	0010e640 	.word	0x0010e640
  103a38:	000f4240 	.word	0x000f4240

00103a3c <RSL10_BLE::readable()>:
  103a3c:	b538      	push	{r3, r4, r5, lr}
  103a3e:	4605      	mov	r5, r0
  103a40:	4c09      	ldr	r4, [pc, #36]	; (103a68 <RSL10_BLE::readable()+0x2c>)
  103a42:	f04f 31ff 	mov.w	r1, #4294967295
  103a46:	4620      	mov	r0, r4
  103a48:	f004 fb81 	bl	10814e <rtos::Mutex::lock(unsigned long)>
  103a4c:	2200      	movs	r2, #0
  103a4e:	4611      	mov	r1, r2
  103a50:	1d28      	adds	r0, r5, #4
  103a52:	f7ff fd97 	bl	103584 <PCA9655E::readPinVal(Port, signed char)>
  103a56:	4605      	mov	r5, r0
  103a58:	4620      	mov	r0, r4
  103a5a:	f004 fb7b 	bl	108154 <rtos::Mutex::unlock()>
  103a5e:	fab5 f085 	clz	r0, r5
  103a62:	0940      	lsrs	r0, r0, #5
  103a64:	bd38      	pop	{r3, r4, r5, pc}
  103a66:	bf00      	nop
  103a68:	3fff6ab8 	.word	0x3fff6ab8

00103a6c <RSL10_BLE::readableNoLock()>:
  103a6c:	2200      	movs	r2, #0
  103a6e:	b508      	push	{r3, lr}
  103a70:	4611      	mov	r1, r2
  103a72:	3004      	adds	r0, #4
  103a74:	f7ff fd86 	bl	103584 <PCA9655E::readPinVal(Port, signed char)>
  103a78:	fab0 f080 	clz	r0, r0
  103a7c:	0940      	lsrs	r0, r0, #5
  103a7e:	bd08      	pop	{r3, pc}

00103a80 <RSL10_BLE::recv(char*, unsigned int)>:
  103a80:	e92d 4ff7 	stmdb	sp!, {r0, r1, r2, r4, r5, r6, r7, r8, r9, r10, r11, lr}
  103a84:	4680      	mov	r8, r0
  103a86:	4692      	mov	r10, r2
  103a88:	4689      	mov	r9, r1
  103a8a:	b921      	cbnz	r1, 103a96 <RSL10_BLE::recv(char*, unsigned int)+0x16>
  103a8c:	227d      	movs	r2, #125	; 0x7d
  103a8e:	492a      	ldr	r1, [pc, #168]	; (103b38 <RSL10_BLE::recv(char*, unsigned int)+0xb8>)
  103a90:	482a      	ldr	r0, [pc, #168]	; (103b3c <RSL10_BLE::recv(char*, unsigned int)+0xbc>)
  103a92:	f000 f9bd 	bl	103e10 <mbed_assert_internal>
  103a96:	f1ba 0f14 	cmp.w	r10, #20
  103a9a:	d904      	bls.n	103aa6 <RSL10_BLE::recv(char*, unsigned int)+0x26>
  103a9c:	227e      	movs	r2, #126	; 0x7e
  103a9e:	4926      	ldr	r1, [pc, #152]	; (103b38 <RSL10_BLE::recv(char*, unsigned int)+0xb8>)
  103aa0:	4827      	ldr	r0, [pc, #156]	; (103b40 <RSL10_BLE::recv(char*, unsigned int)+0xc0>)
  103aa2:	f000 f9b5 	bl	103e10 <mbed_assert_internal>
  103aa6:	f04f 31ff 	mov.w	r1, #4294967295
  103aaa:	4826      	ldr	r0, [pc, #152]	; (103b44 <RSL10_BLE::recv(char*, unsigned int)+0xc4>)
  103aac:	f004 fb4f 	bl	10814e <rtos::Mutex::lock(unsigned long)>
  103ab0:	4640      	mov	r0, r8
  103ab2:	f7ff ffdb 	bl	103a6c <RSL10_BLE::readableNoLock()>
  103ab6:	b3b0      	cbz	r0, 103b26 <RSL10_BLE::recv(char*, unsigned int)+0xa6>
  103ab8:	464d      	mov	r5, r9
  103aba:	4640      	mov	r0, r8
  103abc:	f108 0660 	add.w	r6, r8, #96	; 0x60
  103ac0:	f7ff ff77 	bl	1039b2 <RSL10_BLE::spiCsEnable()>
  103ac4:	4920      	ldr	r1, [pc, #128]	; (103b48 <RSL10_BLE::recv(char*, unsigned int)+0xc8>)
  103ac6:	4630      	mov	r0, r6
  103ac8:	f003 fdea 	bl	1076a0 <mbed::SPI::write(int)>
  103acc:	200a      	movs	r0, #10
  103ace:	f004 fa2f 	bl	107f30 <wait_us>
  103ad2:	4b1e      	ldr	r3, [pc, #120]	; (103b4c <RSL10_BLE::recv(char*, unsigned int)+0xcc>)
  103ad4:	4a1e      	ldr	r2, [pc, #120]	; (103b50 <RSL10_BLE::recv(char*, unsigned int)+0xd0>)
  103ad6:	eb09 0b0a 	add.w	r11, r9, r10
  103ada:	455d      	cmp	r5, r11
  103adc:	9201      	str	r2, [sp, #4]
  103ade:	9300      	str	r3, [sp, #0]
  103ae0:	ebc9 0405 	rsb	r4, r9, r5
  103ae4:	d012      	beq.n	103b0c <RSL10_BLE::recv(char*, unsigned int)+0x8c>
  103ae6:	2100      	movs	r1, #0
  103ae8:	4630      	mov	r0, r6
  103aea:	f003 fdd9 	bl	1076a0 <mbed::SPI::write(int)>
  103aee:	4607      	mov	r7, r0
  103af0:	200a      	movs	r0, #10
  103af2:	f004 fa1d 	bl	107f30 <wait_us>
  103af6:	9b00      	ldr	r3, [sp, #0]
  103af8:	429f      	cmp	r7, r3
  103afa:	d007      	beq.n	103b0c <RSL10_BLE::recv(char*, unsigned int)+0x8c>
  103afc:	9a01      	ldr	r2, [sp, #4]
  103afe:	4297      	cmp	r7, r2
  103b00:	d002      	beq.n	103b08 <RSL10_BLE::recv(char*, unsigned int)+0x88>
  103b02:	f805 7b01 	strb.w	r7, [r5], #1
  103b06:	e7e8      	b.n	103ada <RSL10_BLE::recv(char*, unsigned int)+0x5a>
  103b08:	f04f 34ff 	mov.w	r4, #4294967295
  103b0c:	4554      	cmp	r4, r10
  103b0e:	d106      	bne.n	103b1e <RSL10_BLE::recv(char*, unsigned int)+0x9e>
  103b10:	490e      	ldr	r1, [pc, #56]	; (103b4c <RSL10_BLE::recv(char*, unsigned int)+0xcc>)
  103b12:	4630      	mov	r0, r6
  103b14:	f003 fdc4 	bl	1076a0 <mbed::SPI::write(int)>
  103b18:	200a      	movs	r0, #10
  103b1a:	f004 fa09 	bl	107f30 <wait_us>
  103b1e:	4640      	mov	r0, r8
  103b20:	f7ff ff4d 	bl	1039be <RSL10_BLE::spiCsDisable()>
  103b24:	e000      	b.n	103b28 <RSL10_BLE::recv(char*, unsigned int)+0xa8>
  103b26:	4604      	mov	r4, r0
  103b28:	4806      	ldr	r0, [pc, #24]	; (103b44 <RSL10_BLE::recv(char*, unsigned int)+0xc4>)
  103b2a:	f004 fb13 	bl	108154 <rtos::Mutex::unlock()>
  103b2e:	4620      	mov	r0, r4
  103b30:	b003      	add	sp, #12
  103b32:	e8bd 8ff0 	ldmia.w	sp!, {r4, r5, r6, r7, r8, r9, r10, r11, pc}
  103b36:	bf00      	nop
  103b38:	0010e812 	.word	0x0010e812
  103b3c:	0010e820 	.word	0x0010e820
  103b40:	0010e82c 	.word	0x0010e82c
  103b44:	3fff6ab8 	.word	0x3fff6ab8
  103b48:	f0000001 	.word	0xf0000001
  103b4c:	f0000004 	.word	0xf0000004
  103b50:	f0000010 	.word	0xf0000010

00103b54 <_gpio_init_in>:
  103b54:	b570      	push	{r4, r5, r6, lr}
  103b56:	460e      	mov	r6, r1
  103b58:	4604      	mov	r4, r0
  103b5a:	4615      	mov	r5, r2
  103b5c:	f002 f926 	bl	105dac <gpio_init>
  103b60:	3601      	adds	r6, #1
  103b62:	d009      	beq.n	103b78 <_gpio_init_in+0x24>
  103b64:	4620      	mov	r0, r4
  103b66:	2100      	movs	r1, #0
  103b68:	f002 f94a 	bl	105e00 <gpio_dir>
  103b6c:	4629      	mov	r1, r5
  103b6e:	4620      	mov	r0, r4
  103b70:	e8bd 4070 	ldmia.w	sp!, {r4, r5, r6, lr}
  103b74:	f002 b940 	b.w	105df8 <gpio_mode>
  103b78:	bd70      	pop	{r4, r5, r6, pc}

00103b7a <gpio_init_in>:
  103b7a:	b538      	push	{r3, r4, r5, lr}
  103b7c:	460c      	mov	r4, r1
  103b7e:	2201      	movs	r2, #1
  103b80:	4605      	mov	r5, r0
  103b82:	f7ff ffe7 	bl	103b54 <_gpio_init_in>
  103b86:	2c0f      	cmp	r4, #15
  103b88:	d106      	bne.n	103b98 <gpio_init_in+0x1e>
  103b8a:	4621      	mov	r1, r4
  103b8c:	4628      	mov	r0, r5
  103b8e:	e8bd 4038 	ldmia.w	sp!, {r3, r4, r5, lr}
  103b92:	2201      	movs	r2, #1
  103b94:	f7ff bfde 	b.w	103b54 <_gpio_init_in>
  103b98:	bd38      	pop	{r3, r4, r5, pc}

00103b9a <gpio_init_out_ex>:
  103b9a:	b570      	push	{r4, r5, r6, lr}
  103b9c:	460e      	mov	r6, r1
  103b9e:	4604      	mov	r4, r0
  103ba0:	4615      	mov	r5, r2
  103ba2:	f002 f903 	bl	105dac <gpio_init>
  103ba6:	3601      	adds	r6, #1
  103ba8:	d00d      	beq.n	103bc6 <gpio_init_out_ex+0x2c>
  103baa:	4629      	mov	r1, r5
  103bac:	4620      	mov	r0, r4
  103bae:	f002 f939 	bl	105e24 <gpio_write>
  103bb2:	4620      	mov	r0, r4
  103bb4:	2101      	movs	r1, #1
  103bb6:	f002 f923 	bl	105e00 <gpio_dir>
  103bba:	4620      	mov	r0, r4
  103bbc:	e8bd 4070 	ldmia.w	sp!, {r4, r5, r6, lr}
  103bc0:	2101      	movs	r1, #1
  103bc2:	f002 b919 	b.w	105df8 <gpio_mode>
  103bc6:	bd70      	pop	{r4, r5, r6, pc}

00103bc8 <gpio_init_out>:
  103bc8:	2200      	movs	r2, #0
  103bca:	f7ff bfe6 	b.w	103b9a <gpio_init_out_ex>
	...

00103bd0 <lp_ticker_irq_handler>:
  103bd0:	4801      	ldr	r0, [pc, #4]	; (103bd8 <lp_ticker_irq_handler+0x8>)
  103bd2:	f000 b8a4 	b.w	103d1e <ticker_irq_handler>
  103bd6:	bf00      	nop
  103bd8:	0010e85c 	.word	0x0010e85c

00103bdc <pinmap_pinout>:
  103bdc:	b510      	push	{r4, lr}
  103bde:	4604      	mov	r4, r0
  103be0:	3001      	adds	r0, #1
  103be2:	d101      	bne.n	103be8 <pinmap_pinout+0xc>
  103be4:	bd10      	pop	{r4, pc}
  103be6:	310c      	adds	r1, #12
  103be8:	f991 3000 	ldrsb.w	r3, [r1]
  103bec:	1c5a      	adds	r2, r3, #1
  103bee:	d00b      	beq.n	103c08 <pinmap_pinout+0x2c>
  103bf0:	429c      	cmp	r4, r3
  103bf2:	d1f8      	bne.n	103be6 <pinmap_pinout+0xa>
  103bf4:	4620      	mov	r0, r4
  103bf6:	6889      	ldr	r1, [r1, #8]
  103bf8:	f002 ff68 	bl	106acc <pin_function>
  103bfc:	4620      	mov	r0, r4
  103bfe:	e8bd 4010 	ldmia.w	sp!, {r4, lr}
  103c02:	2101      	movs	r1, #1
  103c04:	f002 bf74 	b.w	106af0 <pin_mode>
  103c08:	4802      	ldr	r0, [pc, #8]	; (103c14 <pinmap_pinout+0x38>)
  103c0a:	e8bd 4010 	ldmia.w	sp!, {r4, lr}
  103c0e:	f000 b9a1 	b.w	103f54 <error>
  103c12:	bf00      	nop
  103c14:	0010e864 	.word	0x0010e864

00103c18 <pinmap_merge>:
  103c18:	4288      	cmp	r0, r1
  103c1a:	b508      	push	{r3, lr}
  103c1c:	d00a      	beq.n	103c34 <pinmap_merge+0x1c>
  103c1e:	1c43      	adds	r3, r0, #1
  103c20:	d007      	beq.n	103c32 <pinmap_merge+0x1a>
  103c22:	3101      	adds	r1, #1
  103c24:	d006      	beq.n	103c34 <pinmap_merge+0x1c>
  103c26:	4804      	ldr	r0, [pc, #16]	; (103c38 <pinmap_merge+0x20>)
  103c28:	f000 f994 	bl	103f54 <error>
  103c2c:	f04f 30ff 	mov.w	r0, #4294967295
  103c30:	bd08      	pop	{r3, pc}
  103c32:	4608      	mov	r0, r1
  103c34:	bd08      	pop	{r3, pc}
  103c36:	bf00      	nop
  103c38:	0010e875 	.word	0x0010e875

00103c3c <pinmap_find_peripheral>:
  103c3c:	f991 3000 	ldrsb.w	r3, [r1]
  103c40:	1c5a      	adds	r2, r3, #1
  103c42:	d005      	beq.n	103c50 <pinmap_find_peripheral+0x14>
  103c44:	4283      	cmp	r3, r0
  103c46:	d101      	bne.n	103c4c <pinmap_find_peripheral+0x10>
  103c48:	6848      	ldr	r0, [r1, #4]
  103c4a:	4770      	bx	lr
  103c4c:	310c      	adds	r1, #12
  103c4e:	e7f5      	b.n	103c3c <pinmap_find_peripheral>
  103c50:	4618      	mov	r0, r3
  103c52:	4770      	bx	lr

00103c54 <pinmap_peripheral>:
  103c54:	1c42      	adds	r2, r0, #1
  103c56:	b510      	push	{r4, lr}
  103c58:	4604      	mov	r4, r0
  103c5a:	d007      	beq.n	103c6c <pinmap_peripheral+0x18>
  103c5c:	f7ff ffee 	bl	103c3c <pinmap_find_peripheral>
  103c60:	1c43      	adds	r3, r0, #1
  103c62:	4604      	mov	r4, r0
  103c64:	d102      	bne.n	103c6c <pinmap_peripheral+0x18>
  103c66:	4802      	ldr	r0, [pc, #8]	; (103c70 <pinmap_peripheral+0x1c>)
  103c68:	f000 f974 	bl	103f54 <error>
  103c6c:	4620      	mov	r0, r4
  103c6e:	bd10      	pop	{r4, pc}
  103c70:	0010e886 	.word	0x0010e886

00103c74 <update_present_time>:
  103c74:	6803      	ldr	r3, [r0, #0]
  103c76:	b5d0      	push	{r4, r6, r7, lr}
  103c78:	6844      	ldr	r4, [r0, #4]
  103c7a:	685b      	ldr	r3, [r3, #4]
  103c7c:	e9d4 6702 	ldrd	r6, r7, [r4, #8]
  103c80:	4798      	blx	r3
  103c82:	2200      	movs	r2, #0
  103c84:	42b0      	cmp	r0, r6
  103c86:	ea42 0200 	orr.w	r2, r2, r0
  103c8a:	463b      	mov	r3, r7
  103c8c:	d202      	bcs.n	103c94 <update_present_time+0x20>
  103c8e:	3200      	adds	r2, #0
  103c90:	f147 0301 	adc.w	r3, r7, #1
  103c94:	e9c4 2302 	strd	r2, r3, [r4, #8]
  103c98:	bdd0      	pop	{r4, r6, r7, pc}

00103c9a <schedule_interrupt>:
  103c9a:	e92d 4370 	stmdb	sp!, {r4, r5, r6, r8, r9, lr}
  103c9e:	4606      	mov	r6, r0
  103ca0:	f7ff ffe8 	bl	103c74 <update_present_time>
  103ca4:	6871      	ldr	r1, [r6, #4]
  103ca6:	684b      	ldr	r3, [r1, #4]
  103ca8:	b1ab      	cbz	r3, 103cd6 <schedule_interrupt+0x3c>
  103caa:	e9d1 4502 	ldrd	r4, r5, [r1, #8]
  103cae:	e9d3 2300 	ldrd	r2, r3, [r3]
  103cb2:	42ab      	cmp	r3, r5
  103cb4:	bf08      	it	eq
  103cb6:	42a2      	cmpeq	r2, r4
  103cb8:	d30b      	bcc.n	103cd2 <schedule_interrupt+0x38>
  103cba:	ebb2 0804 	subs.w	r8, r2, r4
  103cbe:	eb63 0905 	sbc.w	r9, r3, r5
  103cc2:	f1b9 0f00 	cmp.w	r9, #0
  103cc6:	bf08      	it	eq
  103cc8:	f1b8 4fe0 	cmpeq.w	r8, #1879048192	; 0x70000000
  103ccc:	d203      	bcs.n	103cd6 <schedule_interrupt+0x3c>
  103cce:	1b12      	subs	r2, r2, r4
  103cd0:	e003      	b.n	103cda <schedule_interrupt+0x40>
  103cd2:	2200      	movs	r2, #0
  103cd4:	e001      	b.n	103cda <schedule_interrupt+0x40>
  103cd6:	f04f 42e0 	mov.w	r2, #1879048192	; 0x70000000
  103cda:	6833      	ldr	r3, [r6, #0]
  103cdc:	6888      	ldr	r0, [r1, #8]
  103cde:	691b      	ldr	r3, [r3, #16]
  103ce0:	4410      	add	r0, r2
  103ce2:	e8bd 4370 	ldmia.w	sp!, {r4, r5, r6, r8, r9, lr}
  103ce6:	4718      	bx	r3

00103ce8 <ticker_set_handler>:
  103ce8:	6843      	ldr	r3, [r0, #4]
  103cea:	b570      	push	{r4, r5, r6, lr}
  103cec:	7c1d      	ldrb	r5, [r3, #16]
  103cee:	4604      	mov	r4, r0
  103cf0:	460e      	mov	r6, r1
  103cf2:	b98d      	cbnz	r5, 103d18 <ticker_set_handler+0x30>
  103cf4:	6803      	ldr	r3, [r0, #0]
  103cf6:	681b      	ldr	r3, [r3, #0]
  103cf8:	4798      	blx	r3
  103cfa:	6863      	ldr	r3, [r4, #4]
  103cfc:	2000      	movs	r0, #0
  103cfe:	2100      	movs	r1, #0
  103d00:	2201      	movs	r2, #1
  103d02:	e9c3 0102 	strd	r0, r1, [r3, #8]
  103d06:	601d      	str	r5, [r3, #0]
  103d08:	4620      	mov	r0, r4
  103d0a:	605d      	str	r5, [r3, #4]
  103d0c:	741a      	strb	r2, [r3, #16]
  103d0e:	f7ff ffb1 	bl	103c74 <update_present_time>
  103d12:	4620      	mov	r0, r4
  103d14:	f7ff ffc1 	bl	103c9a <schedule_interrupt>
  103d18:	6863      	ldr	r3, [r4, #4]
  103d1a:	601e      	str	r6, [r3, #0]
  103d1c:	bd70      	pop	{r4, r5, r6, pc}

00103d1e <ticker_irq_handler>:
  103d1e:	6803      	ldr	r3, [r0, #0]
  103d20:	b570      	push	{r4, r5, r6, lr}
  103d22:	68db      	ldr	r3, [r3, #12]
  103d24:	4604      	mov	r4, r0
  103d26:	4798      	blx	r3
  103d28:	6863      	ldr	r3, [r4, #4]
  103d2a:	685b      	ldr	r3, [r3, #4]
  103d2c:	b1a3      	cbz	r3, 103d58 <ticker_irq_handler+0x3a>
  103d2e:	4620      	mov	r0, r4
  103d30:	f7ff ffa0 	bl	103c74 <update_present_time>
  103d34:	6865      	ldr	r5, [r4, #4]
  103d36:	686e      	ldr	r6, [r5, #4]
  103d38:	e9d5 0102 	ldrd	r0, r1, [r5, #8]
  103d3c:	e9d6 2300 	ldrd	r2, r3, [r6]
  103d40:	4299      	cmp	r1, r3
  103d42:	bf08      	it	eq
  103d44:	4290      	cmpeq	r0, r2
  103d46:	d307      	bcc.n	103d58 <ticker_irq_handler+0x3a>
  103d48:	68f3      	ldr	r3, [r6, #12]
  103d4a:	606b      	str	r3, [r5, #4]
  103d4c:	682b      	ldr	r3, [r5, #0]
  103d4e:	2b00      	cmp	r3, #0
  103d50:	d0ea      	beq.n	103d28 <ticker_irq_handler+0xa>
  103d52:	68b0      	ldr	r0, [r6, #8]
  103d54:	4798      	blx	r3
  103d56:	e7e7      	b.n	103d28 <ticker_irq_handler+0xa>
  103d58:	4620      	mov	r0, r4
  103d5a:	e8bd 4070 	ldmia.w	sp!, {r4, r5, r6, lr}
  103d5e:	f7ff bf9c 	b.w	103c9a <schedule_interrupt>

00103d62 <ticker_insert_event_us>:
  103d62:	e92d 43f8 	stmdb	sp!, {r3, r4, r5, r6, r7, r8, r9, lr}
  103d66:	4605      	mov	r5, r0
  103d68:	460c      	mov	r4, r1
  103d6a:	4616      	mov	r6, r2
  103d6c:	461f      	mov	r7, r3
  103d6e:	f8dd 8020 	ldr.w	r8, [sp, #32]
  103d72:	f000 f8a5 	bl	103ec0 <core_util_critical_section_enter>
  103d76:	4628      	mov	r0, r5
  103d78:	f7ff ff7c 	bl	103c74 <update_present_time>
  103d7c:	6869      	ldr	r1, [r5, #4]
  103d7e:	e9c4 6700 	strd	r6, r7, [r4]
  103d82:	684b      	ldr	r3, [r1, #4]
  103d84:	f8c4 8008 	str.w	r8, [r4, #8]
  103d88:	2200      	movs	r2, #0
  103d8a:	b143      	cbz	r3, 103d9e <ticker_insert_event_us+0x3c>
  103d8c:	e9d3 8900 	ldrd	r8, r9, [r3]
  103d90:	454f      	cmp	r7, r9
  103d92:	bf08      	it	eq
  103d94:	4546      	cmpeq	r6, r8
  103d96:	d302      	bcc.n	103d9e <ticker_insert_event_us+0x3c>
  103d98:	461a      	mov	r2, r3
  103d9a:	68db      	ldr	r3, [r3, #12]
  103d9c:	e7f5      	b.n	103d8a <ticker_insert_event_us+0x28>
  103d9e:	60e3      	str	r3, [r4, #12]
  103da0:	b90a      	cbnz	r2, 103da6 <ticker_insert_event_us+0x44>
  103da2:	604c      	str	r4, [r1, #4]
  103da4:	e000      	b.n	103da8 <ticker_insert_event_us+0x46>
  103da6:	60d4      	str	r4, [r2, #12]
  103da8:	4628      	mov	r0, r5
  103daa:	f7ff ff76 	bl	103c9a <schedule_interrupt>
  103dae:	e8bd 43f8 	ldmia.w	sp!, {r3, r4, r5, r6, r7, r8, r9, lr}
  103db2:	f000 b8b1 	b.w	103f18 <core_util_critical_section_exit>

00103db6 <ticker_remove_event>:
  103db6:	b538      	push	{r3, r4, r5, lr}
  103db8:	4605      	mov	r5, r0
  103dba:	460c      	mov	r4, r1
  103dbc:	f000 f880 	bl	103ec0 <core_util_critical_section_enter>
  103dc0:	686a      	ldr	r2, [r5, #4]
  103dc2:	6853      	ldr	r3, [r2, #4]
  103dc4:	42a3      	cmp	r3, r4
  103dc6:	d106      	bne.n	103dd6 <ticker_remove_event+0x20>
  103dc8:	68db      	ldr	r3, [r3, #12]
  103dca:	4628      	mov	r0, r5
  103dcc:	6053      	str	r3, [r2, #4]
  103dce:	f7ff ff64 	bl	103c9a <schedule_interrupt>
  103dd2:	e006      	b.n	103de2 <ticker_remove_event+0x2c>
  103dd4:	4613      	mov	r3, r2
  103dd6:	b123      	cbz	r3, 103de2 <ticker_remove_event+0x2c>
  103dd8:	68da      	ldr	r2, [r3, #12]
  103dda:	4294      	cmp	r4, r2
  103ddc:	d1fa      	bne.n	103dd4 <ticker_remove_event+0x1e>
  103dde:	68e2      	ldr	r2, [r4, #12]
  103de0:	60da      	str	r2, [r3, #12]
  103de2:	e8bd 4038 	ldmia.w	sp!, {r3, r4, r5, lr}
  103de6:	f000 b897 	b.w	103f18 <core_util_critical_section_exit>

00103dea <ticker_read_us>:
  103dea:	b510      	push	{r4, lr}
  103dec:	4604      	mov	r4, r0
  103dee:	f7ff ff41 	bl	103c74 <update_present_time>
  103df2:	6863      	ldr	r3, [r4, #4]
  103df4:	e9d3 0102 	ldrd	r0, r1, [r3, #8]
  103df8:	bd10      	pop	{r4, pc}
	...

00103dfc <get_us_ticker_data>:
  103dfc:	4800      	ldr	r0, [pc, #0]	; (103e00 <get_us_ticker_data+0x4>)
  103dfe:	4770      	bx	lr
  103e00:	0010e8d8 	.word	0x0010e8d8

00103e04 <us_ticker_irq_handler>:
  103e04:	4801      	ldr	r0, [pc, #4]	; (103e0c <us_ticker_irq_handler+0x8>)
  103e06:	f7ff bf8a 	b.w	103d1e <ticker_irq_handler>
  103e0a:	bf00      	nop
  103e0c:	0010e8d8 	.word	0x0010e8d8

00103e10 <mbed_assert_internal>:
  103e10:	b570      	push	{r4, r5, r6, lr}
  103e12:	4604      	mov	r4, r0
  103e14:	460d      	mov	r5, r1
  103e16:	4616      	mov	r6, r2
  103e18:	f000 f852 	bl	103ec0 <core_util_critical_section_enter>
  103e1c:	4633      	mov	r3, r6
  103e1e:	462a      	mov	r2, r5
  103e20:	4621      	mov	r1, r4
  103e22:	4803      	ldr	r0, [pc, #12]	; (103e30 <mbed_assert_internal+0x20>)
  103e24:	f000 f838 	bl	103e98 <mbed_error_printf>
  103e28:	e8bd 4070 	ldmia.w	sp!, {r4, r5, r6, lr}
  103e2c:	f000 b802 	b.w	103e34 <mbed_die>
  103e30:	0010e8e0 	.word	0x0010e8e0

00103e34 <mbed_die>:
  103e34:	b508      	push	{r3, lr}
  103e36:	f000 f843 	bl	103ec0 <core_util_critical_section_enter>
  103e3a:	2096      	movs	r0, #150	; 0x96
  103e3c:	f004 f89c 	bl	107f78 <wait_ms>
  103e40:	2096      	movs	r0, #150	; 0x96
  103e42:	f004 f899 	bl	107f78 <wait_ms>
  103e46:	e7f8      	b.n	103e3a <mbed_die+0x6>

00103e48 <mbed_error_vfprintf>:
  103e48:	b530      	push	{r4, r5, lr}
  103e4a:	460d      	mov	r5, r1
  103e4c:	4604      	mov	r4, r0
  103e4e:	b0a1      	sub	sp, #132	; 0x84
  103e50:	f000 f836 	bl	103ec0 <core_util_critical_section_enter>
  103e54:	462b      	mov	r3, r5
  103e56:	4622      	mov	r2, r4
  103e58:	2180      	movs	r1, #128	; 0x80
  103e5a:	4668      	mov	r0, sp
  103e5c:	f008 f9d6 	bl	10c20c <vsniprintf>
  103e60:	1e05      	subs	r5, r0, #0
  103e62:	dc03      	bgt.n	103e6c <mbed_error_vfprintf+0x24>
  103e64:	f000 f858 	bl	103f18 <core_util_critical_section_exit>
  103e68:	b021      	add	sp, #132	; 0x84
  103e6a:	bd30      	pop	{r4, r5, pc}
  103e6c:	4b08      	ldr	r3, [pc, #32]	; (103e90 <mbed_error_vfprintf+0x48>)
  103e6e:	681b      	ldr	r3, [r3, #0]
  103e70:	b923      	cbnz	r3, 103e7c <mbed_error_vfprintf+0x34>
  103e72:	2209      	movs	r2, #9
  103e74:	2108      	movs	r1, #8
  103e76:	4807      	ldr	r0, [pc, #28]	; (103e94 <mbed_error_vfprintf+0x4c>)
  103e78:	f002 ffc8 	bl	106e0c <serial_init>
  103e7c:	2400      	movs	r4, #0
  103e7e:	f81d 1004 	ldrb.w	r1, [sp, r4]
  103e82:	4804      	ldr	r0, [pc, #16]	; (103e94 <mbed_error_vfprintf+0x4c>)
  103e84:	3401      	adds	r4, #1
  103e86:	f003 f8b8 	bl	106ffa <serial_putc>
  103e8a:	42a5      	cmp	r5, r4
  103e8c:	d1f7      	bne.n	103e7e <mbed_error_vfprintf+0x36>
  103e8e:	e7e9      	b.n	103e64 <mbed_error_vfprintf+0x1c>
  103e90:	3fff9988 	.word	0x3fff9988
  103e94:	3fffad6c 	.word	0x3fffad6c

00103e98 <mbed_error_printf>:
  103e98:	b40f      	push	{r0, r1, r2, r3}
  103e9a:	b507      	push	{r0, r1, r2, lr}
  103e9c:	a904      	add	r1, sp, #16
  103e9e:	f851 0b04 	ldr.w	r0, [r1], #4
  103ea2:	9101      	str	r1, [sp, #4]
  103ea4:	f7ff ffd0 	bl	103e48 <mbed_error_vfprintf>
  103ea8:	b003      	add	sp, #12
  103eaa:	f85d eb04 	ldr.w	lr, [sp], #4
  103eae:	b004      	add	sp, #16
  103eb0:	4770      	bx	lr

00103eb2 <core_util_are_interrupts_enabled>:
  103eb2:	f3ef 8010 	mrs	r0, PRIMASK
  103eb6:	f000 0001 	and.w	r0, r0, #1
  103eba:	f080 0001 	eor.w	r0, r0, #1
  103ebe:	4770      	bx	lr

00103ec0 <core_util_critical_section_enter>:
  103ec0:	b538      	push	{r3, r4, r5, lr}
  103ec2:	f7ff fff6 	bl	103eb2 <core_util_are_interrupts_enabled>
  103ec6:	4605      	mov	r5, r0
  103ec8:	b672      	cpsid	i
  103eca:	4c0e      	ldr	r4, [pc, #56]	; (103f04 <core_util_critical_section_enter+0x44>)
  103ecc:	6823      	ldr	r3, [r4, #0]
  103ece:	b923      	cbnz	r3, 103eda <core_util_critical_section_enter+0x1a>
  103ed0:	f080 0301 	eor.w	r3, r0, #1
  103ed4:	4a0c      	ldr	r2, [pc, #48]	; (103f08 <core_util_critical_section_enter+0x48>)
  103ed6:	b2db      	uxtb	r3, r3
  103ed8:	7013      	strb	r3, [r2, #0]
  103eda:	6823      	ldr	r3, [r4, #0]
  103edc:	3301      	adds	r3, #1
  103ede:	d104      	bne.n	103eea <core_util_critical_section_enter+0x2a>
  103ee0:	2245      	movs	r2, #69	; 0x45
  103ee2:	490a      	ldr	r1, [pc, #40]	; (103f0c <core_util_critical_section_enter+0x4c>)
  103ee4:	480a      	ldr	r0, [pc, #40]	; (103f10 <core_util_critical_section_enter+0x50>)
  103ee6:	f7ff ff93 	bl	103e10 <mbed_assert_internal>
  103eea:	6823      	ldr	r3, [r4, #0]
  103eec:	b12b      	cbz	r3, 103efa <core_util_critical_section_enter+0x3a>
  103eee:	b125      	cbz	r5, 103efa <core_util_critical_section_enter+0x3a>
  103ef0:	2249      	movs	r2, #73	; 0x49
  103ef2:	4906      	ldr	r1, [pc, #24]	; (103f0c <core_util_critical_section_enter+0x4c>)
  103ef4:	4807      	ldr	r0, [pc, #28]	; (103f14 <core_util_critical_section_enter+0x54>)
  103ef6:	f7ff ff8b 	bl	103e10 <mbed_assert_internal>
  103efa:	6823      	ldr	r3, [r4, #0]
  103efc:	3301      	adds	r3, #1
  103efe:	6023      	str	r3, [r4, #0]
  103f00:	bd38      	pop	{r3, r4, r5, pc}
  103f02:	bf00      	nop
  103f04:	3fff93b0 	.word	0x3fff93b0
  103f08:	3fff93b4 	.word	0x3fff93b4
  103f0c:	0010e911 	.word	0x0010e911
  103f10:	0010e941 	.word	0x0010e941
  103f14:	0010e967 	.word	0x0010e967

00103f18 <core_util_critical_section_exit>:
  103f18:	b510      	push	{r4, lr}
  103f1a:	4c0a      	ldr	r4, [pc, #40]	; (103f44 <core_util_critical_section_exit+0x2c>)
  103f1c:	6823      	ldr	r3, [r4, #0]
  103f1e:	b183      	cbz	r3, 103f42 <core_util_critical_section_exit+0x2a>
  103f20:	f7ff ffc7 	bl	103eb2 <core_util_are_interrupts_enabled>
  103f24:	b120      	cbz	r0, 103f30 <core_util_critical_section_exit+0x18>
  103f26:	225a      	movs	r2, #90	; 0x5a
  103f28:	4907      	ldr	r1, [pc, #28]	; (103f48 <core_util_critical_section_exit+0x30>)
  103f2a:	4808      	ldr	r0, [pc, #32]	; (103f4c <core_util_critical_section_exit+0x34>)
  103f2c:	f7ff ff70 	bl	103e10 <mbed_assert_internal>
  103f30:	6823      	ldr	r3, [r4, #0]
  103f32:	3b01      	subs	r3, #1
  103f34:	6023      	str	r3, [r4, #0]
  103f36:	6823      	ldr	r3, [r4, #0]
  103f38:	b91b      	cbnz	r3, 103f42 <core_util_critical_section_exit+0x2a>
  103f3a:	4b05      	ldr	r3, [pc, #20]	; (103f50 <core_util_critical_section_exit+0x38>)
  103f3c:	781b      	ldrb	r3, [r3, #0]
  103f3e:	b903      	cbnz	r3, 103f42 <core_util_critical_section_exit+0x2a>
  103f40:	b662      	cpsie	i
  103f42:	bd10      	pop	{r4, pc}
  103f44:	3fff93b0 	.word	0x3fff93b0
  103f48:	0010e911 	.word	0x0010e911
  103f4c:	0010e967 	.word	0x0010e967
  103f50:	3fff93b4 	.word	0x3fff93b4

00103f54 <error>:
  103f54:	b40f      	push	{r0, r1, r2, r3}
  103f56:	b513      	push	{r0, r1, r4, lr}
  103f58:	4b08      	ldr	r3, [pc, #32]	; (103f7c <error+0x28>)
  103f5a:	781a      	ldrb	r2, [r3, #0]
  103f5c:	b94a      	cbnz	r2, 103f72 <error+0x1e>
  103f5e:	2401      	movs	r4, #1
  103f60:	a905      	add	r1, sp, #20
  103f62:	9804      	ldr	r0, [sp, #16]
  103f64:	701c      	strb	r4, [r3, #0]
  103f66:	9101      	str	r1, [sp, #4]
  103f68:	f7ff ff6e 	bl	103e48 <mbed_error_vfprintf>
  103f6c:	4620      	mov	r0, r4
  103f6e:	f003 fef2 	bl	107d56 <__wrap_exit>
  103f72:	b002      	add	sp, #8
  103f74:	e8bd 4010 	ldmia.w	sp!, {r4, lr}
  103f78:	b004      	add	sp, #16
  103f7a:	4770      	bx	lr
  103f7c:	3fff93b5 	.word	0x3fff93b5

00103f80 <pre_main>:
  103f80:	b538      	push	{r3, r4, r5, lr}
  103f82:	4815      	ldr	r0, [pc, #84]	; (103fd8 <pre_main+0x58>)
  103f84:	4b15      	ldr	r3, [pc, #84]	; (103fdc <pre_main+0x5c>)
  103f86:	250b      	movs	r5, #11
  103f88:	6003      	str	r3, [r0, #0]
  103f8a:	4b15      	ldr	r3, [pc, #84]	; (103fe0 <pre_main+0x60>)
  103f8c:	241c      	movs	r4, #28
  103f8e:	6045      	str	r5, [r0, #4]
  103f90:	60c4      	str	r4, [r0, #12]
  103f92:	6083      	str	r3, [r0, #8]
  103f94:	f001 f916 	bl	1051c4 <osMutexNew>
  103f98:	4b12      	ldr	r3, [pc, #72]	; (103fe4 <pre_main+0x64>)
  103f9a:	6018      	str	r0, [r3, #0]
  103f9c:	4812      	ldr	r0, [pc, #72]	; (103fe8 <pre_main+0x68>)
  103f9e:	4b13      	ldr	r3, [pc, #76]	; (103fec <pre_main+0x6c>)
  103fa0:	60c4      	str	r4, [r0, #12]
  103fa2:	e880 0028 	stmia.w	r0, {r3, r5}
  103fa6:	4b12      	ldr	r3, [pc, #72]	; (103ff0 <pre_main+0x70>)
  103fa8:	6083      	str	r3, [r0, #8]
  103faa:	f001 f90b 	bl	1051c4 <osMutexNew>
  103fae:	4b11      	ldr	r3, [pc, #68]	; (103ff4 <pre_main+0x74>)
  103fb0:	6018      	str	r0, [r3, #0]
  103fb2:	4811      	ldr	r0, [pc, #68]	; (103ff8 <pre_main+0x78>)
  103fb4:	4b11      	ldr	r3, [pc, #68]	; (103ffc <pre_main+0x7c>)
  103fb6:	60c4      	str	r4, [r0, #12]
  103fb8:	e880 0028 	stmia.w	r0, {r3, r5}
  103fbc:	4b10      	ldr	r3, [pc, #64]	; (104000 <pre_main+0x80>)
  103fbe:	6083      	str	r3, [r0, #8]
  103fc0:	f001 f900 	bl	1051c4 <osMutexNew>
  103fc4:	4b0f      	ldr	r3, [pc, #60]	; (104004 <pre_main+0x84>)
  103fc6:	6018      	str	r0, [r3, #0]
  103fc8:	f005 fd28 	bl	109a1c <__libc_init_array>
  103fcc:	e8bd 4038 	ldmia.w	sp!, {r3, r4, r5, lr}
  103fd0:	2100      	movs	r1, #0
  103fd2:	4608      	mov	r0, r1
  103fd4:	f000 b860 	b.w	104098 <__wrap_main>
  103fd8:	3fff9c94 	.word	0x3fff9c94
  103fdc:	0010e97b 	.word	0x0010e97b
  103fe0:	3fff9c68 	.word	0x3fff9c68
  103fe4:	3fff9ce0 	.word	0x3fff9ce0
  103fe8:	3fff9c84 	.word	0x3fff9c84
  103fec:	0010e98b 	.word	0x0010e98b
  103ff0:	3fff9ce4 	.word	0x3fff9ce4
  103ff4:	3fff9cdc 	.word	0x3fff9cdc
  103ff8:	3fff9ca4 	.word	0x3fff9ca4
  103ffc:	0010e998 	.word	0x0010e998
  104000:	3fff9d00 	.word	0x3fff9d00
  104004:	3fff9cb4 	.word	0x3fff9cb4

00104008 <mbed_set_stack_heap>:
  104008:	4a09      	ldr	r2, [pc, #36]	; (104030 <mbed_set_stack_heap+0x28>)
  10400a:	480a      	ldr	r0, [pc, #40]	; (104034 <mbed_set_stack_heap+0x2c>)
  10400c:	f1c2 4380 	rsb	r3, r2, #1073741824	; 0x40000000
  104010:	4619      	mov	r1, r3
  104012:	f5b3 6f80 	cmp.w	r3, #1024	; 0x400
  104016:	bf28      	it	cs
  104018:	f44f 6180 	movcs.w	r1, #1024	; 0x400
  10401c:	1a5b      	subs	r3, r3, r1
  10401e:	6001      	str	r1, [r0, #0]
  104020:	4905      	ldr	r1, [pc, #20]	; (104038 <mbed_set_stack_heap+0x30>)
  104022:	1898      	adds	r0, r3, r2
  104024:	6008      	str	r0, [r1, #0]
  104026:	4905      	ldr	r1, [pc, #20]	; (10403c <mbed_set_stack_heap+0x34>)
  104028:	600b      	str	r3, [r1, #0]
  10402a:	4b05      	ldr	r3, [pc, #20]	; (104040 <mbed_set_stack_heap+0x38>)
  10402c:	601a      	str	r2, [r3, #0]
  10402e:	4770      	bx	lr
  104030:	3fffad80 	.word	0x3fffad80
  104034:	3fff93bc 	.word	0x3fff93bc
  104038:	3fff93b8 	.word	0x3fff93b8
  10403c:	3fff9ab4 	.word	0x3fff9ab4
  104040:	3fff9bb8 	.word	0x3fff9bb8

00104044 <mbed_main>:
  104044:	4770      	bx	lr

00104046 <mbed_sdk_init>:
  104046:	4770      	bx	lr

00104048 <mbed_start_main>:
  104048:	b508      	push	{r3, lr}
  10404a:	4a0d      	ldr	r2, [pc, #52]	; (104080 <mbed_start_main+0x38>)
  10404c:	4b0d      	ldr	r3, [pc, #52]	; (104084 <mbed_start_main+0x3c>)
  10404e:	2100      	movs	r1, #0
  104050:	6113      	str	r3, [r2, #16]
  104052:	f44f 5380 	mov.w	r3, #4096	; 0x1000
  104056:	6153      	str	r3, [r2, #20]
  104058:	2348      	movs	r3, #72	; 0x48
  10405a:	60d3      	str	r3, [r2, #12]
  10405c:	4b0a      	ldr	r3, [pc, #40]	; (104088 <mbed_start_main+0x40>)
  10405e:	480b      	ldr	r0, [pc, #44]	; (10408c <mbed_start_main+0x44>)
  104060:	6093      	str	r3, [r2, #8]
  104062:	2318      	movs	r3, #24
  104064:	6193      	str	r3, [r2, #24]
  104066:	4b0a      	ldr	r3, [pc, #40]	; (104090 <mbed_start_main+0x48>)
  104068:	6013      	str	r3, [r2, #0]
  10406a:	f001 fde1 	bl	105c30 <osThreadNew>
  10406e:	b910      	cbnz	r0, 104076 <mbed_start_main+0x2e>
  104070:	4808      	ldr	r0, [pc, #32]	; (104094 <mbed_start_main+0x4c>)
  104072:	f7ff ff6f 	bl	103f54 <error>
  104076:	e8bd 4008 	ldmia.w	sp!, {r3, lr}
  10407a:	f000 ba63 	b.w	104544 <osKernelStart>
  10407e:	bf00      	nop
  104080:	3fff9cb8 	.word	0x3fff9cb8
  104084:	3fff9d68 	.word	0x3fff9d68
  104088:	3fff9d1c 	.word	0x3fff9d1c
  10408c:	00103f81 	.word	0x00103f81
  104090:	0010e9a2 	.word	0x0010e9a2
  104094:	0010e9ae 	.word	0x0010e9ae

00104098 <__wrap_main>:
  104098:	b508      	push	{r3, lr}
  10409a:	f7ff ffd3 	bl	104044 <mbed_main>
  10409e:	e8bd 4008 	ldmia.w	sp!, {r3, lr}
  1040a2:	f7fe b9a7 	b.w	1023f4 <main>
	...

001040a8 <software_init_hook>:
  1040a8:	b510      	push	{r4, lr}
  1040aa:	f7ff ffad 	bl	104008 <mbed_set_stack_heap>
  1040ae:	4b0a      	ldr	r3, [pc, #40]	; (1040d8 <software_init_hook+0x30>)
  1040b0:	490a      	ldr	r1, [pc, #40]	; (1040dc <software_init_hook+0x34>)
  1040b2:	689a      	ldr	r2, [r3, #8]
  1040b4:	480a      	ldr	r0, [pc, #40]	; (1040e0 <software_init_hook+0x38>)
  1040b6:	3a04      	subs	r2, #4
  1040b8:	f852 4f04 	ldr.w	r4, [r2, #4]!
  1040bc:	f841 4f04 	str.w	r4, [r1, #4]!
  1040c0:	4281      	cmp	r1, r0
  1040c2:	d1f9      	bne.n	1040b8 <software_init_hook+0x10>
  1040c4:	4a07      	ldr	r2, [pc, #28]	; (1040e4 <software_init_hook+0x3c>)
  1040c6:	609a      	str	r2, [r3, #8]
  1040c8:	f7ff ffbd 	bl	104046 <mbed_sdk_init>
  1040cc:	f000 f9f4 	bl	1044b8 <osKernelInitialize>
  1040d0:	e8bd 4010 	ldmia.w	sp!, {r4, lr}
  1040d4:	f7ff bfb8 	b.w	104048 <mbed_start_main>
  1040d8:	e000ed00 	.word	0xe000ed00
  1040dc:	3fff3ffc 	.word	0x3fff3ffc
  1040e0:	3fff408c 	.word	0x3fff408c
  1040e4:	3fff4000 	.word	0x3fff4000

001040e8 <default_idle_hook>:
  1040e8:	f002 bfa0 	b.w	10702c <hal_sleep>

001040ec <rtos_idle_loop>:
  1040ec:	b508      	push	{r3, lr}
  1040ee:	4c02      	ldr	r4, [pc, #8]	; (1040f8 <rtos_idle_loop+0xc>)
  1040f0:	6823      	ldr	r3, [r4, #0]
  1040f2:	4798      	blx	r3
  1040f4:	e7fc      	b.n	1040f0 <rtos_idle_loop+0x4>
  1040f6:	bf00      	nop
  1040f8:	3fff63f4 	.word	0x3fff63f4

001040fc <osRtxIdleThread>:
  1040fc:	b508      	push	{r3, lr}
  1040fe:	f7ff fff5 	bl	1040ec <rtos_idle_loop>
  104102:	e7fc      	b.n	1040fe <osRtxIdleThread+0x2>

00104104 <osRtxErrorNotify>:
  104104:	b508      	push	{r3, lr}
  104106:	4605      	mov	r5, r0
  104108:	460c      	mov	r4, r1
  10410a:	f001 fdad 	bl	105c68 <osThreadGetId>
  10410e:	1e6b      	subs	r3, r5, #1
  104110:	4602      	mov	r2, r0
  104112:	2b04      	cmp	r3, #4
  104114:	d824      	bhi.n	104160 <osRtxErrorNotify+0x5c>
  104116:	e8df f003 	tbb	[pc, r3]
  10411a:	0d03      	.short	0x0d03
  10411c:	1913      	.short	0x1913
  10411e:	1e          	.byte	0x1e
  10411f:	00          	.byte	0x00
  104120:	4620      	mov	r0, r4
  104122:	f001 fd89 	bl	105c38 <osThreadGetName>
  104126:	4622      	mov	r2, r4
  104128:	4603      	mov	r3, r0
  10412a:	2101      	movs	r1, #1
  10412c:	480f      	ldr	r0, [pc, #60]	; (10416c <osRtxErrorNotify+0x68>)
  10412e:	f7ff ff11 	bl	103f54 <error>
  104132:	e019      	b.n	104168 <osRtxErrorNotify+0x64>
  104134:	4623      	mov	r3, r4
  104136:	2102      	movs	r1, #2
  104138:	480d      	ldr	r0, [pc, #52]	; (104170 <osRtxErrorNotify+0x6c>)
  10413a:	f7ff ff0b 	bl	103f54 <error>
  10413e:	e013      	b.n	104168 <osRtxErrorNotify+0x64>
  104140:	4623      	mov	r3, r4
  104142:	2103      	movs	r1, #3
  104144:	480b      	ldr	r0, [pc, #44]	; (104174 <osRtxErrorNotify+0x70>)
  104146:	f7ff ff05 	bl	103f54 <error>
  10414a:	e00d      	b.n	104168 <osRtxErrorNotify+0x64>
  10414c:	2104      	movs	r1, #4
  10414e:	480a      	ldr	r0, [pc, #40]	; (104178 <osRtxErrorNotify+0x74>)
  104150:	f7ff ff00 	bl	103f54 <error>
  104154:	e008      	b.n	104168 <osRtxErrorNotify+0x64>
  104156:	2105      	movs	r1, #5
  104158:	4808      	ldr	r0, [pc, #32]	; (10417c <osRtxErrorNotify+0x78>)
  10415a:	f7ff fefb 	bl	103f54 <error>
  10415e:	e003      	b.n	104168 <osRtxErrorNotify+0x64>
  104160:	4629      	mov	r1, r5
  104162:	4807      	ldr	r0, [pc, #28]	; (104180 <osRtxErrorNotify+0x7c>)
  104164:	f7ff fef6 	bl	103f54 <error>
  104168:	e7fe      	b.n	104168 <osRtxErrorNotify+0x64>
  10416a:	bf00      	nop
  10416c:	0010e9ca 	.word	0x0010e9ca
  104170:	0010ea1b 	.word	0x0010ea1b
  104174:	0010ea71 	.word	0x0010ea71
  104178:	0010ead6 	.word	0x0010ead6
  10417c:	0010eb31 	.word	0x0010eb31
  104180:	0010eb91 	.word	0x0010eb91

00104184 <svcRtxDelay>:
  104184:	b508      	push	{r3, lr}
  104186:	4601      	mov	r1, r0
  104188:	b110      	cbz	r0, 104190 <svcRtxDelay+0xc>
  10418a:	2013      	movs	r0, #19
  10418c:	f001 fcc2 	bl	105b14 <osRtxThreadWaitEnter>
  104190:	2000      	movs	r0, #0
  104192:	bd08      	pop	{r3, pc}

00104194 <osDelay>:
  104194:	b510      	push	{r4, lr}
  104196:	4604      	mov	r4, r0
  104198:	f000 f831 	bl	1041fe <EvrRtxThreadDelay>
  10419c:	f3ef 8305 	mrs	r3, IPSR
  1041a0:	b92b      	cbnz	r3, 1041ae <osDelay+0x1a>
  1041a2:	f3ef 8310 	mrs	r3, PRIMASK
  1041a6:	b913      	cbnz	r3, 1041ae <osDelay+0x1a>
  1041a8:	f3ef 8311 	mrs	r3, BASEPRI
  1041ac:	b13b      	cbz	r3, 1041be <osDelay+0x2a>
  1041ae:	f06f 0105 	mvn.w	r1, #5
  1041b2:	2000      	movs	r0, #0
  1041b4:	f000 f816 	bl	1041e4 <EvrRtxThreadError>
  1041b8:	f06f 0005 	mvn.w	r0, #5
  1041bc:	bd10      	pop	{r4, pc}
  1041be:	4620      	mov	r0, r4
  1041c0:	f8df c004 	ldr.w	r12, [pc, #4]	; 1041c8 <osDelay+0x34>
  1041c4:	df00      	svc	0
  1041c6:	bd10      	pop	{r4, pc}
  1041c8:	00104185 	.word	0x00104185

001041cc <EvrRtxMemoryInit>:
  1041cc:	4770      	bx	lr

001041ce <EvrRtxMemoryAlloc>:
  1041ce:	4770      	bx	lr

001041d0 <EvrRtxMemoryFree>:
  1041d0:	4770      	bx	lr

001041d2 <EvrRtxMemoryBlockInit>:
  1041d2:	4770      	bx	lr

001041d4 <EvrRtxMemoryBlockAlloc>:
  1041d4:	4770      	bx	lr

001041d6 <EvrRtxMemoryBlockFree>:
  1041d6:	4770      	bx	lr

001041d8 <EvrRtxKernelError>:
  1041d8:	4770      	bx	lr

001041da <EvrRtxKernelInitialize>:
  1041da:	4770      	bx	lr

001041dc <EvrRtxKernelInitializeCompleted>:
  1041dc:	4770      	bx	lr

001041de <EvrRtxKernelGetState>:
  1041de:	4770      	bx	lr

001041e0 <EvrRtxKernelStart>:
  1041e0:	4770      	bx	lr

001041e2 <EvrRtxKernelStarted>:
  1041e2:	4770      	bx	lr

001041e4 <EvrRtxThreadError>:
  1041e4:	4770      	bx	lr

001041e6 <EvrRtxThreadNew>:
  1041e6:	4770      	bx	lr

001041e8 <EvrRtxThreadCreated>:
  1041e8:	4770      	bx	lr

001041ea <EvrRtxThreadGetName>:
  1041ea:	4770      	bx	lr

001041ec <EvrRtxThreadGetId>:
  1041ec:	4770      	bx	lr

001041ee <EvrRtxThreadJoined>:
  1041ee:	4770      	bx	lr

001041f0 <EvrRtxThreadBlocked>:
  1041f0:	4770      	bx	lr

001041f2 <EvrRtxThreadUnblocked>:
  1041f2:	4770      	bx	lr

001041f4 <EvrRtxThreadSwitch>:
  1041f4:	4770      	bx	lr

001041f6 <EvrRtxThreadExit>:
  1041f6:	4770      	bx	lr

001041f8 <EvrRtxThreadDestroyed>:
  1041f8:	4770      	bx	lr

001041fa <EvrRtxThreadFlagsWaitTimeout>:
  1041fa:	4770      	bx	lr

001041fc <EvrRtxThreadFlagsWaitCompleted>:
  1041fc:	4770      	bx	lr

001041fe <EvrRtxThreadDelay>:
  1041fe:	4770      	bx	lr

00104200 <EvrRtxThreadDelayCompleted>:
  104200:	4770      	bx	lr

00104202 <EvrRtxTimerCallback>:
  104202:	4770      	bx	lr

00104204 <EvrRtxEventFlagsWaitTimeout>:
  104204:	4770      	bx	lr

00104206 <EvrRtxMutexError>:
  104206:	4770      	bx	lr

00104208 <EvrRtxMutexNew>:
  104208:	4770      	bx	lr

0010420a <EvrRtxMutexCreated>:
  10420a:	4770      	bx	lr

0010420c <EvrRtxMutexAcquire>:
  10420c:	4770      	bx	lr

0010420e <EvrRtxMutexAcquirePending>:
  10420e:	4770      	bx	lr

00104210 <EvrRtxMutexAcquireTimeout>:
  104210:	4770      	bx	lr

00104212 <EvrRtxMutexAcquired>:
  104212:	4770      	bx	lr

00104214 <EvrRtxMutexNotAcquired>:
  104214:	4770      	bx	lr

00104216 <EvrRtxMutexRelease>:
  104216:	4770      	bx	lr

00104218 <EvrRtxMutexReleased>:
  104218:	4770      	bx	lr

0010421a <EvrRtxMutexDelete>:
  10421a:	4770      	bx	lr

0010421c <EvrRtxMutexDestroyed>:
  10421c:	4770      	bx	lr

0010421e <EvrRtxSemaphoreAcquireTimeout>:
  10421e:	4770      	bx	lr

00104220 <EvrRtxMemoryPoolAllocTimeout>:
  104220:	4770      	bx	lr

00104222 <EvrRtxMessageQueueError>:
  104222:	4770      	bx	lr

00104224 <EvrRtxMessageQueueNew>:
  104224:	4770      	bx	lr

00104226 <EvrRtxMessageQueueCreated>:
  104226:	4770      	bx	lr

00104228 <EvrRtxMessageQueuePut>:
  104228:	4770      	bx	lr

0010422a <EvrRtxMessageQueuePutPending>:
  10422a:	4770      	bx	lr

0010422c <EvrRtxMessageQueuePutTimeout>:
  10422c:	4770      	bx	lr

0010422e <EvrRtxMessageQueueInsertPending>:
  10422e:	4770      	bx	lr

00104230 <EvrRtxMessageQueueInserted>:
  104230:	4770      	bx	lr

00104232 <EvrRtxMessageQueueNotInserted>:
  104232:	4770      	bx	lr

00104234 <EvrRtxMessageQueueGet>:
  104234:	4770      	bx	lr

00104236 <EvrRtxMessageQueueGetPending>:
  104236:	4770      	bx	lr

00104238 <EvrRtxMessageQueueGetTimeout>:
  104238:	4770      	bx	lr

0010423a <EvrRtxMessageQueueRetrieved>:
  10423a:	4770      	bx	lr

0010423c <EvrRtxMessageQueueNotRetrieved>:
  10423c:	4770      	bx	lr
	...

00104240 <svcRtxKernelInitialize>:
  104240:	b570      	push	{r4, r5, r6, lr}
  104242:	4863      	ldr	r0, [pc, #396]	; (1043d0 <svcRtxKernelInitialize+0x190>)
  104244:	7a01      	ldrb	r1, [r0, #8]
  104246:	4604      	mov	r4, r0
  104248:	2901      	cmp	r1, #1
  10424a:	f000 80bd 	beq.w	1043c8 <svcRtxKernelInitialize+0x188>
  10424e:	b111      	cbz	r1, 104256 <svcRtxKernelInitialize+0x16>
  104250:	f04f 30ff 	mov.w	r0, #4294967295
  104254:	e009      	b.n	10426a <svcRtxKernelInitialize+0x2a>
  104256:	4d5f      	ldr	r5, [pc, #380]	; (1043d4 <svcRtxKernelInitialize+0x194>)
  104258:	22a8      	movs	r2, #168	; 0xa8
  10425a:	3008      	adds	r0, #8
  10425c:	f005 fc98 	bl	109b90 <memset>
  104260:	6d6b      	ldr	r3, [r5, #84]	; 0x54
  104262:	2b47      	cmp	r3, #71	; 0x47
  104264:	d806      	bhi.n	104274 <svcRtxKernelInitialize+0x34>
  104266:	f06f 000a 	mvn.w	r0, #10
  10426a:	f7ff ffb5 	bl	1041d8 <EvrRtxKernelError>
  10426e:	f04f 30ff 	mov.w	r0, #4294967295
  104272:	bd70      	pop	{r4, r5, r6, pc}
  104274:	68ea      	ldr	r2, [r5, #12]
  104276:	2a00      	cmp	r2, #0
  104278:	d0ea      	beq.n	104250 <svcRtxKernelInitialize+0x10>
  10427a:	8a2b      	ldrh	r3, [r5, #16]
  10427c:	2b00      	cmp	r3, #0
  10427e:	d0e7      	beq.n	104250 <svcRtxKernelInitialize+0x10>
  104280:	6aee      	ldr	r6, [r5, #44]	; 0x2c
  104282:	f8a4 305c 	strh.w	r3, [r4, #92]	; 0x5c
  104286:	68ab      	ldr	r3, [r5, #8]
  104288:	6b29      	ldr	r1, [r5, #48]	; 0x30
  10428a:	4630      	mov	r0, r6
  10428c:	6662      	str	r2, [r4, #100]	; 0x64
  10428e:	64a3      	str	r3, [r4, #72]	; 0x48
  104290:	f000 f98a 	bl	1045a8 <osRtxMemoryInit>
  104294:	b108      	cbz	r0, 10429a <svcRtxKernelInitialize+0x5a>
  104296:	f8c4 6088 	str.w	r6, [r4, #136]	; 0x88
  10429a:	696e      	ldr	r6, [r5, #20]
  10429c:	69a9      	ldr	r1, [r5, #24]
  10429e:	4630      	mov	r0, r6
  1042a0:	f000 f982 	bl	1045a8 <osRtxMemoryInit>
  1042a4:	b108      	cbz	r0, 1042aa <svcRtxKernelInitialize+0x6a>
  1042a6:	67e6      	str	r6, [r4, #124]	; 0x7c
  1042a8:	e002      	b.n	1042b0 <svcRtxKernelInitialize+0x70>
  1042aa:	f8d4 3088 	ldr.w	r3, [r4, #136]	; 0x88
  1042ae:	67e3      	str	r3, [r4, #124]	; 0x7c
  1042b0:	69ee      	ldr	r6, [r5, #28]
  1042b2:	6a29      	ldr	r1, [r5, #32]
  1042b4:	4630      	mov	r0, r6
  1042b6:	f000 f977 	bl	1045a8 <osRtxMemoryInit>
  1042ba:	b110      	cbz	r0, 1042c2 <svcRtxKernelInitialize+0x82>
  1042bc:	f8c4 6080 	str.w	r6, [r4, #128]	; 0x80
  1042c0:	e003      	b.n	1042ca <svcRtxKernelInitialize+0x8a>
  1042c2:	f8d4 3088 	ldr.w	r3, [r4, #136]	; 0x88
  1042c6:	f8c4 3080 	str.w	r3, [r4, #128]	; 0x80
  1042ca:	6a6e      	ldr	r6, [r5, #36]	; 0x24
  1042cc:	6aa9      	ldr	r1, [r5, #40]	; 0x28
  1042ce:	4630      	mov	r0, r6
  1042d0:	f000 f96a 	bl	1045a8 <osRtxMemoryInit>
  1042d4:	b110      	cbz	r0, 1042dc <svcRtxKernelInitialize+0x9c>
  1042d6:	f8c4 6084 	str.w	r6, [r4, #132]	; 0x84
  1042da:	e003      	b.n	1042e4 <svcRtxKernelInitialize+0xa4>
  1042dc:	f8d4 3088 	ldr.w	r3, [r4, #136]	; 0x88
  1042e0:	f8c4 3084 	str.w	r3, [r4, #132]	; 0x84
  1042e4:	6b6e      	ldr	r6, [r5, #52]	; 0x34
  1042e6:	b146      	cbz	r6, 1042fa <svcRtxKernelInitialize+0xba>
  1042e8:	68f3      	ldr	r3, [r6, #12]
  1042ea:	68b2      	ldr	r2, [r6, #8]
  1042ec:	6831      	ldr	r1, [r6, #0]
  1042ee:	4630      	mov	r0, r6
  1042f0:	f000 f9d5 	bl	10469e <osRtxMemoryPoolInit>
  1042f4:	b108      	cbz	r0, 1042fa <svcRtxKernelInitialize+0xba>
  1042f6:	f8c4 608c 	str.w	r6, [r4, #140]	; 0x8c
  1042fa:	6bae      	ldr	r6, [r5, #56]	; 0x38
  1042fc:	b146      	cbz	r6, 104310 <svcRtxKernelInitialize+0xd0>
  1042fe:	68f3      	ldr	r3, [r6, #12]
  104300:	68b2      	ldr	r2, [r6, #8]
  104302:	6831      	ldr	r1, [r6, #0]
  104304:	4630      	mov	r0, r6
  104306:	f000 f9ca 	bl	10469e <osRtxMemoryPoolInit>
  10430a:	b108      	cbz	r0, 104310 <svcRtxKernelInitialize+0xd0>
  10430c:	f8c4 6090 	str.w	r6, [r4, #144]	; 0x90
  104310:	6bee      	ldr	r6, [r5, #60]	; 0x3c
  104312:	b146      	cbz	r6, 104326 <svcRtxKernelInitialize+0xe6>
  104314:	68f3      	ldr	r3, [r6, #12]
  104316:	68b2      	ldr	r2, [r6, #8]
  104318:	6831      	ldr	r1, [r6, #0]
  10431a:	4630      	mov	r0, r6
  10431c:	f000 f9bf 	bl	10469e <osRtxMemoryPoolInit>
  104320:	b108      	cbz	r0, 104326 <svcRtxKernelInitialize+0xe6>
  104322:	f8c4 6094 	str.w	r6, [r4, #148]	; 0x94
  104326:	6c2e      	ldr	r6, [r5, #64]	; 0x40
  104328:	b146      	cbz	r6, 10433c <svcRtxKernelInitialize+0xfc>
  10432a:	68f3      	ldr	r3, [r6, #12]
  10432c:	68b2      	ldr	r2, [r6, #8]
  10432e:	6831      	ldr	r1, [r6, #0]
  104330:	4630      	mov	r0, r6
  104332:	f000 f9b4 	bl	10469e <osRtxMemoryPoolInit>
  104336:	b108      	cbz	r0, 10433c <svcRtxKernelInitialize+0xfc>
  104338:	f8c4 6098 	str.w	r6, [r4, #152]	; 0x98
  10433c:	6c6e      	ldr	r6, [r5, #68]	; 0x44
  10433e:	b146      	cbz	r6, 104352 <svcRtxKernelInitialize+0x112>
  104340:	68f3      	ldr	r3, [r6, #12]
  104342:	68b2      	ldr	r2, [r6, #8]
  104344:	6831      	ldr	r1, [r6, #0]
  104346:	4630      	mov	r0, r6
  104348:	f000 f9a9 	bl	10469e <osRtxMemoryPoolInit>
  10434c:	b108      	cbz	r0, 104352 <svcRtxKernelInitialize+0x112>
  10434e:	f8c4 609c 	str.w	r6, [r4, #156]	; 0x9c
  104352:	6cae      	ldr	r6, [r5, #72]	; 0x48
  104354:	b146      	cbz	r6, 104368 <svcRtxKernelInitialize+0x128>
  104356:	68f3      	ldr	r3, [r6, #12]
  104358:	68b2      	ldr	r2, [r6, #8]
  10435a:	6831      	ldr	r1, [r6, #0]
  10435c:	4630      	mov	r0, r6
  10435e:	f000 f99e 	bl	10469e <osRtxMemoryPoolInit>
  104362:	b108      	cbz	r0, 104368 <svcRtxKernelInitialize+0x128>
  104364:	f8c4 60a0 	str.w	r6, [r4, #160]	; 0xa0
  104368:	6cee      	ldr	r6, [r5, #76]	; 0x4c
  10436a:	b146      	cbz	r6, 10437e <svcRtxKernelInitialize+0x13e>
  10436c:	68f3      	ldr	r3, [r6, #12]
  10436e:	68b2      	ldr	r2, [r6, #8]
  104370:	6831      	ldr	r1, [r6, #0]
  104372:	4630      	mov	r0, r6
  104374:	f000 f993 	bl	10469e <osRtxMemoryPoolInit>
  104378:	b108      	cbz	r0, 10437e <svcRtxKernelInitialize+0x13e>
  10437a:	f8c4 60a4 	str.w	r6, [r4, #164]	; 0xa4
  10437e:	6d2d      	ldr	r5, [r5, #80]	; 0x50
  104380:	b145      	cbz	r5, 104394 <svcRtxKernelInitialize+0x154>
  104382:	68eb      	ldr	r3, [r5, #12]
  104384:	68aa      	ldr	r2, [r5, #8]
  104386:	6829      	ldr	r1, [r5, #0]
  104388:	4628      	mov	r0, r5
  10438a:	f000 f988 	bl	10469e <osRtxMemoryPoolInit>
  10438e:	b108      	cbz	r0, 104394 <svcRtxKernelInitialize+0x154>
  104390:	f8c4 50a8 	str.w	r5, [r4, #168]	; 0xa8
  104394:	4a10      	ldr	r2, [pc, #64]	; (1043d8 <svcRtxKernelInitialize+0x198>)
  104396:	23ff      	movs	r3, #255	; 0xff
  104398:	f882 3022 	strb.w	r3, [r2, #34]	; 0x22
  10439c:	f892 3022 	ldrb.w	r3, [r2, #34]	; 0x22
  1043a0:	68d1      	ldr	r1, [r2, #12]
  1043a2:	f063 03ff 	orn	r3, r3, #255	; 0xff
  1043a6:	43db      	mvns	r3, r3
  1043a8:	fab3 f383 	clz	r3, r3
  1043ac:	f3c1 2102 	ubfx	r1, r1, #8, #3
  1043b0:	f1c3 0320 	rsb	r3, r3, #32
  1043b4:	428b      	cmp	r3, r1
  1043b6:	bf98      	it	ls
  1043b8:	1c4b      	addls	r3, r1, #1
  1043ba:	21fe      	movs	r1, #254	; 0xfe
  1043bc:	fa01 f303 	lsl.w	r3, r1, r3
  1043c0:	b2db      	uxtb	r3, r3
  1043c2:	77d3      	strb	r3, [r2, #31]
  1043c4:	2301      	movs	r3, #1
  1043c6:	7223      	strb	r3, [r4, #8]
  1043c8:	f7ff ff08 	bl	1041dc <EvrRtxKernelInitializeCompleted>
  1043cc:	2000      	movs	r0, #0
  1043ce:	bd70      	pop	{r4, r5, r6, pc}
  1043d0:	3fff63f8 	.word	0x3fff63f8
  1043d4:	0010ec10 	.word	0x0010ec10
  1043d8:	e000ed00 	.word	0xe000ed00

001043dc <svcRtxKernelGetState>:
  1043dc:	b510      	push	{r4, lr}
  1043de:	4c03      	ldr	r4, [pc, #12]	; (1043ec <svcRtxKernelGetState+0x10>)
  1043e0:	7a20      	ldrb	r0, [r4, #8]
  1043e2:	f7ff fefc 	bl	1041de <EvrRtxKernelGetState>
  1043e6:	7a20      	ldrb	r0, [r4, #8]
  1043e8:	bd10      	pop	{r4, pc}
  1043ea:	bf00      	nop
  1043ec:	3fff63f8 	.word	0x3fff63f8

001043f0 <svcRtxKernelStart>:
  1043f0:	b538      	push	{r3, r4, r5, lr}
  1043f2:	4c2a      	ldr	r4, [pc, #168]	; (10449c <svcRtxKernelStart+0xac>)
  1043f4:	7a23      	ldrb	r3, [r4, #8]
  1043f6:	2b01      	cmp	r3, #1
  1043f8:	d002      	beq.n	104400 <svcRtxKernelStart+0x10>
  1043fa:	f06f 0006 	mvn.w	r0, #6
  1043fe:	e00b      	b.n	104418 <svcRtxKernelStart+0x28>
  104400:	6b23      	ldr	r3, [r4, #48]	; 0x30
  104402:	4d27      	ldr	r5, [pc, #156]	; (1044a0 <svcRtxKernelStart+0xb0>)
  104404:	b96b      	cbnz	r3, 104422 <svcRtxKernelStart+0x32>
  104406:	6daa      	ldr	r2, [r5, #88]	; 0x58
  104408:	4619      	mov	r1, r3
  10440a:	4826      	ldr	r0, [pc, #152]	; (1044a4 <svcRtxKernelStart+0xb4>)
  10440c:	f001 fa80 	bl	105910 <svcRtxThreadNew>
  104410:	6320      	str	r0, [r4, #48]	; 0x30
  104412:	b930      	cbnz	r0, 104422 <svcRtxKernelStart+0x32>
  104414:	f04f 30ff 	mov.w	r0, #4294967295
  104418:	f7ff fede 	bl	1041d8 <EvrRtxKernelError>
  10441c:	f04f 30ff 	mov.w	r0, #4294967295
  104420:	bd38      	pop	{r3, r4, r5, pc}
  104422:	6e6b      	ldr	r3, [r5, #100]	; 0x64
  104424:	b15b      	cbz	r3, 10443e <svcRtxKernelStart+0x4e>
  104426:	6d23      	ldr	r3, [r4, #80]	; 0x50
  104428:	b94b      	cbnz	r3, 10443e <svcRtxKernelStart+0x4e>
  10442a:	4a1d      	ldr	r2, [pc, #116]	; (1044a0 <svcRtxKernelStart+0xb0>)
  10442c:	4619      	mov	r1, r3
  10442e:	6dd2      	ldr	r2, [r2, #92]	; 0x5c
  104430:	481d      	ldr	r0, [pc, #116]	; (1044a8 <svcRtxKernelStart+0xb8>)
  104432:	f001 fa6d 	bl	105910 <svcRtxThreadNew>
  104436:	4b19      	ldr	r3, [pc, #100]	; (10449c <svcRtxKernelStart+0xac>)
  104438:	6518      	str	r0, [r3, #80]	; 0x50
  10443a:	2800      	cmp	r0, #0
  10443c:	d0ea      	beq.n	104414 <svcRtxKernelStart+0x24>
  10443e:	481b      	ldr	r0, [pc, #108]	; (1044ac <svcRtxKernelStart+0xbc>)
  104440:	f001 f8db 	bl	1055fa <osRtxThreadListGet>
  104444:	2800      	cmp	r0, #0
  104446:	d0e5      	beq.n	104414 <svcRtxKernelStart+0x24>
  104448:	f001 f9f4 	bl	105834 <osRtxThreadSwitch>
  10444c:	682b      	ldr	r3, [r5, #0]
  10444e:	07db      	lsls	r3, r3, #31
  104450:	bf4c      	ite	mi
  104452:	2302      	movmi	r3, #2
  104454:	2303      	movpl	r3, #3
  104456:	f383 8814 	msr	CONTROL, r3
  10445a:	4b15      	ldr	r3, [pc, #84]	; (1044b0 <svcRtxKernelStart+0xc0>)
  10445c:	681b      	ldr	r3, [r3, #0]
  10445e:	60e3      	str	r3, [r4, #12]
  104460:	f000 ffb4 	bl	1053cc <osRtxSysTimerSetup>
  104464:	2800      	cmp	r0, #0
  104466:	61a0      	str	r0, [r4, #24]
  104468:	db0f      	blt.n	10448a <svcRtxKernelStart+0x9a>
  10446a:	f100 4360 	add.w	r3, r0, #3758096384	; 0xe0000000
  10446e:	f503 4361 	add.w	r3, r3, #57600	; 0xe100
  104472:	22ff      	movs	r2, #255	; 0xff
  104474:	f883 2300 	strb.w	r2, [r3, #768]	; 0x300
  104478:	1142      	asrs	r2, r0, #5
  10447a:	2301      	movs	r3, #1
  10447c:	f000 001f 	and.w	r0, r0, #31
  104480:	fa03 f000 	lsl.w	r0, r3, r0
  104484:	4b0b      	ldr	r3, [pc, #44]	; (1044b4 <svcRtxKernelStart+0xc4>)
  104486:	f843 0022 	str.w	r0, [r3, r2, lsl #2]
  10448a:	f000 ffb9 	bl	105400 <osRtxSysTimerEnable>
  10448e:	2302      	movs	r3, #2
  104490:	7223      	strb	r3, [r4, #8]
  104492:	f7ff fea6 	bl	1041e2 <EvrRtxKernelStarted>
  104496:	2000      	movs	r0, #0
  104498:	bd38      	pop	{r3, r4, r5, pc}
  10449a:	bf00      	nop
  10449c:	3fff63f8 	.word	0x3fff63f8
  1044a0:	0010ec10 	.word	0x0010ec10
  1044a4:	001040fd 	.word	0x001040fd
  1044a8:	00105d21 	.word	0x00105d21
  1044ac:	3fff641c 	.word	0x3fff641c
  1044b0:	3fff64a8 	.word	0x3fff64a8
  1044b4:	e000e100 	.word	0xe000e100

001044b8 <osKernelInitialize>:
  1044b8:	b508      	push	{r3, lr}
  1044ba:	f7ff fe8e 	bl	1041da <EvrRtxKernelInitialize>
  1044be:	f3ef 8305 	mrs	r3, IPSR
  1044c2:	b92b      	cbnz	r3, 1044d0 <osKernelInitialize+0x18>
  1044c4:	f3ef 8310 	mrs	r3, PRIMASK
  1044c8:	b913      	cbnz	r3, 1044d0 <osKernelInitialize+0x18>
  1044ca:	f3ef 8311 	mrs	r3, BASEPRI
  1044ce:	b133      	cbz	r3, 1044de <osKernelInitialize+0x26>
  1044d0:	f06f 0005 	mvn.w	r0, #5
  1044d4:	f7ff fe80 	bl	1041d8 <EvrRtxKernelError>
  1044d8:	f06f 0005 	mvn.w	r0, #5
  1044dc:	bd08      	pop	{r3, pc}
  1044de:	f8df c020 	ldr.w	r12, [pc, #32]	; 104500 <osKernelInitialize+0x48>
  1044e2:	f3ef 8314 	mrs	r3, CONTROL
  1044e6:	f013 0f02 	tst.w	r3, #2
  1044ea:	d106      	bne.n	1044fa <osKernelInitialize+0x42>
  1044ec:	f3ef 8308 	mrs	r3, MSP
  1044f0:	3b20      	subs	r3, #32
  1044f2:	f023 0307 	bic.w	r3, r3, #7
  1044f6:	f383 8809 	msr	PSP, r3
  1044fa:	df00      	svc	0
  1044fc:	bd08      	pop	{r3, pc}
  1044fe:	bf00      	nop
  104500:	00104241 	.word	0x00104241

00104504 <osKernelGetState>:
  104504:	b508      	push	{r3, lr}
  104506:	f3ef 8305 	mrs	r3, IPSR
  10450a:	b92b      	cbnz	r3, 104518 <osKernelGetState+0x14>
  10450c:	f3ef 8310 	mrs	r3, PRIMASK
  104510:	b913      	cbnz	r3, 104518 <osKernelGetState+0x14>
  104512:	f3ef 8311 	mrs	r3, BASEPRI
  104516:	b133      	cbz	r3, 104526 <osKernelGetState+0x22>
  104518:	f04f 30ff 	mov.w	r0, #4294967295
  10451c:	f7ff fe5f 	bl	1041de <EvrRtxKernelGetState>
  104520:	f04f 30ff 	mov.w	r0, #4294967295
  104524:	bd08      	pop	{r3, pc}
  104526:	f3ef 8314 	mrs	r3, CONTROL
  10452a:	07db      	lsls	r3, r3, #31
  10452c:	d403      	bmi.n	104536 <osKernelGetState+0x32>
  10452e:	e8bd 4008 	ldmia.w	sp!, {r3, lr}
  104532:	f7ff bf53 	b.w	1043dc <svcRtxKernelGetState>
  104536:	f8df c008 	ldr.w	r12, [pc, #8]	; 104540 <osKernelGetState+0x3c>
  10453a:	df00      	svc	0
  10453c:	bd08      	pop	{r3, pc}
  10453e:	bf00      	nop
  104540:	001043dd 	.word	0x001043dd

00104544 <osKernelStart>:
  104544:	b508      	push	{r3, lr}
  104546:	f7ff fe4b 	bl	1041e0 <EvrRtxKernelStart>
  10454a:	f3ef 8305 	mrs	r3, IPSR
  10454e:	b92b      	cbnz	r3, 10455c <osKernelStart+0x18>
  104550:	f3ef 8310 	mrs	r3, PRIMASK
  104554:	b913      	cbnz	r3, 10455c <osKernelStart+0x18>
  104556:	f3ef 8311 	mrs	r3, BASEPRI
  10455a:	b133      	cbz	r3, 10456a <osKernelStart+0x26>
  10455c:	f06f 0005 	mvn.w	r0, #5
  104560:	f7ff fe3a 	bl	1041d8 <EvrRtxKernelError>
  104564:	f06f 0005 	mvn.w	r0, #5
  104568:	bd08      	pop	{r3, pc}
  10456a:	f7ff ffcb 	bl	104504 <osKernelGetState>
  10456e:	2802      	cmp	r0, #2
  104570:	d005      	beq.n	10457e <osKernelStart+0x3a>
  104572:	4b0b      	ldr	r3, [pc, #44]	; (1045a0 <osKernelStart+0x5c>)
  104574:	681b      	ldr	r3, [r3, #0]
  104576:	b113      	cbz	r3, 10457e <osKernelStart+0x3a>
  104578:	685b      	ldr	r3, [r3, #4]
  10457a:	b103      	cbz	r3, 10457e <osKernelStart+0x3a>
  10457c:	4798      	blx	r3
  10457e:	f8df c024 	ldr.w	r12, [pc, #36]	; 1045a4 <osKernelStart+0x60>
  104582:	f3ef 8314 	mrs	r3, CONTROL
  104586:	f013 0f02 	tst.w	r3, #2
  10458a:	d106      	bne.n	10459a <osKernelStart+0x56>
  10458c:	f3ef 8308 	mrs	r3, MSP
  104590:	3b20      	subs	r3, #32
  104592:	f023 0307 	bic.w	r3, r3, #7
  104596:	f383 8809 	msr	PSP, r3
  10459a:	df00      	svc	0
  10459c:	bd08      	pop	{r3, pc}
  10459e:	bf00      	nop
  1045a0:	3fffad68 	.word	0x3fffad68
  1045a4:	001043f1 	.word	0x001043f1

001045a8 <osRtxMemoryInit>:
  1045a8:	b538      	push	{r3, r4, r5, lr}
  1045aa:	460c      	mov	r4, r1
  1045ac:	4603      	mov	r3, r0
  1045ae:	b130      	cbz	r0, 1045be <osRtxMemoryInit+0x16>
  1045b0:	ea40 0201 	orr.w	r2, r0, r1
  1045b4:	f012 0207 	ands.w	r2, r2, #7
  1045b8:	d101      	bne.n	1045be <osRtxMemoryInit+0x16>
  1045ba:	2917      	cmp	r1, #23
  1045bc:	d806      	bhi.n	1045cc <osRtxMemoryInit+0x24>
  1045be:	4618      	mov	r0, r3
  1045c0:	2200      	movs	r2, #0
  1045c2:	4621      	mov	r1, r4
  1045c4:	f7ff fe02 	bl	1041cc <EvrRtxMemoryInit>
  1045c8:	2000      	movs	r0, #0
  1045ca:	bd38      	pop	{r3, r4, r5, pc}
  1045cc:	f1a1 0408 	sub.w	r4, r1, #8
  1045d0:	2510      	movs	r5, #16
  1045d2:	6019      	str	r1, [r3, #0]
  1045d4:	6045      	str	r5, [r0, #4]
  1045d6:	1825      	adds	r5, r4, r0
  1045d8:	6085      	str	r5, [r0, #8]
  1045da:	5022      	str	r2, [r4, r0]
  1045dc:	60c2      	str	r2, [r0, #12]
  1045de:	2201      	movs	r2, #1
  1045e0:	f7ff fdf4 	bl	1041cc <EvrRtxMemoryInit>
  1045e4:	2001      	movs	r0, #1
  1045e6:	bd38      	pop	{r3, r4, r5, pc}

001045e8 <osRtxMemoryAlloc>:
  1045e8:	b5f8      	push	{r3, r4, r5, r6, r7, lr}
  1045ea:	b118      	cbz	r0, 1045f4 <osRtxMemoryAlloc+0xc>
  1045ec:	b111      	cbz	r1, 1045f4 <osRtxMemoryAlloc+0xc>
  1045ee:	f032 0303 	bics.w	r3, r2, #3
  1045f2:	d004      	beq.n	1045fe <osRtxMemoryAlloc+0x16>
  1045f4:	2300      	movs	r3, #0
  1045f6:	f7ff fdea 	bl	1041ce <EvrRtxMemoryAlloc>
  1045fa:	2000      	movs	r0, #0
  1045fc:	bdf8      	pop	{r3, r4, r5, r6, r7, pc}
  1045fe:	310f      	adds	r1, #15
  104600:	f021 0107 	bic.w	r1, r1, #7
  104604:	f100 0508 	add.w	r5, r0, #8
  104608:	682e      	ldr	r6, [r5, #0]
  10460a:	f8d5 e004 	ldr.w	lr, [r5, #4]
  10460e:	1b73      	subs	r3, r6, r5
  104610:	f02e 0403 	bic.w	r4, lr, #3
  104614:	1b1b      	subs	r3, r3, r4
  104616:	4299      	cmp	r1, r3
  104618:	d905      	bls.n	104626 <osRtxMemoryAlloc+0x3e>
  10461a:	6834      	ldr	r4, [r6, #0]
  10461c:	4635      	mov	r5, r6
  10461e:	2c00      	cmp	r4, #0
  104620:	d1f2      	bne.n	104608 <osRtxMemoryAlloc+0x20>
  104622:	4623      	mov	r3, r4
  104624:	e7e7      	b.n	1045f6 <osRtxMemoryAlloc+0xe>
  104626:	6843      	ldr	r3, [r0, #4]
  104628:	ea42 0701 	orr.w	r7, r2, r1
  10462c:	440b      	add	r3, r1
  10462e:	6043      	str	r3, [r0, #4]
  104630:	f1be 0f00 	cmp.w	lr, #0
  104634:	d103      	bne.n	10463e <osRtxMemoryAlloc+0x56>
  104636:	606f      	str	r7, [r5, #4]
  104638:	f105 0408 	add.w	r4, r5, #8
  10463c:	e005      	b.n	10464a <osRtxMemoryAlloc+0x62>
  10463e:	192b      	adds	r3, r5, r4
  104640:	512e      	str	r6, [r5, r4]
  104642:	605f      	str	r7, [r3, #4]
  104644:	f103 0408 	add.w	r4, r3, #8
  104648:	602b      	str	r3, [r5, #0]
  10464a:	4623      	mov	r3, r4
  10464c:	f7ff fdbf 	bl	1041ce <EvrRtxMemoryAlloc>
  104650:	4620      	mov	r0, r4
  104652:	bdf8      	pop	{r3, r4, r5, r6, r7, pc}

00104654 <osRtxMemoryFree>:
  104654:	b538      	push	{r3, r4, r5, lr}
  104656:	b100      	cbz	r0, 10465a <osRtxMemoryFree+0x6>
  104658:	b921      	cbnz	r1, 104664 <osRtxMemoryFree+0x10>
  10465a:	2200      	movs	r2, #0
  10465c:	f7ff fdb8 	bl	1041d0 <EvrRtxMemoryFree>
  104660:	2000      	movs	r0, #0
  104662:	bd38      	pop	{r3, r4, r5, pc}
  104664:	f1a1 0508 	sub.w	r5, r1, #8
  104668:	f100 0308 	add.w	r3, r0, #8
  10466c:	2200      	movs	r2, #0
  10466e:	42ab      	cmp	r3, r5
  104670:	d005      	beq.n	10467e <osRtxMemoryFree+0x2a>
  104672:	681c      	ldr	r4, [r3, #0]
  104674:	461a      	mov	r2, r3
  104676:	2c00      	cmp	r4, #0
  104678:	d0ef      	beq.n	10465a <osRtxMemoryFree+0x6>
  10467a:	4623      	mov	r3, r4
  10467c:	e7f7      	b.n	10466e <osRtxMemoryFree+0x1a>
  10467e:	685c      	ldr	r4, [r3, #4]
  104680:	f024 0503 	bic.w	r5, r4, #3
  104684:	6844      	ldr	r4, [r0, #4]
  104686:	1b64      	subs	r4, r4, r5
  104688:	6044      	str	r4, [r0, #4]
  10468a:	b90a      	cbnz	r2, 104690 <osRtxMemoryFree+0x3c>
  10468c:	605a      	str	r2, [r3, #4]
  10468e:	e001      	b.n	104694 <osRtxMemoryFree+0x40>
  104690:	681b      	ldr	r3, [r3, #0]
  104692:	6013      	str	r3, [r2, #0]
  104694:	2201      	movs	r2, #1
  104696:	f7ff fd9b 	bl	1041d0 <EvrRtxMemoryFree>
  10469a:	2001      	movs	r0, #1
  10469c:	bd38      	pop	{r3, r4, r5, pc}

0010469e <osRtxMemoryPoolInit>:
  10469e:	e92d 41f0 	stmdb	sp!, {r4, r5, r6, r7, r8, lr}
  1046a2:	460d      	mov	r5, r1
  1046a4:	4617      	mov	r7, r2
  1046a6:	461c      	mov	r4, r3
  1046a8:	4606      	mov	r6, r0
  1046aa:	b1f8      	cbz	r0, 1046ec <osRtxMemoryPoolInit+0x4e>
  1046ac:	b301      	cbz	r1, 1046f0 <osRtxMemoryPoolInit+0x52>
  1046ae:	b312      	cbz	r2, 1046f6 <osRtxMemoryPoolInit+0x58>
  1046b0:	b323      	cbz	r3, 1046fc <osRtxMemoryPoolInit+0x5e>
  1046b2:	fb02 f801 	mul.w	r8, r2, r1
  1046b6:	f04f 0e00 	mov.w	lr, #0
  1046ba:	6031      	str	r1, [r6, #0]
  1046bc:	f8c0 e004 	str.w	lr, [r0, #4]
  1046c0:	eb03 0e08 	add.w	lr, r3, r8
  1046c4:	60f3      	str	r3, [r6, #12]
  1046c6:	6173      	str	r3, [r6, #20]
  1046c8:	60b2      	str	r2, [r6, #8]
  1046ca:	f8c0 e010 	str.w	lr, [r0, #16]
  1046ce:	f7ff fd80 	bl	1041d2 <EvrRtxMemoryBlockInit>
  1046d2:	4623      	mov	r3, r4
  1046d4:	3d01      	subs	r5, #1
  1046d6:	d003      	beq.n	1046e0 <osRtxMemoryPoolInit+0x42>
  1046d8:	19da      	adds	r2, r3, r7
  1046da:	601a      	str	r2, [r3, #0]
  1046dc:	4613      	mov	r3, r2
  1046de:	e7f9      	b.n	1046d4 <osRtxMemoryPoolInit+0x36>
  1046e0:	ebc7 0008 	rsb	r0, r7, r8
  1046e4:	5025      	str	r5, [r4, r0]
  1046e6:	2001      	movs	r0, #1
  1046e8:	e8bd 81f0 	ldmia.w	sp!, {r4, r5, r6, r7, r8, pc}
  1046ec:	e8bd 81f0 	ldmia.w	sp!, {r4, r5, r6, r7, r8, pc}
  1046f0:	4608      	mov	r0, r1
  1046f2:	e8bd 81f0 	ldmia.w	sp!, {r4, r5, r6, r7, r8, pc}
  1046f6:	4610      	mov	r0, r2
  1046f8:	e8bd 81f0 	ldmia.w	sp!, {r4, r5, r6, r7, r8, pc}
  1046fc:	4618      	mov	r0, r3
  1046fe:	e8bd 81f0 	ldmia.w	sp!, {r4, r5, r6, r7, r8, pc}

00104702 <osRtxMemoryPoolAlloc>:
  104702:	b538      	push	{r3, r4, r5, lr}
  104704:	4605      	mov	r5, r0
  104706:	b920      	cbnz	r0, 104712 <osRtxMemoryPoolAlloc+0x10>
  104708:	4601      	mov	r1, r0
  10470a:	f7ff fd63 	bl	1041d4 <EvrRtxMemoryBlockAlloc>
  10470e:	4628      	mov	r0, r5
  104710:	bd38      	pop	{r3, r4, r5, pc}
  104712:	1d03      	adds	r3, r0, #4
  104714:	6802      	ldr	r2, [r0, #0]
  104716:	e853 1f00 	ldrex	r1, [r3]
  10471a:	428a      	cmp	r2, r1
  10471c:	d802      	bhi.n	104724 <osRtxMemoryPoolAlloc+0x22>
  10471e:	f3bf 8f2f 	clrex
  104722:	e004      	b.n	10472e <osRtxMemoryPoolAlloc+0x2c>
  104724:	1c48      	adds	r0, r1, #1
  104726:	e843 0400 	strex	r4, r0, [r3]
  10472a:	b104      	cbz	r4, 10472e <osRtxMemoryPoolAlloc+0x2c>
  10472c:	e7f3      	b.n	104716 <osRtxMemoryPoolAlloc+0x14>
  10472e:	682b      	ldr	r3, [r5, #0]
  104730:	428b      	cmp	r3, r1
  104732:	d90e      	bls.n	104752 <osRtxMemoryPoolAlloc+0x50>
  104734:	f105 0314 	add.w	r3, r5, #20
  104738:	e853 0f00 	ldrex	r0, [r3]
  10473c:	b910      	cbnz	r0, 104744 <osRtxMemoryPoolAlloc+0x42>
  10473e:	f3bf 8f2f 	clrex
  104742:	e004      	b.n	10474e <osRtxMemoryPoolAlloc+0x4c>
  104744:	6802      	ldr	r2, [r0, #0]
  104746:	e843 2100 	strex	r1, r2, [r3]
  10474a:	b101      	cbz	r1, 10474e <osRtxMemoryPoolAlloc+0x4c>
  10474c:	e7f4      	b.n	104738 <osRtxMemoryPoolAlloc+0x36>
  10474e:	4604      	mov	r4, r0
  104750:	e000      	b.n	104754 <osRtxMemoryPoolAlloc+0x52>
  104752:	2400      	movs	r4, #0
  104754:	4628      	mov	r0, r5
  104756:	4621      	mov	r1, r4
  104758:	f7ff fd3c 	bl	1041d4 <EvrRtxMemoryBlockAlloc>
  10475c:	4620      	mov	r0, r4
  10475e:	bd38      	pop	{r3, r4, r5, pc}

00104760 <osRtxMemoryPoolFree>:
  104760:	b538      	push	{r3, r4, r5, lr}
  104762:	b128      	cbz	r0, 104770 <osRtxMemoryPoolFree+0x10>
  104764:	68c3      	ldr	r3, [r0, #12]
  104766:	428b      	cmp	r3, r1
  104768:	d802      	bhi.n	104770 <osRtxMemoryPoolFree+0x10>
  10476a:	6903      	ldr	r3, [r0, #16]
  10476c:	4299      	cmp	r1, r3
  10476e:	d306      	bcc.n	10477e <osRtxMemoryPoolFree+0x1e>
  104770:	f06f 0203 	mvn.w	r2, #3
  104774:	f7ff fd2f 	bl	1041d6 <EvrRtxMemoryBlockFree>
  104778:	f06f 0003 	mvn.w	r0, #3
  10477c:	bd38      	pop	{r3, r4, r5, pc}
  10477e:	1d03      	adds	r3, r0, #4
  104780:	e853 2f00 	ldrex	r2, [r3]
  104784:	b912      	cbnz	r2, 10478c <osRtxMemoryPoolFree+0x2c>
  104786:	f3bf 8f2f 	clrex
  10478a:	e004      	b.n	104796 <osRtxMemoryPoolFree+0x36>
  10478c:	1e54      	subs	r4, r2, #1
  10478e:	e843 4500 	strex	r5, r4, [r3]
  104792:	b105      	cbz	r5, 104796 <osRtxMemoryPoolFree+0x36>
  104794:	e7f4      	b.n	104780 <osRtxMemoryPoolFree+0x20>
  104796:	b182      	cbz	r2, 1047ba <osRtxMemoryPoolFree+0x5a>
  104798:	f100 0314 	add.w	r3, r0, #20
  10479c:	681a      	ldr	r2, [r3, #0]
  10479e:	600a      	str	r2, [r1, #0]
  1047a0:	f3bf 8f5f 	dmb	sy
  1047a4:	e853 2f00 	ldrex	r2, [r3]
  1047a8:	680c      	ldr	r4, [r1, #0]
  1047aa:	4294      	cmp	r4, r2
  1047ac:	d1f6      	bne.n	10479c <osRtxMemoryPoolFree+0x3c>
  1047ae:	e843 1500 	strex	r5, r1, [r3]
  1047b2:	b105      	cbz	r5, 1047b6 <osRtxMemoryPoolFree+0x56>
  1047b4:	e7f2      	b.n	10479c <osRtxMemoryPoolFree+0x3c>
  1047b6:	2400      	movs	r4, #0
  1047b8:	e001      	b.n	1047be <osRtxMemoryPoolFree+0x5e>
  1047ba:	f06f 0402 	mvn.w	r4, #2
  1047be:	4622      	mov	r2, r4
  1047c0:	f7ff fd09 	bl	1041d6 <EvrRtxMemoryBlockFree>
  1047c4:	4620      	mov	r0, r4
  1047c6:	bd38      	pop	{r3, r4, r5, pc}

001047c8 <MessageQueuePut>:
  1047c8:	6b03      	ldr	r3, [r0, #48]	; 0x30
  1047ca:	b530      	push	{r4, r5, lr}
  1047cc:	b1a3      	cbz	r3, 1047f8 <MessageQueuePut+0x30>
  1047ce:	78cd      	ldrb	r5, [r1, #3]
  1047d0:	2400      	movs	r4, #0
  1047d2:	78da      	ldrb	r2, [r3, #3]
  1047d4:	42aa      	cmp	r2, r5
  1047d6:	d204      	bcs.n	1047e2 <MessageQueuePut+0x1a>
  1047d8:	685a      	ldr	r2, [r3, #4]
  1047da:	461c      	mov	r4, r3
  1047dc:	b11a      	cbz	r2, 1047e6 <MessageQueuePut+0x1e>
  1047de:	4613      	mov	r3, r2
  1047e0:	e7f7      	b.n	1047d2 <MessageQueuePut+0xa>
  1047e2:	461a      	mov	r2, r3
  1047e4:	4623      	mov	r3, r4
  1047e6:	604a      	str	r2, [r1, #4]
  1047e8:	608b      	str	r3, [r1, #8]
  1047ea:	b10a      	cbz	r2, 1047f0 <MessageQueuePut+0x28>
  1047ec:	6091      	str	r1, [r2, #8]
  1047ee:	e000      	b.n	1047f2 <MessageQueuePut+0x2a>
  1047f0:	62c1      	str	r1, [r0, #44]	; 0x2c
  1047f2:	b123      	cbz	r3, 1047fe <MessageQueuePut+0x36>
  1047f4:	6059      	str	r1, [r3, #4]
  1047f6:	e003      	b.n	104800 <MessageQueuePut+0x38>
  1047f8:	604b      	str	r3, [r1, #4]
  1047fa:	608b      	str	r3, [r1, #8]
  1047fc:	62c1      	str	r1, [r0, #44]	; 0x2c
  1047fe:	6301      	str	r1, [r0, #48]	; 0x30
  104800:	3028      	adds	r0, #40	; 0x28
  104802:	e850 3f00 	ldrex	r3, [r0]
  104806:	1c5a      	adds	r2, r3, #1
  104808:	e840 2100 	strex	r1, r2, [r0]
  10480c:	b101      	cbz	r1, 104810 <MessageQueuePut+0x48>
  10480e:	e7f8      	b.n	104802 <MessageQueuePut+0x3a>
  104810:	bd30      	pop	{r4, r5, pc}

00104812 <MessageQueueRemove>:
  104812:	684b      	ldr	r3, [r1, #4]
  104814:	688a      	ldr	r2, [r1, #8]
  104816:	b10b      	cbz	r3, 10481c <MessageQueueRemove+0xa>
  104818:	609a      	str	r2, [r3, #8]
  10481a:	e000      	b.n	10481e <MessageQueueRemove+0xc>
  10481c:	62c2      	str	r2, [r0, #44]	; 0x2c
  10481e:	688a      	ldr	r2, [r1, #8]
  104820:	b10a      	cbz	r2, 104826 <MessageQueueRemove+0x14>
  104822:	6053      	str	r3, [r2, #4]
  104824:	4770      	bx	lr
  104826:	6303      	str	r3, [r0, #48]	; 0x30
  104828:	4770      	bx	lr
	...

0010482c <svcRtxMessageQueueNew>:
  10482c:	e92d 4ff7 	stmdb	sp!, {r0, r1, r2, r4, r5, r6, r7, r8, r9, r10, r11, lr}
  104830:	4680      	mov	r8, r0
  104832:	b100      	cbz	r0, 104836 <svcRtxMessageQueueNew+0xa>
  104834:	b931      	cbnz	r1, 104844 <svcRtxMessageQueueNew+0x18>
  104836:	f06f 0103 	mvn.w	r1, #3
  10483a:	2000      	movs	r0, #0
  10483c:	f7ff fcf1 	bl	104222 <EvrRtxMessageQueueError>
  104840:	2000      	movs	r0, #0
  104842:	e08e      	b.n	104962 <svcRtxMessageQueueNew+0x136>
  104844:	3103      	adds	r1, #3
  104846:	f021 0303 	bic.w	r3, r1, #3
  10484a:	f103 090c 	add.w	r9, r3, #12
  10484e:	9301      	str	r3, [sp, #4]
  104850:	fab9 f189 	clz	r1, r9
  104854:	fab0 f380 	clz	r3, r0
  104858:	440b      	add	r3, r1
  10485a:	2b1f      	cmp	r3, #31
  10485c:	ddeb      	ble.n	104836 <svcRtxMessageQueueNew+0xa>
  10485e:	fb09 fa00 	mul.w	r10, r9, r0
  104862:	b1e2      	cbz	r2, 10489e <svcRtxMessageQueueNew+0x72>
  104864:	6894      	ldr	r4, [r2, #8]
  104866:	f8d2 b000 	ldr.w	r11, [r2]
  10486a:	6916      	ldr	r6, [r2, #16]
  10486c:	6950      	ldr	r0, [r2, #20]
  10486e:	b13c      	cbz	r4, 104880 <svcRtxMessageQueueNew+0x54>
  104870:	07a3      	lsls	r3, r4, #30
  104872:	d102      	bne.n	10487a <svcRtxMessageQueueNew+0x4e>
  104874:	68d3      	ldr	r3, [r2, #12]
  104876:	2b33      	cmp	r3, #51	; 0x33
  104878:	d805      	bhi.n	104886 <svcRtxMessageQueueNew+0x5a>
  10487a:	f06f 0108 	mvn.w	r1, #8
  10487e:	e7dc      	b.n	10483a <svcRtxMessageQueueNew+0xe>
  104880:	68d3      	ldr	r3, [r2, #12]
  104882:	2b00      	cmp	r3, #0
  104884:	d1f9      	bne.n	10487a <svcRtxMessageQueueNew+0x4e>
  104886:	b13e      	cbz	r6, 104898 <svcRtxMessageQueueNew+0x6c>
  104888:	f016 0303 	ands.w	r3, r6, #3
  10488c:	d101      	bne.n	104892 <svcRtxMessageQueueNew+0x66>
  10488e:	4582      	cmp	r10, r0
  104890:	d95f      	bls.n	104952 <svcRtxMessageQueueNew+0x126>
  104892:	f06f 0109 	mvn.w	r1, #9
  104896:	e7d0      	b.n	10483a <svcRtxMessageQueueNew+0xe>
  104898:	2800      	cmp	r0, #0
  10489a:	d05e      	beq.n	10495a <svcRtxMessageQueueNew+0x12e>
  10489c:	e7f9      	b.n	104892 <svcRtxMessageQueueNew+0x66>
  10489e:	4693      	mov	r11, r2
  1048a0:	4616      	mov	r6, r2
  1048a2:	4b31      	ldr	r3, [pc, #196]	; (104968 <svcRtxMessageQueueNew+0x13c>)
  1048a4:	f8d3 00a8 	ldr.w	r0, [r3, #168]	; 0xa8
  1048a8:	b110      	cbz	r0, 1048b0 <svcRtxMessageQueueNew+0x84>
  1048aa:	f7ff ff2a 	bl	104702 <osRtxMemoryPoolAlloc>
  1048ae:	e005      	b.n	1048bc <svcRtxMessageQueueNew+0x90>
  1048b0:	2201      	movs	r2, #1
  1048b2:	2134      	movs	r1, #52	; 0x34
  1048b4:	f8d3 0088 	ldr.w	r0, [r3, #136]	; 0x88
  1048b8:	f7ff fe96 	bl	1045e8 <osRtxMemoryAlloc>
  1048bc:	4604      	mov	r4, r0
  1048be:	b920      	cbnz	r0, 1048ca <svcRtxMessageQueueNew+0x9e>
  1048c0:	f06f 0104 	mvn.w	r1, #4
  1048c4:	f7ff fcad 	bl	104222 <EvrRtxMessageQueueError>
  1048c8:	e041      	b.n	10494e <svcRtxMessageQueueNew+0x122>
  1048ca:	bb26      	cbnz	r6, 104916 <svcRtxMessageQueueNew+0xea>
  1048cc:	2501      	movs	r5, #1
  1048ce:	4f26      	ldr	r7, [pc, #152]	; (104968 <svcRtxMessageQueueNew+0x13c>)
  1048d0:	2200      	movs	r2, #0
  1048d2:	4651      	mov	r1, r10
  1048d4:	f8d7 0084 	ldr.w	r0, [r7, #132]	; 0x84
  1048d8:	f7ff fe86 	bl	1045e8 <osRtxMemoryAlloc>
  1048dc:	4606      	mov	r6, r0
  1048de:	b990      	cbnz	r0, 104906 <svcRtxMessageQueueNew+0xda>
  1048e0:	f06f 0104 	mvn.w	r1, #4
  1048e4:	f7ff fc9d 	bl	104222 <EvrRtxMessageQueueError>
  1048e8:	2d00      	cmp	r5, #0
  1048ea:	d0a9      	beq.n	104840 <svcRtxMessageQueueNew+0x14>
  1048ec:	f8d7 50a8 	ldr.w	r5, [r7, #168]	; 0xa8
  1048f0:	4621      	mov	r1, r4
  1048f2:	b11d      	cbz	r5, 1048fc <svcRtxMessageQueueNew+0xd0>
  1048f4:	4628      	mov	r0, r5
  1048f6:	f7ff ff33 	bl	104760 <osRtxMemoryPoolFree>
  1048fa:	e7a1      	b.n	104840 <svcRtxMessageQueueNew+0x14>
  1048fc:	f8d7 0088 	ldr.w	r0, [r7, #136]	; 0x88
  104900:	f7ff fea8 	bl	104654 <osRtxMemoryFree>
  104904:	e79c      	b.n	104840 <svcRtxMessageQueueNew+0x14>
  104906:	4652      	mov	r2, r10
  104908:	2100      	movs	r1, #0
  10490a:	f005 f941 	bl	109b90 <memset>
  10490e:	f045 0002 	orr.w	r0, r5, #2
  104912:	b2c0      	uxtb	r0, r0
  104914:	e000      	b.n	104918 <svcRtxMessageQueueNew+0xec>
  104916:	2001      	movs	r0, #1
  104918:	2308      	movs	r3, #8
  10491a:	9a01      	ldr	r2, [sp, #4]
  10491c:	7023      	strb	r3, [r4, #0]
  10491e:	2301      	movs	r3, #1
  104920:	7063      	strb	r3, [r4, #1]
  104922:	2300      	movs	r3, #0
  104924:	70a0      	strb	r0, [r4, #2]
  104926:	60a3      	str	r3, [r4, #8]
  104928:	6262      	str	r2, [r4, #36]	; 0x24
  10492a:	62a3      	str	r3, [r4, #40]	; 0x28
  10492c:	62e3      	str	r3, [r4, #44]	; 0x2c
  10492e:	6323      	str	r3, [r4, #48]	; 0x30
  104930:	464a      	mov	r2, r9
  104932:	4633      	mov	r3, r6
  104934:	f8c4 b004 	str.w	r11, [r4, #4]
  104938:	4641      	mov	r1, r8
  10493a:	f104 000c 	add.w	r0, r4, #12
  10493e:	f7ff feae 	bl	10469e <osRtxMemoryPoolInit>
  104942:	4a0a      	ldr	r2, [pc, #40]	; (10496c <svcRtxMessageQueueNew+0x140>)
  104944:	4b08      	ldr	r3, [pc, #32]	; (104968 <svcRtxMessageQueueNew+0x13c>)
  104946:	4620      	mov	r0, r4
  104948:	679a      	str	r2, [r3, #120]	; 0x78
  10494a:	f7ff fc6c 	bl	104226 <EvrRtxMessageQueueCreated>
  10494e:	4620      	mov	r0, r4
  104950:	e007      	b.n	104962 <svcRtxMessageQueueNew+0x136>
  104952:	2c00      	cmp	r4, #0
  104954:	d0a5      	beq.n	1048a2 <svcRtxMessageQueueNew+0x76>
  104956:	4618      	mov	r0, r3
  104958:	e7de      	b.n	104918 <svcRtxMessageQueueNew+0xec>
  10495a:	2c00      	cmp	r4, #0
  10495c:	d0a1      	beq.n	1048a2 <svcRtxMessageQueueNew+0x76>
  10495e:	4605      	mov	r5, r0
  104960:	e7b5      	b.n	1048ce <svcRtxMessageQueueNew+0xa2>
  104962:	b003      	add	sp, #12
  104964:	e8bd 8ff0 	ldmia.w	sp!, {r4, r5, r6, r7, r8, r9, r10, r11, pc}
  104968:	3fff63f8 	.word	0x3fff63f8
  10496c:	00104a6d 	.word	0x00104a6d

00104970 <svcRtxMessageQueuePut>:
  104970:	e92d 41f0 	stmdb	sp!, {r4, r5, r6, r7, r8, lr}
  104974:	460e      	mov	r6, r1
  104976:	4690      	mov	r8, r2
  104978:	461d      	mov	r5, r3
  10497a:	4604      	mov	r4, r0
  10497c:	b118      	cbz	r0, 104986 <svcRtxMessageQueuePut+0x16>
  10497e:	7803      	ldrb	r3, [r0, #0]
  104980:	2b08      	cmp	r3, #8
  104982:	d100      	bne.n	104986 <svcRtxMessageQueuePut+0x16>
  104984:	b941      	cbnz	r1, 104998 <svcRtxMessageQueuePut+0x28>
  104986:	4620      	mov	r0, r4
  104988:	f06f 0103 	mvn.w	r1, #3
  10498c:	f7ff fc49 	bl	104222 <EvrRtxMessageQueueError>
  104990:	f06f 0003 	mvn.w	r0, #3
  104994:	e8bd 81f0 	ldmia.w	sp!, {r4, r5, r6, r7, r8, pc}
  104998:	7843      	ldrb	r3, [r0, #1]
  10499a:	b923      	cbnz	r3, 1049a6 <svcRtxMessageQueuePut+0x36>
  10499c:	f06f 0102 	mvn.w	r1, #2
  1049a0:	f7ff fc3f 	bl	104222 <EvrRtxMessageQueueError>
  1049a4:	e05c      	b.n	104a60 <svcRtxMessageQueuePut+0xf0>
  1049a6:	6883      	ldr	r3, [r0, #8]
  1049a8:	b303      	cbz	r3, 1049ec <svcRtxMessageQueuePut+0x7c>
  1049aa:	785b      	ldrb	r3, [r3, #1]
  1049ac:	2b83      	cmp	r3, #131	; 0x83
  1049ae:	d11d      	bne.n	1049ec <svcRtxMessageQueuePut+0x7c>
  1049b0:	f7ff fc3e 	bl	104230 <EvrRtxMessageQueueInserted>
  1049b4:	4620      	mov	r0, r4
  1049b6:	f000 fe20 	bl	1055fa <osRtxThreadListGet>
  1049ba:	4605      	mov	r5, r0
  1049bc:	2201      	movs	r2, #1
  1049be:	2100      	movs	r1, #0
  1049c0:	f000 ff76 	bl	1058b0 <osRtxThreadWaitExit>
  1049c4:	4628      	mov	r0, r5
  1049c6:	f000 fef7 	bl	1057b8 <osRtxThreadRegPtr>
  1049ca:	4605      	mov	r5, r0
  1049cc:	6a62      	ldr	r2, [r4, #36]	; 0x24
  1049ce:	4631      	mov	r1, r6
  1049d0:	6880      	ldr	r0, [r0, #8]
  1049d2:	f005 f8b7 	bl	109b44 <memcpy>
  1049d6:	68eb      	ldr	r3, [r5, #12]
  1049d8:	b10b      	cbz	r3, 1049de <svcRtxMessageQueuePut+0x6e>
  1049da:	f883 8000 	strb.w	r8, [r3]
  1049de:	4620      	mov	r0, r4
  1049e0:	68a9      	ldr	r1, [r5, #8]
  1049e2:	f7ff fc2a 	bl	10423a <EvrRtxMessageQueueRetrieved>
  1049e6:	2000      	movs	r0, #0
  1049e8:	e8bd 81f0 	ldmia.w	sp!, {r4, r5, r6, r7, r8, pc}
  1049ec:	f104 000c 	add.w	r0, r4, #12
  1049f0:	f7ff fe87 	bl	104702 <osRtxMemoryPoolAlloc>
  1049f4:	4607      	mov	r7, r0
  1049f6:	b1b8      	cbz	r0, 104a28 <svcRtxMessageQueuePut+0xb8>
  1049f8:	6a62      	ldr	r2, [r4, #36]	; 0x24
  1049fa:	4631      	mov	r1, r6
  1049fc:	300c      	adds	r0, #12
  1049fe:	f005 f8a1 	bl	109b44 <memcpy>
  104a02:	2307      	movs	r3, #7
  104a04:	703b      	strb	r3, [r7, #0]
  104a06:	2500      	movs	r5, #0
  104a08:	2301      	movs	r3, #1
  104a0a:	707b      	strb	r3, [r7, #1]
  104a0c:	4639      	mov	r1, r7
  104a0e:	4620      	mov	r0, r4
  104a10:	70bd      	strb	r5, [r7, #2]
  104a12:	f887 8003 	strb.w	r8, [r7, #3]
  104a16:	f7ff fed7 	bl	1047c8 <MessageQueuePut>
  104a1a:	4620      	mov	r0, r4
  104a1c:	4631      	mov	r1, r6
  104a1e:	f7ff fc07 	bl	104230 <EvrRtxMessageQueueInserted>
  104a22:	4628      	mov	r0, r5
  104a24:	e8bd 81f0 	ldmia.w	sp!, {r4, r5, r6, r7, r8, pc}
  104a28:	b1b5      	cbz	r5, 104a58 <svcRtxMessageQueuePut+0xe8>
  104a2a:	462a      	mov	r2, r5
  104a2c:	4631      	mov	r1, r6
  104a2e:	4620      	mov	r0, r4
  104a30:	f7ff fbfb 	bl	10422a <EvrRtxMessageQueuePutPending>
  104a34:	4b0c      	ldr	r3, [pc, #48]	; (104a68 <svcRtxMessageQueuePut+0xf8>)
  104a36:	4620      	mov	r0, r4
  104a38:	69d9      	ldr	r1, [r3, #28]
  104a3a:	f000 fdcb 	bl	1055d4 <osRtxThreadListPut>
  104a3e:	4629      	mov	r1, r5
  104a40:	2093      	movs	r0, #147	; 0x93
  104a42:	f001 f867 	bl	105b14 <osRtxThreadWaitEnter>
  104a46:	f3ef 8309 	mrs	r3, PSP
  104a4a:	f06f 0001 	mvn.w	r0, #1
  104a4e:	609e      	str	r6, [r3, #8]
  104a50:	f8c3 800c 	str.w	r8, [r3, #12]
  104a54:	e8bd 81f0 	ldmia.w	sp!, {r4, r5, r6, r7, r8, pc}
  104a58:	4631      	mov	r1, r6
  104a5a:	4620      	mov	r0, r4
  104a5c:	f7ff fbe9 	bl	104232 <EvrRtxMessageQueueNotInserted>
  104a60:	f06f 0002 	mvn.w	r0, #2
  104a64:	e8bd 81f0 	ldmia.w	sp!, {r4, r5, r6, r7, r8, pc}
  104a68:	3fff63f8 	.word	0x3fff63f8

00104a6c <osRtxMessageQueuePostProcess>:
  104a6c:	b5f8      	push	{r3, r4, r5, r6, r7, lr}
  104a6e:	7843      	ldrb	r3, [r0, #1]
  104a70:	4604      	mov	r4, r0
  104a72:	2b00      	cmp	r3, #0
  104a74:	d07a      	beq.n	104b6c <osRtxMessageQueuePostProcess+0x100>
  104a76:	7886      	ldrb	r6, [r0, #2]
  104a78:	2e00      	cmp	r6, #0
  104a7a:	d03e      	beq.n	104afa <osRtxMessageQueuePostProcess+0x8e>
  104a7c:	68c5      	ldr	r5, [r0, #12]
  104a7e:	786b      	ldrb	r3, [r5, #1]
  104a80:	2b00      	cmp	r3, #0
  104a82:	d073      	beq.n	104b6c <osRtxMessageQueuePostProcess+0x100>
  104a84:	4601      	mov	r1, r0
  104a86:	2600      	movs	r6, #0
  104a88:	4628      	mov	r0, r5
  104a8a:	f105 070c 	add.w	r7, r5, #12
  104a8e:	f7ff fec0 	bl	104812 <MessageQueueRemove>
  104a92:	7066      	strb	r6, [r4, #1]
  104a94:	4621      	mov	r1, r4
  104a96:	4638      	mov	r0, r7
  104a98:	f7ff fe62 	bl	104760 <osRtxMemoryPoolFree>
  104a9c:	68ab      	ldr	r3, [r5, #8]
  104a9e:	2b00      	cmp	r3, #0
  104aa0:	d064      	beq.n	104b6c <osRtxMessageQueuePostProcess+0x100>
  104aa2:	785b      	ldrb	r3, [r3, #1]
  104aa4:	2b93      	cmp	r3, #147	; 0x93
  104aa6:	d161      	bne.n	104b6c <osRtxMessageQueuePostProcess+0x100>
  104aa8:	4638      	mov	r0, r7
  104aaa:	f7ff fe2a 	bl	104702 <osRtxMemoryPoolAlloc>
  104aae:	4604      	mov	r4, r0
  104ab0:	2800      	cmp	r0, #0
  104ab2:	d05b      	beq.n	104b6c <osRtxMessageQueuePostProcess+0x100>
  104ab4:	4628      	mov	r0, r5
  104ab6:	f000 fda0 	bl	1055fa <osRtxThreadListGet>
  104aba:	4607      	mov	r7, r0
  104abc:	4632      	mov	r2, r6
  104abe:	4631      	mov	r1, r6
  104ac0:	f000 fef6 	bl	1058b0 <osRtxThreadWaitExit>
  104ac4:	4638      	mov	r0, r7
  104ac6:	f000 fe77 	bl	1057b8 <osRtxThreadRegPtr>
  104aca:	4607      	mov	r7, r0
  104acc:	6a6a      	ldr	r2, [r5, #36]	; 0x24
  104ace:	6881      	ldr	r1, [r0, #8]
  104ad0:	f104 000c 	add.w	r0, r4, #12
  104ad4:	f005 f836 	bl	109b44 <memcpy>
  104ad8:	2307      	movs	r3, #7
  104ada:	7023      	strb	r3, [r4, #0]
  104adc:	2301      	movs	r3, #1
  104ade:	7063      	strb	r3, [r4, #1]
  104ae0:	70a6      	strb	r6, [r4, #2]
  104ae2:	68fb      	ldr	r3, [r7, #12]
  104ae4:	4621      	mov	r1, r4
  104ae6:	4628      	mov	r0, r5
  104ae8:	70e3      	strb	r3, [r4, #3]
  104aea:	f7ff fe6d 	bl	1047c8 <MessageQueuePut>
  104aee:	68b9      	ldr	r1, [r7, #8]
  104af0:	4628      	mov	r0, r5
  104af2:	e8bd 40f8 	ldmia.w	sp!, {r3, r4, r5, r6, r7, lr}
  104af6:	f7ff bb9b 	b.w	104230 <EvrRtxMessageQueueInserted>
  104afa:	6885      	ldr	r5, [r0, #8]
  104afc:	786b      	ldrb	r3, [r5, #1]
  104afe:	b3ab      	cbz	r3, 104b6c <osRtxMessageQueuePostProcess+0x100>
  104b00:	68ab      	ldr	r3, [r5, #8]
  104b02:	b34b      	cbz	r3, 104b58 <osRtxMessageQueuePostProcess+0xec>
  104b04:	785b      	ldrb	r3, [r3, #1]
  104b06:	2b83      	cmp	r3, #131	; 0x83
  104b08:	d126      	bne.n	104b58 <osRtxMessageQueuePostProcess+0xec>
  104b0a:	6841      	ldr	r1, [r0, #4]
  104b0c:	4628      	mov	r0, r5
  104b0e:	f7ff fb8f 	bl	104230 <EvrRtxMessageQueueInserted>
  104b12:	4628      	mov	r0, r5
  104b14:	f000 fd71 	bl	1055fa <osRtxThreadListGet>
  104b18:	4607      	mov	r7, r0
  104b1a:	4632      	mov	r2, r6
  104b1c:	4631      	mov	r1, r6
  104b1e:	f000 fec7 	bl	1058b0 <osRtxThreadWaitExit>
  104b22:	4638      	mov	r0, r7
  104b24:	f000 fe48 	bl	1057b8 <osRtxThreadRegPtr>
  104b28:	4606      	mov	r6, r0
  104b2a:	6a6a      	ldr	r2, [r5, #36]	; 0x24
  104b2c:	f104 010c 	add.w	r1, r4, #12
  104b30:	6880      	ldr	r0, [r0, #8]
  104b32:	f005 f807 	bl	109b44 <memcpy>
  104b36:	68f3      	ldr	r3, [r6, #12]
  104b38:	b10b      	cbz	r3, 104b3e <osRtxMessageQueuePostProcess+0xd2>
  104b3a:	78e2      	ldrb	r2, [r4, #3]
  104b3c:	701a      	strb	r2, [r3, #0]
  104b3e:	68b1      	ldr	r1, [r6, #8]
  104b40:	4628      	mov	r0, r5
  104b42:	f7ff fb7a 	bl	10423a <EvrRtxMessageQueueRetrieved>
  104b46:	2300      	movs	r3, #0
  104b48:	7063      	strb	r3, [r4, #1]
  104b4a:	4621      	mov	r1, r4
  104b4c:	f105 000c 	add.w	r0, r5, #12
  104b50:	e8bd 40f8 	ldmia.w	sp!, {r3, r4, r5, r6, r7, lr}
  104b54:	f7ff be04 	b.w	104760 <osRtxMemoryPoolFree>
  104b58:	6861      	ldr	r1, [r4, #4]
  104b5a:	4628      	mov	r0, r5
  104b5c:	f7ff fb68 	bl	104230 <EvrRtxMessageQueueInserted>
  104b60:	4621      	mov	r1, r4
  104b62:	4628      	mov	r0, r5
  104b64:	e8bd 40f8 	ldmia.w	sp!, {r3, r4, r5, r6, r7, lr}
  104b68:	f7ff be2e 	b.w	1047c8 <MessageQueuePut>
  104b6c:	bdf8      	pop	{r3, r4, r5, r6, r7, pc}

00104b6e <MessageQueueGet>:
  104b6e:	b510      	push	{r4, lr}
  104b70:	f100 0328 	add.w	r3, r0, #40	; 0x28
  104b74:	e853 2f00 	ldrex	r2, [r3]
  104b78:	b912      	cbnz	r2, 104b80 <MessageQueueGet+0x12>
  104b7a:	f3bf 8f2f 	clrex
  104b7e:	e004      	b.n	104b8a <MessageQueueGet+0x1c>
  104b80:	1e51      	subs	r1, r2, #1
  104b82:	e843 1400 	strex	r4, r1, [r3]
  104b86:	b104      	cbz	r4, 104b8a <MessageQueueGet+0x1c>
  104b88:	e7f4      	b.n	104b74 <MessageQueueGet+0x6>
  104b8a:	b90a      	cbnz	r2, 104b90 <MessageQueueGet+0x22>
  104b8c:	2000      	movs	r0, #0
  104b8e:	bd10      	pop	{r4, pc}
  104b90:	6ac0      	ldr	r0, [r0, #44]	; 0x2c
  104b92:	2301      	movs	r3, #1
  104b94:	2800      	cmp	r0, #0
  104b96:	d0f9      	beq.n	104b8c <MessageQueueGet+0x1e>
  104b98:	1c82      	adds	r2, r0, #2
  104b9a:	e8d2 1f4f 	ldrexb	r1, [r2]
  104b9e:	e8c2 3f44 	strexb	r4, r3, [r2]
  104ba2:	b104      	cbz	r4, 104ba6 <MessageQueueGet+0x38>
  104ba4:	e7f9      	b.n	104b9a <MessageQueueGet+0x2c>
  104ba6:	f011 0fff 	tst.w	r1, #255	; 0xff
  104baa:	d001      	beq.n	104bb0 <MessageQueueGet+0x42>
  104bac:	6880      	ldr	r0, [r0, #8]
  104bae:	e7f1      	b.n	104b94 <MessageQueueGet+0x26>
  104bb0:	bd10      	pop	{r4, pc}
	...

00104bb4 <svcRtxMessageQueueGet>:
  104bb4:	e92d 41f0 	stmdb	sp!, {r4, r5, r6, r7, r8, lr}
  104bb8:	460d      	mov	r5, r1
  104bba:	4617      	mov	r7, r2
  104bbc:	4698      	mov	r8, r3
  104bbe:	4604      	mov	r4, r0
  104bc0:	b118      	cbz	r0, 104bca <svcRtxMessageQueueGet+0x16>
  104bc2:	7803      	ldrb	r3, [r0, #0]
  104bc4:	2b08      	cmp	r3, #8
  104bc6:	d100      	bne.n	104bca <svcRtxMessageQueueGet+0x16>
  104bc8:	b941      	cbnz	r1, 104bdc <svcRtxMessageQueueGet+0x28>
  104bca:	4620      	mov	r0, r4
  104bcc:	f06f 0103 	mvn.w	r1, #3
  104bd0:	f7ff fb27 	bl	104222 <EvrRtxMessageQueueError>
  104bd4:	f06f 0003 	mvn.w	r0, #3
  104bd8:	e8bd 81f0 	ldmia.w	sp!, {r4, r5, r6, r7, r8, pc}
  104bdc:	7843      	ldrb	r3, [r0, #1]
  104bde:	b923      	cbnz	r3, 104bea <svcRtxMessageQueueGet+0x36>
  104be0:	f06f 0102 	mvn.w	r1, #2
  104be4:	f7ff fb1d 	bl	104222 <EvrRtxMessageQueueError>
  104be8:	e03e      	b.n	104c68 <svcRtxMessageQueueGet+0xb4>
  104bea:	f7ff ffc0 	bl	104b6e <MessageQueueGet>
  104bee:	4606      	mov	r6, r0
  104bf0:	b1e8      	cbz	r0, 104c2e <svcRtxMessageQueueGet+0x7a>
  104bf2:	4601      	mov	r1, r0
  104bf4:	4620      	mov	r0, r4
  104bf6:	f7ff fe0c 	bl	104812 <MessageQueueRemove>
  104bfa:	6a62      	ldr	r2, [r4, #36]	; 0x24
  104bfc:	f106 010c 	add.w	r1, r6, #12
  104c00:	4628      	mov	r0, r5
  104c02:	f004 ff9f 	bl	109b44 <memcpy>
  104c06:	b10f      	cbz	r7, 104c0c <svcRtxMessageQueueGet+0x58>
  104c08:	78f3      	ldrb	r3, [r6, #3]
  104c0a:	703b      	strb	r3, [r7, #0]
  104c0c:	4629      	mov	r1, r5
  104c0e:	4620      	mov	r0, r4
  104c10:	2500      	movs	r5, #0
  104c12:	f104 070c 	add.w	r7, r4, #12
  104c16:	f7ff fb10 	bl	10423a <EvrRtxMessageQueueRetrieved>
  104c1a:	7075      	strb	r5, [r6, #1]
  104c1c:	4631      	mov	r1, r6
  104c1e:	4638      	mov	r0, r7
  104c20:	f7ff fd9e 	bl	104760 <osRtxMemoryPoolFree>
  104c24:	68a3      	ldr	r3, [r4, #8]
  104c26:	bb1b      	cbnz	r3, 104c70 <svcRtxMessageQueueGet+0xbc>
  104c28:	2000      	movs	r0, #0
  104c2a:	e8bd 81f0 	ldmia.w	sp!, {r4, r5, r6, r7, r8, pc}
  104c2e:	f1b8 0f00 	cmp.w	r8, #0
  104c32:	d015      	beq.n	104c60 <svcRtxMessageQueueGet+0xac>
  104c34:	4642      	mov	r2, r8
  104c36:	4629      	mov	r1, r5
  104c38:	4620      	mov	r0, r4
  104c3a:	f7ff fafc 	bl	104236 <EvrRtxMessageQueueGetPending>
  104c3e:	4b23      	ldr	r3, [pc, #140]	; (104ccc <svcRtxMessageQueueGet+0x118>)
  104c40:	4620      	mov	r0, r4
  104c42:	69d9      	ldr	r1, [r3, #28]
  104c44:	f000 fcc6 	bl	1055d4 <osRtxThreadListPut>
  104c48:	4641      	mov	r1, r8
  104c4a:	2083      	movs	r0, #131	; 0x83
  104c4c:	f000 ff62 	bl	105b14 <osRtxThreadWaitEnter>
  104c50:	f3ef 8309 	mrs	r3, PSP
  104c54:	f06f 0001 	mvn.w	r0, #1
  104c58:	609d      	str	r5, [r3, #8]
  104c5a:	60df      	str	r7, [r3, #12]
  104c5c:	e8bd 81f0 	ldmia.w	sp!, {r4, r5, r6, r7, r8, pc}
  104c60:	4629      	mov	r1, r5
  104c62:	4620      	mov	r0, r4
  104c64:	f7ff faea 	bl	10423c <EvrRtxMessageQueueNotRetrieved>
  104c68:	f06f 0002 	mvn.w	r0, #2
  104c6c:	e8bd 81f0 	ldmia.w	sp!, {r4, r5, r6, r7, r8, pc}
  104c70:	785b      	ldrb	r3, [r3, #1]
  104c72:	2b93      	cmp	r3, #147	; 0x93
  104c74:	d1d8      	bne.n	104c28 <svcRtxMessageQueueGet+0x74>
  104c76:	4638      	mov	r0, r7
  104c78:	f7ff fd43 	bl	104702 <osRtxMemoryPoolAlloc>
  104c7c:	4606      	mov	r6, r0
  104c7e:	2800      	cmp	r0, #0
  104c80:	d0d2      	beq.n	104c28 <svcRtxMessageQueueGet+0x74>
  104c82:	4620      	mov	r0, r4
  104c84:	f000 fcb9 	bl	1055fa <osRtxThreadListGet>
  104c88:	4607      	mov	r7, r0
  104c8a:	4629      	mov	r1, r5
  104c8c:	2201      	movs	r2, #1
  104c8e:	f000 fe0f 	bl	1058b0 <osRtxThreadWaitExit>
  104c92:	4638      	mov	r0, r7
  104c94:	f000 fd90 	bl	1057b8 <osRtxThreadRegPtr>
  104c98:	4607      	mov	r7, r0
  104c9a:	6a62      	ldr	r2, [r4, #36]	; 0x24
  104c9c:	6881      	ldr	r1, [r0, #8]
  104c9e:	f106 000c 	add.w	r0, r6, #12
  104ca2:	f004 ff4f 	bl	109b44 <memcpy>
  104ca6:	2307      	movs	r3, #7
  104ca8:	7033      	strb	r3, [r6, #0]
  104caa:	2301      	movs	r3, #1
  104cac:	7073      	strb	r3, [r6, #1]
  104cae:	70b5      	strb	r5, [r6, #2]
  104cb0:	68fb      	ldr	r3, [r7, #12]
  104cb2:	4631      	mov	r1, r6
  104cb4:	70f3      	strb	r3, [r6, #3]
  104cb6:	4620      	mov	r0, r4
  104cb8:	f7ff fd86 	bl	1047c8 <MessageQueuePut>
  104cbc:	4620      	mov	r0, r4
  104cbe:	68b9      	ldr	r1, [r7, #8]
  104cc0:	f7ff fab6 	bl	104230 <EvrRtxMessageQueueInserted>
  104cc4:	4628      	mov	r0, r5
  104cc6:	e8bd 81f0 	ldmia.w	sp!, {r4, r5, r6, r7, r8, pc}
  104cca:	bf00      	nop
  104ccc:	3fff63f8 	.word	0x3fff63f8

00104cd0 <osMessageQueueNew>:
  104cd0:	b570      	push	{r4, r5, r6, lr}
  104cd2:	4606      	mov	r6, r0
  104cd4:	460d      	mov	r5, r1
  104cd6:	4614      	mov	r4, r2
  104cd8:	f7ff faa4 	bl	104224 <EvrRtxMessageQueueNew>
  104cdc:	f3ef 8305 	mrs	r3, IPSR
  104ce0:	b92b      	cbnz	r3, 104cee <osMessageQueueNew+0x1e>
  104ce2:	f3ef 8310 	mrs	r3, PRIMASK
  104ce6:	b913      	cbnz	r3, 104cee <osMessageQueueNew+0x1e>
  104ce8:	f3ef 8311 	mrs	r3, BASEPRI
  104cec:	b133      	cbz	r3, 104cfc <osMessageQueueNew+0x2c>
  104cee:	f06f 0105 	mvn.w	r1, #5
  104cf2:	2000      	movs	r0, #0
  104cf4:	f7ff fa95 	bl	104222 <EvrRtxMessageQueueError>
  104cf8:	2000      	movs	r0, #0
  104cfa:	bd70      	pop	{r4, r5, r6, pc}
  104cfc:	4630      	mov	r0, r6
  104cfe:	4629      	mov	r1, r5
  104d00:	4622      	mov	r2, r4
  104d02:	f8df c020 	ldr.w	r12, [pc, #32]	; 104d24 <osMessageQueueNew+0x54>
  104d06:	f3ef 8314 	mrs	r3, CONTROL
  104d0a:	f013 0f02 	tst.w	r3, #2
  104d0e:	d106      	bne.n	104d1e <osMessageQueueNew+0x4e>
  104d10:	f3ef 8308 	mrs	r3, MSP
  104d14:	3b20      	subs	r3, #32
  104d16:	f023 0307 	bic.w	r3, r3, #7
  104d1a:	f383 8809 	msr	PSP, r3
  104d1e:	df00      	svc	0
  104d20:	bd70      	pop	{r4, r5, r6, pc}
  104d22:	bf00      	nop
  104d24:	0010482d 	.word	0x0010482d

00104d28 <osMessageQueuePut>:
  104d28:	e92d 41f0 	stmdb	sp!, {r4, r5, r6, r7, r8, lr}
  104d2c:	4604      	mov	r4, r0
  104d2e:	460f      	mov	r7, r1
  104d30:	4690      	mov	r8, r2
  104d32:	461d      	mov	r5, r3
  104d34:	f7ff fa78 	bl	104228 <EvrRtxMessageQueuePut>
  104d38:	f3ef 8305 	mrs	r3, IPSR
  104d3c:	b933      	cbnz	r3, 104d4c <osMessageQueuePut+0x24>
  104d3e:	f3ef 8310 	mrs	r3, PRIMASK
  104d42:	b91b      	cbnz	r3, 104d4c <osMessageQueuePut+0x24>
  104d44:	f3ef 8311 	mrs	r3, BASEPRI
  104d48:	2b00      	cmp	r3, #0
  104d4a:	d03c      	beq.n	104dc6 <osMessageQueuePut+0x9e>
  104d4c:	b124      	cbz	r4, 104d58 <osMessageQueuePut+0x30>
  104d4e:	7823      	ldrb	r3, [r4, #0]
  104d50:	2b08      	cmp	r3, #8
  104d52:	d101      	bne.n	104d58 <osMessageQueuePut+0x30>
  104d54:	b107      	cbz	r7, 104d58 <osMessageQueuePut+0x30>
  104d56:	b145      	cbz	r5, 104d6a <osMessageQueuePut+0x42>
  104d58:	4620      	mov	r0, r4
  104d5a:	f06f 0103 	mvn.w	r1, #3
  104d5e:	f7ff fa60 	bl	104222 <EvrRtxMessageQueueError>
  104d62:	f06f 0003 	mvn.w	r0, #3
  104d66:	e8bd 81f0 	ldmia.w	sp!, {r4, r5, r6, r7, r8, pc}
  104d6a:	7863      	ldrb	r3, [r4, #1]
  104d6c:	b92b      	cbnz	r3, 104d7a <osMessageQueuePut+0x52>
  104d6e:	f06f 0102 	mvn.w	r1, #2
  104d72:	4620      	mov	r0, r4
  104d74:	f7ff fa55 	bl	104222 <EvrRtxMessageQueueError>
  104d78:	e021      	b.n	104dbe <osMessageQueuePut+0x96>
  104d7a:	f104 000c 	add.w	r0, r4, #12
  104d7e:	f7ff fcc0 	bl	104702 <osRtxMemoryPoolAlloc>
  104d82:	4606      	mov	r6, r0
  104d84:	b1b8      	cbz	r0, 104db6 <osMessageQueuePut+0x8e>
  104d86:	6a62      	ldr	r2, [r4, #36]	; 0x24
  104d88:	4639      	mov	r1, r7
  104d8a:	300c      	adds	r0, #12
  104d8c:	f004 feda 	bl	109b44 <memcpy>
  104d90:	2307      	movs	r3, #7
  104d92:	7033      	strb	r3, [r6, #0]
  104d94:	2301      	movs	r3, #1
  104d96:	7073      	strb	r3, [r6, #1]
  104d98:	4630      	mov	r0, r6
  104d9a:	70b5      	strb	r5, [r6, #2]
  104d9c:	f886 8003 	strb.w	r8, [r6, #3]
  104da0:	6077      	str	r7, [r6, #4]
  104da2:	60b4      	str	r4, [r6, #8]
  104da4:	f000 fae0 	bl	105368 <osRtxPostProcess>
  104da8:	4620      	mov	r0, r4
  104daa:	4639      	mov	r1, r7
  104dac:	f7ff fa3f 	bl	10422e <EvrRtxMessageQueueInsertPending>
  104db0:	4628      	mov	r0, r5
  104db2:	e8bd 81f0 	ldmia.w	sp!, {r4, r5, r6, r7, r8, pc}
  104db6:	4639      	mov	r1, r7
  104db8:	4620      	mov	r0, r4
  104dba:	f7ff fa3a 	bl	104232 <EvrRtxMessageQueueNotInserted>
  104dbe:	f06f 0002 	mvn.w	r0, #2
  104dc2:	e8bd 81f0 	ldmia.w	sp!, {r4, r5, r6, r7, r8, pc}
  104dc6:	4620      	mov	r0, r4
  104dc8:	4639      	mov	r1, r7
  104dca:	4642      	mov	r2, r8
  104dcc:	462b      	mov	r3, r5
  104dce:	f8df c008 	ldr.w	r12, [pc, #8]	; 104dd8 <osMessageQueuePut+0xb0>
  104dd2:	df00      	svc	0
  104dd4:	e8bd 81f0 	ldmia.w	sp!, {r4, r5, r6, r7, r8, pc}
  104dd8:	00104971 	.word	0x00104971

00104ddc <osMessageQueueGet>:
  104ddc:	b5f8      	push	{r3, r4, r5, r6, r7, lr}
  104dde:	4604      	mov	r4, r0
  104de0:	460d      	mov	r5, r1
  104de2:	4617      	mov	r7, r2
  104de4:	461e      	mov	r6, r3
  104de6:	f7ff fa25 	bl	104234 <EvrRtxMessageQueueGet>
  104dea:	f3ef 8305 	mrs	r3, IPSR
  104dee:	b92b      	cbnz	r3, 104dfc <osMessageQueueGet+0x20>
  104df0:	f3ef 8310 	mrs	r3, PRIMASK
  104df4:	b913      	cbnz	r3, 104dfc <osMessageQueueGet+0x20>
  104df6:	f3ef 8311 	mrs	r3, BASEPRI
  104dfa:	b3a3      	cbz	r3, 104e66 <osMessageQueueGet+0x8a>
  104dfc:	b124      	cbz	r4, 104e08 <osMessageQueueGet+0x2c>
  104dfe:	7823      	ldrb	r3, [r4, #0]
  104e00:	2b08      	cmp	r3, #8
  104e02:	d101      	bne.n	104e08 <osMessageQueueGet+0x2c>
  104e04:	b105      	cbz	r5, 104e08 <osMessageQueueGet+0x2c>
  104e06:	b13e      	cbz	r6, 104e18 <osMessageQueueGet+0x3c>
  104e08:	4620      	mov	r0, r4
  104e0a:	f06f 0103 	mvn.w	r1, #3
  104e0e:	f7ff fa08 	bl	104222 <EvrRtxMessageQueueError>
  104e12:	f06f 0003 	mvn.w	r0, #3
  104e16:	bdf8      	pop	{r3, r4, r5, r6, r7, pc}
  104e18:	7863      	ldrb	r3, [r4, #1]
  104e1a:	b92b      	cbnz	r3, 104e28 <osMessageQueueGet+0x4c>
  104e1c:	f06f 0102 	mvn.w	r1, #2
  104e20:	4620      	mov	r0, r4
  104e22:	f7ff f9fe 	bl	104222 <EvrRtxMessageQueueError>
  104e26:	e01b      	b.n	104e60 <osMessageQueueGet+0x84>
  104e28:	4620      	mov	r0, r4
  104e2a:	f7ff fea0 	bl	104b6e <MessageQueueGet>
  104e2e:	4606      	mov	r6, r0
  104e30:	b190      	cbz	r0, 104e58 <osMessageQueueGet+0x7c>
  104e32:	f100 010c 	add.w	r1, r0, #12
  104e36:	6a62      	ldr	r2, [r4, #36]	; 0x24
  104e38:	4628      	mov	r0, r5
  104e3a:	f004 fe83 	bl	109b44 <memcpy>
  104e3e:	b10f      	cbz	r7, 104e44 <osMessageQueueGet+0x68>
  104e40:	78f3      	ldrb	r3, [r6, #3]
  104e42:	703b      	strb	r3, [r7, #0]
  104e44:	4629      	mov	r1, r5
  104e46:	4620      	mov	r0, r4
  104e48:	f7ff f9f7 	bl	10423a <EvrRtxMessageQueueRetrieved>
  104e4c:	4630      	mov	r0, r6
  104e4e:	60f4      	str	r4, [r6, #12]
  104e50:	f000 fa8a 	bl	105368 <osRtxPostProcess>
  104e54:	2000      	movs	r0, #0
  104e56:	bdf8      	pop	{r3, r4, r5, r6, r7, pc}
  104e58:	4629      	mov	r1, r5
  104e5a:	4620      	mov	r0, r4
  104e5c:	f7ff f9ee 	bl	10423c <EvrRtxMessageQueueNotRetrieved>
  104e60:	f06f 0002 	mvn.w	r0, #2
  104e64:	bdf8      	pop	{r3, r4, r5, r6, r7, pc}
  104e66:	4620      	mov	r0, r4
  104e68:	4629      	mov	r1, r5
  104e6a:	463a      	mov	r2, r7
  104e6c:	4633      	mov	r3, r6
  104e6e:	f8df c008 	ldr.w	r12, [pc, #8]	; 104e78 <osMessageQueueGet+0x9c>
  104e72:	df00      	svc	0
  104e74:	bdf8      	pop	{r3, r4, r5, r6, r7, pc}
  104e76:	bf00      	nop
  104e78:	00104bb5 	.word	0x00104bb5

00104e7c <svcRtxMutexNew>:
  104e7c:	b570      	push	{r4, r5, r6, lr}
  104e7e:	b330      	cbz	r0, 104ece <svcRtxMutexNew+0x52>
  104e80:	e890 0060 	ldmia.w	r0, {r5, r6}
  104e84:	6884      	ldr	r4, [r0, #8]
  104e86:	b164      	cbz	r4, 104ea2 <svcRtxMutexNew+0x26>
  104e88:	f014 0303 	ands.w	r3, r4, #3
  104e8c:	d102      	bne.n	104e94 <svcRtxMutexNew+0x18>
  104e8e:	68c2      	ldr	r2, [r0, #12]
  104e90:	2a1b      	cmp	r2, #27
  104e92:	d80a      	bhi.n	104eaa <svcRtxMutexNew+0x2e>
  104e94:	f06f 0108 	mvn.w	r1, #8
  104e98:	2000      	movs	r0, #0
  104e9a:	f7ff f9b4 	bl	104206 <EvrRtxMutexError>
  104e9e:	2000      	movs	r0, #0
  104ea0:	bd70      	pop	{r4, r5, r6, pc}
  104ea2:	68c3      	ldr	r3, [r0, #12]
  104ea4:	b1ab      	cbz	r3, 104ed2 <svcRtxMutexNew+0x56>
  104ea6:	e7f5      	b.n	104e94 <svcRtxMutexNew+0x18>
  104ea8:	2301      	movs	r3, #1
  104eaa:	2204      	movs	r2, #4
  104eac:	7022      	strb	r2, [r4, #0]
  104eae:	70a3      	strb	r3, [r4, #2]
  104eb0:	2201      	movs	r2, #1
  104eb2:	2300      	movs	r3, #0
  104eb4:	7062      	strb	r2, [r4, #1]
  104eb6:	70e6      	strb	r6, [r4, #3]
  104eb8:	6065      	str	r5, [r4, #4]
  104eba:	60a3      	str	r3, [r4, #8]
  104ebc:	60e3      	str	r3, [r4, #12]
  104ebe:	6123      	str	r3, [r4, #16]
  104ec0:	6163      	str	r3, [r4, #20]
  104ec2:	7623      	strb	r3, [r4, #24]
  104ec4:	4620      	mov	r0, r4
  104ec6:	f7ff f9a0 	bl	10420a <EvrRtxMutexCreated>
  104eca:	4620      	mov	r0, r4
  104ecc:	bd70      	pop	{r4, r5, r6, pc}
  104ece:	4605      	mov	r5, r0
  104ed0:	4606      	mov	r6, r0
  104ed2:	4b0a      	ldr	r3, [pc, #40]	; (104efc <svcRtxMutexNew+0x80>)
  104ed4:	f8d3 009c 	ldr.w	r0, [r3, #156]	; 0x9c
  104ed8:	b110      	cbz	r0, 104ee0 <svcRtxMutexNew+0x64>
  104eda:	f7ff fc12 	bl	104702 <osRtxMemoryPoolAlloc>
  104ede:	e005      	b.n	104eec <svcRtxMutexNew+0x70>
  104ee0:	2201      	movs	r2, #1
  104ee2:	211c      	movs	r1, #28
  104ee4:	f8d3 0088 	ldr.w	r0, [r3, #136]	; 0x88
  104ee8:	f7ff fb7e 	bl	1045e8 <osRtxMemoryAlloc>
  104eec:	4604      	mov	r4, r0
  104eee:	2800      	cmp	r0, #0
  104ef0:	d1da      	bne.n	104ea8 <svcRtxMutexNew+0x2c>
  104ef2:	f06f 0104 	mvn.w	r1, #4
  104ef6:	f7ff f986 	bl	104206 <EvrRtxMutexError>
  104efa:	e7e6      	b.n	104eca <svcRtxMutexNew+0x4e>
  104efc:	3fff63f8 	.word	0x3fff63f8

00104f00 <svcRtxMutexAcquire>:
  104f00:	b5f8      	push	{r3, r4, r5, r6, r7, lr}
  104f02:	4b31      	ldr	r3, [pc, #196]	; (104fc8 <svcRtxMutexAcquire+0xc8>)
  104f04:	4605      	mov	r5, r0
  104f06:	69de      	ldr	r6, [r3, #28]
  104f08:	460f      	mov	r7, r1
  104f0a:	b936      	cbnz	r6, 104f1a <svcRtxMutexAcquire+0x1a>
  104f0c:	f06f 0107 	mvn.w	r1, #7
  104f10:	f7ff f979 	bl	104206 <EvrRtxMutexError>
  104f14:	f04f 30ff 	mov.w	r0, #4294967295
  104f18:	bdf8      	pop	{r3, r4, r5, r6, r7, pc}
  104f1a:	b110      	cbz	r0, 104f22 <svcRtxMutexAcquire+0x22>
  104f1c:	7803      	ldrb	r3, [r0, #0]
  104f1e:	2b04      	cmp	r3, #4
  104f20:	d007      	beq.n	104f32 <svcRtxMutexAcquire+0x32>
  104f22:	4628      	mov	r0, r5
  104f24:	f06f 0103 	mvn.w	r1, #3
  104f28:	f7ff f96d 	bl	104206 <EvrRtxMutexError>
  104f2c:	f06f 0003 	mvn.w	r0, #3
  104f30:	bdf8      	pop	{r3, r4, r5, r6, r7, pc}
  104f32:	7843      	ldrb	r3, [r0, #1]
  104f34:	b913      	cbnz	r3, 104f3c <svcRtxMutexAcquire+0x3c>
  104f36:	f06f 0102 	mvn.w	r1, #2
  104f3a:	e016      	b.n	104f6a <svcRtxMutexAcquire+0x6a>
  104f3c:	7e04      	ldrb	r4, [r0, #24]
  104f3e:	b954      	cbnz	r4, 104f56 <svcRtxMutexAcquire+0x56>
  104f40:	6af3      	ldr	r3, [r6, #44]	; 0x2c
  104f42:	2101      	movs	r1, #1
  104f44:	60c6      	str	r6, [r0, #12]
  104f46:	6143      	str	r3, [r0, #20]
  104f48:	6104      	str	r4, [r0, #16]
  104f4a:	62f0      	str	r0, [r6, #44]	; 0x2c
  104f4c:	7601      	strb	r1, [r0, #24]
  104f4e:	f7ff f960 	bl	104212 <EvrRtxMutexAcquired>
  104f52:	4620      	mov	r0, r4
  104f54:	bdf8      	pop	{r3, r4, r5, r6, r7, pc}
  104f56:	78c3      	ldrb	r3, [r0, #3]
  104f58:	07da      	lsls	r2, r3, #31
  104f5a:	d510      	bpl.n	104f7e <svcRtxMutexAcquire+0x7e>
  104f5c:	68c2      	ldr	r2, [r0, #12]
  104f5e:	4296      	cmp	r6, r2
  104f60:	d10d      	bne.n	104f7e <svcRtxMutexAcquire+0x7e>
  104f62:	2cff      	cmp	r4, #255	; 0xff
  104f64:	d104      	bne.n	104f70 <svcRtxMutexAcquire+0x70>
  104f66:	f06f 010f 	mvn.w	r1, #15
  104f6a:	f7ff f94c 	bl	104206 <EvrRtxMutexError>
  104f6e:	e028      	b.n	104fc2 <svcRtxMutexAcquire+0xc2>
  104f70:	1c61      	adds	r1, r4, #1
  104f72:	b2c9      	uxtb	r1, r1
  104f74:	7601      	strb	r1, [r0, #24]
  104f76:	f7ff f94c 	bl	104212 <EvrRtxMutexAcquired>
  104f7a:	2000      	movs	r0, #0
  104f7c:	bdf8      	pop	{r3, r4, r5, r6, r7, pc}
  104f7e:	b1ef      	cbz	r7, 104fbc <svcRtxMutexAcquire+0xbc>
  104f80:	079b      	lsls	r3, r3, #30
  104f82:	d50c      	bpl.n	104f9e <svcRtxMutexAcquire+0x9e>
  104f84:	68eb      	ldr	r3, [r5, #12]
  104f86:	f896 2020 	ldrb.w	r2, [r6, #32]
  104f8a:	f993 0020 	ldrsb.w	r0, [r3, #32]
  104f8e:	b251      	sxtb	r1, r2
  104f90:	4288      	cmp	r0, r1
  104f92:	da04      	bge.n	104f9e <svcRtxMutexAcquire+0x9e>
  104f94:	f883 2020 	strb.w	r2, [r3, #32]
  104f98:	68e8      	ldr	r0, [r5, #12]
  104f9a:	f000 fb49 	bl	105630 <osRtxThreadListSort>
  104f9e:	4639      	mov	r1, r7
  104fa0:	4628      	mov	r0, r5
  104fa2:	f7ff f934 	bl	10420e <EvrRtxMutexAcquirePending>
  104fa6:	4631      	mov	r1, r6
  104fa8:	4628      	mov	r0, r5
  104faa:	f000 fb13 	bl	1055d4 <osRtxThreadListPut>
  104fae:	4639      	mov	r1, r7
  104fb0:	2053      	movs	r0, #83	; 0x53
  104fb2:	f000 fdaf 	bl	105b14 <osRtxThreadWaitEnter>
  104fb6:	f06f 0001 	mvn.w	r0, #1
  104fba:	bdf8      	pop	{r3, r4, r5, r6, r7, pc}
  104fbc:	4628      	mov	r0, r5
  104fbe:	f7ff f929 	bl	104214 <EvrRtxMutexNotAcquired>
  104fc2:	f06f 0002 	mvn.w	r0, #2
  104fc6:	bdf8      	pop	{r3, r4, r5, r6, r7, pc}
  104fc8:	3fff63f8 	.word	0x3fff63f8

00104fcc <svcRtxMutexRelease>:
  104fcc:	b538      	push	{r3, r4, r5, lr}
  104fce:	4b35      	ldr	r3, [pc, #212]	; (1050a4 <svcRtxMutexRelease+0xd8>)
  104fd0:	4604      	mov	r4, r0
  104fd2:	69dd      	ldr	r5, [r3, #28]
  104fd4:	b935      	cbnz	r5, 104fe4 <svcRtxMutexRelease+0x18>
  104fd6:	f06f 0107 	mvn.w	r1, #7
  104fda:	f7ff f914 	bl	104206 <EvrRtxMutexError>
  104fde:	f04f 30ff 	mov.w	r0, #4294967295
  104fe2:	bd38      	pop	{r3, r4, r5, pc}
  104fe4:	b110      	cbz	r0, 104fec <svcRtxMutexRelease+0x20>
  104fe6:	7803      	ldrb	r3, [r0, #0]
  104fe8:	2b04      	cmp	r3, #4
  104fea:	d007      	beq.n	104ffc <svcRtxMutexRelease+0x30>
  104fec:	4620      	mov	r0, r4
  104fee:	f06f 0103 	mvn.w	r1, #3
  104ff2:	f7ff f908 	bl	104206 <EvrRtxMutexError>
  104ff6:	f06f 0003 	mvn.w	r0, #3
  104ffa:	bd38      	pop	{r3, r4, r5, pc}
  104ffc:	7843      	ldrb	r3, [r0, #1]
  104ffe:	b913      	cbnz	r3, 105006 <svcRtxMutexRelease+0x3a>
  105000:	f06f 0102 	mvn.w	r1, #2
  105004:	e009      	b.n	10501a <svcRtxMutexRelease+0x4e>
  105006:	68c3      	ldr	r3, [r0, #12]
  105008:	429d      	cmp	r5, r3
  10500a:	d002      	beq.n	105012 <svcRtxMutexRelease+0x46>
  10500c:	f06f 010d 	mvn.w	r1, #13
  105010:	e003      	b.n	10501a <svcRtxMutexRelease+0x4e>
  105012:	7e01      	ldrb	r1, [r0, #24]
  105014:	b931      	cbnz	r1, 105024 <svcRtxMutexRelease+0x58>
  105016:	f06f 010e 	mvn.w	r1, #14
  10501a:	f7ff f8f4 	bl	104206 <EvrRtxMutexError>
  10501e:	f06f 0002 	mvn.w	r0, #2
  105022:	bd38      	pop	{r3, r4, r5, pc}
  105024:	3901      	subs	r1, #1
  105026:	b2c9      	uxtb	r1, r1
  105028:	7601      	strb	r1, [r0, #24]
  10502a:	f7ff f8f5 	bl	104218 <EvrRtxMutexReleased>
  10502e:	7e23      	ldrb	r3, [r4, #24]
  105030:	2b00      	cmp	r3, #0
  105032:	d134      	bne.n	10509e <svcRtxMutexRelease+0xd2>
  105034:	6963      	ldr	r3, [r4, #20]
  105036:	b10b      	cbz	r3, 10503c <svcRtxMutexRelease+0x70>
  105038:	6922      	ldr	r2, [r4, #16]
  10503a:	611a      	str	r2, [r3, #16]
  10503c:	6922      	ldr	r2, [r4, #16]
  10503e:	b10a      	cbz	r2, 105044 <svcRtxMutexRelease+0x78>
  105040:	6153      	str	r3, [r2, #20]
  105042:	e000      	b.n	105046 <svcRtxMutexRelease+0x7a>
  105044:	62eb      	str	r3, [r5, #44]	; 0x2c
  105046:	78e3      	ldrb	r3, [r4, #3]
  105048:	079b      	lsls	r3, r3, #30
  10504a:	d510      	bpl.n	10506e <svcRtxMutexRelease+0xa2>
  10504c:	f895 3021 	ldrb.w	r3, [r5, #33]	; 0x21
  105050:	6aea      	ldr	r2, [r5, #44]	; 0x2c
  105052:	b152      	cbz	r2, 10506a <svcRtxMutexRelease+0x9e>
  105054:	6891      	ldr	r1, [r2, #8]
  105056:	b131      	cbz	r1, 105066 <svcRtxMutexRelease+0x9a>
  105058:	f991 1020 	ldrsb.w	r1, [r1, #32]
  10505c:	b25b      	sxtb	r3, r3
  10505e:	428b      	cmp	r3, r1
  105060:	bfb8      	it	lt
  105062:	460b      	movlt	r3, r1
  105064:	b2db      	uxtb	r3, r3
  105066:	6952      	ldr	r2, [r2, #20]
  105068:	e7f3      	b.n	105052 <svcRtxMutexRelease+0x86>
  10506a:	f885 3020 	strb.w	r3, [r5, #32]
  10506e:	68a3      	ldr	r3, [r4, #8]
  105070:	b193      	cbz	r3, 105098 <svcRtxMutexRelease+0xcc>
  105072:	4620      	mov	r0, r4
  105074:	f000 fac1 	bl	1055fa <osRtxThreadListGet>
  105078:	4605      	mov	r5, r0
  10507a:	2200      	movs	r2, #0
  10507c:	4611      	mov	r1, r2
  10507e:	f000 fc17 	bl	1058b0 <osRtxThreadWaitExit>
  105082:	6aeb      	ldr	r3, [r5, #44]	; 0x2c
  105084:	2101      	movs	r1, #1
  105086:	6163      	str	r3, [r4, #20]
  105088:	2300      	movs	r3, #0
  10508a:	60e5      	str	r5, [r4, #12]
  10508c:	6123      	str	r3, [r4, #16]
  10508e:	4620      	mov	r0, r4
  105090:	62ec      	str	r4, [r5, #44]	; 0x2c
  105092:	7621      	strb	r1, [r4, #24]
  105094:	f7ff f8bd 	bl	104212 <EvrRtxMutexAcquired>
  105098:	2000      	movs	r0, #0
  10509a:	f000 fbdb 	bl	105854 <osRtxThreadDispatch>
  10509e:	2000      	movs	r0, #0
  1050a0:	bd38      	pop	{r3, r4, r5, pc}
  1050a2:	bf00      	nop
  1050a4:	3fff63f8 	.word	0x3fff63f8

001050a8 <svcRtxMutexDelete>:
  1050a8:	b510      	push	{r4, lr}
  1050aa:	4604      	mov	r4, r0
  1050ac:	b110      	cbz	r0, 1050b4 <svcRtxMutexDelete+0xc>
  1050ae:	7803      	ldrb	r3, [r0, #0]
  1050b0:	2b04      	cmp	r3, #4
  1050b2:	d007      	beq.n	1050c4 <svcRtxMutexDelete+0x1c>
  1050b4:	4620      	mov	r0, r4
  1050b6:	f06f 0103 	mvn.w	r1, #3
  1050ba:	f7ff f8a4 	bl	104206 <EvrRtxMutexError>
  1050be:	f06f 0003 	mvn.w	r0, #3
  1050c2:	bd10      	pop	{r4, pc}
  1050c4:	7843      	ldrb	r3, [r0, #1]
  1050c6:	b933      	cbnz	r3, 1050d6 <svcRtxMutexDelete+0x2e>
  1050c8:	f06f 0102 	mvn.w	r1, #2
  1050cc:	f7ff f89b 	bl	104206 <EvrRtxMutexError>
  1050d0:	f06f 0002 	mvn.w	r0, #2
  1050d4:	bd10      	pop	{r4, pc}
  1050d6:	2300      	movs	r3, #0
  1050d8:	7043      	strb	r3, [r0, #1]
  1050da:	7e03      	ldrb	r3, [r0, #24]
  1050dc:	2b00      	cmp	r3, #0
  1050de:	d032      	beq.n	105146 <svcRtxMutexDelete+0x9e>
  1050e0:	6963      	ldr	r3, [r4, #20]
  1050e2:	68c0      	ldr	r0, [r0, #12]
  1050e4:	b10b      	cbz	r3, 1050ea <svcRtxMutexDelete+0x42>
  1050e6:	6922      	ldr	r2, [r4, #16]
  1050e8:	611a      	str	r2, [r3, #16]
  1050ea:	6922      	ldr	r2, [r4, #16]
  1050ec:	b10a      	cbz	r2, 1050f2 <svcRtxMutexDelete+0x4a>
  1050ee:	6153      	str	r3, [r2, #20]
  1050f0:	e000      	b.n	1050f4 <svcRtxMutexDelete+0x4c>
  1050f2:	62c3      	str	r3, [r0, #44]	; 0x2c
  1050f4:	78e3      	ldrb	r3, [r4, #3]
  1050f6:	079a      	lsls	r2, r3, #30
  1050f8:	d516      	bpl.n	105128 <svcRtxMutexDelete+0x80>
  1050fa:	f890 3021 	ldrb.w	r3, [r0, #33]	; 0x21
  1050fe:	6ac2      	ldr	r2, [r0, #44]	; 0x2c
  105100:	b152      	cbz	r2, 105118 <svcRtxMutexDelete+0x70>
  105102:	6891      	ldr	r1, [r2, #8]
  105104:	b131      	cbz	r1, 105114 <svcRtxMutexDelete+0x6c>
  105106:	f991 1020 	ldrsb.w	r1, [r1, #32]
  10510a:	b25b      	sxtb	r3, r3
  10510c:	428b      	cmp	r3, r1
  10510e:	bfb8      	it	lt
  105110:	460b      	movlt	r3, r1
  105112:	b2db      	uxtb	r3, r3
  105114:	6952      	ldr	r2, [r2, #20]
  105116:	e7f3      	b.n	105100 <svcRtxMutexDelete+0x58>
  105118:	f890 2020 	ldrb.w	r2, [r0, #32]
  10511c:	4293      	cmp	r3, r2
  10511e:	d003      	beq.n	105128 <svcRtxMutexDelete+0x80>
  105120:	f880 3020 	strb.w	r3, [r0, #32]
  105124:	f000 fa84 	bl	105630 <osRtxThreadListSort>
  105128:	68a3      	ldr	r3, [r4, #8]
  10512a:	b91b      	cbnz	r3, 105134 <svcRtxMutexDelete+0x8c>
  10512c:	2000      	movs	r0, #0
  10512e:	f000 fb91 	bl	105854 <osRtxThreadDispatch>
  105132:	e008      	b.n	105146 <svcRtxMutexDelete+0x9e>
  105134:	4620      	mov	r0, r4
  105136:	f000 fa60 	bl	1055fa <osRtxThreadListGet>
  10513a:	2200      	movs	r2, #0
  10513c:	f06f 0102 	mvn.w	r1, #2
  105140:	f000 fbb6 	bl	1058b0 <osRtxThreadWaitExit>
  105144:	e7f0      	b.n	105128 <svcRtxMutexDelete+0x80>
  105146:	78a3      	ldrb	r3, [r4, #2]
  105148:	07db      	lsls	r3, r3, #31
  10514a:	d50b      	bpl.n	105164 <svcRtxMutexDelete+0xbc>
  10514c:	4b08      	ldr	r3, [pc, #32]	; (105170 <svcRtxMutexDelete+0xc8>)
  10514e:	4621      	mov	r1, r4
  105150:	f8d3 009c 	ldr.w	r0, [r3, #156]	; 0x9c
  105154:	b110      	cbz	r0, 10515c <svcRtxMutexDelete+0xb4>
  105156:	f7ff fb03 	bl	104760 <osRtxMemoryPoolFree>
  10515a:	e003      	b.n	105164 <svcRtxMutexDelete+0xbc>
  10515c:	f8d3 0088 	ldr.w	r0, [r3, #136]	; 0x88
  105160:	f7ff fa78 	bl	104654 <osRtxMemoryFree>
  105164:	4620      	mov	r0, r4
  105166:	f7ff f859 	bl	10421c <EvrRtxMutexDestroyed>
  10516a:	2000      	movs	r0, #0
  10516c:	bd10      	pop	{r4, pc}
  10516e:	bf00      	nop
  105170:	3fff63f8 	.word	0x3fff63f8

00105174 <osRtxMutexOwnerRelease>:
  105174:	e92d 41f0 	stmdb	sp!, {r4, r5, r6, r7, r8, lr}
  105178:	4604      	mov	r4, r0
  10517a:	2600      	movs	r6, #0
  10517c:	2701      	movs	r7, #1
  10517e:	b1fc      	cbz	r4, 1051c0 <osRtxMutexOwnerRelease+0x4c>
  105180:	78e3      	ldrb	r3, [r4, #3]
  105182:	f8d4 8014 	ldr.w	r8, [r4, #20]
  105186:	071b      	lsls	r3, r3, #28
  105188:	d518      	bpl.n	1051bc <osRtxMutexOwnerRelease+0x48>
  10518a:	7626      	strb	r6, [r4, #24]
  10518c:	2100      	movs	r1, #0
  10518e:	4620      	mov	r0, r4
  105190:	f7ff f842 	bl	104218 <EvrRtxMutexReleased>
  105194:	68a3      	ldr	r3, [r4, #8]
  105196:	b18b      	cbz	r3, 1051bc <osRtxMutexOwnerRelease+0x48>
  105198:	4620      	mov	r0, r4
  10519a:	f000 fa2e 	bl	1055fa <osRtxThreadListGet>
  10519e:	4605      	mov	r5, r0
  1051a0:	2200      	movs	r2, #0
  1051a2:	4611      	mov	r1, r2
  1051a4:	f000 fb84 	bl	1058b0 <osRtxThreadWaitExit>
  1051a8:	6aeb      	ldr	r3, [r5, #44]	; 0x2c
  1051aa:	60e5      	str	r5, [r4, #12]
  1051ac:	6163      	str	r3, [r4, #20]
  1051ae:	6126      	str	r6, [r4, #16]
  1051b0:	2101      	movs	r1, #1
  1051b2:	62ec      	str	r4, [r5, #44]	; 0x2c
  1051b4:	4620      	mov	r0, r4
  1051b6:	7627      	strb	r7, [r4, #24]
  1051b8:	f7ff f82b 	bl	104212 <EvrRtxMutexAcquired>
  1051bc:	4644      	mov	r4, r8
  1051be:	e7de      	b.n	10517e <osRtxMutexOwnerRelease+0xa>
  1051c0:	e8bd 81f0 	ldmia.w	sp!, {r4, r5, r6, r7, r8, pc}

001051c4 <osMutexNew>:
  1051c4:	b510      	push	{r4, lr}
  1051c6:	4604      	mov	r4, r0
  1051c8:	f7ff f81e 	bl	104208 <EvrRtxMutexNew>
  1051cc:	f3ef 8305 	mrs	r3, IPSR
  1051d0:	b92b      	cbnz	r3, 1051de <osMutexNew+0x1a>
  1051d2:	f3ef 8310 	mrs	r3, PRIMASK
  1051d6:	b913      	cbnz	r3, 1051de <osMutexNew+0x1a>
  1051d8:	f3ef 8311 	mrs	r3, BASEPRI
  1051dc:	b133      	cbz	r3, 1051ec <osMutexNew+0x28>
  1051de:	f06f 0105 	mvn.w	r1, #5
  1051e2:	2000      	movs	r0, #0
  1051e4:	f7ff f80f 	bl	104206 <EvrRtxMutexError>
  1051e8:	2000      	movs	r0, #0
  1051ea:	bd10      	pop	{r4, pc}
  1051ec:	4620      	mov	r0, r4
  1051ee:	f8df c020 	ldr.w	r12, [pc, #32]	; 105210 <osMutexNew+0x4c>
  1051f2:	f3ef 8314 	mrs	r3, CONTROL
  1051f6:	f013 0f02 	tst.w	r3, #2
  1051fa:	d106      	bne.n	10520a <osMutexNew+0x46>
  1051fc:	f3ef 8308 	mrs	r3, MSP
  105200:	3b20      	subs	r3, #32
  105202:	f023 0307 	bic.w	r3, r3, #7
  105206:	f383 8809 	msr	PSP, r3
  10520a:	df00      	svc	0
  10520c:	bd10      	pop	{r4, pc}
  10520e:	bf00      	nop
  105210:	00104e7d 	.word	0x00104e7d

00105214 <osMutexAcquire>:
  105214:	b538      	push	{r3, r4, r5, lr}
  105216:	4604      	mov	r4, r0
  105218:	460d      	mov	r5, r1
  10521a:	f7fe fff7 	bl	10420c <EvrRtxMutexAcquire>
  10521e:	f3ef 8305 	mrs	r3, IPSR
  105222:	b92b      	cbnz	r3, 105230 <osMutexAcquire+0x1c>
  105224:	f3ef 8310 	mrs	r3, PRIMASK
  105228:	b913      	cbnz	r3, 105230 <osMutexAcquire+0x1c>
  10522a:	f3ef 8311 	mrs	r3, BASEPRI
  10522e:	b13b      	cbz	r3, 105240 <osMutexAcquire+0x2c>
  105230:	4620      	mov	r0, r4
  105232:	f06f 0105 	mvn.w	r1, #5
  105236:	f7fe ffe6 	bl	104206 <EvrRtxMutexError>
  10523a:	f06f 0005 	mvn.w	r0, #5
  10523e:	bd38      	pop	{r3, r4, r5, pc}
  105240:	4620      	mov	r0, r4
  105242:	4629      	mov	r1, r5
  105244:	f8df c004 	ldr.w	r12, [pc, #4]	; 10524c <osMutexAcquire+0x38>
  105248:	df00      	svc	0
  10524a:	bd38      	pop	{r3, r4, r5, pc}
  10524c:	00104f01 	.word	0x00104f01

00105250 <osMutexRelease>:
  105250:	b510      	push	{r4, lr}
  105252:	4604      	mov	r4, r0
  105254:	f7fe ffdf 	bl	104216 <EvrRtxMutexRelease>
  105258:	f3ef 8305 	mrs	r3, IPSR
  10525c:	b92b      	cbnz	r3, 10526a <osMutexRelease+0x1a>
  10525e:	f3ef 8310 	mrs	r3, PRIMASK
  105262:	b913      	cbnz	r3, 10526a <osMutexRelease+0x1a>
  105264:	f3ef 8311 	mrs	r3, BASEPRI
  105268:	b13b      	cbz	r3, 10527a <osMutexRelease+0x2a>
  10526a:	4620      	mov	r0, r4
  10526c:	f06f 0105 	mvn.w	r1, #5
  105270:	f7fe ffc9 	bl	104206 <EvrRtxMutexError>
  105274:	f06f 0005 	mvn.w	r0, #5
  105278:	bd10      	pop	{r4, pc}
  10527a:	4620      	mov	r0, r4
  10527c:	f8df c004 	ldr.w	r12, [pc, #4]	; 105284 <osMutexRelease+0x34>
  105280:	df00      	svc	0
  105282:	bd10      	pop	{r4, pc}
  105284:	00104fcd 	.word	0x00104fcd

00105288 <osMutexDelete>:
  105288:	b510      	push	{r4, lr}
  10528a:	4604      	mov	r4, r0
  10528c:	f7fe ffc5 	bl	10421a <EvrRtxMutexDelete>
  105290:	f3ef 8305 	mrs	r3, IPSR
  105294:	b92b      	cbnz	r3, 1052a2 <osMutexDelete+0x1a>
  105296:	f3ef 8310 	mrs	r3, PRIMASK
  10529a:	b913      	cbnz	r3, 1052a2 <osMutexDelete+0x1a>
  10529c:	f3ef 8311 	mrs	r3, BASEPRI
  1052a0:	b13b      	cbz	r3, 1052b2 <osMutexDelete+0x2a>
  1052a2:	4620      	mov	r0, r4
  1052a4:	f06f 0105 	mvn.w	r1, #5
  1052a8:	f7fe ffad 	bl	104206 <EvrRtxMutexError>
  1052ac:	f06f 0005 	mvn.w	r0, #5
  1052b0:	bd10      	pop	{r4, pc}
  1052b2:	4620      	mov	r0, r4
  1052b4:	f8df c004 	ldr.w	r12, [pc, #4]	; 1052bc <osMutexDelete+0x34>
  1052b8:	df00      	svc	0
  1052ba:	bd10      	pop	{r4, pc}
  1052bc:	001050a9 	.word	0x001050a9

001052c0 <atomic_inc16_lim>:
  1052c0:	b510      	push	{r4, lr}
  1052c2:	e8d0 3f5f 	ldrexh	r3, [r0]
  1052c6:	1c5a      	adds	r2, r3, #1
  1052c8:	4291      	cmp	r1, r2
  1052ca:	d800      	bhi.n	1052ce <atomic_inc16_lim+0xe>
  1052cc:	2200      	movs	r2, #0
  1052ce:	e8c0 2f54 	strexh	r4, r2, [r0]
  1052d2:	b104      	cbz	r4, 1052d6 <atomic_inc16_lim+0x16>
  1052d4:	e7f5      	b.n	1052c2 <atomic_inc16_lim+0x2>
  1052d6:	b298      	uxth	r0, r3
  1052d8:	bd10      	pop	{r4, pc}
	...

001052dc <osRtxPendSV_Handler>:
  1052dc:	b570      	push	{r4, r5, r6, lr}
  1052de:	4d1f      	ldr	r5, [pc, #124]	; (10535c <osRtxPendSV_Handler+0x80>)
  1052e0:	462c      	mov	r4, r5
  1052e2:	4e1f      	ldr	r6, [pc, #124]	; (105360 <osRtxPendSV_Handler+0x84>)
  1052e4:	f8b5 105c 	ldrh.w	r1, [r5, #92]	; 0x5c
  1052e8:	e8d6 3f5f 	ldrexh	r3, [r6]
