
NCS36510/5_SmartSystem_v0131.elf:     file format elf32-littlearm
architecture: arm, flags 0x00000112:
EXEC_P, HAS_SYMS, D_PAGED
start address 0x001098b5


Disassembly of section .text:

00102090 <deregister_tm_clones>:
  102090:	4b04      	ldr	r3, [pc, #16]	; (1020a4 <deregister_tm_clones+0x14>)
  102092:	4805      	ldr	r0, [pc, #20]	; (1020a8 <deregister_tm_clones+0x18>)
  102094:	1a1b      	subs	r3, r3, r0
  102096:	2b06      	cmp	r3, #6
  102098:	d902      	bls.n	1020a0 <deregister_tm_clones+0x10>
  10209a:	4b04      	ldr	r3, [pc, #16]	; (1020ac <deregister_tm_clones+0x1c>)
  10209c:	b103      	cbz	r3, 1020a0 <deregister_tm_clones+0x10>
  10209e:	4718      	bx	r3
  1020a0:	4770      	bx	lr
  1020a2:	bf00      	nop
  1020a4:	3fff65c3 	.word	0x3fff65c3
  1020a8:	3fff65c0 	.word	0x3fff65c0
  1020ac:	00000000 	.word	0x00000000

001020b0 <register_tm_clones>:
  1020b0:	4905      	ldr	r1, [pc, #20]	; (1020c8 <register_tm_clones+0x18>)
  1020b2:	4806      	ldr	r0, [pc, #24]	; (1020cc <register_tm_clones+0x1c>)
  1020b4:	1a09      	subs	r1, r1, r0
  1020b6:	1089      	asrs	r1, r1, #2
  1020b8:	eb01 71d1 	add.w	r1, r1, r1, lsr #31
  1020bc:	1049      	asrs	r1, r1, #1
  1020be:	d002      	beq.n	1020c6 <register_tm_clones+0x16>
  1020c0:	4b03      	ldr	r3, [pc, #12]	; (1020d0 <register_tm_clones+0x20>)
  1020c2:	b103      	cbz	r3, 1020c6 <register_tm_clones+0x16>
  1020c4:	4718      	bx	r3
  1020c6:	4770      	bx	lr
  1020c8:	3fff65c0 	.word	0x3fff65c0
  1020cc:	3fff65c0 	.word	0x3fff65c0
  1020d0:	00000000 	.word	0x00000000

001020d4 <__do_global_dtors_aux>:
  1020d4:	b510      	push	{r4, lr}
  1020d6:	4c06      	ldr	r4, [pc, #24]	; (1020f0 <__do_global_dtors_aux+0x1c>)
  1020d8:	7823      	ldrb	r3, [r4, #0]
  1020da:	b943      	cbnz	r3, 1020ee <__do_global_dtors_aux+0x1a>
  1020dc:	f7ff ffd8 	bl	102090 <deregister_tm_clones>
  1020e0:	4b04      	ldr	r3, [pc, #16]	; (1020f4 <__do_global_dtors_aux+0x20>)
  1020e2:	b113      	cbz	r3, 1020ea <__do_global_dtors_aux+0x16>
  1020e4:	4804      	ldr	r0, [pc, #16]	; (1020f8 <__do_global_dtors_aux+0x24>)
  1020e6:	f3af 8000 	nop.w
  1020ea:	2301      	movs	r3, #1
  1020ec:	7023      	strb	r3, [r4, #0]
  1020ee:	bd10      	pop	{r4, pc}
  1020f0:	3fff65c0 	.word	0x3fff65c0
  1020f4:	00000000 	.word	0x00000000
  1020f8:	00112028 	.word	0x00112028

001020fc <frame_dummy>:
  1020fc:	b508      	push	{r3, lr}
  1020fe:	4b08      	ldr	r3, [pc, #32]	; (102120 <frame_dummy+0x24>)
  102100:	b11b      	cbz	r3, 10210a <frame_dummy+0xe>
  102102:	4908      	ldr	r1, [pc, #32]	; (102124 <frame_dummy+0x28>)
  102104:	4808      	ldr	r0, [pc, #32]	; (102128 <frame_dummy+0x2c>)
  102106:	f3af 8000 	nop.w
  10210a:	4808      	ldr	r0, [pc, #32]	; (10212c <frame_dummy+0x30>)
  10210c:	6803      	ldr	r3, [r0, #0]
  10210e:	b913      	cbnz	r3, 102116 <frame_dummy+0x1a>
  102110:	e8bd 4008 	ldmia.w	sp!, {r3, lr}
  102114:	e7cc      	b.n	1020b0 <register_tm_clones>
  102116:	4b06      	ldr	r3, [pc, #24]	; (102130 <frame_dummy+0x34>)
  102118:	2b00      	cmp	r3, #0
  10211a:	d0f9      	beq.n	102110 <frame_dummy+0x14>
  10211c:	4798      	blx	r3
  10211e:	e7f7      	b.n	102110 <frame_dummy+0x14>
  102120:	00000000 	.word	0x00000000
  102124:	3fff65c4 	.word	0x3fff65c4
  102128:	00112028 	.word	0x00112028
  10212c:	3fff65c0 	.word	0x3fff65c0
  102130:	00000000 	.word	0x00000000

00102134 <mbed::I2C::~I2C()>:
  102134:	4770      	bx	lr

00102136 <Accelerometer::~Accelerometer()>:
  102136:	4770      	bx	lr

00102138 <__tcf_0>:
  102138:	b538      	push	{r3, r4, r5, lr}
  10213a:	4d06      	ldr	r5, [pc, #24]	; (102154 <__tcf_0+0x1c>)
  10213c:	2400      	movs	r4, #0
  10213e:	f504 70b4 	add.w	r0, r4, #360	; 0x168
  102142:	4428      	add	r0, r5
  102144:	3c18      	subs	r4, #24
  102146:	f007 fc11 	bl	10996c <std::__cxx11::basic_string<char, std::char_traits<char>, std::allocator<char> >::_M_dispose()>
  10214a:	f514 7fc0 	cmn.w	r4, #384	; 0x180
  10214e:	d1f6      	bne.n	10213e <__tcf_0+0x6>
  102150:	bd38      	pop	{r3, r4, r5, pc}
  102152:	bf00      	nop
  102154:	3fff65dc 	.word	0x3fff65dc

00102158 <Accelerometer::~Accelerometer()>:
  102158:	b510      	push	{r4, lr}
  10215a:	4604      	mov	r4, r0
  10215c:	f007 f964 	bl	109428 <operator delete(void*)>
  102160:	4620      	mov	r0, r4
  102162:	bd10      	pop	{r4, pc}

00102164 <NHD_C0216CZ::~NHD_C0216CZ()>:
  102164:	b510      	push	{r4, lr}
  102166:	4604      	mov	r4, r0
  102168:	3040      	adds	r0, #64	; 0x40
  10216a:	f002 fcdd 	bl	104b28 <PCA9655E::~PCA9655E()>
  10216e:	4620      	mov	r0, r4
  102170:	bd10      	pop	{r4, pc}
	...

00102174 <mbed::Ticker::~Ticker()>:
  102174:	b538      	push	{r3, r4, r5, lr}
  102176:	4605      	mov	r5, r0
  102178:	4604      	mov	r4, r0
  10217a:	4b07      	ldr	r3, [pc, #28]	; (102198 <mbed::Ticker::~Ticker()+0x24>)
  10217c:	f845 3b28 	str.w	r3, [r5], #40
  102180:	f006 fdb4 	bl	108cec <mbed::Ticker::detach()>
  102184:	6b63      	ldr	r3, [r4, #52]	; 0x34
  102186:	b113      	cbz	r3, 10218e <mbed::Ticker::~Ticker()+0x1a>
  102188:	689b      	ldr	r3, [r3, #8]
  10218a:	4628      	mov	r0, r5
  10218c:	4798      	blx	r3
  10218e:	4620      	mov	r0, r4
  102190:	f006 fe84 	bl	108e9c <mbed::TimerEvent::~TimerEvent()>
  102194:	4620      	mov	r0, r4
  102196:	bd38      	pop	{r3, r4, r5, pc}
  102198:	001117d0 	.word	0x001117d0

0010219c <std::__cxx11::basic_string<char, std::char_traits<char>, std::allocator<char> >::basic_string(char const*, std::allocator<char> const&) [clone .isra.15] [clone .constprop.17]>:
  10219c:	b510      	push	{r4, lr}
  10219e:	4604      	mov	r4, r0
  1021a0:	4a05      	ldr	r2, [pc, #20]	; (1021b8 <std::__cxx11::basic_string<char, std::char_traits<char>, std::allocator<char> >::basic_string(char const*, std::allocator<char> const&) [clone .isra.15] [clone .constprop.17]+0x1c>)
  1021a2:	3008      	adds	r0, #8
  1021a4:	6020      	str	r0, [r4, #0]
  1021a6:	4611      	mov	r1, r2
  1021a8:	f007 fc28 	bl	1099fc <std::__cxx11::basic_string<char, std::char_traits<char>, std::allocator<char> >::_S_copy_chars(char*, char const*, char const*)>
  1021ac:	6822      	ldr	r2, [r4, #0]
  1021ae:	2300      	movs	r3, #0
  1021b0:	6063      	str	r3, [r4, #4]
  1021b2:	7013      	strb	r3, [r2, #0]
  1021b4:	4620      	mov	r0, r4
  1021b6:	bd10      	pop	{r4, pc}
  1021b8:	00111a2d 	.word	0x00111a2d

001021bc <mbed::I2C::~I2C()>:
  1021bc:	b510      	push	{r4, lr}
  1021be:	4604      	mov	r4, r0
  1021c0:	f007 f932 	bl	109428 <operator delete(void*)>
  1021c4:	4620      	mov	r0, r4
  1021c6:	bd10      	pop	{r4, pc}

001021c8 <mbed::Ticker::~Ticker()>:
  1021c8:	b510      	push	{r4, lr}
  1021ca:	4604      	mov	r4, r0
  1021cc:	f7ff ffd2 	bl	102174 <mbed::Ticker::~Ticker()>
  1021d0:	4620      	mov	r0, r4
  1021d2:	f007 f929 	bl	109428 <operator delete(void*)>
  1021d6:	4620      	mov	r0, r4
  1021d8:	bd10      	pop	{r4, pc}
	...

001021dc <Accelerometer::accel_initialize()>:
  1021dc:	b5f0      	push	{r4, r5, r6, r7, lr}
  1021de:	232d      	movs	r3, #45	; 0x2d
  1021e0:	b085      	sub	sp, #20
  1021e2:	4d17      	ldr	r5, [pc, #92]	; (102240 <Accelerometer::accel_initialize()+0x64>)
  1021e4:	4c17      	ldr	r4, [pc, #92]	; (102244 <Accelerometer::accel_initialize()+0x68>)
  1021e6:	2600      	movs	r6, #0
  1021e8:	f88d 3008 	strb.w	r3, [sp, #8]
  1021ec:	2308      	movs	r3, #8
  1021ee:	4607      	mov	r7, r0
  1021f0:	f88d 3009 	strb.w	r3, [sp, #9]
  1021f4:	aa02      	add	r2, sp, #8
  1021f6:	6829      	ldr	r1, [r5, #0]
  1021f8:	9600      	str	r6, [sp, #0]
  1021fa:	2302      	movs	r3, #2
  1021fc:	4620      	mov	r0, r4
  1021fe:	f006 fac7 	bl	108790 <mbed::I2C::write(int, char const*, int, bool)>
  102202:	2338      	movs	r3, #56	; 0x38
  102204:	f88d 3008 	strb.w	r3, [sp, #8]
  102208:	233f      	movs	r3, #63	; 0x3f
  10220a:	f88d 3009 	strb.w	r3, [sp, #9]
  10220e:	aa02      	add	r2, sp, #8
  102210:	6829      	ldr	r1, [r5, #0]
  102212:	9600      	str	r6, [sp, #0]
  102214:	2302      	movs	r3, #2
  102216:	4620      	mov	r0, r4
  102218:	f006 faba 	bl	108790 <mbed::I2C::write(int, char const*, int, bool)>
  10221c:	2331      	movs	r3, #49	; 0x31
  10221e:	f88d 300c 	strb.w	r3, [sp, #12]
  102222:	23fc      	movs	r3, #252	; 0xfc
  102224:	f88d 300d 	strb.w	r3, [sp, #13]
  102228:	9600      	str	r6, [sp, #0]
  10222a:	2302      	movs	r3, #2
  10222c:	aa03      	add	r2, sp, #12
  10222e:	6829      	ldr	r1, [r5, #0]
  102230:	4620      	mov	r0, r4
  102232:	f006 faad 	bl	108790 <mbed::I2C::write(int, char const*, int, bool)>
  102236:	2301      	movs	r3, #1
  102238:	743b      	strb	r3, [r7, #16]
  10223a:	b005      	add	sp, #20
  10223c:	bdf0      	pop	{r4, r5, r6, r7, pc}
  10223e:	bf00      	nop
  102240:	3fff40a4 	.word	0x3fff40a4
  102244:	3fff678c 	.word	0x3fff678c

00102248 <Accelerometer::read_X()>:
  102248:	b5f0      	push	{r4, r5, r6, r7, lr}
  10224a:	4d0d      	ldr	r5, [pc, #52]	; (102280 <Accelerometer::read_X()+0x38>)
  10224c:	b085      	sub	sp, #20
  10224e:	4c0d      	ldr	r4, [pc, #52]	; (102284 <Accelerometer::read_X()+0x3c>)
  102250:	aa04      	add	r2, sp, #16
  102252:	2600      	movs	r6, #0
  102254:	2332      	movs	r3, #50	; 0x32
  102256:	f802 3d04 	strb.w	r3, [r2, #-4]!
  10225a:	4607      	mov	r7, r0
  10225c:	6829      	ldr	r1, [r5, #0]
  10225e:	9600      	str	r6, [sp, #0]
  102260:	2301      	movs	r3, #1
  102262:	4620      	mov	r0, r4
  102264:	f006 fa94 	bl	108790 <mbed::I2C::write(int, char const*, int, bool)>
  102268:	9600      	str	r6, [sp, #0]
  10226a:	2302      	movs	r3, #2
  10226c:	aa02      	add	r2, sp, #8
  10226e:	6829      	ldr	r1, [r5, #0]
  102270:	4620      	mov	r0, r4
  102272:	f006 faad 	bl	1087d0 <mbed::I2C::read(int, char*, int, bool)>
  102276:	f89d 3009 	ldrb.w	r3, [sp, #9]
  10227a:	607b      	str	r3, [r7, #4]
  10227c:	b005      	add	sp, #20
  10227e:	bdf0      	pop	{r4, r5, r6, r7, pc}
  102280:	3fff40a4 	.word	0x3fff40a4
  102284:	3fff678c 	.word	0x3fff678c

00102288 <Accelerometer::read_y()>:
  102288:	b5f0      	push	{r4, r5, r6, r7, lr}
  10228a:	4d0d      	ldr	r5, [pc, #52]	; (1022c0 <Accelerometer::read_y()+0x38>)
  10228c:	b085      	sub	sp, #20
  10228e:	4c0d      	ldr	r4, [pc, #52]	; (1022c4 <Accelerometer::read_y()+0x3c>)
  102290:	aa04      	add	r2, sp, #16
  102292:	2600      	movs	r6, #0
  102294:	2334      	movs	r3, #52	; 0x34
  102296:	f802 3d04 	strb.w	r3, [r2, #-4]!
  10229a:	4607      	mov	r7, r0
  10229c:	6829      	ldr	r1, [r5, #0]
  10229e:	9600      	str	r6, [sp, #0]
  1022a0:	2301      	movs	r3, #1
  1022a2:	4620      	mov	r0, r4
  1022a4:	f006 fa74 	bl	108790 <mbed::I2C::write(int, char const*, int, bool)>
  1022a8:	9600      	str	r6, [sp, #0]
  1022aa:	2302      	movs	r3, #2
  1022ac:	aa02      	add	r2, sp, #8
  1022ae:	6829      	ldr	r1, [r5, #0]
  1022b0:	4620      	mov	r0, r4
  1022b2:	f006 fa8d 	bl	1087d0 <mbed::I2C::read(int, char*, int, bool)>
  1022b6:	f89d 3009 	ldrb.w	r3, [sp, #9]
  1022ba:	60bb      	str	r3, [r7, #8]
  1022bc:	b005      	add	sp, #20
  1022be:	bdf0      	pop	{r4, r5, r6, r7, pc}
  1022c0:	3fff40a4 	.word	0x3fff40a4
  1022c4:	3fff678c 	.word	0x3fff678c

001022c8 <Accelerometer::read_z()>:
  1022c8:	b5f0      	push	{r4, r5, r6, r7, lr}
  1022ca:	4d0d      	ldr	r5, [pc, #52]	; (102300 <Accelerometer::read_z()+0x38>)
  1022cc:	b085      	sub	sp, #20
  1022ce:	4c0d      	ldr	r4, [pc, #52]	; (102304 <Accelerometer::read_z()+0x3c>)
  1022d0:	aa04      	add	r2, sp, #16
  1022d2:	2600      	movs	r6, #0
  1022d4:	2336      	movs	r3, #54	; 0x36
  1022d6:	f802 3d04 	strb.w	r3, [r2, #-4]!
  1022da:	4607      	mov	r7, r0
  1022dc:	6829      	ldr	r1, [r5, #0]
  1022de:	9600      	str	r6, [sp, #0]
  1022e0:	2301      	movs	r3, #1
  1022e2:	4620      	mov	r0, r4
  1022e4:	f006 fa54 	bl	108790 <mbed::I2C::write(int, char const*, int, bool)>
  1022e8:	9600      	str	r6, [sp, #0]
  1022ea:	2302      	movs	r3, #2
  1022ec:	aa02      	add	r2, sp, #8
  1022ee:	6829      	ldr	r1, [r5, #0]
  1022f0:	4620      	mov	r0, r4
  1022f2:	f006 fa6d 	bl	1087d0 <mbed::I2C::read(int, char*, int, bool)>
  1022f6:	f89d 3009 	ldrb.w	r3, [sp, #9]
  1022fa:	60fb      	str	r3, [r7, #12]
  1022fc:	b005      	add	sp, #20
  1022fe:	bdf0      	pop	{r4, r5, r6, r7, pc}
  102300:	3fff40a4 	.word	0x3fff40a4
  102304:	3fff678c 	.word	0x3fff678c

00102308 <Accelerometer::read_axis()>:
  102308:	b510      	push	{r4, lr}
  10230a:	4604      	mov	r4, r0
  10230c:	f7ff ff9c 	bl	102248 <Accelerometer::read_X()>
  102310:	4620      	mov	r0, r4
  102312:	f7ff ffb9 	bl	102288 <Accelerometer::read_y()>
  102316:	4620      	mov	r0, r4
  102318:	e8bd 4010 	ldmia.w	sp!, {r4, lr}
  10231c:	f7ff bfd4 	b.w	1022c8 <Accelerometer::read_z()>

00102320 <Accelerometer::GetNewData(int, int, int)>:
  102320:	b508      	push	{r3, lr}
  102322:	f7ff fff1 	bl	102308 <Accelerometer::read_axis()>
  102326:	e8bd 4008 	ldmia.w	sp!, {r3, lr}
  10232a:	2032      	movs	r0, #50	; 0x32
  10232c:	f007 b936 	b.w	10959c <wait_us>

00102330 <Accelerometer::devSetup(char*)>:
  102330:	b51f      	push	{r0, r1, r2, r3, r4, lr}
  102332:	780b      	ldrb	r3, [r1, #0]
  102334:	4604      	mov	r4, r0
  102336:	2b6d      	cmp	r3, #109	; 0x6d
  102338:	4608      	mov	r0, r1
  10233a:	d14d      	bne.n	1023d8 <Accelerometer::devSetup(char*)+0xa8>
  10233c:	4b27      	ldr	r3, [pc, #156]	; (1023dc <Accelerometer::devSetup(char*)+0xac>)
  10233e:	4299      	cmp	r1, r3
  102340:	d104      	bne.n	10234c <Accelerometer::devSetup(char*)+0x1c>
  102342:	2331      	movs	r3, #49	; 0x31
  102344:	f88d 300c 	strb.w	r3, [sp, #12]
  102348:	23fc      	movs	r3, #252	; 0xfc
  10234a:	e03a      	b.n	1023c2 <Accelerometer::devSetup(char*)+0x92>
  10234c:	4b24      	ldr	r3, [pc, #144]	; (1023e0 <Accelerometer::devSetup(char*)+0xb0>)
  10234e:	4299      	cmp	r1, r3
  102350:	d104      	bne.n	10235c <Accelerometer::devSetup(char*)+0x2c>
  102352:	2331      	movs	r3, #49	; 0x31
  102354:	f88d 300c 	strb.w	r3, [sp, #12]
  102358:	23fd      	movs	r3, #253	; 0xfd
  10235a:	e032      	b.n	1023c2 <Accelerometer::devSetup(char*)+0x92>
  10235c:	4b21      	ldr	r3, [pc, #132]	; (1023e4 <Accelerometer::devSetup(char*)+0xb4>)
  10235e:	4299      	cmp	r1, r3
  102360:	d104      	bne.n	10236c <Accelerometer::devSetup(char*)+0x3c>
  102362:	2331      	movs	r3, #49	; 0x31
  102364:	f88d 300c 	strb.w	r3, [sp, #12]
  102368:	23fe      	movs	r3, #254	; 0xfe
  10236a:	e02a      	b.n	1023c2 <Accelerometer::devSetup(char*)+0x92>
  10236c:	4b1e      	ldr	r3, [pc, #120]	; (1023e8 <Accelerometer::devSetup(char*)+0xb8>)
  10236e:	4299      	cmp	r1, r3
  102370:	d101      	bne.n	102376 <Accelerometer::devSetup(char*)+0x46>
  102372:	2331      	movs	r3, #49	; 0x31
  102374:	e016      	b.n	1023a4 <Accelerometer::devSetup(char*)+0x74>
  102376:	4b1d      	ldr	r3, [pc, #116]	; (1023ec <Accelerometer::devSetup(char*)+0xbc>)
  102378:	4299      	cmp	r1, r3
  10237a:	d01e      	beq.n	1023ba <Accelerometer::devSetup(char*)+0x8a>
  10237c:	4b1c      	ldr	r3, [pc, #112]	; (1023f0 <Accelerometer::devSetup(char*)+0xc0>)
  10237e:	4299      	cmp	r1, r3
  102380:	d104      	bne.n	10238c <Accelerometer::devSetup(char*)+0x5c>
  102382:	2338      	movs	r3, #56	; 0x38
  102384:	f88d 300c 	strb.w	r3, [sp, #12]
  102388:	237f      	movs	r3, #127	; 0x7f
  10238a:	e01a      	b.n	1023c2 <Accelerometer::devSetup(char*)+0x92>
  10238c:	4b19      	ldr	r3, [pc, #100]	; (1023f4 <Accelerometer::devSetup(char*)+0xc4>)
  10238e:	4299      	cmp	r1, r3
  102390:	d104      	bne.n	10239c <Accelerometer::devSetup(char*)+0x6c>
  102392:	2338      	movs	r3, #56	; 0x38
  102394:	f88d 300c 	strb.w	r3, [sp, #12]
  102398:	23bf      	movs	r3, #191	; 0xbf
  10239a:	e012      	b.n	1023c2 <Accelerometer::devSetup(char*)+0x92>
  10239c:	4b16      	ldr	r3, [pc, #88]	; (1023f8 <Accelerometer::devSetup(char*)+0xc8>)
  10239e:	4299      	cmp	r1, r3
  1023a0:	d104      	bne.n	1023ac <Accelerometer::devSetup(char*)+0x7c>
  1023a2:	2338      	movs	r3, #56	; 0x38
  1023a4:	f88d 300c 	strb.w	r3, [sp, #12]
  1023a8:	2303      	movs	r3, #3
  1023aa:	e00a      	b.n	1023c2 <Accelerometer::devSetup(char*)+0x92>
  1023ac:	4913      	ldr	r1, [pc, #76]	; (1023fc <Accelerometer::devSetup(char*)+0xcc>)
  1023ae:	f00b f88a 	bl	10d4c6 <strcmp>
  1023b2:	b988      	cbnz	r0, 1023d8 <Accelerometer::devSetup(char*)+0xa8>
  1023b4:	4620      	mov	r0, r4
  1023b6:	f7ff ff11 	bl	1021dc <Accelerometer::accel_initialize()>
  1023ba:	2338      	movs	r3, #56	; 0x38
  1023bc:	f88d 300c 	strb.w	r3, [sp, #12]
  1023c0:	233f      	movs	r3, #63	; 0x3f
  1023c2:	f88d 300d 	strb.w	r3, [sp, #13]
  1023c6:	490e      	ldr	r1, [pc, #56]	; (102400 <Accelerometer::devSetup(char*)+0xd0>)
  1023c8:	2300      	movs	r3, #0
  1023ca:	9300      	str	r3, [sp, #0]
  1023cc:	aa03      	add	r2, sp, #12
  1023ce:	2302      	movs	r3, #2
  1023d0:	6809      	ldr	r1, [r1, #0]
  1023d2:	480c      	ldr	r0, [pc, #48]	; (102404 <Accelerometer::devSetup(char*)+0xd4>)
  1023d4:	f006 f9dc 	bl	108790 <mbed::I2C::write(int, char const*, int, bool)>
  1023d8:	b004      	add	sp, #16
  1023da:	bd10      	pop	{r4, pc}
  1023dc:	00110a40 	.word	0x00110a40
  1023e0:	00110a44 	.word	0x00110a44
  1023e4:	00110a48 	.word	0x00110a48
  1023e8:	00110a4c 	.word	0x00110a4c
  1023ec:	00110a51 	.word	0x00110a51
  1023f0:	00110a57 	.word	0x00110a57
  1023f4:	00110a65 	.word	0x00110a65
  1023f8:	00110a71 	.word	0x00110a71
  1023fc:	00110a7e 	.word	0x00110a7e
  102400:	3fff40a4 	.word	0x3fff40a4
  102404:	3fff678c 	.word	0x3fff678c

00102408 <Accelerometer::Accelerometer()>:
  102408:	4a02      	ldr	r2, [pc, #8]	; (102414 <Accelerometer::Accelerometer()+0xc>)
  10240a:	6002      	str	r2, [r0, #0]
  10240c:	2200      	movs	r2, #0
  10240e:	7402      	strb	r2, [r0, #16]
  102410:	4770      	bx	lr
  102412:	bf00      	nop
  102414:	00110a38 	.word	0x00110a38

00102418 <_GLOBAL__sub_I_AccelAddres>:
  102418:	b573      	push	{r0, r1, r4, r5, r6, lr}
  10241a:	4842      	ldr	r0, [pc, #264]	; (102524 <_GLOBAL__sub_I_AccelAddres+0x10c>)
  10241c:	f7ff febe 	bl	10219c <std::__cxx11::basic_string<char, std::char_traits<char>, std::allocator<char> >::basic_string(char const*, std::allocator<char> const&) [clone .isra.15] [clone .constprop.17]>
  102420:	4a41      	ldr	r2, [pc, #260]	; (102528 <_GLOBAL__sub_I_AccelAddres+0x110>)
  102422:	4942      	ldr	r1, [pc, #264]	; (10252c <_GLOBAL__sub_I_AccelAddres+0x114>)
  102424:	483f      	ldr	r0, [pc, #252]	; (102524 <_GLOBAL__sub_I_AccelAddres+0x10c>)
  102426:	f006 ffca 	bl	1093be <__aeabi_atexit>
  10242a:	4b41      	ldr	r3, [pc, #260]	; (102530 <_GLOBAL__sub_I_AccelAddres+0x118>)
  10242c:	2200      	movs	r2, #0
  10242e:	f503 70c0 	add.w	r0, r3, #384	; 0x180
  102432:	4619      	mov	r1, r3
  102434:	f843 2c04 	str.w	r2, [r3, #-4]
  102438:	f843 3c08 	str.w	r3, [r3, #-8]
  10243c:	f801 2b18 	strb.w	r2, [r1], #24
  102440:	6119      	str	r1, [r3, #16]
  102442:	615a      	str	r2, [r3, #20]
  102444:	761a      	strb	r2, [r3, #24]
  102446:	3330      	adds	r3, #48	; 0x30
  102448:	4283      	cmp	r3, r0
  10244a:	f04f 0500 	mov.w	r5, #0
  10244e:	d1f0      	bne.n	102432 <_GLOBAL__sub_I_AccelAddres+0x1a>
  102450:	4a35      	ldr	r2, [pc, #212]	; (102528 <_GLOBAL__sub_I_AccelAddres+0x110>)
  102452:	4938      	ldr	r1, [pc, #224]	; (102534 <_GLOBAL__sub_I_AccelAddres+0x11c>)
  102454:	4628      	mov	r0, r5
  102456:	f006 ffb2 	bl	1093be <__aeabi_atexit>
  10245a:	4837      	ldr	r0, [pc, #220]	; (102538 <_GLOBAL__sub_I_AccelAddres+0x120>)
  10245c:	f7ff fe9e 	bl	10219c <std::__cxx11::basic_string<char, std::char_traits<char>, std::allocator<char> >::basic_string(char const*, std::allocator<char> const&) [clone .isra.15] [clone .constprop.17]>
  102460:	4a31      	ldr	r2, [pc, #196]	; (102528 <_GLOBAL__sub_I_AccelAddres+0x110>)
  102462:	4932      	ldr	r1, [pc, #200]	; (10252c <_GLOBAL__sub_I_AccelAddres+0x114>)
  102464:	4834      	ldr	r0, [pc, #208]	; (102538 <_GLOBAL__sub_I_AccelAddres+0x120>)
  102466:	f006 ffaa 	bl	1093be <__aeabi_atexit>
  10246a:	4834      	ldr	r0, [pc, #208]	; (10253c <_GLOBAL__sub_I_AccelAddres+0x124>)
  10246c:	f7ff fe96 	bl	10219c <std::__cxx11::basic_string<char, std::char_traits<char>, std::allocator<char> >::basic_string(char const*, std::allocator<char> const&) [clone .isra.15] [clone .constprop.17]>
  102470:	4a2d      	ldr	r2, [pc, #180]	; (102528 <_GLOBAL__sub_I_AccelAddres+0x110>)
  102472:	492e      	ldr	r1, [pc, #184]	; (10252c <_GLOBAL__sub_I_AccelAddres+0x114>)
  102474:	4831      	ldr	r0, [pc, #196]	; (10253c <_GLOBAL__sub_I_AccelAddres+0x124>)
  102476:	f006 ffa2 	bl	1093be <__aeabi_atexit>
  10247a:	4831      	ldr	r0, [pc, #196]	; (102540 <_GLOBAL__sub_I_AccelAddres+0x128>)
  10247c:	f7ff fe8e 	bl	10219c <std::__cxx11::basic_string<char, std::char_traits<char>, std::allocator<char> >::basic_string(char const*, std::allocator<char> const&) [clone .isra.15] [clone .constprop.17]>
  102480:	4a29      	ldr	r2, [pc, #164]	; (102528 <_GLOBAL__sub_I_AccelAddres+0x110>)
  102482:	492a      	ldr	r1, [pc, #168]	; (10252c <_GLOBAL__sub_I_AccelAddres+0x114>)
  102484:	482e      	ldr	r0, [pc, #184]	; (102540 <_GLOBAL__sub_I_AccelAddres+0x128>)
  102486:	f006 ff9a 	bl	1093be <__aeabi_atexit>
  10248a:	482e      	ldr	r0, [pc, #184]	; (102544 <_GLOBAL__sub_I_AccelAddres+0x12c>)
  10248c:	f007 f9aa 	bl	1097e4 <rtos::Mutex::Mutex()>
  102490:	4a25      	ldr	r2, [pc, #148]	; (102528 <_GLOBAL__sub_I_AccelAddres+0x110>)
  102492:	492d      	ldr	r1, [pc, #180]	; (102548 <_GLOBAL__sub_I_AccelAddres+0x130>)
  102494:	482b      	ldr	r0, [pc, #172]	; (102544 <_GLOBAL__sub_I_AccelAddres+0x12c>)
  102496:	f006 ff92 	bl	1093be <__aeabi_atexit>
  10249a:	4c2c      	ldr	r4, [pc, #176]	; (10254c <_GLOBAL__sub_I_AccelAddres+0x134>)
  10249c:	2202      	movs	r2, #2
  10249e:	2103      	movs	r1, #3
  1024a0:	482b      	ldr	r0, [pc, #172]	; (102550 <_GLOBAL__sub_I_AccelAddres+0x138>)
  1024a2:	f006 f92b 	bl	1086fc <mbed::I2C::I2C(PinName, PinName)>
  1024a6:	4e2b      	ldr	r6, [pc, #172]	; (102554 <_GLOBAL__sub_I_AccelAddres+0x13c>)
  1024a8:	4a1f      	ldr	r2, [pc, #124]	; (102528 <_GLOBAL__sub_I_AccelAddres+0x110>)
  1024aa:	492b      	ldr	r1, [pc, #172]	; (102558 <_GLOBAL__sub_I_AccelAddres+0x140>)
  1024ac:	4828      	ldr	r0, [pc, #160]	; (102550 <_GLOBAL__sub_I_AccelAddres+0x138>)
  1024ae:	f006 ff86 	bl	1093be <__aeabi_atexit>
  1024b2:	4620      	mov	r0, r4
  1024b4:	f006 fcca 	bl	108e4c <mbed::TimerEvent::TimerEvent()>
  1024b8:	6026      	str	r6, [r4, #0]
  1024ba:	6365      	str	r5, [r4, #52]	; 0x34
  1024bc:	4620      	mov	r0, r4
  1024be:	4c27      	ldr	r4, [pc, #156]	; (10255c <_GLOBAL__sub_I_AccelAddres+0x144>)
  1024c0:	4a19      	ldr	r2, [pc, #100]	; (102528 <_GLOBAL__sub_I_AccelAddres+0x110>)
  1024c2:	4927      	ldr	r1, [pc, #156]	; (102560 <_GLOBAL__sub_I_AccelAddres+0x148>)
  1024c4:	f006 ff7b 	bl	1093be <__aeabi_atexit>
  1024c8:	4620      	mov	r0, r4
  1024ca:	f006 fcbf 	bl	108e4c <mbed::TimerEvent::TimerEvent()>
  1024ce:	6026      	str	r6, [r4, #0]
  1024d0:	6365      	str	r5, [r4, #52]	; 0x34
  1024d2:	4620      	mov	r0, r4
  1024d4:	4c23      	ldr	r4, [pc, #140]	; (102564 <_GLOBAL__sub_I_AccelAddres+0x14c>)
  1024d6:	f04f 36ff 	mov.w	r6, #4294967295
  1024da:	4a13      	ldr	r2, [pc, #76]	; (102528 <_GLOBAL__sub_I_AccelAddres+0x110>)
  1024dc:	4920      	ldr	r1, [pc, #128]	; (102560 <_GLOBAL__sub_I_AccelAddres+0x148>)
  1024de:	f006 ff6e 	bl	1093be <__aeabi_atexit>
  1024e2:	2304      	movs	r3, #4
  1024e4:	2206      	movs	r2, #6
  1024e6:	9600      	str	r6, [sp, #0]
  1024e8:	2105      	movs	r1, #5
  1024ea:	4620      	mov	r0, r4
  1024ec:	f006 fb2a 	bl	108b44 <mbed::SPI::SPI(PinName, PinName, PinName, PinName)>
  1024f0:	4631      	mov	r1, r6
  1024f2:	f104 002c 	add.w	r0, r4, #44	; 0x2c
  1024f6:	62e5      	str	r5, [r4, #44]	; 0x2c
  1024f8:	f884 5030 	strb.w	r5, [r4, #48]	; 0x30
  1024fc:	6365      	str	r5, [r4, #52]	; 0x34
  1024fe:	f002 fe0b 	bl	105118 <gpio_init_out>
  102502:	9600      	str	r6, [sp, #0]
  102504:	2320      	movs	r3, #32
  102506:	2202      	movs	r2, #2
  102508:	2103      	movs	r1, #3
  10250a:	f104 0040 	add.w	r0, r4, #64	; 0x40
  10250e:	f002 fa47 	bl	1049a0 <PCA9655E::PCA9655E(PinName, PinName, unsigned char, PinName)>
  102512:	4620      	mov	r0, r4
  102514:	4a04      	ldr	r2, [pc, #16]	; (102528 <_GLOBAL__sub_I_AccelAddres+0x110>)
  102516:	4914      	ldr	r1, [pc, #80]	; (102568 <_GLOBAL__sub_I_AccelAddres+0x150>)
  102518:	b002      	add	sp, #8
  10251a:	e8bd 4070 	ldmia.w	sp!, {r4, r5, r6, lr}
  10251e:	f006 bf4e 	b.w	1093be <__aeabi_atexit>
  102522:	bf00      	nop
  102524:	3fff675c 	.word	0x3fff675c
  102528:	3fff40a0 	.word	0x3fff40a0
  10252c:	00109aaf 	.word	0x00109aaf
  102530:	3fff65e4 	.word	0x3fff65e4
  102534:	00102139 	.word	0x00102139
  102538:	3fff6818 	.word	0x3fff6818
  10253c:	3fff6774 	.word	0x3fff6774
  102540:	3fff6860 	.word	0x3fff6860
  102544:	3fff6830 	.word	0x3fff6830
  102548:	001097ff 	.word	0x001097ff
  10254c:	3fff67e0 	.word	0x3fff67e0
  102550:	3fff678c 	.word	0x3fff678c
  102554:	001117d0 	.word	0x001117d0
  102558:	00102135 	.word	0x00102135
  10255c:	3fff67a8 	.word	0x3fff67a8
  102560:	00102175 	.word	0x00102175
  102564:	3fff6878 	.word	0x3fff6878
  102568:	00102165 	.word	0x00102165

0010256c <void mbed::Callback<void ()>::function_call<void (*)()>(void const*)>:
  10256c:	6803      	ldr	r3, [r0, #0]
  10256e:	4718      	bx	r3

00102570 <void mbed::Callback<void ()>::function_move<void (*)()>(void*, void const*)>:
  102570:	b108      	cbz	r0, 102576 <void mbed::Callback<void ()>::function_move<void (*)()>(void*, void const*)+0x6>
  102572:	680b      	ldr	r3, [r1, #0]
  102574:	6003      	str	r3, [r0, #0]
  102576:	4770      	bx	lr

00102578 <void mbed::Callback<void ()>::function_dtor<void (*)()>(void*)>:
  102578:	4770      	bx	lr
	...

0010257c <__tcf_0>:
  10257c:	b538      	push	{r3, r4, r5, lr}
  10257e:	4d06      	ldr	r5, [pc, #24]	; (102598 <__tcf_0+0x1c>)
  102580:	2400      	movs	r4, #0
  102582:	f504 70b4 	add.w	r0, r4, #360	; 0x168
  102586:	4428      	add	r0, r5
  102588:	3c18      	subs	r4, #24
  10258a:	f007 f9ef 	bl	10996c <std::__cxx11::basic_string<char, std::char_traits<char>, std::allocator<char> >::_M_dispose()>
  10258e:	f514 7fc0 	cmn.w	r4, #384	; 0x180
  102592:	d1f6      	bne.n	102582 <__tcf_0+0x6>
  102594:	bd38      	pop	{r3, r4, r5, pc}
  102596:	bf00      	nop
  102598:	3fff75b0 	.word	0x3fff75b0

0010259c <IRQ_MotionDetector()>:
  10259c:	e92d 41ff 	stmdb	sp!, {r0, r1, r2, r3, r4, r5, r6, r7, r8, lr}
  1025a0:	4a33      	ldr	r2, [pc, #204]	; (102670 <IRQ_MotionDetector()+0xd4>)
  1025a2:	4d34      	ldr	r5, [pc, #208]	; (102674 <IRQ_MotionDetector()+0xd8>)
  1025a4:	6813      	ldr	r3, [r2, #0]
  1025a6:	ae01      	add	r6, sp, #4
  1025a8:	3301      	adds	r3, #1
  1025aa:	2b0a      	cmp	r3, #10
  1025ac:	bfc1      	itttt	gt
  1025ae:	2300      	movgt	r3, #0
  1025b0:	6013      	strgt	r3, [r2, #0]
  1025b2:	4a31      	ldrgt	r2, [pc, #196]	; (102678 <IRQ_MotionDetector()+0xdc>)
  1025b4:	6013      	strgt	r3, [r2, #0]
  1025b6:	bfc8      	it	gt
  1025b8:	4a30      	ldrgt	r2, [pc, #192]	; (10267c <IRQ_MotionDetector()+0xe0>)
  1025ba:	6013      	str	r3, [r2, #0]
  1025bc:	7c2b      	ldrb	r3, [r5, #16]
  1025be:	b93b      	cbnz	r3, 1025d0 <IRQ_MotionDetector()+0x34>
  1025c0:	492f      	ldr	r1, [pc, #188]	; (102680 <IRQ_MotionDetector()+0xe4>)
  1025c2:	4630      	mov	r0, r6
  1025c4:	f00a ff89 	bl	10d4da <strcpy>
  1025c8:	4631      	mov	r1, r6
  1025ca:	4628      	mov	r0, r5
  1025cc:	f7ff feb0 	bl	102330 <Accelerometer::devSetup(char*)>
  1025d0:	2400      	movs	r4, #0
  1025d2:	4828      	ldr	r0, [pc, #160]	; (102674 <IRQ_MotionDetector()+0xd8>)
  1025d4:	f88d 4000 	strb.w	r4, [sp]
  1025d8:	f88d 4001 	strb.w	r4, [sp, #1]
  1025dc:	f88d 4002 	strb.w	r4, [sp, #2]
  1025e0:	f7ff fe92 	bl	102308 <Accelerometer::read_axis()>
  1025e4:	4623      	mov	r3, r4
  1025e6:	46a4      	mov	r12, r4
  1025e8:	f8d5 e004 	ldr.w	lr, [r5, #4]
  1025ec:	68af      	ldr	r7, [r5, #8]
  1025ee:	68e8      	ldr	r0, [r5, #12]
  1025f0:	4d24      	ldr	r5, [pc, #144]	; (102684 <IRQ_MotionDetector()+0xe8>)
  1025f2:	f8cd e004 	str.w	lr, [sp, #4]
  1025f6:	9702      	str	r7, [sp, #8]
  1025f8:	9003      	str	r0, [sp, #12]
  1025fa:	f04f 0801 	mov.w	r8, #1
  1025fe:	f856 2023 	ldr.w	r2, [r6, r3, lsl #2]
  102602:	f855 4023 	ldr.w	r4, [r5, r3, lsl #2]
  102606:	f1a2 010a 	sub.w	r1, r2, #10
  10260a:	42a1      	cmp	r1, r4
  10260c:	491d      	ldr	r1, [pc, #116]	; (102684 <IRQ_MotionDetector()+0xe8>)
  10260e:	dc05      	bgt.n	10261c <IRQ_MotionDetector()+0x80>
  102610:	320a      	adds	r2, #10
  102612:	4294      	cmp	r4, r2
  102614:	dc02      	bgt.n	10261c <IRQ_MotionDetector()+0x80>
  102616:	f80d 8003 	strb.w	r8, [sp, r3]
  10261a:	e001      	b.n	102620 <IRQ_MotionDetector()+0x84>
  10261c:	f80d c003 	strb.w	r12, [sp, r3]
  102620:	3301      	adds	r3, #1
  102622:	2b03      	cmp	r3, #3
  102624:	d1eb      	bne.n	1025fe <IRQ_MotionDetector()+0x62>
  102626:	f89d 4000 	ldrb.w	r4, [sp]
  10262a:	4a13      	ldr	r2, [pc, #76]	; (102678 <IRQ_MotionDetector()+0xdc>)
  10262c:	4b13      	ldr	r3, [pc, #76]	; (10267c <IRQ_MotionDetector()+0xe0>)
  10262e:	b12c      	cbz	r4, 10263c <IRQ_MotionDetector()+0xa0>
  102630:	f89d 4001 	ldrb.w	r4, [sp, #1]
  102634:	b114      	cbz	r4, 10263c <IRQ_MotionDetector()+0xa0>
  102636:	f89d 4002 	ldrb.w	r4, [sp, #2]
  10263a:	b93c      	cbnz	r4, 10264c <IRQ_MotionDetector()+0xb0>
  10263c:	f8c1 e000 	str.w	lr, [r1]
  102640:	604f      	str	r7, [r1, #4]
  102642:	6088      	str	r0, [r1, #8]
  102644:	6811      	ldr	r1, [r2, #0]
  102646:	3101      	adds	r1, #1
  102648:	6011      	str	r1, [r2, #0]
  10264a:	e002      	b.n	102652 <IRQ_MotionDetector()+0xb6>
  10264c:	6819      	ldr	r1, [r3, #0]
  10264e:	3101      	adds	r1, #1
  102650:	6019      	str	r1, [r3, #0]
  102652:	681b      	ldr	r3, [r3, #0]
  102654:	2102      	movs	r1, #2
  102656:	fb93 f3f1 	sdiv	r3, r3, r1
  10265a:	6812      	ldr	r2, [r2, #0]
  10265c:	4293      	cmp	r3, r2
  10265e:	4b0a      	ldr	r3, [pc, #40]	; (102688 <IRQ_MotionDetector()+0xec>)
  102660:	bfb4      	ite	lt
  102662:	2201      	movlt	r2, #1
  102664:	2200      	movge	r2, #0
  102666:	701a      	strb	r2, [r3, #0]
  102668:	b004      	add	sp, #16
  10266a:	e8bd 81f0 	ldmia.w	sp!, {r4, r5, r6, r7, r8, pc}
  10266e:	bf00      	nop
  102670:	3fff6ea0 	.word	0x3fff6ea0
  102674:	3fff6ea8 	.word	0x3fff6ea8
  102678:	3fff75ac 	.word	0x3fff75ac
  10267c:	3fff6b4c 	.word	0x3fff6b4c
  102680:	00110a7e 	.word	0x00110a7e
  102684:	3fff6a20 	.word	0x3fff6a20
  102688:	3fff7768 	.word	0x3fff7768

0010268c <IRQ_Watchdoq_ContinuoslyRun()>:
  10268c:	b570      	push	{r4, r5, r6, lr}
  10268e:	b086      	sub	sp, #24
  102690:	4668      	mov	r0, sp
  102692:	f002 f915 	bl	1048c0 <LED::LED()>
  102696:	4a36      	ldr	r2, [pc, #216]	; (102770 <IRQ_Watchdoq_ContinuoslyRun()+0xe4>)
  102698:	6813      	ldr	r3, [r2, #0]
  10269a:	3301      	adds	r3, #1
  10269c:	6013      	str	r3, [r2, #0]
  10269e:	4b35      	ldr	r3, [pc, #212]	; (102774 <IRQ_Watchdoq_ContinuoslyRun()+0xe8>)
  1026a0:	7819      	ldrb	r1, [r3, #0]
  1026a2:	b149      	cbz	r1, 1026b8 <IRQ_Watchdoq_ContinuoslyRun()+0x2c>
  1026a4:	2100      	movs	r1, #0
  1026a6:	4668      	mov	r0, sp
  1026a8:	7019      	strb	r1, [r3, #0]
  1026aa:	f002 f923 	bl	1048f4 <LED::ledOn(myLED)>
  1026ae:	2101      	movs	r1, #1
  1026b0:	4668      	mov	r0, sp
  1026b2:	f002 f93d 	bl	104930 <LED::ledOff(myLED)>
  1026b6:	e008      	b.n	1026ca <IRQ_Watchdoq_ContinuoslyRun()+0x3e>
  1026b8:	2401      	movs	r4, #1
  1026ba:	4668      	mov	r0, sp
  1026bc:	701c      	strb	r4, [r3, #0]
  1026be:	f002 f937 	bl	104930 <LED::ledOff(myLED)>
  1026c2:	4621      	mov	r1, r4
  1026c4:	4668      	mov	r0, sp
  1026c6:	f002 f915 	bl	1048f4 <LED::ledOn(myLED)>
  1026ca:	f002 fea1 	bl	105410 <core_util_critical_section_enter>
  1026ce:	2100      	movs	r1, #0
  1026d0:	4829      	ldr	r0, [pc, #164]	; (102778 <IRQ_Watchdoq_ContinuoslyRun()+0xec>)
  1026d2:	f004 fe3d 	bl	107350 <gpio_dir>
  1026d6:	f002 fec7 	bl	105468 <core_util_critical_section_exit>
  1026da:	4827      	ldr	r0, [pc, #156]	; (102778 <IRQ_Watchdoq_ContinuoslyRun()+0xec>)
  1026dc:	f004 fe58 	bl	107390 <gpio_read>
  1026e0:	4e26      	ldr	r6, [pc, #152]	; (10277c <IRQ_Watchdoq_ContinuoslyRun()+0xf0>)
  1026e2:	bb10      	cbnz	r0, 10272a <IRQ_Watchdoq_ContinuoslyRun()+0x9e>
  1026e4:	f7ff ff5a 	bl	10259c <IRQ_MotionDetector()>
  1026e8:	4925      	ldr	r1, [pc, #148]	; (102780 <IRQ_Watchdoq_ContinuoslyRun()+0xf4>)
  1026ea:	a801      	add	r0, sp, #4
  1026ec:	f00a fef5 	bl	10d4da <strcpy>
  1026f0:	2301      	movs	r3, #1
  1026f2:	2202      	movs	r2, #2
  1026f4:	a901      	add	r1, sp, #4
  1026f6:	4823      	ldr	r0, [pc, #140]	; (102784 <IRQ_Watchdoq_ContinuoslyRun()+0xf8>)
  1026f8:	f002 fb88 	bl	104e0c <NHD_C0216CZ::displayStringToPos(char const*, int, int)>
  1026fc:	2401      	movs	r4, #1
  1026fe:	4922      	ldr	r1, [pc, #136]	; (102788 <IRQ_Watchdoq_ContinuoslyRun()+0xfc>)
  102700:	a801      	add	r0, sp, #4
  102702:	f00a feea 	bl	10d4da <strcpy>
  102706:	4623      	mov	r3, r4
  102708:	2202      	movs	r2, #2
  10270a:	a901      	add	r1, sp, #4
  10270c:	481d      	ldr	r0, [pc, #116]	; (102784 <IRQ_Watchdoq_ContinuoslyRun()+0xf8>)
  10270e:	7034      	strb	r4, [r6, #0]
  102710:	f002 fb7c 	bl	104e0c <NHD_C0216CZ::displayStringToPos(char const*, int, int)>
  102714:	4b1d      	ldr	r3, [pc, #116]	; (10278c <IRQ_Watchdoq_ContinuoslyRun()+0x100>)
  102716:	781b      	ldrb	r3, [r3, #0]
  102718:	b33b      	cbz	r3, 10276a <IRQ_Watchdoq_ContinuoslyRun()+0xde>
  10271a:	4b1d      	ldr	r3, [pc, #116]	; (102790 <IRQ_Watchdoq_ContinuoslyRun()+0x104>)
  10271c:	781a      	ldrb	r2, [r3, #0]
  10271e:	b90a      	cbnz	r2, 102724 <IRQ_Watchdoq_ContinuoslyRun()+0x98>
  102720:	4a1c      	ldr	r2, [pc, #112]	; (102794 <IRQ_Watchdoq_ContinuoslyRun()+0x108>)
  102722:	7014      	strb	r4, [r2, #0]
  102724:	2200      	movs	r2, #0
  102726:	701a      	strb	r2, [r3, #0]
  102728:	e01f      	b.n	10276a <IRQ_Watchdoq_ContinuoslyRun()+0xde>
  10272a:	4b19      	ldr	r3, [pc, #100]	; (102790 <IRQ_Watchdoq_ContinuoslyRun()+0x104>)
  10272c:	2501      	movs	r5, #1
  10272e:	4914      	ldr	r1, [pc, #80]	; (102780 <IRQ_Watchdoq_ContinuoslyRun()+0xf4>)
  102730:	a801      	add	r0, sp, #4
  102732:	701d      	strb	r5, [r3, #0]
  102734:	f00a fed1 	bl	10d4da <strcpy>
  102738:	462b      	mov	r3, r5
  10273a:	2202      	movs	r2, #2
  10273c:	a901      	add	r1, sp, #4
  10273e:	4811      	ldr	r0, [pc, #68]	; (102784 <IRQ_Watchdoq_ContinuoslyRun()+0xf8>)
  102740:	f002 fb64 	bl	104e0c <NHD_C0216CZ::displayStringToPos(char const*, int, int)>
  102744:	4914      	ldr	r1, [pc, #80]	; (102798 <IRQ_Watchdoq_ContinuoslyRun()+0x10c>)
  102746:	a801      	add	r0, sp, #4
  102748:	f00a fec7 	bl	10d4da <strcpy>
  10274c:	4813      	ldr	r0, [pc, #76]	; (10279c <IRQ_Watchdoq_ContinuoslyRun()+0x110>)
  10274e:	f006 facd 	bl	108cec <mbed::Ticker::detach()>
  102752:	2400      	movs	r4, #0
  102754:	462b      	mov	r3, r5
  102756:	2202      	movs	r2, #2
  102758:	a901      	add	r1, sp, #4
  10275a:	480a      	ldr	r0, [pc, #40]	; (102784 <IRQ_Watchdoq_ContinuoslyRun()+0xf8>)
  10275c:	7034      	strb	r4, [r6, #0]
  10275e:	f002 fb55 	bl	104e0c <NHD_C0216CZ::displayStringToPos(char const*, int, int)>
  102762:	4b0c      	ldr	r3, [pc, #48]	; (102794 <IRQ_Watchdoq_ContinuoslyRun()+0x108>)
  102764:	701c      	strb	r4, [r3, #0]
  102766:	4b0e      	ldr	r3, [pc, #56]	; (1027a0 <IRQ_Watchdoq_ContinuoslyRun()+0x114>)
  102768:	701c      	strb	r4, [r3, #0]
  10276a:	b006      	add	sp, #24
  10276c:	bd70      	pop	{r4, r5, r6, pc}
  10276e:	bf00      	nop
  102770:	3fff6fec 	.word	0x3fff6fec
  102774:	3fff6b48 	.word	0x3fff6b48
  102778:	3fff6a30 	.word	0x3fff6a30
  10277c:	3fff6ff0 	.word	0x3fff6ff0
  102780:	00110aa4 	.word	0x00110aa4
  102784:	3fff6ebc 	.word	0x3fff6ebc
  102788:	00110ab0 	.word	0x00110ab0
  10278c:	3fff7768 	.word	0x3fff7768
  102790:	3fff40a8 	.word	0x3fff40a8
  102794:	3fff701c 	.word	0x3fff701c
  102798:	00110ab7 	.word	0x00110ab7
  10279c:	3fff7020 	.word	0x3fff7020
  1027a0:	3fff6ea4 	.word	0x3fff6ea4

001027a4 <IRQ_BLEmenu_sendAccel()>:
  1027a4:	b510      	push	{r4, lr}
  1027a6:	4c09      	ldr	r4, [pc, #36]	; (1027cc <IRQ_BLEmenu_sendAccel()+0x28>)
  1027a8:	b090      	sub	sp, #64	; 0x40
  1027aa:	4620      	mov	r0, r4
  1027ac:	f7ff fdac 	bl	102308 <Accelerometer::read_axis()>
  1027b0:	68e3      	ldr	r3, [r4, #12]
  1027b2:	6862      	ldr	r2, [r4, #4]
  1027b4:	9300      	str	r3, [sp, #0]
  1027b6:	4906      	ldr	r1, [pc, #24]	; (1027d0 <IRQ_BLEmenu_sendAccel()+0x2c>)
  1027b8:	68a3      	ldr	r3, [r4, #8]
  1027ba:	a803      	add	r0, sp, #12
  1027bc:	f00a fdf0 	bl	10d3a0 <siprintf>
  1027c0:	a903      	add	r1, sp, #12
  1027c2:	4804      	ldr	r0, [pc, #16]	; (1027d4 <IRQ_BLEmenu_sendAccel()+0x30>)
  1027c4:	f002 fb3c 	bl	104e40 <NHD_C0216CZ::displayString(char const*)>
  1027c8:	b010      	add	sp, #64	; 0x40
  1027ca:	bd10      	pop	{r4, pc}
  1027cc:	3fff6ea8 	.word	0x3fff6ea8
  1027d0:	00110ac0 	.word	0x00110ac0
  1027d4:	3fff6ebc 	.word	0x3fff6ebc

001027d8 <RSL10_BLE::~RSL10_BLE()>:
  1027d8:	b510      	push	{r4, lr}
  1027da:	4604      	mov	r4, r0
  1027dc:	4b03      	ldr	r3, [pc, #12]	; (1027ec <RSL10_BLE::~RSL10_BLE()+0x14>)
  1027de:	f840 3b04 	str.w	r3, [r0], #4
  1027e2:	f002 f9a1 	bl	104b28 <PCA9655E::~PCA9655E()>
  1027e6:	4620      	mov	r0, r4
  1027e8:	bd10      	pop	{r4, pc}
  1027ea:	bf00      	nop
  1027ec:	00110a90 	.word	0x00110a90

001027f0 <RSL10_BLE::~RSL10_BLE()>:
  1027f0:	b510      	push	{r4, lr}
  1027f2:	4604      	mov	r4, r0
  1027f4:	f7ff fff0 	bl	1027d8 <RSL10_BLE::~RSL10_BLE()>
  1027f8:	4620      	mov	r0, r4
  1027fa:	f006 fe15 	bl	109428 <operator delete(void*)>
  1027fe:	4620      	mov	r0, r4
  102800:	bd10      	pop	{r4, pc}
	...

00102804 <std::__cxx11::basic_string<char, std::char_traits<char>, std::allocator<char> >::basic_string(char const*, std::allocator<char> const&) [clone .isra.22]>:
  102804:	f100 0308 	add.w	r3, r0, #8
  102808:	b573      	push	{r0, r1, r4, r5, r6, lr}
  10280a:	4604      	mov	r4, r0
  10280c:	6003      	str	r3, [r0, #0]
  10280e:	460d      	mov	r5, r1
  102810:	b181      	cbz	r1, 102834 <std::__cxx11::basic_string<char, std::char_traits<char>, std::allocator<char> >::basic_string(char const*, std::allocator<char> const&) [clone .isra.22]+0x30>
  102812:	4608      	mov	r0, r1
  102814:	f00a fe69 	bl	10d4ea <strlen>
  102818:	280f      	cmp	r0, #15
  10281a:	eb05 0600 	add.w	r6, r5, r0
  10281e:	9001      	str	r0, [sp, #4]
  102820:	d90b      	bls.n	10283a <std::__cxx11::basic_string<char, std::char_traits<char>, std::allocator<char> >::basic_string(char const*, std::allocator<char> const&) [clone .isra.22]+0x36>
  102822:	2200      	movs	r2, #0
  102824:	a901      	add	r1, sp, #4
  102826:	4620      	mov	r0, r4
  102828:	f007 f884 	bl	109934 <std::__cxx11::basic_string<char, std::char_traits<char>, std::allocator<char> >::_M_create(unsigned int&, unsigned int)>
  10282c:	9b01      	ldr	r3, [sp, #4]
  10282e:	6020      	str	r0, [r4, #0]
  102830:	60a3      	str	r3, [r4, #8]
  102832:	e002      	b.n	10283a <std::__cxx11::basic_string<char, std::char_traits<char>, std::allocator<char> >::basic_string(char const*, std::allocator<char> const&) [clone .isra.22]+0x36>
  102834:	4807      	ldr	r0, [pc, #28]	; (102854 <std::__cxx11::basic_string<char, std::char_traits<char>, std::allocator<char> >::basic_string(char const*, std::allocator<char> const&) [clone .isra.22]+0x50>)
  102836:	f007 f857 	bl	1098e8 <std::__throw_logic_error(char const*)>
  10283a:	4632      	mov	r2, r6
  10283c:	4629      	mov	r1, r5
  10283e:	6820      	ldr	r0, [r4, #0]
  102840:	f007 f8dc 	bl	1099fc <std::__cxx11::basic_string<char, std::char_traits<char>, std::allocator<char> >::_S_copy_chars(char*, char const*, char const*)>
  102844:	4620      	mov	r0, r4
  102846:	9b01      	ldr	r3, [sp, #4]
  102848:	6822      	ldr	r2, [r4, #0]
  10284a:	2100      	movs	r1, #0
  10284c:	6063      	str	r3, [r4, #4]
  10284e:	54d1      	strb	r1, [r2, r3]
  102850:	b002      	add	sp, #8
  102852:	bd70      	pop	{r4, r5, r6, pc}
  102854:	00110ad1 	.word	0x00110ad1

00102858 <mbed::Ticker::Ticker()>:
  102858:	b510      	push	{r4, lr}
  10285a:	4604      	mov	r4, r0
  10285c:	f006 faf6 	bl	108e4c <mbed::TimerEvent::TimerEvent()>
  102860:	4b02      	ldr	r3, [pc, #8]	; (10286c <mbed::Ticker::Ticker()+0x14>)
  102862:	4620      	mov	r0, r4
  102864:	6023      	str	r3, [r4, #0]
  102866:	2300      	movs	r3, #0
  102868:	6363      	str	r3, [r4, #52]	; 0x34
  10286a:	bd10      	pop	{r4, pc}
  10286c:	001117d0 	.word	0x001117d0

00102870 <UartBUS_init()>:
  102870:	b510      	push	{r4, lr}
  102872:	4c06      	ldr	r4, [pc, #24]	; (10288c <UartBUS_init()+0x1c>)
  102874:	4620      	mov	r0, r4
  102876:	f001 fa43 	bl	103d00 <GSM::deactivate()>
  10287a:	4805      	ldr	r0, [pc, #20]	; (102890 <UartBUS_init()+0x20>)
  10287c:	f000 feda 	bl	103634 <GPS::deactivate()>
  102880:	4620      	mov	r0, r4
  102882:	e8bd 4010 	ldmia.w	sp!, {r4, lr}
  102886:	4903      	ldr	r1, [pc, #12]	; (102894 <UartBUS_init()+0x24>)
  102888:	f001 ba56 	b.w	103d38 <GSM::send(char*)>
  10288c:	3fff6a3c 	.word	0x3fff6a3c
  102890:	3fff7088 	.word	0x3fff7088
  102894:	00110afb 	.word	0x00110afb

00102898 <BLE_SendData(std::__cxx11::basic_string<char, std::char_traits<char>, std::allocator<char> >)>:
  102898:	b508      	push	{r3, lr}
  10289a:	e890 0006 	ldmia.w	r0, {r1, r2}
  10289e:	4804      	ldr	r0, [pc, #16]	; (1028b0 <BLE_SendData(std::__cxx11::basic_string<char, std::char_traits<char>, std::allocator<char> >)+0x18>)
  1028a0:	f002 fb20 	bl	104ee4 <RSL10_BLE::send(char const*, unsigned int)>
  1028a4:	4b03      	ldr	r3, [pc, #12]	; (1028b4 <BLE_SendData(std::__cxx11::basic_string<char, std::char_traits<char>, std::allocator<char> >)+0x1c>)
  1028a6:	6018      	str	r0, [r3, #0]
  1028a8:	3814      	subs	r0, #20
  1028aa:	bf18      	it	ne
  1028ac:	2001      	movne	r0, #1
  1028ae:	bd08      	pop	{r3, pc}
  1028b0:	3fff6dc0 	.word	0x3fff6dc0
  1028b4:	3fff6fe8 	.word	0x3fff6fe8

001028b8 <BLE_SendChar(char*)>:
  1028b8:	b510      	push	{r4, lr}
  1028ba:	4601      	mov	r1, r0
  1028bc:	4604      	mov	r4, r0
  1028be:	2204      	movs	r2, #4
  1028c0:	4804      	ldr	r0, [pc, #16]	; (1028d4 <BLE_SendChar(char*)+0x1c>)
  1028c2:	f002 fb0f 	bl	104ee4 <RSL10_BLE::send(char const*, unsigned int)>
  1028c6:	4b04      	ldr	r3, [pc, #16]	; (1028d8 <BLE_SendChar(char*)+0x20>)
  1028c8:	6018      	str	r0, [r3, #0]
  1028ca:	f04f 3320 	mov.w	r3, #538976288	; 0x20202020
  1028ce:	6023      	str	r3, [r4, #0]
  1028d0:	bd10      	pop	{r4, pc}
  1028d2:	bf00      	nop
  1028d4:	3fff6dc0 	.word	0x3fff6dc0
  1028d8:	3fff6fe8 	.word	0x3fff6fe8

001028dc <BLE_ReadReceivedData()>:
  1028dc:	b508      	push	{r3, lr}
  1028de:	480b      	ldr	r0, [pc, #44]	; (10290c <BLE_ReadReceivedData()+0x30>)
  1028e0:	f002 fb54 	bl	104f8c <RSL10_BLE::readable()>
  1028e4:	b180      	cbz	r0, 102908 <BLE_ReadReceivedData()+0x2c>
  1028e6:	2214      	movs	r2, #20
  1028e8:	2120      	movs	r1, #32
  1028ea:	4809      	ldr	r0, [pc, #36]	; (102910 <BLE_ReadReceivedData()+0x34>)
  1028ec:	f009 f8ba 	bl	10ba64 <memset>
  1028f0:	2214      	movs	r2, #20
  1028f2:	4907      	ldr	r1, [pc, #28]	; (102910 <BLE_ReadReceivedData()+0x34>)
  1028f4:	4805      	ldr	r0, [pc, #20]	; (10290c <BLE_ReadReceivedData()+0x30>)
  1028f6:	f002 fb6b 	bl	104fd0 <RSL10_BLE::recv(char*, unsigned int)>
  1028fa:	4b06      	ldr	r3, [pc, #24]	; (102914 <BLE_ReadReceivedData()+0x38>)
  1028fc:	4904      	ldr	r1, [pc, #16]	; (102910 <BLE_ReadReceivedData()+0x34>)
  1028fe:	6018      	str	r0, [r3, #0]
  102900:	4805      	ldr	r0, [pc, #20]	; (102918 <BLE_ReadReceivedData()+0x3c>)
  102902:	f00a fdea 	bl	10d4da <strcpy>
  102906:	2001      	movs	r0, #1
  102908:	bd08      	pop	{r3, pc}
  10290a:	bf00      	nop
  10290c:	3fff6dc0 	.word	0x3fff6dc0
  102910:	3fff6b51 	.word	0x3fff6b51
  102914:	3fff6fe8 	.word	0x3fff6fe8
  102918:	3fff692c 	.word	0x3fff692c

0010291c <mbed::Callback<void ()>::~Callback()>:
  10291c:	68c3      	ldr	r3, [r0, #12]
  10291e:	b510      	push	{r4, lr}
  102920:	4604      	mov	r4, r0
  102922:	b10b      	cbz	r3, 102928 <mbed::Callback<void ()>::~Callback()+0xc>
  102924:	689b      	ldr	r3, [r3, #8]
  102926:	4798      	blx	r3
  102928:	4620      	mov	r0, r4
  10292a:	bd10      	pop	{r4, pc}

0010292c <mbed::Callback<void ()>::Callback(mbed::Callback<void ()> const&)>:
  10292c:	b538      	push	{r3, r4, r5, lr}
  10292e:	68cb      	ldr	r3, [r1, #12]
  102930:	4604      	mov	r4, r0
  102932:	460d      	mov	r5, r1
  102934:	b10b      	cbz	r3, 10293a <mbed::Callback<void ()>::Callback(mbed::Callback<void ()> const&)+0xe>
  102936:	685b      	ldr	r3, [r3, #4]
  102938:	4798      	blx	r3
  10293a:	68eb      	ldr	r3, [r5, #12]
  10293c:	4620      	mov	r0, r4
  10293e:	60e3      	str	r3, [r4, #12]
  102940:	bd38      	pop	{r3, r4, r5, pc}
	...

00102944 <mbed::Ticker::attach(mbed::Callback<void ()>, float)>:
  102944:	e92d 437f 	stmdb	sp!, {r0, r1, r2, r3, r4, r5, r6, r8, r9, lr}
  102948:	4615      	mov	r5, r2
  10294a:	4606      	mov	r6, r0
  10294c:	4668      	mov	r0, sp
  10294e:	f7ff ffed 	bl	10292c <mbed::Callback<void ()>::Callback(mbed::Callback<void ()> const&)>
  102952:	4910      	ldr	r1, [pc, #64]	; (102994 <mbed::Ticker::attach(mbed::Callback<void ()>, float)+0x50>)
  102954:	4628      	mov	r0, r5
  102956:	f007 ff17 	bl	10a788 <__aeabi_fmul>
  10295a:	466c      	mov	r4, sp
  10295c:	f008 f918 	bl	10ab90 <__aeabi_f2ulz>
  102960:	f106 0528 	add.w	r5, r6, #40	; 0x28
  102964:	42a5      	cmp	r5, r4
  102966:	4680      	mov	r8, r0
  102968:	4689      	mov	r9, r1
  10296a:	d007      	beq.n	10297c <mbed::Ticker::attach(mbed::Callback<void ()>, float)+0x38>
  10296c:	4628      	mov	r0, r5
  10296e:	f7ff ffd5 	bl	10291c <mbed::Callback<void ()>::~Callback()>
  102972:	b11d      	cbz	r5, 10297c <mbed::Ticker::attach(mbed::Callback<void ()>, float)+0x38>
  102974:	4669      	mov	r1, sp
  102976:	4628      	mov	r0, r5
  102978:	f7ff ffd8 	bl	10292c <mbed::Callback<void ()>::Callback(mbed::Callback<void ()> const&)>
  10297c:	4642      	mov	r2, r8
  10297e:	464b      	mov	r3, r9
  102980:	4630      	mov	r0, r6
  102982:	f006 f99b 	bl	108cbc <mbed::Ticker::setup(unsigned long long)>
  102986:	4620      	mov	r0, r4
  102988:	f7ff ffc8 	bl	10291c <mbed::Callback<void ()>::~Callback()>
  10298c:	b004      	add	sp, #16
  10298e:	e8bd 8370 	ldmia.w	sp!, {r4, r5, r6, r8, r9, pc}
  102992:	bf00      	nop
  102994:	49742400 	.word	0x49742400

00102998 <main>:
  102998:	b5f0      	push	{r4, r5, r6, r7, lr}
  10299a:	484f      	ldr	r0, [pc, #316]	; (102ad8 <main+0x140>)
  10299c:	b089      	sub	sp, #36	; 0x24
  10299e:	f002 f9b9 	bl	104d14 <NHD_C0216CZ::init()>
  1029a2:	494e      	ldr	r1, [pc, #312]	; (102adc <main+0x144>)
  1029a4:	484c      	ldr	r0, [pc, #304]	; (102ad8 <main+0x140>)
  1029a6:	f002 fa4b 	bl	104e40 <NHD_C0216CZ::displayString(char const*)>
  1029aa:	f04f 4080 	mov.w	r0, #1073741824	; 0x40000000
  1029ae:	f006 fe0d 	bl	1095cc <wait>
  1029b2:	4849      	ldr	r0, [pc, #292]	; (102ad8 <main+0x140>)
  1029b4:	f002 f95e 	bl	104c74 <NHD_C0216CZ::clearDisplay()>
  1029b8:	f7ff ff5a 	bl	102870 <UartBUS_init()>
  1029bc:	4848      	ldr	r0, [pc, #288]	; (102ae0 <main+0x148>)
  1029be:	f7ff fc0d 	bl	1021dc <Accelerometer::accel_initialize()>
  1029c2:	4b48      	ldr	r3, [pc, #288]	; (102ae4 <main+0x14c>)
  1029c4:	2201      	movs	r2, #1
  1029c6:	701a      	strb	r2, [r3, #0]
  1029c8:	4c47      	ldr	r4, [pc, #284]	; (102ae8 <main+0x150>)
  1029ca:	4b48      	ldr	r3, [pc, #288]	; (102aec <main+0x154>)
  1029cc:	4a48      	ldr	r2, [pc, #288]	; (102af0 <main+0x158>)
  1029ce:	4669      	mov	r1, sp
  1029d0:	4848      	ldr	r0, [pc, #288]	; (102af4 <main+0x15c>)
  1029d2:	9300      	str	r3, [sp, #0]
  1029d4:	9403      	str	r4, [sp, #12]
  1029d6:	f7ff ffb5 	bl	102944 <mbed::Ticker::attach(mbed::Callback<void ()>, float)>
  1029da:	4668      	mov	r0, sp
  1029dc:	f7ff ff9e 	bl	10291c <mbed::Callback<void ()>::~Callback()>
  1029e0:	4b45      	ldr	r3, [pc, #276]	; (102af8 <main+0x160>)
  1029e2:	4a46      	ldr	r2, [pc, #280]	; (102afc <main+0x164>)
  1029e4:	4669      	mov	r1, sp
  1029e6:	4846      	ldr	r0, [pc, #280]	; (102b00 <main+0x168>)
  1029e8:	4d46      	ldr	r5, [pc, #280]	; (102b04 <main+0x16c>)
  1029ea:	9300      	str	r3, [sp, #0]
  1029ec:	9403      	str	r4, [sp, #12]
  1029ee:	f7ff ffa9 	bl	102944 <mbed::Ticker::attach(mbed::Callback<void ()>, float)>
  1029f2:	4668      	mov	r0, sp
  1029f4:	f7ff ff92 	bl	10291c <mbed::Callback<void ()>::~Callback()>
  1029f8:	462f      	mov	r7, r5
  1029fa:	782b      	ldrb	r3, [r5, #0]
  1029fc:	b933      	cbnz	r3, 102a0c <main+0x74>
  1029fe:	4b42      	ldr	r3, [pc, #264]	; (102b08 <main+0x170>)
  102a00:	781b      	ldrb	r3, [r3, #0]
  102a02:	b91b      	cbnz	r3, 102a0c <main+0x74>
  102a04:	4b41      	ldr	r3, [pc, #260]	; (102b0c <main+0x174>)
  102a06:	781b      	ldrb	r3, [r3, #0]
  102a08:	2b00      	cmp	r3, #0
  102a0a:	d0f6      	beq.n	1029fa <main+0x62>
  102a0c:	f44f 70fa 	mov.w	r0, #500	; 0x1f4
  102a10:	f006 fde8 	bl	1095e4 <wait_ms>
  102a14:	4b3e      	ldr	r3, [pc, #248]	; (102b10 <main+0x178>)
  102a16:	4a3f      	ldr	r2, [pc, #252]	; (102b14 <main+0x17c>)
  102a18:	4669      	mov	r1, sp
  102a1a:	483f      	ldr	r0, [pc, #252]	; (102b18 <main+0x180>)
  102a1c:	9300      	str	r3, [sp, #0]
  102a1e:	9403      	str	r4, [sp, #12]
  102a20:	f7ff ff90 	bl	102944 <mbed::Ticker::attach(mbed::Callback<void ()>, float)>
  102a24:	4668      	mov	r0, sp
  102a26:	f7ff ff79 	bl	10291c <mbed::Callback<void ()>::~Callback()>
  102a2a:	783b      	ldrb	r3, [r7, #0]
  102a2c:	b1cb      	cbz	r3, 102a62 <main+0xca>
  102a2e:	4b3b      	ldr	r3, [pc, #236]	; (102b1c <main+0x184>)
  102a30:	781e      	ldrb	r6, [r3, #0]
  102a32:	b14e      	cbz	r6, 102a48 <main+0xb0>
  102a34:	f002 fcec 	bl	105410 <core_util_critical_section_enter>
  102a38:	2101      	movs	r1, #1
  102a3a:	4839      	ldr	r0, [pc, #228]	; (102b20 <main+0x188>)
  102a3c:	f004 fc88 	bl	107350 <gpio_dir>
  102a40:	f002 fd12 	bl	105468 <core_util_critical_section_exit>
  102a44:	2101      	movs	r1, #1
  102a46:	e008      	b.n	102a5a <main+0xc2>
  102a48:	f002 fce2 	bl	105410 <core_util_critical_section_enter>
  102a4c:	2101      	movs	r1, #1
  102a4e:	4834      	ldr	r0, [pc, #208]	; (102b20 <main+0x188>)
  102a50:	f004 fc7e 	bl	107350 <gpio_dir>
  102a54:	f002 fd08 	bl	105468 <core_util_critical_section_exit>
  102a58:	4631      	mov	r1, r6
  102a5a:	4831      	ldr	r0, [pc, #196]	; (102b20 <main+0x188>)
  102a5c:	f004 fc8a 	bl	107374 <gpio_write>
  102a60:	e7cb      	b.n	1029fa <main+0x62>
  102a62:	4b29      	ldr	r3, [pc, #164]	; (102b08 <main+0x170>)
  102a64:	781b      	ldrb	r3, [r3, #0]
  102a66:	b1a3      	cbz	r3, 102a92 <main+0xfa>
  102a68:	4b2e      	ldr	r3, [pc, #184]	; (102b24 <main+0x18c>)
  102a6a:	781a      	ldrb	r2, [r3, #0]
  102a6c:	b98a      	cbnz	r2, 102a92 <main+0xfa>
  102a6e:	4a2b      	ldr	r2, [pc, #172]	; (102b1c <main+0x184>)
  102a70:	7812      	ldrb	r2, [r2, #0]
  102a72:	2a00      	cmp	r2, #0
  102a74:	d0c1      	beq.n	1029fa <main+0x62>
  102a76:	2201      	movs	r2, #1
  102a78:	482b      	ldr	r0, [pc, #172]	; (102b28 <main+0x190>)
  102a7a:	701a      	strb	r2, [r3, #0]
  102a7c:	f001 f916 	bl	103cac <GSM::activate()>
  102a80:	f44f 70fa 	mov.w	r0, #500	; 0x1f4
  102a84:	f006 fdae 	bl	1095e4 <wait_ms>
  102a88:	4928      	ldr	r1, [pc, #160]	; (102b2c <main+0x194>)
  102a8a:	4827      	ldr	r0, [pc, #156]	; (102b28 <main+0x190>)
  102a8c:	f001 f9a4 	bl	103dd8 <GSM::Call(char*)>
  102a90:	e01d      	b.n	102ace <main+0x136>
  102a92:	4b1e      	ldr	r3, [pc, #120]	; (102b0c <main+0x174>)
  102a94:	781b      	ldrb	r3, [r3, #0]
  102a96:	b91b      	cbnz	r3, 102aa0 <main+0x108>
  102a98:	4b22      	ldr	r3, [pc, #136]	; (102b24 <main+0x18c>)
  102a9a:	781b      	ldrb	r3, [r3, #0]
  102a9c:	2b00      	cmp	r3, #0
  102a9e:	d1ac      	bne.n	1029fa <main+0x62>
  102aa0:	4b1e      	ldr	r3, [pc, #120]	; (102b1c <main+0x184>)
  102aa2:	781b      	ldrb	r3, [r3, #0]
  102aa4:	2b00      	cmp	r3, #0
  102aa6:	d0a8      	beq.n	1029fa <main+0x62>
  102aa8:	4b1e      	ldr	r3, [pc, #120]	; (102b24 <main+0x18c>)
  102aaa:	2201      	movs	r2, #1
  102aac:	481e      	ldr	r0, [pc, #120]	; (102b28 <main+0x190>)
  102aae:	701a      	strb	r2, [r3, #0]
  102ab0:	f001 f8fc 	bl	103cac <GSM::activate()>
  102ab4:	f44f 70fa 	mov.w	r0, #500	; 0x1f4
  102ab8:	f006 fd94 	bl	1095e4 <wait_ms>
  102abc:	491c      	ldr	r1, [pc, #112]	; (102b30 <main+0x198>)
  102abe:	4668      	mov	r0, sp
  102ac0:	f00a fc6e 	bl	10d3a0 <siprintf>
  102ac4:	466a      	mov	r2, sp
  102ac6:	4919      	ldr	r1, [pc, #100]	; (102b2c <main+0x194>)
  102ac8:	4817      	ldr	r0, [pc, #92]	; (102b28 <main+0x190>)
  102aca:	f001 f9ed 	bl	103ea8 <GSM::WriteSMS(char*, char*)>
  102ace:	4816      	ldr	r0, [pc, #88]	; (102b28 <main+0x190>)
  102ad0:	f001 f916 	bl	103d00 <GSM::deactivate()>
  102ad4:	e791      	b.n	1029fa <main+0x62>
  102ad6:	bf00      	nop
  102ad8:	3fff6ebc 	.word	0x3fff6ebc
  102adc:	00110b01 	.word	0x00110b01
  102ae0:	3fff6ea8 	.word	0x3fff6ea8
  102ae4:	3fff40a8 	.word	0x3fff40a8
  102ae8:	00110a98 	.word	0x00110a98
  102aec:	0010268d 	.word	0x0010268d
  102af0:	3ecccccd 	.word	0x3ecccccd
  102af4:	3fff6e68 	.word	0x3fff6e68
  102af8:	001032e9 	.word	0x001032e9
  102afc:	3f333333 	.word	0x3f333333
  102b00:	3fff69d0 	.word	0x3fff69d0
  102b04:	3fff700c 	.word	0x3fff700c
  102b08:	3fff6990 	.word	0x3fff6990
  102b0c:	3fff6f58 	.word	0x3fff6f58
  102b10:	00102b35 	.word	0x00102b35
  102b14:	40a00000 	.word	0x40a00000
  102b18:	3fff6998 	.word	0x3fff6998
  102b1c:	3fff701c 	.word	0x3fff701c
  102b20:	3fff7010 	.word	0x3fff7010
  102b24:	3fff6ea4 	.word	0x3fff6ea4
  102b28:	3fff6a3c 	.word	0x3fff6a3c
  102b2c:	00110b05 	.word	0x00110b05
  102b30:	00110b13 	.word	0x00110b13

00102b34 <IRQ_TakePosition()>:
  102b34:	b510      	push	{r4, lr}
  102b36:	4c32      	ldr	r4, [pc, #200]	; (102c00 <IRQ_TakePosition()+0xcc>)
  102b38:	b09c      	sub	sp, #112	; 0x70
  102b3a:	4832      	ldr	r0, [pc, #200]	; (102c04 <IRQ_TakePosition()+0xd0>)
  102b3c:	f006 f8d6 	bl	108cec <mbed::Ticker::detach()>
  102b40:	4620      	mov	r0, r4
  102b42:	f000 fdb5 	bl	1036b0 <GPS::waitTo_read()>
  102b46:	4620      	mov	r0, r4
  102b48:	f000 fe4e 	bl	1037e8 <GPS::SavePosition()>
  102b4c:	2200      	movs	r2, #0
  102b4e:	2102      	movs	r1, #2
  102b50:	4620      	mov	r0, r4
  102b52:	f000 fdc1 	bl	1036d8 <GPS::ShowDecodedData(int, int)>
  102b56:	f8d4 218c 	ldr.w	r2, [r4, #396]	; 0x18c
  102b5a:	2115      	movs	r1, #21
  102b5c:	4620      	mov	r0, r4
  102b5e:	f000 fdbb 	bl	1036d8 <GPS::ShowDecodedData(int, int)>
  102b62:	f204 116d 	addw	r1, r4, #365	; 0x16d
  102b66:	a801      	add	r0, sp, #4
  102b68:	f00a fcb7 	bl	10d4da <strcpy>
  102b6c:	2301      	movs	r3, #1
  102b6e:	461a      	mov	r2, r3
  102b70:	a901      	add	r1, sp, #4
  102b72:	4825      	ldr	r0, [pc, #148]	; (102c08 <IRQ_TakePosition()+0xd4>)
  102b74:	f002 f94a 	bl	104e0c <NHD_C0216CZ::displayStringToPos(char const*, int, int)>
  102b78:	f204 114f 	addw	r1, r4, #335	; 0x14f
  102b7c:	a801      	add	r0, sp, #4
  102b7e:	f00a fcac 	bl	10d4da <strcpy>
  102b82:	2301      	movs	r3, #1
  102b84:	2202      	movs	r2, #2
  102b86:	a901      	add	r1, sp, #4
  102b88:	481f      	ldr	r0, [pc, #124]	; (102c08 <IRQ_TakePosition()+0xd4>)
  102b8a:	f002 f93f 	bl	104e0c <NHD_C0216CZ::displayStringToPos(char const*, int, int)>
  102b8e:	2064      	movs	r0, #100	; 0x64
  102b90:	f006 fd28 	bl	1095e4 <wait_ms>
  102b94:	f204 116d 	addw	r1, r4, #365	; 0x16d
  102b98:	a80a      	add	r0, sp, #40	; 0x28
  102b9a:	f7ff fe33 	bl	102804 <std::__cxx11::basic_string<char, std::char_traits<char>, std::allocator<char> >::basic_string(char const*, std::allocator<char> const&) [clone .isra.22]>
  102b9e:	f204 114f 	addw	r1, r4, #335	; 0x14f
  102ba2:	a810      	add	r0, sp, #64	; 0x40
  102ba4:	f7ff fe2e 	bl	102804 <std::__cxx11::basic_string<char, std::char_traits<char>, std::allocator<char> >::basic_string(char const*, std::allocator<char> const&) [clone .isra.22]>
  102ba8:	9b0b      	ldr	r3, [sp, #44]	; 0x2c
  102baa:	b10b      	cbz	r3, 102bb0 <IRQ_TakePosition()+0x7c>
  102bac:	9b11      	ldr	r3, [sp, #68]	; 0x44
  102bae:	b9a3      	cbnz	r3, 102bda <IRQ_TakePosition()+0xa6>
  102bb0:	4b16      	ldr	r3, [pc, #88]	; (102c0c <IRQ_TakePosition()+0xd8>)
  102bb2:	f04f 527e 	mov.w	r2, #1065353216	; 0x3f800000
  102bb6:	9316      	str	r3, [sp, #88]	; 0x58
  102bb8:	4b15      	ldr	r3, [pc, #84]	; (102c10 <IRQ_TakePosition()+0xdc>)
  102bba:	a916      	add	r1, sp, #88	; 0x58
  102bbc:	4811      	ldr	r0, [pc, #68]	; (102c04 <IRQ_TakePosition()+0xd0>)
  102bbe:	9319      	str	r3, [sp, #100]	; 0x64
  102bc0:	f7ff fec0 	bl	102944 <mbed::Ticker::attach(mbed::Callback<void ()>, float)>
  102bc4:	a816      	add	r0, sp, #88	; 0x58
  102bc6:	f7ff fea9 	bl	10291c <mbed::Callback<void ()>::~Callback()>
  102bca:	a810      	add	r0, sp, #64	; 0x40
  102bcc:	f006 fece 	bl	10996c <std::__cxx11::basic_string<char, std::char_traits<char>, std::allocator<char> >::_M_dispose()>
  102bd0:	a80a      	add	r0, sp, #40	; 0x28
  102bd2:	f006 fecb 	bl	10996c <std::__cxx11::basic_string<char, std::char_traits<char>, std::allocator<char> >::_M_dispose()>
  102bd6:	b01c      	add	sp, #112	; 0x70
  102bd8:	bd10      	pop	{r4, pc}
  102bda:	f204 134f 	addw	r3, r4, #335	; 0x14f
  102bde:	f204 126d 	addw	r2, r4, #365	; 0x16d
  102be2:	490c      	ldr	r1, [pc, #48]	; (102c14 <IRQ_TakePosition()+0xe0>)
  102be4:	a804      	add	r0, sp, #16
  102be6:	f00a fbdb 	bl	10d3a0 <siprintf>
  102bea:	a904      	add	r1, sp, #16
  102bec:	a816      	add	r0, sp, #88	; 0x58
  102bee:	f7ff fe09 	bl	102804 <std::__cxx11::basic_string<char, std::char_traits<char>, std::allocator<char> >::basic_string(char const*, std::allocator<char> const&) [clone .isra.22]>
  102bf2:	a816      	add	r0, sp, #88	; 0x58
  102bf4:	f7ff fe50 	bl	102898 <BLE_SendData(std::__cxx11::basic_string<char, std::char_traits<char>, std::allocator<char> >)>
  102bf8:	a816      	add	r0, sp, #88	; 0x58
  102bfa:	f006 feb7 	bl	10996c <std::__cxx11::basic_string<char, std::char_traits<char>, std::allocator<char> >::_M_dispose()>
  102bfe:	e7d7      	b.n	102bb0 <IRQ_TakePosition()+0x7c>
  102c00:	3fff7088 	.word	0x3fff7088
  102c04:	3fff6998 	.word	0x3fff6998
  102c08:	3fff6ebc 	.word	0x3fff6ebc
  102c0c:	00102b35 	.word	0x00102b35
  102c10:	00110a98 	.word	0x00110a98
  102c14:	00110b3e 	.word	0x00110b3e

00102c18 <Ble_Menu(char*)>:
  102c18:	b5f0      	push	{r4, r5, r6, r7, lr}
  102c1a:	4604      	mov	r4, r0
  102c1c:	b0ad      	sub	sp, #180	; 0xb4
  102c1e:	489c      	ldr	r0, [pc, #624]	; (102e90 <Ble_Menu(char*)+0x278>)
  102c20:	f006 f864 	bl	108cec <mbed::Ticker::detach()>
  102c24:	4621      	mov	r1, r4
  102c26:	489b      	ldr	r0, [pc, #620]	; (102e94 <Ble_Menu(char*)+0x27c>)
  102c28:	f002 f90a 	bl	104e40 <NHD_C0216CZ::displayString(char const*)>
  102c2c:	4620      	mov	r0, r4
  102c2e:	499a      	ldr	r1, [pc, #616]	; (102e98 <Ble_Menu(char*)+0x280>)
  102c30:	f00b faae 	bl	10e190 <strtok>
  102c34:	4d99      	ldr	r5, [pc, #612]	; (102e9c <Ble_Menu(char*)+0x284>)
  102c36:	2400      	movs	r4, #0
  102c38:	b160      	cbz	r0, 102c54 <Ble_Menu(char*)+0x3c>
  102c3a:	f5b4 7f96 	cmp.w	r4, #300	; 0x12c
  102c3e:	d009      	beq.n	102c54 <Ble_Menu(char*)+0x3c>
  102c40:	4601      	mov	r1, r0
  102c42:	1928      	adds	r0, r5, r4
  102c44:	f00a fc49 	bl	10d4da <strcpy>
  102c48:	4993      	ldr	r1, [pc, #588]	; (102e98 <Ble_Menu(char*)+0x280>)
  102c4a:	2000      	movs	r0, #0
  102c4c:	f00b faa0 	bl	10e190 <strtok>
  102c50:	341e      	adds	r4, #30
  102c52:	e7f1      	b.n	102c38 <Ble_Menu(char*)+0x20>
  102c54:	4c91      	ldr	r4, [pc, #580]	; (102e9c <Ble_Menu(char*)+0x284>)
  102c56:	4992      	ldr	r1, [pc, #584]	; (102ea0 <Ble_Menu(char*)+0x288>)
  102c58:	4620      	mov	r0, r4
  102c5a:	f00a fc34 	bl	10d4c6 <strcmp>
  102c5e:	4605      	mov	r5, r0
  102c60:	2800      	cmp	r0, #0
  102c62:	d175      	bne.n	102d50 <Ble_Menu(char*)+0x138>
  102c64:	488f      	ldr	r0, [pc, #572]	; (102ea4 <Ble_Menu(char*)+0x28c>)
  102c66:	f000 fcbb 	bl	1035e0 <GPS::activate()>
  102c6a:	488f      	ldr	r0, [pc, #572]	; (102ea8 <Ble_Menu(char*)+0x290>)
  102c6c:	f001 f848 	bl	103d00 <GSM::deactivate()>
  102c70:	2001      	movs	r0, #1
  102c72:	f006 fcb7 	bl	1095e4 <wait_ms>
  102c76:	498d      	ldr	r1, [pc, #564]	; (102eac <Ble_Menu(char*)+0x294>)
  102c78:	f104 001e 	add.w	r0, r4, #30
  102c7c:	f00a fc23 	bl	10d4c6 <strcmp>
  102c80:	4f8b      	ldr	r7, [pc, #556]	; (102eb0 <Ble_Menu(char*)+0x298>)
  102c82:	4e8c      	ldr	r6, [pc, #560]	; (102eb4 <Ble_Menu(char*)+0x29c>)
  102c84:	b908      	cbnz	r0, 102c8a <Ble_Menu(char*)+0x72>
  102c86:	2201      	movs	r2, #1
  102c88:	e006      	b.n	102c98 <Ble_Menu(char*)+0x80>
  102c8a:	498b      	ldr	r1, [pc, #556]	; (102eb8 <Ble_Menu(char*)+0x2a0>)
  102c8c:	f104 001e 	add.w	r0, r4, #30
  102c90:	f00a fc19 	bl	10d4c6 <strcmp>
  102c94:	b928      	cbnz	r0, 102ca2 <Ble_Menu(char*)+0x8a>
  102c96:	462a      	mov	r2, r5
  102c98:	2102      	movs	r1, #2
  102c9a:	4882      	ldr	r0, [pc, #520]	; (102ea4 <Ble_Menu(char*)+0x28c>)
  102c9c:	f000 fd6e 	bl	10377c <GPS::control(int, bool)>
  102ca0:	e04b      	b.n	102d3a <Ble_Menu(char*)+0x122>
  102ca2:	4986      	ldr	r1, [pc, #536]	; (102ebc <Ble_Menu(char*)+0x2a4>)
  102ca4:	f104 001e 	add.w	r0, r4, #30
  102ca8:	f00a fc0d 	bl	10d4c6 <strcmp>
  102cac:	b910      	cbnz	r0, 102cb4 <Ble_Menu(char*)+0x9c>
  102cae:	2201      	movs	r2, #1
  102cb0:	4611      	mov	r1, r2
  102cb2:	e7f2      	b.n	102c9a <Ble_Menu(char*)+0x82>
  102cb4:	4982      	ldr	r1, [pc, #520]	; (102ec0 <Ble_Menu(char*)+0x2a8>)
  102cb6:	f104 001e 	add.w	r0, r4, #30
  102cba:	f00a fc04 	bl	10d4c6 <strcmp>
  102cbe:	b910      	cbnz	r0, 102cc6 <Ble_Menu(char*)+0xae>
  102cc0:	462a      	mov	r2, r5
  102cc2:	2101      	movs	r1, #1
  102cc4:	e7e9      	b.n	102c9a <Ble_Menu(char*)+0x82>
  102cc6:	497f      	ldr	r1, [pc, #508]	; (102ec4 <Ble_Menu(char*)+0x2ac>)
  102cc8:	f104 001e 	add.w	r0, r4, #30
  102ccc:	f00a fbfb 	bl	10d4c6 <strcmp>
  102cd0:	b910      	cbnz	r0, 102cd8 <Ble_Menu(char*)+0xc0>
  102cd2:	462a      	mov	r2, r5
  102cd4:	2163      	movs	r1, #99	; 0x63
  102cd6:	e7e0      	b.n	102c9a <Ble_Menu(char*)+0x82>
  102cd8:	497b      	ldr	r1, [pc, #492]	; (102ec8 <Ble_Menu(char*)+0x2b0>)
  102cda:	f104 001e 	add.w	r0, r4, #30
  102cde:	f00a fbf2 	bl	10d4c6 <strcmp>
  102ce2:	b970      	cbnz	r0, 102d02 <Ble_Menu(char*)+0xea>
  102ce4:	4979      	ldr	r1, [pc, #484]	; (102ecc <Ble_Menu(char*)+0x2b4>)
  102ce6:	a806      	add	r0, sp, #24
  102ce8:	f00a fbf7 	bl	10d4da <strcpy>
  102cec:	a906      	add	r1, sp, #24
  102cee:	a813      	add	r0, sp, #76	; 0x4c
  102cf0:	f7ff fd88 	bl	102804 <std::__cxx11::basic_string<char, std::char_traits<char>, std::allocator<char> >::basic_string(char const*, std::allocator<char> const&) [clone .isra.22]>
  102cf4:	a813      	add	r0, sp, #76	; 0x4c
  102cf6:	f7ff fdcf 	bl	102898 <BLE_SendData(std::__cxx11::basic_string<char, std::char_traits<char>, std::allocator<char> >)>
  102cfa:	a813      	add	r0, sp, #76	; 0x4c
  102cfc:	f006 fe36 	bl	10996c <std::__cxx11::basic_string<char, std::char_traits<char>, std::allocator<char> >::_M_dispose()>
  102d00:	e01b      	b.n	102d3a <Ble_Menu(char*)+0x122>
  102d02:	4973      	ldr	r1, [pc, #460]	; (102ed0 <Ble_Menu(char*)+0x2b8>)
  102d04:	f104 001e 	add.w	r0, r4, #30
  102d08:	f00a fbdd 	bl	10d4c6 <strcmp>
  102d0c:	b988      	cbnz	r0, 102d32 <Ble_Menu(char*)+0x11a>
  102d0e:	4971      	ldr	r1, [pc, #452]	; (102ed4 <Ble_Menu(char*)+0x2bc>)
  102d10:	f104 003c 	add.w	r0, r4, #60	; 0x3c
  102d14:	f00a fbd7 	bl	10d4c6 <strcmp>
  102d18:	b938      	cbnz	r0, 102d2a <Ble_Menu(char*)+0x112>
  102d1a:	4b6f      	ldr	r3, [pc, #444]	; (102ed8 <Ble_Menu(char*)+0x2c0>)
  102d1c:	9616      	str	r6, [sp, #88]	; 0x58
  102d1e:	9313      	str	r3, [sp, #76]	; 0x4c
  102d20:	f04f 527e 	mov.w	r2, #1065353216	; 0x3f800000
  102d24:	a913      	add	r1, sp, #76	; 0x4c
  102d26:	486d      	ldr	r0, [pc, #436]	; (102edc <Ble_Menu(char*)+0x2c4>)
  102d28:	e00c      	b.n	102d44 <Ble_Menu(char*)+0x12c>
  102d2a:	486c      	ldr	r0, [pc, #432]	; (102edc <Ble_Menu(char*)+0x2c4>)
  102d2c:	f005 ffde 	bl	108cec <mbed::Ticker::detach()>
  102d30:	e186      	b.n	103040 <Ble_Menu(char*)+0x428>
  102d32:	496b      	ldr	r1, [pc, #428]	; (102ee0 <Ble_Menu(char*)+0x2c8>)
  102d34:	485b      	ldr	r0, [pc, #364]	; (102ea4 <Ble_Menu(char*)+0x28c>)
  102d36:	f000 fc99 	bl	10366c <GPS::send(char*)>
  102d3a:	4a6a      	ldr	r2, [pc, #424]	; (102ee4 <Ble_Menu(char*)+0x2cc>)
  102d3c:	4854      	ldr	r0, [pc, #336]	; (102e90 <Ble_Menu(char*)+0x278>)
  102d3e:	9713      	str	r7, [sp, #76]	; 0x4c
  102d40:	9616      	str	r6, [sp, #88]	; 0x58
  102d42:	a913      	add	r1, sp, #76	; 0x4c
  102d44:	f7ff fdfe 	bl	102944 <mbed::Ticker::attach(mbed::Callback<void ()>, float)>
  102d48:	a813      	add	r0, sp, #76	; 0x4c
  102d4a:	f7ff fde7 	bl	10291c <mbed::Callback<void ()>::~Callback()>
  102d4e:	e177      	b.n	103040 <Ble_Menu(char*)+0x428>
  102d50:	4965      	ldr	r1, [pc, #404]	; (102ee8 <Ble_Menu(char*)+0x2d0>)
  102d52:	4620      	mov	r0, r4
  102d54:	f00a fbb7 	bl	10d4c6 <strcmp>
  102d58:	4605      	mov	r5, r0
  102d5a:	2800      	cmp	r0, #0
  102d5c:	f040 80fe 	bne.w	102f5c <Ble_Menu(char*)+0x344>
  102d60:	4851      	ldr	r0, [pc, #324]	; (102ea8 <Ble_Menu(char*)+0x290>)
  102d62:	f000 ffa3 	bl	103cac <GSM::activate()>
  102d66:	484f      	ldr	r0, [pc, #316]	; (102ea4 <Ble_Menu(char*)+0x28c>)
  102d68:	f000 fc64 	bl	103634 <GPS::deactivate()>
  102d6c:	2001      	movs	r0, #1
  102d6e:	f006 fc39 	bl	1095e4 <wait_ms>
  102d72:	495e      	ldr	r1, [pc, #376]	; (102eec <Ble_Menu(char*)+0x2d4>)
  102d74:	f104 001e 	add.w	r0, r4, #30
  102d78:	f00a fba5 	bl	10d4c6 <strcmp>
  102d7c:	2800      	cmp	r0, #0
  102d7e:	d141      	bne.n	102e04 <Ble_Menu(char*)+0x1ec>
  102d80:	495b      	ldr	r1, [pc, #364]	; (102ef0 <Ble_Menu(char*)+0x2d8>)
  102d82:	f104 003c 	add.w	r0, r4, #60	; 0x3c
  102d86:	f00a fb9e 	bl	10d4c6 <strcmp>
  102d8a:	4a49      	ldr	r2, [pc, #292]	; (102eb0 <Ble_Menu(char*)+0x298>)
  102d8c:	4b49      	ldr	r3, [pc, #292]	; (102eb4 <Ble_Menu(char*)+0x29c>)
  102d8e:	9213      	str	r2, [sp, #76]	; 0x4c
  102d90:	9316      	str	r3, [sp, #88]	; 0x58
  102d92:	4a54      	ldr	r2, [pc, #336]	; (102ee4 <Ble_Menu(char*)+0x2cc>)
  102d94:	a913      	add	r1, sp, #76	; 0x4c
  102d96:	b970      	cbnz	r0, 102db6 <Ble_Menu(char*)+0x19e>
  102d98:	483d      	ldr	r0, [pc, #244]	; (102e90 <Ble_Menu(char*)+0x278>)
  102d9a:	f7ff fdd3 	bl	102944 <mbed::Ticker::attach(mbed::Callback<void ()>, float)>
  102d9e:	a813      	add	r0, sp, #76	; 0x4c
  102da0:	f7ff fdbc 	bl	10291c <mbed::Callback<void ()>::~Callback()>
  102da4:	4953      	ldr	r1, [pc, #332]	; (102ef4 <Ble_Menu(char*)+0x2dc>)
  102da6:	a806      	add	r0, sp, #24
  102da8:	f00a fb97 	bl	10d4da <strcpy>
  102dac:	a906      	add	r1, sp, #24
  102dae:	483e      	ldr	r0, [pc, #248]	; (102ea8 <Ble_Menu(char*)+0x290>)
  102db0:	f000 ffc2 	bl	103d38 <GSM::send(char*)>
  102db4:	e0c2      	b.n	102f3c <Ble_Menu(char*)+0x324>
  102db6:	466f      	mov	r7, sp
  102db8:	4835      	ldr	r0, [pc, #212]	; (102e90 <Ble_Menu(char*)+0x278>)
  102dba:	f7ff fdc3 	bl	102944 <mbed::Ticker::attach(mbed::Callback<void ()>, float)>
  102dbe:	a813      	add	r0, sp, #76	; 0x4c
  102dc0:	f7ff fdac 	bl	10291c <mbed::Callback<void ()>::~Callback()>
  102dc4:	f104 0666 	add.w	r6, r4, #102	; 0x66
  102dc8:	f8d4 c05a 	ldr.w	r12, [r4, #90]	; 0x5a
  102dcc:	f8d4 205e 	ldr.w	r2, [r4, #94]	; 0x5e
  102dd0:	f8d4 3062 	ldr.w	r3, [r4, #98]	; 0x62
  102dd4:	3476      	adds	r4, #118	; 0x76
  102dd6:	46be      	mov	lr, r7
  102dd8:	6830      	ldr	r0, [r6, #0]
  102dda:	6871      	ldr	r1, [r6, #4]
  102ddc:	3608      	adds	r6, #8
  102dde:	e8ae 0003 	stmia.w	lr!, {r0, r1}
  102de2:	42a6      	cmp	r6, r4
  102de4:	4677      	mov	r7, lr
  102de6:	d1f6      	bne.n	102dd6 <Ble_Menu(char*)+0x1be>
  102de8:	8831      	ldrh	r1, [r6, #0]
  102dea:	a813      	add	r0, sp, #76	; 0x4c
  102dec:	f8ae 1000 	strh.w	r1, [lr]
  102df0:	4661      	mov	r1, r12
  102df2:	f00a fb72 	bl	10d4da <strcpy>
  102df6:	ab06      	add	r3, sp, #24
  102df8:	2250      	movs	r2, #80	; 0x50
  102dfa:	a913      	add	r1, sp, #76	; 0x4c
  102dfc:	482a      	ldr	r0, [pc, #168]	; (102ea8 <Ble_Menu(char*)+0x290>)
  102dfe:	f001 f801 	bl	103e04 <GSM::CallwithEnd(char*, int, char*)>
  102e02:	e09b      	b.n	102f3c <Ble_Menu(char*)+0x324>
  102e04:	493c      	ldr	r1, [pc, #240]	; (102ef8 <Ble_Menu(char*)+0x2e0>)
  102e06:	f104 001e 	add.w	r0, r4, #30
  102e0a:	f00a fb5c 	bl	10d4c6 <strcmp>
  102e0e:	b9f0      	cbnz	r0, 102e4e <Ble_Menu(char*)+0x236>
  102e10:	466f      	mov	r7, sp
  102e12:	6be2      	ldr	r2, [r4, #60]	; 0x3c
  102e14:	6c23      	ldr	r3, [r4, #64]	; 0x40
  102e16:	f104 0644 	add.w	r6, r4, #68	; 0x44
  102e1a:	3454      	adds	r4, #84	; 0x54
  102e1c:	46be      	mov	lr, r7
  102e1e:	6830      	ldr	r0, [r6, #0]
  102e20:	6871      	ldr	r1, [r6, #4]
  102e22:	3608      	adds	r6, #8
  102e24:	e8ae 0003 	stmia.w	lr!, {r0, r1}
  102e28:	42a6      	cmp	r6, r4
  102e2a:	4677      	mov	r7, lr
  102e2c:	d1f6      	bne.n	102e1c <Ble_Menu(char*)+0x204>
  102e2e:	6830      	ldr	r0, [r6, #0]
  102e30:	f8ce 0000 	str.w	r0, [lr]
  102e34:	88b1      	ldrh	r1, [r6, #4]
  102e36:	a813      	add	r0, sp, #76	; 0x4c
  102e38:	f8ae 1004 	strh.w	r1, [lr, #4]
  102e3c:	492f      	ldr	r1, [pc, #188]	; (102efc <Ble_Menu(char*)+0x2e4>)
  102e3e:	f00a faaf 	bl	10d3a0 <siprintf>
  102e42:	aa13      	add	r2, sp, #76	; 0x4c
  102e44:	492e      	ldr	r1, [pc, #184]	; (102f00 <Ble_Menu(char*)+0x2e8>)
  102e46:	4818      	ldr	r0, [pc, #96]	; (102ea8 <Ble_Menu(char*)+0x290>)
  102e48:	f001 f82e 	bl	103ea8 <GSM::WriteSMS(char*, char*)>
  102e4c:	e076      	b.n	102f3c <Ble_Menu(char*)+0x324>
  102e4e:	492d      	ldr	r1, [pc, #180]	; (102f04 <Ble_Menu(char*)+0x2ec>)
  102e50:	f104 001e 	add.w	r0, r4, #30
  102e54:	f00a fb37 	bl	10d4c6 <strcmp>
  102e58:	4f15      	ldr	r7, [pc, #84]	; (102eb0 <Ble_Menu(char*)+0x298>)
  102e5a:	4e16      	ldr	r6, [pc, #88]	; (102eb4 <Ble_Menu(char*)+0x29c>)
  102e5c:	2800      	cmp	r0, #0
  102e5e:	d153      	bne.n	102f08 <Ble_Menu(char*)+0x2f0>
  102e60:	4a20      	ldr	r2, [pc, #128]	; (102ee4 <Ble_Menu(char*)+0x2cc>)
  102e62:	a913      	add	r1, sp, #76	; 0x4c
  102e64:	480a      	ldr	r0, [pc, #40]	; (102e90 <Ble_Menu(char*)+0x278>)
  102e66:	9713      	str	r7, [sp, #76]	; 0x4c
  102e68:	9616      	str	r6, [sp, #88]	; 0x58
  102e6a:	f7ff fd6b 	bl	102944 <mbed::Ticker::attach(mbed::Callback<void ()>, float)>
  102e6e:	a813      	add	r0, sp, #76	; 0x4c
  102e70:	f7ff fd54 	bl	10291c <mbed::Callback<void ()>::~Callback()>
  102e74:	a913      	add	r1, sp, #76	; 0x4c
  102e76:	480c      	ldr	r0, [pc, #48]	; (102ea8 <Ble_Menu(char*)+0x290>)
  102e78:	f000 ff9e 	bl	103db8 <GSM::TestAT(char*)>
  102e7c:	a813      	add	r0, sp, #76	; 0x4c
  102e7e:	f7ff fd1b 	bl	1028b8 <BLE_SendChar(char*)>
  102e82:	2301      	movs	r3, #1
  102e84:	461a      	mov	r2, r3
  102e86:	a913      	add	r1, sp, #76	; 0x4c
  102e88:	4802      	ldr	r0, [pc, #8]	; (102e94 <Ble_Menu(char*)+0x27c>)
  102e8a:	f001 ffbf 	bl	104e0c <NHD_C0216CZ::displayStringToPos(char const*, int, int)>
  102e8e:	e055      	b.n	102f3c <Ble_Menu(char*)+0x324>
  102e90:	3fff69d0 	.word	0x3fff69d0
  102e94:	3fff6ebc 	.word	0x3fff6ebc
  102e98:	00110b44 	.word	0x00110b44
  102e9c:	3fff6b66 	.word	0x3fff6b66
  102ea0:	00110b46 	.word	0x00110b46
  102ea4:	3fff7088 	.word	0x3fff7088
  102ea8:	3fff6a3c 	.word	0x3fff6a3c
  102eac:	00110b4b 	.word	0x00110b4b
  102eb0:	001032e9 	.word	0x001032e9
  102eb4:	00110a98 	.word	0x00110a98
  102eb8:	00110b51 	.word	0x00110b51
  102ebc:	00110b58 	.word	0x00110b58
  102ec0:	00110b5f 	.word	0x00110b5f
  102ec4:	00110b67 	.word	0x00110b67
  102ec8:	00110b6e 	.word	0x00110b6e
  102ecc:	00110b72 	.word	0x00110b72
  102ed0:	00110b86 	.word	0x00110b86
  102ed4:	00110b5c 	.word	0x00110b5c
  102ed8:	00102b35 	.word	0x00102b35
  102edc:	3fff6998 	.word	0x3fff6998
  102ee0:	00110b8e 	.word	0x00110b8e
  102ee4:	3f333333 	.word	0x3f333333
  102ee8:	00110b93 	.word	0x00110b93
  102eec:	00110b98 	.word	0x00110b98
  102ef0:	00110b9d 	.word	0x00110b9d
  102ef4:	00110ba6 	.word	0x00110ba6
  102ef8:	00110bb9 	.word	0x00110bb9
  102efc:	00110c87 	.word	0x00110c87
  102f00:	00110b05 	.word	0x00110b05
  102f04:	00110bbd 	.word	0x00110bbd
  102f08:	499f      	ldr	r1, [pc, #636]	; (103188 <Ble_Menu(char*)+0x570>)
  102f0a:	f104 001e 	add.w	r0, r4, #30
  102f0e:	f00a fada 	bl	10d4c6 <strcmp>
  102f12:	b998      	cbnz	r0, 102f3c <Ble_Menu(char*)+0x324>
  102f14:	4a9d      	ldr	r2, [pc, #628]	; (10318c <Ble_Menu(char*)+0x574>)
  102f16:	a913      	add	r1, sp, #76	; 0x4c
  102f18:	489d      	ldr	r0, [pc, #628]	; (103190 <Ble_Menu(char*)+0x578>)
  102f1a:	9713      	str	r7, [sp, #76]	; 0x4c
  102f1c:	9616      	str	r6, [sp, #88]	; 0x58
  102f1e:	f7ff fd11 	bl	102944 <mbed::Ticker::attach(mbed::Callback<void ()>, float)>
  102f22:	a813      	add	r0, sp, #76	; 0x4c
  102f24:	f7ff fcfa 	bl	10291c <mbed::Callback<void ()>::~Callback()>
  102f28:	499a      	ldr	r1, [pc, #616]	; (103194 <Ble_Menu(char*)+0x57c>)
  102f2a:	a806      	add	r0, sp, #24
  102f2c:	f00a fad5 	bl	10d4da <strcpy>
  102f30:	4b99      	ldr	r3, [pc, #612]	; (103198 <Ble_Menu(char*)+0x580>)
  102f32:	aa13      	add	r2, sp, #76	; 0x4c
  102f34:	a906      	add	r1, sp, #24
  102f36:	4899      	ldr	r0, [pc, #612]	; (10319c <Ble_Menu(char*)+0x584>)
  102f38:	f000 ff26 	bl	103d88 <GSM::Communication(char*, char*, float)>
  102f3c:	4b98      	ldr	r3, [pc, #608]	; (1031a0 <Ble_Menu(char*)+0x588>)
  102f3e:	4a93      	ldr	r2, [pc, #588]	; (10318c <Ble_Menu(char*)+0x574>)
  102f40:	9313      	str	r3, [sp, #76]	; 0x4c
  102f42:	4b98      	ldr	r3, [pc, #608]	; (1031a4 <Ble_Menu(char*)+0x58c>)
  102f44:	a913      	add	r1, sp, #76	; 0x4c
  102f46:	4892      	ldr	r0, [pc, #584]	; (103190 <Ble_Menu(char*)+0x578>)
  102f48:	9316      	str	r3, [sp, #88]	; 0x58
  102f4a:	f7ff fcfb 	bl	102944 <mbed::Ticker::attach(mbed::Callback<void ()>, float)>
  102f4e:	a813      	add	r0, sp, #76	; 0x4c
  102f50:	f7ff fce4 	bl	10291c <mbed::Callback<void ()>::~Callback()>
  102f54:	4891      	ldr	r0, [pc, #580]	; (10319c <Ble_Menu(char*)+0x584>)
  102f56:	f000 fed3 	bl	103d00 <GSM::deactivate()>
  102f5a:	e1aa      	b.n	1032b2 <Ble_Menu(char*)+0x69a>
  102f5c:	4992      	ldr	r1, [pc, #584]	; (1031a8 <Ble_Menu(char*)+0x590>)
  102f5e:	4620      	mov	r0, r4
  102f60:	f00a fab1 	bl	10d4c6 <strcmp>
  102f64:	4f8e      	ldr	r7, [pc, #568]	; (1031a0 <Ble_Menu(char*)+0x588>)
  102f66:	4605      	mov	r5, r0
  102f68:	4e8e      	ldr	r6, [pc, #568]	; (1031a4 <Ble_Menu(char*)+0x58c>)
  102f6a:	2800      	cmp	r0, #0
  102f6c:	f040 80a4 	bne.w	1030b8 <Ble_Menu(char*)+0x4a0>
  102f70:	498e      	ldr	r1, [pc, #568]	; (1031ac <Ble_Menu(char*)+0x594>)
  102f72:	a806      	add	r0, sp, #24
  102f74:	f00a fab1 	bl	10d4da <strcpy>
  102f78:	a906      	add	r1, sp, #24
  102f7a:	488d      	ldr	r0, [pc, #564]	; (1031b0 <Ble_Menu(char*)+0x598>)
  102f7c:	f000 fb76 	bl	10366c <GPS::send(char*)>
  102f80:	a906      	add	r1, sp, #24
  102f82:	4886      	ldr	r0, [pc, #536]	; (10319c <Ble_Menu(char*)+0x584>)
  102f84:	f000 fed8 	bl	103d38 <GSM::send(char*)>
  102f88:	498a      	ldr	r1, [pc, #552]	; (1031b4 <Ble_Menu(char*)+0x59c>)
  102f8a:	f104 001e 	add.w	r0, r4, #30
  102f8e:	f00a fa9a 	bl	10d4c6 <strcmp>
  102f92:	b9b0      	cbnz	r0, 102fc2 <Ble_Menu(char*)+0x3aa>
  102f94:	4a7d      	ldr	r2, [pc, #500]	; (10318c <Ble_Menu(char*)+0x574>)
  102f96:	a913      	add	r1, sp, #76	; 0x4c
  102f98:	487d      	ldr	r0, [pc, #500]	; (103190 <Ble_Menu(char*)+0x578>)
  102f9a:	9713      	str	r7, [sp, #76]	; 0x4c
  102f9c:	9616      	str	r6, [sp, #88]	; 0x58
  102f9e:	f7ff fcd1 	bl	102944 <mbed::Ticker::attach(mbed::Callback<void ()>, float)>
  102fa2:	a813      	add	r0, sp, #76	; 0x4c
  102fa4:	f7ff fcba 	bl	10291c <mbed::Callback<void ()>::~Callback()>
  102fa8:	4b83      	ldr	r3, [pc, #524]	; (1031b8 <Ble_Menu(char*)+0x5a0>)
  102faa:	4884      	ldr	r0, [pc, #528]	; (1031bc <Ble_Menu(char*)+0x5a4>)
  102fac:	9313      	str	r3, [sp, #76]	; 0x4c
  102fae:	9616      	str	r6, [sp, #88]	; 0x58
  102fb0:	f04f 527c 	mov.w	r2, #1056964608	; 0x3f000000
  102fb4:	a913      	add	r1, sp, #76	; 0x4c
  102fb6:	f7ff fcc5 	bl	102944 <mbed::Ticker::attach(mbed::Callback<void ()>, float)>
  102fba:	a813      	add	r0, sp, #76	; 0x4c
  102fbc:	f7ff fcae 	bl	10291c <mbed::Callback<void ()>::~Callback()>
  102fc0:	e177      	b.n	1032b2 <Ble_Menu(char*)+0x69a>
  102fc2:	497f      	ldr	r1, [pc, #508]	; (1031c0 <Ble_Menu(char*)+0x5a8>)
  102fc4:	f104 001e 	add.w	r0, r4, #30
  102fc8:	f00a fa7d 	bl	10d4c6 <strcmp>
  102fcc:	b980      	cbnz	r0, 102ff0 <Ble_Menu(char*)+0x3d8>
  102fce:	4a6f      	ldr	r2, [pc, #444]	; (10318c <Ble_Menu(char*)+0x574>)
  102fd0:	a913      	add	r1, sp, #76	; 0x4c
  102fd2:	486f      	ldr	r0, [pc, #444]	; (103190 <Ble_Menu(char*)+0x578>)
  102fd4:	9713      	str	r7, [sp, #76]	; 0x4c
  102fd6:	9616      	str	r6, [sp, #88]	; 0x58
  102fd8:	f7ff fcb4 	bl	102944 <mbed::Ticker::attach(mbed::Callback<void ()>, float)>
  102fdc:	a813      	add	r0, sp, #76	; 0x4c
  102fde:	f7ff fc9d 	bl	10291c <mbed::Callback<void ()>::~Callback()>
  102fe2:	4878      	ldr	r0, [pc, #480]	; (1031c4 <Ble_Menu(char*)+0x5ac>)
  102fe4:	f001 fe46 	bl	104c74 <NHD_C0216CZ::clearDisplay()>
  102fe8:	4874      	ldr	r0, [pc, #464]	; (1031bc <Ble_Menu(char*)+0x5a4>)
  102fea:	f005 fe7f 	bl	108cec <mbed::Ticker::detach()>
  102fee:	e160      	b.n	1032b2 <Ble_Menu(char*)+0x69a>
  102ff0:	4975      	ldr	r1, [pc, #468]	; (1031c8 <Ble_Menu(char*)+0x5b0>)
  102ff2:	f104 001e 	add.w	r0, r4, #30
  102ff6:	f00a fa66 	bl	10d4c6 <strcmp>
  102ffa:	b9c8      	cbnz	r0, 103030 <Ble_Menu(char*)+0x418>
  102ffc:	a913      	add	r1, sp, #76	; 0x4c
  102ffe:	4a63      	ldr	r2, [pc, #396]	; (10318c <Ble_Menu(char*)+0x574>)
  103000:	4863      	ldr	r0, [pc, #396]	; (103190 <Ble_Menu(char*)+0x578>)
  103002:	9713      	str	r7, [sp, #76]	; 0x4c
  103004:	9616      	str	r6, [sp, #88]	; 0x58
  103006:	f7ff fc9d 	bl	102944 <mbed::Ticker::attach(mbed::Callback<void ()>, float)>
  10300a:	a813      	add	r0, sp, #76	; 0x4c
  10300c:	f7ff fc86 	bl	10291c <mbed::Callback<void ()>::~Callback()>
  103010:	2300      	movs	r3, #0
  103012:	461c      	mov	r4, r3
  103014:	461a      	mov	r2, r3
  103016:	4619      	mov	r1, r3
  103018:	486c      	ldr	r0, [pc, #432]	; (1031cc <Ble_Menu(char*)+0x5b4>)
  10301a:	f7ff f981 	bl	102320 <Accelerometer::GetNewData(int, int, int)>
  10301e:	4622      	mov	r2, r4
  103020:	496b      	ldr	r1, [pc, #428]	; (1031d0 <Ble_Menu(char*)+0x5b8>)
  103022:	a813      	add	r0, sp, #76	; 0x4c
  103024:	f00a f9bc 	bl	10d3a0 <siprintf>
  103028:	a813      	add	r0, sp, #76	; 0x4c
  10302a:	f7ff fc45 	bl	1028b8 <BLE_SendChar(char*)>
  10302e:	e140      	b.n	1032b2 <Ble_Menu(char*)+0x69a>
  103030:	7fe3      	ldrb	r3, [r4, #31]
  103032:	2b6d      	cmp	r3, #109	; 0x6d
  103034:	d10a      	bne.n	10304c <Ble_Menu(char*)+0x434>
  103036:	f104 011e 	add.w	r1, r4, #30
  10303a:	4864      	ldr	r0, [pc, #400]	; (1031cc <Ble_Menu(char*)+0x5b4>)
  10303c:	f7ff f978 	bl	102330 <Accelerometer::devSetup(char*)>
  103040:	9713      	str	r7, [sp, #76]	; 0x4c
  103042:	9616      	str	r6, [sp, #88]	; 0x58
  103044:	4a51      	ldr	r2, [pc, #324]	; (10318c <Ble_Menu(char*)+0x574>)
  103046:	a913      	add	r1, sp, #76	; 0x4c
  103048:	4851      	ldr	r0, [pc, #324]	; (103190 <Ble_Menu(char*)+0x578>)
  10304a:	e7b4      	b.n	102fb6 <Ble_Menu(char*)+0x39e>
  10304c:	4961      	ldr	r1, [pc, #388]	; (1031d4 <Ble_Menu(char*)+0x5bc>)
  10304e:	f104 001e 	add.w	r0, r4, #30
  103052:	f00a fa38 	bl	10d4c6 <strcmp>
  103056:	b9c8      	cbnz	r0, 10308c <Ble_Menu(char*)+0x474>
  103058:	4a4c      	ldr	r2, [pc, #304]	; (10318c <Ble_Menu(char*)+0x574>)
  10305a:	a913      	add	r1, sp, #76	; 0x4c
  10305c:	484c      	ldr	r0, [pc, #304]	; (103190 <Ble_Menu(char*)+0x578>)
  10305e:	9713      	str	r7, [sp, #76]	; 0x4c
  103060:	9616      	str	r6, [sp, #88]	; 0x58
  103062:	f7ff fc6f 	bl	102944 <mbed::Ticker::attach(mbed::Callback<void ()>, float)>
  103066:	a813      	add	r0, sp, #76	; 0x4c
  103068:	f7ff fc58 	bl	10291c <mbed::Callback<void ()>::~Callback()>
  10306c:	495a      	ldr	r1, [pc, #360]	; (1031d8 <Ble_Menu(char*)+0x5c0>)
  10306e:	4855      	ldr	r0, [pc, #340]	; (1031c4 <Ble_Menu(char*)+0x5ac>)
  103070:	f001 fee6 	bl	104e40 <NHD_C0216CZ::displayString(char const*)>
  103074:	4b59      	ldr	r3, [pc, #356]	; (1031dc <Ble_Menu(char*)+0x5c4>)
  103076:	4a5a      	ldr	r2, [pc, #360]	; (1031e0 <Ble_Menu(char*)+0x5c8>)
  103078:	a913      	add	r1, sp, #76	; 0x4c
  10307a:	485a      	ldr	r0, [pc, #360]	; (1031e4 <Ble_Menu(char*)+0x5cc>)
  10307c:	9313      	str	r3, [sp, #76]	; 0x4c
  10307e:	9616      	str	r6, [sp, #88]	; 0x58
  103080:	f7ff fc60 	bl	102944 <mbed::Ticker::attach(mbed::Callback<void ()>, float)>
  103084:	a813      	add	r0, sp, #76	; 0x4c
  103086:	f7ff fc49 	bl	10291c <mbed::Callback<void ()>::~Callback()>
  10308a:	e107      	b.n	10329c <Ble_Menu(char*)+0x684>
  10308c:	4956      	ldr	r1, [pc, #344]	; (1031e8 <Ble_Menu(char*)+0x5d0>)
  10308e:	f104 001e 	add.w	r0, r4, #30
  103092:	f00a fa18 	bl	10d4c6 <strcmp>
  103096:	2800      	cmp	r0, #0
  103098:	f040 80e2 	bne.w	103260 <Ble_Menu(char*)+0x648>
  10309c:	4a3b      	ldr	r2, [pc, #236]	; (10318c <Ble_Menu(char*)+0x574>)
  10309e:	a913      	add	r1, sp, #76	; 0x4c
  1030a0:	483b      	ldr	r0, [pc, #236]	; (103190 <Ble_Menu(char*)+0x578>)
  1030a2:	9713      	str	r7, [sp, #76]	; 0x4c
  1030a4:	9616      	str	r6, [sp, #88]	; 0x58
  1030a6:	f7ff fc4d 	bl	102944 <mbed::Ticker::attach(mbed::Callback<void ()>, float)>
  1030aa:	a813      	add	r0, sp, #76	; 0x4c
  1030ac:	f7ff fc36 	bl	10291c <mbed::Callback<void ()>::~Callback()>
  1030b0:	484c      	ldr	r0, [pc, #304]	; (1031e4 <Ble_Menu(char*)+0x5cc>)
  1030b2:	f005 fe1b 	bl	108cec <mbed::Ticker::detach()>
  1030b6:	e0f1      	b.n	10329c <Ble_Menu(char*)+0x684>
  1030b8:	494c      	ldr	r1, [pc, #304]	; (1031ec <Ble_Menu(char*)+0x5d4>)
  1030ba:	4620      	mov	r0, r4
  1030bc:	f00a fa03 	bl	10d4c6 <strcmp>
  1030c0:	2800      	cmp	r0, #0
  1030c2:	f040 80e1 	bne.w	103288 <Ble_Menu(char*)+0x670>
  1030c6:	494a      	ldr	r1, [pc, #296]	; (1031f0 <Ble_Menu(char*)+0x5d8>)
  1030c8:	f104 001e 	add.w	r0, r4, #30
  1030cc:	f00a f9fb 	bl	10d4c6 <strcmp>
  1030d0:	b950      	cbnz	r0, 1030e8 <Ble_Menu(char*)+0x4d0>
  1030d2:	4837      	ldr	r0, [pc, #220]	; (1031b0 <Ble_Menu(char*)+0x598>)
  1030d4:	f000 faae 	bl	103634 <GPS::deactivate()>
  1030d8:	2005      	movs	r0, #5
  1030da:	f006 fa5f 	bl	10959c <wait_us>
  1030de:	482f      	ldr	r0, [pc, #188]	; (10319c <Ble_Menu(char*)+0x584>)
  1030e0:	f000 fde4 	bl	103cac <GSM::activate()>
  1030e4:	4943      	ldr	r1, [pc, #268]	; (1031f4 <Ble_Menu(char*)+0x5dc>)
  1030e6:	e020      	b.n	10312a <Ble_Menu(char*)+0x512>
  1030e8:	4943      	ldr	r1, [pc, #268]	; (1031f8 <Ble_Menu(char*)+0x5e0>)
  1030ea:	f104 001e 	add.w	r0, r4, #30
  1030ee:	f00a f9ea 	bl	10d4c6 <strcmp>
  1030f2:	b950      	cbnz	r0, 10310a <Ble_Menu(char*)+0x4f2>
  1030f4:	4829      	ldr	r0, [pc, #164]	; (10319c <Ble_Menu(char*)+0x584>)
  1030f6:	f000 fe03 	bl	103d00 <GSM::deactivate()>
  1030fa:	2005      	movs	r0, #5
  1030fc:	f006 fa4e 	bl	10959c <wait_us>
  103100:	482b      	ldr	r0, [pc, #172]	; (1031b0 <Ble_Menu(char*)+0x598>)
  103102:	f000 fa6d 	bl	1035e0 <GPS::activate()>
  103106:	493d      	ldr	r1, [pc, #244]	; (1031fc <Ble_Menu(char*)+0x5e4>)
  103108:	e00f      	b.n	10312a <Ble_Menu(char*)+0x512>
  10310a:	493d      	ldr	r1, [pc, #244]	; (103200 <Ble_Menu(char*)+0x5e8>)
  10310c:	f104 001e 	add.w	r0, r4, #30
  103110:	f00a f9d9 	bl	10d4c6 <strcmp>
  103114:	b9c0      	cbnz	r0, 103148 <Ble_Menu(char*)+0x530>
  103116:	4821      	ldr	r0, [pc, #132]	; (10319c <Ble_Menu(char*)+0x584>)
  103118:	f000 fdf2 	bl	103d00 <GSM::deactivate()>
  10311c:	2005      	movs	r0, #5
  10311e:	f006 fa3d 	bl	10959c <wait_us>
  103122:	4823      	ldr	r0, [pc, #140]	; (1031b0 <Ble_Menu(char*)+0x598>)
  103124:	f000 fa86 	bl	103634 <GPS::deactivate()>
  103128:	4936      	ldr	r1, [pc, #216]	; (103204 <Ble_Menu(char*)+0x5ec>)
  10312a:	a813      	add	r0, sp, #76	; 0x4c
  10312c:	f00a f9d5 	bl	10d4da <strcpy>
  103130:	a813      	add	r0, sp, #76	; 0x4c
  103132:	f7ff fbc1 	bl	1028b8 <BLE_SendChar(char*)>
  103136:	4816      	ldr	r0, [pc, #88]	; (103190 <Ble_Menu(char*)+0x578>)
  103138:	4a14      	ldr	r2, [pc, #80]	; (10318c <Ble_Menu(char*)+0x574>)
  10313a:	a906      	add	r1, sp, #24
  10313c:	9706      	str	r7, [sp, #24]
  10313e:	9609      	str	r6, [sp, #36]	; 0x24
  103140:	f7ff fc00 	bl	102944 <mbed::Ticker::attach(mbed::Callback<void ()>, float)>
  103144:	a806      	add	r0, sp, #24
  103146:	e09b      	b.n	103280 <Ble_Menu(char*)+0x668>
  103148:	492f      	ldr	r1, [pc, #188]	; (103208 <Ble_Menu(char*)+0x5f0>)
  10314a:	f104 001e 	add.w	r0, r4, #30
  10314e:	f00a f9ba 	bl	10d4c6 <strcmp>
  103152:	b940      	cbnz	r0, 103166 <Ble_Menu(char*)+0x54e>
  103154:	4b2d      	ldr	r3, [pc, #180]	; (10320c <Ble_Menu(char*)+0x5f4>)
  103156:	7018      	strb	r0, [r3, #0]
  103158:	4b2d      	ldr	r3, [pc, #180]	; (103210 <Ble_Menu(char*)+0x5f8>)
  10315a:	7018      	strb	r0, [r3, #0]
  10315c:	4b2d      	ldr	r3, [pc, #180]	; (103214 <Ble_Menu(char*)+0x5fc>)
  10315e:	7018      	strb	r0, [r3, #0]
  103160:	4b2d      	ldr	r3, [pc, #180]	; (103218 <Ble_Menu(char*)+0x600>)
  103162:	7018      	strb	r0, [r3, #0]
  103164:	e084      	b.n	103270 <Ble_Menu(char*)+0x658>
  103166:	492d      	ldr	r1, [pc, #180]	; (10321c <Ble_Menu(char*)+0x604>)
  103168:	f104 001e 	add.w	r0, r4, #30
  10316c:	f00a f9ab 	bl	10d4c6 <strcmp>
  103170:	2800      	cmp	r0, #0
  103172:	d155      	bne.n	103220 <Ble_Menu(char*)+0x608>
  103174:	4b25      	ldr	r3, [pc, #148]	; (10320c <Ble_Menu(char*)+0x5f4>)
  103176:	2501      	movs	r5, #1
  103178:	7018      	strb	r0, [r3, #0]
  10317a:	4b25      	ldr	r3, [pc, #148]	; (103210 <Ble_Menu(char*)+0x5f8>)
  10317c:	701d      	strb	r5, [r3, #0]
  10317e:	4b25      	ldr	r3, [pc, #148]	; (103214 <Ble_Menu(char*)+0x5fc>)
  103180:	7018      	strb	r0, [r3, #0]
  103182:	4b25      	ldr	r3, [pc, #148]	; (103218 <Ble_Menu(char*)+0x600>)
  103184:	7018      	strb	r0, [r3, #0]
  103186:	e75b      	b.n	103040 <Ble_Menu(char*)+0x428>
  103188:	00110bc0 	.word	0x00110bc0
  10318c:	3f333333 	.word	0x3f333333
  103190:	3fff69d0 	.word	0x3fff69d0
  103194:	00110bce 	.word	0x00110bce
  103198:	44bb8000 	.word	0x44bb8000
  10319c:	3fff6a3c 	.word	0x3fff6a3c
  1031a0:	001032e9 	.word	0x001032e9
  1031a4:	00110a98 	.word	0x00110a98
  1031a8:	00110bd6 	.word	0x00110bd6
  1031ac:	00110bdd 	.word	0x00110bdd
  1031b0:	3fff7088 	.word	0x3fff7088
  1031b4:	00110b5c 	.word	0x00110b5c
  1031b8:	001027a5 	.word	0x001027a5
  1031bc:	3fff7730 	.word	0x3fff7730
  1031c0:	00110b63 	.word	0x00110b63
  1031c4:	3fff6ebc 	.word	0x3fff6ebc
  1031c8:	00110bf0 	.word	0x00110bf0
  1031cc:	3fff6ea8 	.word	0x3fff6ea8
  1031d0:	00110bf5 	.word	0x00110bf5
  1031d4:	00110bfd 	.word	0x00110bfd
  1031d8:	00110c03 	.word	0x00110c03
  1031dc:	0010259d 	.word	0x0010259d
  1031e0:	3f19999a 	.word	0x3f19999a
  1031e4:	3fff7020 	.word	0x3fff7020
  1031e8:	00110c0c 	.word	0x00110c0c
  1031ec:	00110c1e 	.word	0x00110c1e
  1031f0:	00110c21 	.word	0x00110c21
  1031f4:	00110c2d 	.word	0x00110c2d
  1031f8:	00110c34 	.word	0x00110c34
  1031fc:	00110c40 	.word	0x00110c40
  103200:	00110c47 	.word	0x00110c47
  103204:	00110c4e 	.word	0x00110c4e
  103208:	00110c5d 	.word	0x00110c5d
  10320c:	3fff6b50 	.word	0x3fff6b50
  103210:	3fff6990 	.word	0x3fff6990
  103214:	3fff700c 	.word	0x3fff700c
  103218:	3fff6f58 	.word	0x3fff6f58
  10321c:	00110b98 	.word	0x00110b98
  103220:	4925      	ldr	r1, [pc, #148]	; (1032b8 <Ble_Menu(char*)+0x6a0>)
  103222:	f104 001e 	add.w	r0, r4, #30
  103226:	f00a f94e 	bl	10d4c6 <strcmp>
  10322a:	b950      	cbnz	r0, 103242 <Ble_Menu(char*)+0x62a>
  10322c:	4a23      	ldr	r2, [pc, #140]	; (1032bc <Ble_Menu(char*)+0x6a4>)
  10322e:	2300      	movs	r3, #0
  103230:	7013      	strb	r3, [r2, #0]
  103232:	4a23      	ldr	r2, [pc, #140]	; (1032c0 <Ble_Menu(char*)+0x6a8>)
  103234:	2501      	movs	r5, #1
  103236:	7013      	strb	r3, [r2, #0]
  103238:	4a22      	ldr	r2, [pc, #136]	; (1032c4 <Ble_Menu(char*)+0x6ac>)
  10323a:	7015      	strb	r5, [r2, #0]
  10323c:	4a22      	ldr	r2, [pc, #136]	; (1032c8 <Ble_Menu(char*)+0x6b0>)
  10323e:	7013      	strb	r3, [r2, #0]
  103240:	e6fe      	b.n	103040 <Ble_Menu(char*)+0x428>
  103242:	4922      	ldr	r1, [pc, #136]	; (1032cc <Ble_Menu(char*)+0x6b4>)
  103244:	4822      	ldr	r0, [pc, #136]	; (1032d0 <Ble_Menu(char*)+0x6b8>)
  103246:	f00a f93e 	bl	10d4c6 <strcmp>
  10324a:	b948      	cbnz	r0, 103260 <Ble_Menu(char*)+0x648>
  10324c:	4b1b      	ldr	r3, [pc, #108]	; (1032bc <Ble_Menu(char*)+0x6a4>)
  10324e:	2501      	movs	r5, #1
  103250:	7018      	strb	r0, [r3, #0]
  103252:	4b1b      	ldr	r3, [pc, #108]	; (1032c0 <Ble_Menu(char*)+0x6a8>)
  103254:	7018      	strb	r0, [r3, #0]
  103256:	4b1b      	ldr	r3, [pc, #108]	; (1032c4 <Ble_Menu(char*)+0x6ac>)
  103258:	7018      	strb	r0, [r3, #0]
  10325a:	4b1b      	ldr	r3, [pc, #108]	; (1032c8 <Ble_Menu(char*)+0x6b0>)
  10325c:	701d      	strb	r5, [r3, #0]
  10325e:	e6ef      	b.n	103040 <Ble_Menu(char*)+0x428>
  103260:	491c      	ldr	r1, [pc, #112]	; (1032d4 <Ble_Menu(char*)+0x6bc>)
  103262:	a806      	add	r0, sp, #24
  103264:	f00a f939 	bl	10d4da <strcpy>
  103268:	a906      	add	r1, sp, #24
  10326a:	481b      	ldr	r0, [pc, #108]	; (1032d8 <Ble_Menu(char*)+0x6c0>)
  10326c:	f000 f9fe 	bl	10366c <GPS::send(char*)>
  103270:	481a      	ldr	r0, [pc, #104]	; (1032dc <Ble_Menu(char*)+0x6c4>)
  103272:	4a1b      	ldr	r2, [pc, #108]	; (1032e0 <Ble_Menu(char*)+0x6c8>)
  103274:	a913      	add	r1, sp, #76	; 0x4c
  103276:	9713      	str	r7, [sp, #76]	; 0x4c
  103278:	9616      	str	r6, [sp, #88]	; 0x58
  10327a:	f7ff fb63 	bl	102944 <mbed::Ticker::attach(mbed::Callback<void ()>, float)>
  10327e:	a813      	add	r0, sp, #76	; 0x4c
  103280:	f7ff fb4c 	bl	10291c <mbed::Callback<void ()>::~Callback()>
  103284:	2501      	movs	r5, #1
  103286:	e014      	b.n	1032b2 <Ble_Menu(char*)+0x69a>
  103288:	4916      	ldr	r1, [pc, #88]	; (1032e4 <Ble_Menu(char*)+0x6cc>)
  10328a:	a813      	add	r0, sp, #76	; 0x4c
  10328c:	f006 fcfa 	bl	109c84 <std::__cxx11::basic_string<char, std::char_traits<char>, std::allocator<char> >::basic_string(std::__cxx11::basic_string<char, std::char_traits<char>, std::allocator<char> > const&)>
  103290:	a813      	add	r0, sp, #76	; 0x4c
  103292:	f7ff fb01 	bl	102898 <BLE_SendData(std::__cxx11::basic_string<char, std::char_traits<char>, std::allocator<char> >)>
  103296:	a813      	add	r0, sp, #76	; 0x4c
  103298:	f006 fb68 	bl	10996c <std::__cxx11::basic_string<char, std::char_traits<char>, std::allocator<char> >::_M_dispose()>
  10329c:	4a10      	ldr	r2, [pc, #64]	; (1032e0 <Ble_Menu(char*)+0x6c8>)
  10329e:	a913      	add	r1, sp, #76	; 0x4c
  1032a0:	480e      	ldr	r0, [pc, #56]	; (1032dc <Ble_Menu(char*)+0x6c4>)
  1032a2:	9713      	str	r7, [sp, #76]	; 0x4c
  1032a4:	9616      	str	r6, [sp, #88]	; 0x58
  1032a6:	f7ff fb4d 	bl	102944 <mbed::Ticker::attach(mbed::Callback<void ()>, float)>
  1032aa:	a813      	add	r0, sp, #76	; 0x4c
  1032ac:	f7ff fb36 	bl	10291c <mbed::Callback<void ()>::~Callback()>
  1032b0:	2500      	movs	r5, #0
  1032b2:	4628      	mov	r0, r5
  1032b4:	b02d      	add	sp, #180	; 0xb4
  1032b6:	bdf0      	pop	{r4, r5, r6, r7, pc}
  1032b8:	00110c65 	.word	0x00110c65
  1032bc:	3fff6b50 	.word	0x3fff6b50
  1032c0:	3fff6990 	.word	0x3fff6990
  1032c4:	3fff700c 	.word	0x3fff700c
  1032c8:	3fff6f58 	.word	0x3fff6f58
  1032cc:	00110c6b 	.word	0x00110c6b
  1032d0:	3fff6b84 	.word	0x3fff6b84
  1032d4:	00110c13 	.word	0x00110c13
  1032d8:	3fff7088 	.word	0x3fff7088
  1032dc:	3fff69d0 	.word	0x3fff69d0
  1032e0:	3f333333 	.word	0x3f333333
  1032e4:	3fff6e4c 	.word	0x3fff6e4c

001032e8 <IRQ_Bluetooth_Communication()>:
  1032e8:	b57f      	push	{r0, r1, r2, r3, r4, r5, r6, lr}
  1032ea:	4b0f      	ldr	r3, [pc, #60]	; (103328 <IRQ_Bluetooth_Communication()+0x40>)
  1032ec:	781b      	ldrb	r3, [r3, #0]
  1032ee:	b1c3      	cbz	r3, 103322 <IRQ_Bluetooth_Communication()+0x3a>
  1032f0:	f7ff faf4 	bl	1028dc <BLE_ReadReceivedData()>
  1032f4:	2801      	cmp	r0, #1
  1032f6:	d114      	bne.n	103322 <IRQ_Bluetooth_Communication()+0x3a>
  1032f8:	490c      	ldr	r1, [pc, #48]	; (10332c <IRQ_Bluetooth_Communication()+0x44>)
  1032fa:	4668      	mov	r0, sp
  1032fc:	f7ff fa82 	bl	102804 <std::__cxx11::basic_string<char, std::char_traits<char>, std::allocator<char> >::basic_string(char const*, std::allocator<char> const&) [clone .isra.22]>
  103300:	4668      	mov	r0, sp
  103302:	f7ff fac9 	bl	102898 <BLE_SendData(std::__cxx11::basic_string<char, std::char_traits<char>, std::allocator<char> >)>
  103306:	4668      	mov	r0, sp
  103308:	f006 fb30 	bl	10996c <std::__cxx11::basic_string<char, std::char_traits<char>, std::allocator<char> >::_M_dispose()>
  10330c:	4807      	ldr	r0, [pc, #28]	; (10332c <IRQ_Bluetooth_Communication()+0x44>)
  10330e:	f7ff fc83 	bl	102c18 <Ble_Menu(char*)>
  103312:	4806      	ldr	r0, [pc, #24]	; (10332c <IRQ_Bluetooth_Communication()+0x44>)
  103314:	2264      	movs	r2, #100	; 0x64
  103316:	2120      	movs	r1, #32
  103318:	b007      	add	sp, #28
  10331a:	f85d eb04 	ldr.w	lr, [sp], #4
  10331e:	f008 bba1 	b.w	10ba64 <memset>
  103322:	b007      	add	sp, #28
  103324:	f85d fb04 	ldr.w	pc, [sp], #4
  103328:	3fff40a9 	.word	0x3fff40a9
  10332c:	3fff692c 	.word	0x3fff692c

00103330 <_GLOBAL__sub_I_TOUCH_LC717A00_mode>:
  103330:	b573      	push	{r0, r1, r4, r5, r6, lr}
  103332:	4974      	ldr	r1, [pc, #464]	; (103504 <_GLOBAL__sub_I_TOUCH_LC717A00_mode+0x1d4>)
  103334:	4874      	ldr	r0, [pc, #464]	; (103508 <_GLOBAL__sub_I_TOUCH_LC717A00_mode+0x1d8>)
  103336:	f7ff fa65 	bl	102804 <std::__cxx11::basic_string<char, std::char_traits<char>, std::allocator<char> >::basic_string(char const*, std::allocator<char> const&) [clone .isra.22]>
  10333a:	4a74      	ldr	r2, [pc, #464]	; (10350c <_GLOBAL__sub_I_TOUCH_LC717A00_mode+0x1dc>)
  10333c:	4974      	ldr	r1, [pc, #464]	; (103510 <_GLOBAL__sub_I_TOUCH_LC717A00_mode+0x1e0>)
  10333e:	4872      	ldr	r0, [pc, #456]	; (103508 <_GLOBAL__sub_I_TOUCH_LC717A00_mode+0x1d8>)
  103340:	f006 f83d 	bl	1093be <__aeabi_atexit>
  103344:	4b73      	ldr	r3, [pc, #460]	; (103514 <_GLOBAL__sub_I_TOUCH_LC717A00_mode+0x1e4>)
  103346:	2200      	movs	r2, #0
  103348:	f503 70c0 	add.w	r0, r3, #384	; 0x180
  10334c:	4619      	mov	r1, r3
  10334e:	f843 2c04 	str.w	r2, [r3, #-4]
  103352:	f843 3c08 	str.w	r3, [r3, #-8]
  103356:	f801 2b18 	strb.w	r2, [r1], #24
  10335a:	6119      	str	r1, [r3, #16]
  10335c:	615a      	str	r2, [r3, #20]
  10335e:	761a      	strb	r2, [r3, #24]
  103360:	3330      	adds	r3, #48	; 0x30
  103362:	4283      	cmp	r3, r0
  103364:	f04f 0400 	mov.w	r4, #0
  103368:	d1f0      	bne.n	10334c <_GLOBAL__sub_I_TOUCH_LC717A00_mode+0x1c>
  10336a:	4a68      	ldr	r2, [pc, #416]	; (10350c <_GLOBAL__sub_I_TOUCH_LC717A00_mode+0x1dc>)
  10336c:	496a      	ldr	r1, [pc, #424]	; (103518 <_GLOBAL__sub_I_TOUCH_LC717A00_mode+0x1e8>)
  10336e:	4620      	mov	r0, r4
  103370:	f006 f825 	bl	1093be <__aeabi_atexit>
  103374:	4963      	ldr	r1, [pc, #396]	; (103504 <_GLOBAL__sub_I_TOUCH_LC717A00_mode+0x1d4>)
  103376:	4869      	ldr	r0, [pc, #420]	; (10351c <_GLOBAL__sub_I_TOUCH_LC717A00_mode+0x1ec>)
  103378:	f7ff fa44 	bl	102804 <std::__cxx11::basic_string<char, std::char_traits<char>, std::allocator<char> >::basic_string(char const*, std::allocator<char> const&) [clone .isra.22]>
  10337c:	4a63      	ldr	r2, [pc, #396]	; (10350c <_GLOBAL__sub_I_TOUCH_LC717A00_mode+0x1dc>)
  10337e:	4964      	ldr	r1, [pc, #400]	; (103510 <_GLOBAL__sub_I_TOUCH_LC717A00_mode+0x1e0>)
  103380:	4866      	ldr	r0, [pc, #408]	; (10351c <_GLOBAL__sub_I_TOUCH_LC717A00_mode+0x1ec>)
  103382:	f006 f81c 	bl	1093be <__aeabi_atexit>
  103386:	495f      	ldr	r1, [pc, #380]	; (103504 <_GLOBAL__sub_I_TOUCH_LC717A00_mode+0x1d4>)
  103388:	4865      	ldr	r0, [pc, #404]	; (103520 <_GLOBAL__sub_I_TOUCH_LC717A00_mode+0x1f0>)
  10338a:	f7ff fa3b 	bl	102804 <std::__cxx11::basic_string<char, std::char_traits<char>, std::allocator<char> >::basic_string(char const*, std::allocator<char> const&) [clone .isra.22]>
  10338e:	4a5f      	ldr	r2, [pc, #380]	; (10350c <_GLOBAL__sub_I_TOUCH_LC717A00_mode+0x1dc>)
  103390:	495f      	ldr	r1, [pc, #380]	; (103510 <_GLOBAL__sub_I_TOUCH_LC717A00_mode+0x1e0>)
  103392:	4863      	ldr	r0, [pc, #396]	; (103520 <_GLOBAL__sub_I_TOUCH_LC717A00_mode+0x1f0>)
  103394:	f006 f813 	bl	1093be <__aeabi_atexit>
  103398:	495a      	ldr	r1, [pc, #360]	; (103504 <_GLOBAL__sub_I_TOUCH_LC717A00_mode+0x1d4>)
  10339a:	4862      	ldr	r0, [pc, #392]	; (103524 <_GLOBAL__sub_I_TOUCH_LC717A00_mode+0x1f4>)
  10339c:	f7ff fa32 	bl	102804 <std::__cxx11::basic_string<char, std::char_traits<char>, std::allocator<char> >::basic_string(char const*, std::allocator<char> const&) [clone .isra.22]>
  1033a0:	4a5a      	ldr	r2, [pc, #360]	; (10350c <_GLOBAL__sub_I_TOUCH_LC717A00_mode+0x1dc>)
  1033a2:	495b      	ldr	r1, [pc, #364]	; (103510 <_GLOBAL__sub_I_TOUCH_LC717A00_mode+0x1e0>)
  1033a4:	485f      	ldr	r0, [pc, #380]	; (103524 <_GLOBAL__sub_I_TOUCH_LC717A00_mode+0x1f4>)
  1033a6:	4d60      	ldr	r5, [pc, #384]	; (103528 <_GLOBAL__sub_I_TOUCH_LC717A00_mode+0x1f8>)
  1033a8:	f006 f809 	bl	1093be <__aeabi_atexit>
  1033ac:	485f      	ldr	r0, [pc, #380]	; (10352c <_GLOBAL__sub_I_TOUCH_LC717A00_mode+0x1fc>)
  1033ae:	f006 fa19 	bl	1097e4 <rtos::Mutex::Mutex()>
  1033b2:	f04f 36ff 	mov.w	r6, #4294967295
  1033b6:	4a55      	ldr	r2, [pc, #340]	; (10350c <_GLOBAL__sub_I_TOUCH_LC717A00_mode+0x1dc>)
  1033b8:	495d      	ldr	r1, [pc, #372]	; (103530 <_GLOBAL__sub_I_TOUCH_LC717A00_mode+0x200>)
  1033ba:	485c      	ldr	r0, [pc, #368]	; (10352c <_GLOBAL__sub_I_TOUCH_LC717A00_mode+0x1fc>)
  1033bc:	f005 ffff 	bl	1093be <__aeabi_atexit>
  1033c0:	2304      	movs	r3, #4
  1033c2:	2206      	movs	r2, #6
  1033c4:	9600      	str	r6, [sp, #0]
  1033c6:	2105      	movs	r1, #5
  1033c8:	4628      	mov	r0, r5
  1033ca:	f005 fbbb 	bl	108b44 <mbed::SPI::SPI(PinName, PinName, PinName, PinName)>
  1033ce:	4631      	mov	r1, r6
  1033d0:	f105 002c 	add.w	r0, r5, #44	; 0x2c
  1033d4:	62ec      	str	r4, [r5, #44]	; 0x2c
  1033d6:	f885 4030 	strb.w	r4, [r5, #48]	; 0x30
  1033da:	636c      	str	r4, [r5, #52]	; 0x34
  1033dc:	f001 fe9c 	bl	105118 <gpio_init_out>
  1033e0:	2320      	movs	r3, #32
  1033e2:	9600      	str	r6, [sp, #0]
  1033e4:	2202      	movs	r2, #2
  1033e6:	2103      	movs	r1, #3
  1033e8:	f105 0040 	add.w	r0, r5, #64	; 0x40
  1033ec:	f001 fad8 	bl	1049a0 <PCA9655E::PCA9655E(PinName, PinName, unsigned char, PinName)>
  1033f0:	4a46      	ldr	r2, [pc, #280]	; (10350c <_GLOBAL__sub_I_TOUCH_LC717A00_mode+0x1dc>)
  1033f2:	4950      	ldr	r1, [pc, #320]	; (103534 <_GLOBAL__sub_I_TOUCH_LC717A00_mode+0x204>)
  1033f4:	4628      	mov	r0, r5
  1033f6:	f005 ffe2 	bl	1093be <__aeabi_atexit>
  1033fa:	484f      	ldr	r0, [pc, #316]	; (103538 <_GLOBAL__sub_I_TOUCH_LC717A00_mode+0x208>)
  1033fc:	f000 fae8 	bl	1039d0 <GPS::GPS()>
  103400:	4a42      	ldr	r2, [pc, #264]	; (10350c <_GLOBAL__sub_I_TOUCH_LC717A00_mode+0x1dc>)
  103402:	494e      	ldr	r1, [pc, #312]	; (10353c <_GLOBAL__sub_I_TOUCH_LC717A00_mode+0x20c>)
  103404:	484c      	ldr	r0, [pc, #304]	; (103538 <_GLOBAL__sub_I_TOUCH_LC717A00_mode+0x208>)
  103406:	f005 ffda 	bl	1093be <__aeabi_atexit>
  10340a:	484d      	ldr	r0, [pc, #308]	; (103540 <_GLOBAL__sub_I_TOUCH_LC717A00_mode+0x210>)
  10340c:	f000 fd80 	bl	103f10 <GSM::GSM()>
  103410:	4a3e      	ldr	r2, [pc, #248]	; (10350c <_GLOBAL__sub_I_TOUCH_LC717A00_mode+0x1dc>)
  103412:	494c      	ldr	r1, [pc, #304]	; (103544 <_GLOBAL__sub_I_TOUCH_LC717A00_mode+0x214>)
  103414:	484a      	ldr	r0, [pc, #296]	; (103540 <_GLOBAL__sub_I_TOUCH_LC717A00_mode+0x210>)
  103416:	f005 ffd2 	bl	1093be <__aeabi_atexit>
  10341a:	2111      	movs	r1, #17
  10341c:	484a      	ldr	r0, [pc, #296]	; (103548 <_GLOBAL__sub_I_TOUCH_LC717A00_mode+0x218>)
  10341e:	f005 fa53 	bl	1088c8 <mbed::InterruptIn::InterruptIn(PinName)>
  103422:	4a3a      	ldr	r2, [pc, #232]	; (10350c <_GLOBAL__sub_I_TOUCH_LC717A00_mode+0x1dc>)
  103424:	4949      	ldr	r1, [pc, #292]	; (10354c <_GLOBAL__sub_I_TOUCH_LC717A00_mode+0x21c>)
  103426:	4848      	ldr	r0, [pc, #288]	; (103548 <_GLOBAL__sub_I_TOUCH_LC717A00_mode+0x218>)
  103428:	f005 ffc9 	bl	1093be <__aeabi_atexit>
  10342c:	4848      	ldr	r0, [pc, #288]	; (103550 <_GLOBAL__sub_I_TOUCH_LC717A00_mode+0x220>)
  10342e:	f7fe ffeb 	bl	102408 <Accelerometer::Accelerometer()>
  103432:	4a36      	ldr	r2, [pc, #216]	; (10350c <_GLOBAL__sub_I_TOUCH_LC717A00_mode+0x1dc>)
  103434:	4947      	ldr	r1, [pc, #284]	; (103554 <_GLOBAL__sub_I_TOUCH_LC717A00_mode+0x224>)
  103436:	4846      	ldr	r0, [pc, #280]	; (103550 <_GLOBAL__sub_I_TOUCH_LC717A00_mode+0x220>)
  103438:	f005 ffc1 	bl	1093be <__aeabi_atexit>
  10343c:	4846      	ldr	r0, [pc, #280]	; (103558 <_GLOBAL__sub_I_TOUCH_LC717A00_mode+0x228>)
  10343e:	f7ff fa0b 	bl	102858 <mbed::Ticker::Ticker()>
  103442:	4a32      	ldr	r2, [pc, #200]	; (10350c <_GLOBAL__sub_I_TOUCH_LC717A00_mode+0x1dc>)
  103444:	4945      	ldr	r1, [pc, #276]	; (10355c <_GLOBAL__sub_I_TOUCH_LC717A00_mode+0x22c>)
  103446:	4844      	ldr	r0, [pc, #272]	; (103558 <_GLOBAL__sub_I_TOUCH_LC717A00_mode+0x228>)
  103448:	f005 ffb9 	bl	1093be <__aeabi_atexit>
  10344c:	4844      	ldr	r0, [pc, #272]	; (103560 <_GLOBAL__sub_I_TOUCH_LC717A00_mode+0x230>)
  10344e:	4a2f      	ldr	r2, [pc, #188]	; (10350c <_GLOBAL__sub_I_TOUCH_LC717A00_mode+0x1dc>)
  103450:	f100 0308 	add.w	r3, r0, #8
  103454:	e880 0018 	stmia.w	r0, {r3, r4}
  103458:	492d      	ldr	r1, [pc, #180]	; (103510 <_GLOBAL__sub_I_TOUCH_LC717A00_mode+0x1e0>)
  10345a:	7204      	strb	r4, [r0, #8]
  10345c:	f005 ffaf 	bl	1093be <__aeabi_atexit>
  103460:	4840      	ldr	r0, [pc, #256]	; (103564 <_GLOBAL__sub_I_TOUCH_LC717A00_mode+0x234>)
  103462:	f7ff f9f9 	bl	102858 <mbed::Ticker::Ticker()>
  103466:	4a29      	ldr	r2, [pc, #164]	; (10350c <_GLOBAL__sub_I_TOUCH_LC717A00_mode+0x1dc>)
  103468:	493c      	ldr	r1, [pc, #240]	; (10355c <_GLOBAL__sub_I_TOUCH_LC717A00_mode+0x22c>)
  10346a:	483e      	ldr	r0, [pc, #248]	; (103564 <_GLOBAL__sub_I_TOUCH_LC717A00_mode+0x234>)
  10346c:	f005 ffa7 	bl	1093be <__aeabi_atexit>
  103470:	483d      	ldr	r0, [pc, #244]	; (103568 <_GLOBAL__sub_I_TOUCH_LC717A00_mode+0x238>)
  103472:	2111      	movs	r1, #17
  103474:	6004      	str	r4, [r0, #0]
  103476:	7104      	strb	r4, [r0, #4]
  103478:	6084      	str	r4, [r0, #8]
  10347a:	f001 fe26 	bl	1050ca <gpio_init_in>
  10347e:	483b      	ldr	r0, [pc, #236]	; (10356c <_GLOBAL__sub_I_TOUCH_LC717A00_mode+0x23c>)
  103480:	2107      	movs	r1, #7
  103482:	6004      	str	r4, [r0, #0]
  103484:	7104      	strb	r4, [r0, #4]
  103486:	6084      	str	r4, [r0, #8]
  103488:	f001 fe1f 	bl	1050ca <gpio_init_in>
  10348c:	4838      	ldr	r0, [pc, #224]	; (103570 <_GLOBAL__sub_I_TOUCH_LC717A00_mode+0x240>)
  10348e:	f7ff f9e3 	bl	102858 <mbed::Ticker::Ticker()>
  103492:	4a1e      	ldr	r2, [pc, #120]	; (10350c <_GLOBAL__sub_I_TOUCH_LC717A00_mode+0x1dc>)
  103494:	4931      	ldr	r1, [pc, #196]	; (10355c <_GLOBAL__sub_I_TOUCH_LC717A00_mode+0x22c>)
  103496:	4836      	ldr	r0, [pc, #216]	; (103570 <_GLOBAL__sub_I_TOUCH_LC717A00_mode+0x240>)
  103498:	f005 ff91 	bl	1093be <__aeabi_atexit>
  10349c:	4835      	ldr	r0, [pc, #212]	; (103574 <_GLOBAL__sub_I_TOUCH_LC717A00_mode+0x244>)
  10349e:	f7ff f9db 	bl	102858 <mbed::Ticker::Ticker()>
  1034a2:	4a1a      	ldr	r2, [pc, #104]	; (10350c <_GLOBAL__sub_I_TOUCH_LC717A00_mode+0x1dc>)
  1034a4:	492d      	ldr	r1, [pc, #180]	; (10355c <_GLOBAL__sub_I_TOUCH_LC717A00_mode+0x22c>)
  1034a6:	4833      	ldr	r0, [pc, #204]	; (103574 <_GLOBAL__sub_I_TOUCH_LC717A00_mode+0x244>)
  1034a8:	f005 ff89 	bl	1093be <__aeabi_atexit>
  1034ac:	4832      	ldr	r0, [pc, #200]	; (103578 <_GLOBAL__sub_I_TOUCH_LC717A00_mode+0x248>)
  1034ae:	f7ff f9d3 	bl	102858 <mbed::Ticker::Ticker()>
  1034b2:	4a16      	ldr	r2, [pc, #88]	; (10350c <_GLOBAL__sub_I_TOUCH_LC717A00_mode+0x1dc>)
  1034b4:	4929      	ldr	r1, [pc, #164]	; (10355c <_GLOBAL__sub_I_TOUCH_LC717A00_mode+0x22c>)
  1034b6:	4830      	ldr	r0, [pc, #192]	; (103578 <_GLOBAL__sub_I_TOUCH_LC717A00_mode+0x248>)
  1034b8:	f005 ff81 	bl	1093be <__aeabi_atexit>
  1034bc:	482f      	ldr	r0, [pc, #188]	; (10357c <_GLOBAL__sub_I_TOUCH_LC717A00_mode+0x24c>)
  1034be:	f7ff f9cb 	bl	102858 <mbed::Ticker::Ticker()>
  1034c2:	4a12      	ldr	r2, [pc, #72]	; (10350c <_GLOBAL__sub_I_TOUCH_LC717A00_mode+0x1dc>)
  1034c4:	4925      	ldr	r1, [pc, #148]	; (10355c <_GLOBAL__sub_I_TOUCH_LC717A00_mode+0x22c>)
  1034c6:	482d      	ldr	r0, [pc, #180]	; (10357c <_GLOBAL__sub_I_TOUCH_LC717A00_mode+0x24c>)
  1034c8:	f005 ff79 	bl	1093be <__aeabi_atexit>
  1034cc:	482c      	ldr	r0, [pc, #176]	; (103580 <_GLOBAL__sub_I_TOUCH_LC717A00_mode+0x250>)
  1034ce:	f7ff f9c3 	bl	102858 <mbed::Ticker::Ticker()>
  1034d2:	4a0e      	ldr	r2, [pc, #56]	; (10350c <_GLOBAL__sub_I_TOUCH_LC717A00_mode+0x1dc>)
  1034d4:	4921      	ldr	r1, [pc, #132]	; (10355c <_GLOBAL__sub_I_TOUCH_LC717A00_mode+0x22c>)
  1034d6:	482a      	ldr	r0, [pc, #168]	; (103580 <_GLOBAL__sub_I_TOUCH_LC717A00_mode+0x250>)
  1034d8:	f005 ff71 	bl	1093be <__aeabi_atexit>
  1034dc:	4829      	ldr	r0, [pc, #164]	; (103584 <_GLOBAL__sub_I_TOUCH_LC717A00_mode+0x254>)
  1034de:	f7ff f9bb 	bl	102858 <mbed::Ticker::Ticker()>
  1034e2:	4a0a      	ldr	r2, [pc, #40]	; (10350c <_GLOBAL__sub_I_TOUCH_LC717A00_mode+0x1dc>)
  1034e4:	491d      	ldr	r1, [pc, #116]	; (10355c <_GLOBAL__sub_I_TOUCH_LC717A00_mode+0x22c>)
  1034e6:	4827      	ldr	r0, [pc, #156]	; (103584 <_GLOBAL__sub_I_TOUCH_LC717A00_mode+0x254>)
  1034e8:	f005 ff69 	bl	1093be <__aeabi_atexit>
  1034ec:	4826      	ldr	r0, [pc, #152]	; (103588 <_GLOBAL__sub_I_TOUCH_LC717A00_mode+0x258>)
  1034ee:	f001 fcc1 	bl	104e74 <RSL10_BLE::RSL10_BLE()>
  1034f2:	4a06      	ldr	r2, [pc, #24]	; (10350c <_GLOBAL__sub_I_TOUCH_LC717A00_mode+0x1dc>)
  1034f4:	4925      	ldr	r1, [pc, #148]	; (10358c <_GLOBAL__sub_I_TOUCH_LC717A00_mode+0x25c>)
  1034f6:	4824      	ldr	r0, [pc, #144]	; (103588 <_GLOBAL__sub_I_TOUCH_LC717A00_mode+0x258>)
  1034f8:	b002      	add	sp, #8
  1034fa:	e8bd 4070 	ldmia.w	sp!, {r4, r5, r6, lr}
  1034fe:	f005 bf5e 	b.w	1093be <__aeabi_atexit>
  103502:	bf00      	nop
  103504:	00111a2d 	.word	0x00111a2d
  103508:	3fff6914 	.word	0x3fff6914
  10350c:	3fff40a0 	.word	0x3fff40a0
  103510:	00109aaf 	.word	0x00109aaf
  103514:	3fff75b8 	.word	0x3fff75b8
  103518:	0010257d 	.word	0x0010257d
  10351c:	3fff6a08 	.word	0x3fff6a08
  103520:	3fff6f5c 	.word	0x3fff6f5c
  103524:	3fff6ff4 	.word	0x3fff6ff4
  103528:	3fff6ebc 	.word	0x3fff6ebc
  10352c:	3fff7058 	.word	0x3fff7058
  103530:	001097ff 	.word	0x001097ff
  103534:	00102165 	.word	0x00102165
  103538:	3fff7088 	.word	0x3fff7088
  10353c:	00103591 	.word	0x00103591
  103540:	3fff6a3c 	.word	0x3fff6a3c
  103544:	00103bd9 	.word	0x00103bd9
  103548:	3fff6b0c 	.word	0x3fff6b0c
  10354c:	0010888d 	.word	0x0010888d
  103550:	3fff6ea8 	.word	0x3fff6ea8
  103554:	00102137 	.word	0x00102137
  103558:	3fff7730 	.word	0x3fff7730
  10355c:	00102175 	.word	0x00102175
  103560:	3fff6e4c 	.word	0x3fff6e4c
  103564:	3fff6e68 	.word	0x3fff6e68
  103568:	3fff6a30 	.word	0x3fff6a30
  10356c:	3fff7010 	.word	0x3fff7010
  103570:	3fff7020 	.word	0x3fff7020
  103574:	3fff69d0 	.word	0x3fff69d0
  103578:	3fff6f78 	.word	0x3fff6f78
  10357c:	3fff6fb0 	.word	0x3fff6fb0
  103580:	3fff6998 	.word	0x3fff6998
  103584:	3fff7770 	.word	0x3fff7770
  103588:	3fff6dc0 	.word	0x3fff6dc0
  10358c:	001027d9 	.word	0x001027d9

00103590 <GPS::~GPS()>:
  103590:	4770      	bx	lr
	...

00103594 <__tcf_0>:
  103594:	b538      	push	{r3, r4, r5, lr}
  103596:	4d06      	ldr	r5, [pc, #24]	; (1035b0 <__tcf_0+0x1c>)
  103598:	2400      	movs	r4, #0
  10359a:	f504 70b4 	add.w	r0, r4, #360	; 0x168
  10359e:	4428      	add	r0, r5
  1035a0:	3c18      	subs	r4, #24
  1035a2:	f006 f9e3 	bl	10996c <std::__cxx11::basic_string<char, std::char_traits<char>, std::allocator<char> >::_M_dispose()>
  1035a6:	f514 7fc0 	cmn.w	r4, #384	; 0x180
  1035aa:	d1f6      	bne.n	10359a <__tcf_0+0x6>
  1035ac:	bd38      	pop	{r3, r4, r5, pc}
  1035ae:	bf00      	nop
  1035b0:	3fff7844 	.word	0x3fff7844

001035b4 <GPS::~GPS()>:
  1035b4:	b510      	push	{r4, lr}
  1035b6:	4604      	mov	r4, r0
  1035b8:	f005 ff36 	bl	109428 <operator delete(void*)>
  1035bc:	4620      	mov	r0, r4
  1035be:	bd10      	pop	{r4, pc}

001035c0 <std::__cxx11::basic_string<char, std::char_traits<char>, std::allocator<char> >::basic_string(char const*, std::allocator<char> const&) [clone .isra.17] [clone .constprop.19]>:
  1035c0:	b510      	push	{r4, lr}
  1035c2:	4604      	mov	r4, r0
  1035c4:	4a05      	ldr	r2, [pc, #20]	; (1035dc <std::__cxx11::basic_string<char, std::char_traits<char>, std::allocator<char> >::basic_string(char const*, std::allocator<char> const&) [clone .isra.17] [clone .constprop.19]+0x1c>)
  1035c6:	3008      	adds	r0, #8
  1035c8:	6020      	str	r0, [r4, #0]
  1035ca:	4611      	mov	r1, r2
  1035cc:	f006 fa16 	bl	1099fc <std::__cxx11::basic_string<char, std::char_traits<char>, std::allocator<char> >::_S_copy_chars(char*, char const*, char const*)>
  1035d0:	6822      	ldr	r2, [r4, #0]
  1035d2:	2300      	movs	r3, #0
  1035d4:	6063      	str	r3, [r4, #4]
  1035d6:	7013      	strb	r3, [r2, #0]
  1035d8:	4620      	mov	r0, r4
  1035da:	bd10      	pop	{r4, pc}
  1035dc:	00111a2d 	.word	0x00111a2d

001035e0 <GPS::activate()>:
  1035e0:	b538      	push	{r3, r4, r5, lr}
  1035e2:	7903      	ldrb	r3, [r0, #4]
  1035e4:	4605      	mov	r5, r0
  1035e6:	bb13      	cbnz	r3, 10362e <GPS::activate()+0x4e>
  1035e8:	2466      	movs	r4, #102	; 0x66
  1035ea:	f001 f819 	bl	104620 <uart_IsReadable()>
  1035ee:	b128      	cbz	r0, 1035fc <GPS::activate()+0x1c>
  1035f0:	3c01      	subs	r4, #1
  1035f2:	d003      	beq.n	1035fc <GPS::activate()+0x1c>
  1035f4:	200a      	movs	r0, #10
  1035f6:	f005 ffd1 	bl	10959c <wait_us>
  1035fa:	e7f6      	b.n	1035ea <GPS::activate()+0xa>
  1035fc:	f001 ff08 	bl	105410 <core_util_critical_section_enter>
  103600:	2101      	movs	r1, #1
  103602:	480b      	ldr	r0, [pc, #44]	; (103630 <GPS::activate()+0x50>)
  103604:	f003 fea4 	bl	107350 <gpio_dir>
  103608:	f001 ff2e 	bl	105468 <core_util_critical_section_exit>
  10360c:	f001 ff00 	bl	105410 <core_util_critical_section_enter>
  103610:	2100      	movs	r1, #0
  103612:	4807      	ldr	r0, [pc, #28]	; (103630 <GPS::activate()+0x50>)
  103614:	f003 fe98 	bl	107348 <gpio_mode>
  103618:	f001 ff26 	bl	105468 <core_util_critical_section_exit>
  10361c:	2100      	movs	r1, #0
  10361e:	4804      	ldr	r0, [pc, #16]	; (103630 <GPS::activate()+0x50>)
  103620:	f003 fea8 	bl	107374 <gpio_write>
  103624:	2064      	movs	r0, #100	; 0x64
  103626:	f005 ffdd 	bl	1095e4 <wait_ms>
  10362a:	2301      	movs	r3, #1
  10362c:	712b      	strb	r3, [r5, #4]
  10362e:	bd38      	pop	{r3, r4, r5, pc}
  103630:	3fff7a54 	.word	0x3fff7a54

00103634 <GPS::deactivate()>:
  103634:	b538      	push	{r3, r4, r5, lr}
  103636:	4605      	mov	r5, r0
  103638:	4c0b      	ldr	r4, [pc, #44]	; (103668 <GPS::deactivate()+0x34>)
  10363a:	f001 fee9 	bl	105410 <core_util_critical_section_enter>
  10363e:	2101      	movs	r1, #1
  103640:	4620      	mov	r0, r4
  103642:	f003 fe85 	bl	107350 <gpio_dir>
  103646:	f001 ff0f 	bl	105468 <core_util_critical_section_exit>
  10364a:	f001 fee1 	bl	105410 <core_util_critical_section_enter>
  10364e:	2102      	movs	r1, #2
  103650:	4620      	mov	r0, r4
  103652:	f003 fe79 	bl	107348 <gpio_mode>
  103656:	f001 ff07 	bl	105468 <core_util_critical_section_exit>
  10365a:	2101      	movs	r1, #1
  10365c:	4620      	mov	r0, r4
  10365e:	f003 fe89 	bl	107374 <gpio_write>
  103662:	2300      	movs	r3, #0
  103664:	712b      	strb	r3, [r5, #4]
  103666:	bd38      	pop	{r3, r4, r5, pc}
  103668:	3fff7a54 	.word	0x3fff7a54

0010366c <GPS::send(char*)>:
  10366c:	b538      	push	{r3, r4, r5, lr}
  10366e:	460c      	mov	r4, r1
  103670:	1d45      	adds	r5, r0, #5
  103672:	4629      	mov	r1, r5
  103674:	4620      	mov	r0, r4
  103676:	f009 ff26 	bl	10d4c6 <strcmp>
  10367a:	b140      	cbz	r0, 10368e <GPS::send(char*)+0x22>
  10367c:	4621      	mov	r1, r4
  10367e:	4628      	mov	r0, r5
  103680:	f009 ff2b 	bl	10d4da <strcpy>
  103684:	4620      	mov	r0, r4
  103686:	e8bd 4038 	ldmia.w	sp!, {r3, r4, r5, lr}
  10368a:	f000 bfbd 	b.w	104608 <Send_UART(char*)>
  10368e:	bd38      	pop	{r3, r4, r5, pc}

00103690 <GPS::only_read()>:
  103690:	b510      	push	{r4, lr}
  103692:	4604      	mov	r4, r0
  103694:	7923      	ldrb	r3, [r4, #4]
  103696:	b13b      	cbz	r3, 1036a8 <GPS::only_read()+0x18>
  103698:	f001 f800 	bl	10469c <Read_UART()>
  10369c:	f104 0069 	add.w	r0, r4, #105	; 0x69
  1036a0:	e8bd 4010 	ldmia.w	sp!, {r4, lr}
  1036a4:	f000 bfe2 	b.w	10466c <Take_dataUART(char*)>
  1036a8:	4620      	mov	r0, r4
  1036aa:	f7ff ff99 	bl	1035e0 <GPS::activate()>
  1036ae:	e7f1      	b.n	103694 <GPS::only_read()+0x4>

001036b0 <GPS::waitTo_read()>:
  1036b0:	7903      	ldrb	r3, [r0, #4]
  1036b2:	b510      	push	{r4, lr}
  1036b4:	4604      	mov	r4, r0
  1036b6:	b13b      	cbz	r3, 1036c8 <GPS::waitTo_read()+0x18>
  1036b8:	f000 ff90 	bl	1045dc <Read_UART_scanf()>
  1036bc:	f104 0069 	add.w	r0, r4, #105	; 0x69
  1036c0:	e8bd 4010 	ldmia.w	sp!, {r4, lr}
  1036c4:	f000 bfd2 	b.w	10466c <Take_dataUART(char*)>
  1036c8:	f7ff ff8a 	bl	1035e0 <GPS::activate()>
  1036cc:	4620      	mov	r0, r4
  1036ce:	e8bd 4010 	ldmia.w	sp!, {r4, lr}
  1036d2:	f7ff bfdd 	b.w	103690 <GPS::only_read()>
	...

001036d8 <GPS::ShowDecodedData(int, int)>:
  1036d8:	b5f0      	push	{r4, r5, r6, r7, lr}
  1036da:	460f      	mov	r7, r1
  1036dc:	2451      	movs	r4, #81	; 0x51
  1036de:	4354      	muls	r4, r2
  1036e0:	1906      	adds	r6, r0, r4
  1036e2:	b09b      	sub	sp, #108	; 0x6c
  1036e4:	1902      	adds	r2, r0, r4
  1036e6:	f206 2621 	addw	r6, r6, #545	; 0x221
  1036ea:	4605      	mov	r5, r0
  1036ec:	4633      	mov	r3, r6
  1036ee:	f202 2235 	addw	r2, r2, #565	; 0x235
  1036f2:	491f      	ldr	r1, [pc, #124]	; (103770 <GPS::ShowDecodedData(int, int)+0x98>)
  1036f4:	a80d      	add	r0, sp, #52	; 0x34
  1036f6:	f009 fe53 	bl	10d3a0 <siprintf>
  1036fa:	2f01      	cmp	r7, #1
  1036fc:	d109      	bne.n	103712 <GPS::ShowDecodedData(int, int)+0x3a>
  1036fe:	481d      	ldr	r0, [pc, #116]	; (103774 <GPS::ShowDecodedData(int, int)+0x9c>)
  103700:	f001 fab8 	bl	104c74 <NHD_C0216CZ::clearDisplay()>
  103704:	463b      	mov	r3, r7
  103706:	463a      	mov	r2, r7
  103708:	a90d      	add	r1, sp, #52	; 0x34
  10370a:	481a      	ldr	r0, [pc, #104]	; (103774 <GPS::ShowDecodedData(int, int)+0x9c>)
  10370c:	f001 fb7e 	bl	104e0c <NHD_C0216CZ::displayStringToPos(char const*, int, int)>
  103710:	e026      	b.n	103760 <GPS::ShowDecodedData(int, int)+0x88>
  103712:	2f02      	cmp	r7, #2
  103714:	d10d      	bne.n	103732 <GPS::ShowDecodedData(int, int)+0x5a>
  103716:	192a      	adds	r2, r5, r4
  103718:	4633      	mov	r3, r6
  10371a:	f202 12f9 	addw	r2, r2, #505	; 0x1f9
  10371e:	4916      	ldr	r1, [pc, #88]	; (103778 <GPS::ShowDecodedData(int, int)+0xa0>)
  103720:	4668      	mov	r0, sp
  103722:	f009 fe3d 	bl	10d3a0 <siprintf>
  103726:	4669      	mov	r1, sp
  103728:	f205 1031 	addw	r0, r5, #305	; 0x131
  10372c:	f009 fed5 	bl	10d4da <strcpy>
  103730:	e016      	b.n	103760 <GPS::ShowDecodedData(int, int)+0x88>
  103732:	2f15      	cmp	r7, #21
  103734:	d114      	bne.n	103760 <GPS::ShowDecodedData(int, int)+0x88>
  103736:	1929      	adds	r1, r5, r4
  103738:	f201 11f9 	addw	r1, r1, #505	; 0x1f9
  10373c:	4668      	mov	r0, sp
  10373e:	f009 fecc 	bl	10d4da <strcpy>
  103742:	4669      	mov	r1, sp
  103744:	f205 106d 	addw	r0, r5, #365	; 0x16d
  103748:	f009 fec7 	bl	10d4da <strcpy>
  10374c:	4631      	mov	r1, r6
  10374e:	4668      	mov	r0, sp
  103750:	f009 fec3 	bl	10d4da <strcpy>
  103754:	4669      	mov	r1, sp
  103756:	f205 104f 	addw	r0, r5, #335	; 0x14f
  10375a:	f009 febe 	bl	10d4da <strcpy>
  10375e:	e005      	b.n	10376c <GPS::ShowDecodedData(int, int)+0x94>
  103760:	4668      	mov	r0, sp
  103762:	f000 ff51 	bl	104608 <Send_UART(char*)>
  103766:	a80d      	add	r0, sp, #52	; 0x34
  103768:	f000 ff4e 	bl	104608 <Send_UART(char*)>
  10376c:	b01b      	add	sp, #108	; 0x6c
  10376e:	bdf0      	pop	{r4, r5, r6, r7, pc}
  103770:	00110c84 	.word	0x00110c84
  103774:	3fff77a8 	.word	0x3fff77a8
  103778:	00110b3e 	.word	0x00110b3e

0010377c <GPS::control(int, bool)>:
  10377c:	2902      	cmp	r1, #2
  10377e:	b508      	push	{r3, lr}
  103780:	d108      	bne.n	103794 <GPS::control(int, bool)+0x18>
  103782:	b11a      	cbz	r2, 10378c <GPS::control(int, bool)+0x10>
  103784:	4b0f      	ldr	r3, [pc, #60]	; (1037c4 <GPS::control(int, bool)+0x48>)
  103786:	4810      	ldr	r0, [pc, #64]	; (1037c8 <GPS::control(int, bool)+0x4c>)
  103788:	6819      	ldr	r1, [r3, #0]
  10378a:	e013      	b.n	1037b4 <GPS::control(int, bool)+0x38>
  10378c:	f44f 618b 	mov.w	r1, #1112	; 0x458
  103790:	480e      	ldr	r0, [pc, #56]	; (1037cc <GPS::control(int, bool)+0x50>)
  103792:	e00f      	b.n	1037b4 <GPS::control(int, bool)+0x38>
  103794:	2901      	cmp	r1, #1
  103796:	d103      	bne.n	1037a0 <GPS::control(int, bool)+0x24>
  103798:	4b0d      	ldr	r3, [pc, #52]	; (1037d0 <GPS::control(int, bool)+0x54>)
  10379a:	480e      	ldr	r0, [pc, #56]	; (1037d4 <GPS::control(int, bool)+0x58>)
  10379c:	6819      	ldr	r1, [r3, #0]
  10379e:	e009      	b.n	1037b4 <GPS::control(int, bool)+0x38>
  1037a0:	2963      	cmp	r1, #99	; 0x63
  1037a2:	d10e      	bne.n	1037c2 <GPS::control(int, bool)+0x46>
  1037a4:	b11a      	cbz	r2, 1037ae <GPS::control(int, bool)+0x32>
  1037a6:	4b0c      	ldr	r3, [pc, #48]	; (1037d8 <GPS::control(int, bool)+0x5c>)
  1037a8:	480c      	ldr	r0, [pc, #48]	; (1037dc <GPS::control(int, bool)+0x60>)
  1037aa:	6819      	ldr	r1, [r3, #0]
  1037ac:	e002      	b.n	1037b4 <GPS::control(int, bool)+0x38>
  1037ae:	4b0c      	ldr	r3, [pc, #48]	; (1037e0 <GPS::control(int, bool)+0x64>)
  1037b0:	480c      	ldr	r0, [pc, #48]	; (1037e4 <GPS::control(int, bool)+0x68>)
  1037b2:	6819      	ldr	r1, [r3, #0]
  1037b4:	f000 ff3e 	bl	104634 <Send_UART_nonPrintableChar(int*, int)>
  1037b8:	e8bd 4008 	ldmia.w	sp!, {r3, lr}
  1037bc:	20c8      	movs	r0, #200	; 0xc8
  1037be:	f005 bf11 	b.w	1095e4 <wait_ms>
  1037c2:	bd08      	pop	{r3, pc}
  1037c4:	3fff40ac 	.word	0x3fff40ac
  1037c8:	3fff526c 	.word	0x3fff526c
  1037cc:	3fff40b0 	.word	0x3fff40b0
  1037d0:	3fff5264 	.word	0x3fff5264
  1037d4:	3fff5238 	.word	0x3fff5238
  1037d8:	3fff5298 	.word	0x3fff5298
  1037dc:	3fff40dc 	.word	0x3fff40dc
  1037e0:	3fff5268 	.word	0x3fff5268
  1037e4:	3fff529c 	.word	0x3fff529c

001037e8 <GPS::SavePosition()>:
  1037e8:	e92d 41f0 	stmdb	sp!, {r4, r5, r6, r7, r8, lr}
  1037ec:	f100 0569 	add.w	r5, r0, #105	; 0x69
  1037f0:	f500 76ca 	add.w	r6, r0, #404	; 0x194
  1037f4:	b0a4      	sub	sp, #144	; 0x90
  1037f6:	4604      	mov	r4, r0
  1037f8:	4629      	mov	r1, r5
  1037fa:	4630      	mov	r0, r6
  1037fc:	f009 fe63 	bl	10d4c6 <strcmp>
  103800:	2800      	cmp	r0, #0
  103802:	f000 80dd 	beq.w	1039c0 <GPS::SavePosition()+0x1d8>
  103806:	4629      	mov	r1, r5
  103808:	4630      	mov	r0, r6
  10380a:	f009 fe66 	bl	10d4da <strcpy>
  10380e:	f894 3069 	ldrb.w	r3, [r4, #105]	; 0x69
  103812:	2b24      	cmp	r3, #36	; 0x24
  103814:	f040 80d4 	bne.w	1039c0 <GPS::SavePosition()+0x1d8>
  103818:	230a      	movs	r3, #10
  10381a:	4629      	mov	r1, r5
  10381c:	f8c4 3190 	str.w	r3, [r4, #400]	; 0x190
  103820:	a80b      	add	r0, sp, #44	; 0x2c
  103822:	f009 fe5a 	bl	10d4da <strcpy>
  103826:	4968      	ldr	r1, [pc, #416]	; (1039c8 <GPS::SavePosition()+0x1e0>)
  103828:	a80b      	add	r0, sp, #44	; 0x2c
  10382a:	f00a fcb1 	bl	10e190 <strtok>
  10382e:	2200      	movs	r2, #0
  103830:	4611      	mov	r1, r2
  103832:	4606      	mov	r6, r0
  103834:	f204 5573 	addw	r5, r4, #1395	; 0x573
  103838:	2051      	movs	r0, #81	; 0x51
  10383a:	f8d4 318c 	ldr.w	r3, [r4, #396]	; 0x18c
  10383e:	fb00 4e03 	mla	lr, r0, r3, r4
  103842:	2b0a      	cmp	r3, #10
  103844:	d800      	bhi.n	103848 <GPS::SavePosition()+0x60>
  103846:	b10a      	cbz	r2, 10384c <GPS::SavePosition()+0x64>
  103848:	2500      	movs	r5, #0
  10384a:	e035      	b.n	1038b8 <GPS::SavePosition()+0xd0>
  10384c:	f89e 71f8 	ldrb.w	r7, [lr, #504]	; 0x1f8
  103850:	b90f      	cbnz	r7, 103856 <GPS::SavePosition()+0x6e>
  103852:	2201      	movs	r2, #1
  103854:	e7f5      	b.n	103842 <GPS::SavePosition()+0x5a>
  103856:	2b0a      	cmp	r3, #10
  103858:	d10d      	bne.n	103876 <GPS::SavePosition()+0x8e>
  10385a:	f8c4 218c 	str.w	r2, [r4, #396]	; 0x18c
  10385e:	f504 73fc 	add.w	r3, r4, #504	; 0x1f8
  103862:	3351      	adds	r3, #81	; 0x51
  103864:	42ab      	cmp	r3, r5
  103866:	d101      	bne.n	10386c <GPS::SavePosition()+0x84>
  103868:	2201      	movs	r2, #1
  10386a:	e7e6      	b.n	10383a <GPS::SavePosition()+0x52>
  10386c:	f803 1c51 	strb.w	r1, [r3, #-81]
  103870:	f8c4 118c 	str.w	r1, [r4, #396]	; 0x18c
  103874:	e7f5      	b.n	103862 <GPS::SavePosition()+0x7a>
  103876:	3301      	adds	r3, #1
  103878:	f8c4 318c 	str.w	r3, [r4, #396]	; 0x18c
  10387c:	e7dd      	b.n	10383a <GPS::SavePosition()+0x52>
  10387e:	4631      	mov	r1, r6
  103880:	4668      	mov	r0, sp
  103882:	f009 fe2a 	bl	10d4da <strcpy>
  103886:	4950      	ldr	r1, [pc, #320]	; (1039c8 <GPS::SavePosition()+0x1e0>)
  103888:	2000      	movs	r0, #0
  10388a:	f00a fc81 	bl	10e190 <strtok>
  10388e:	3501      	adds	r5, #1
  103890:	b2ad      	uxth	r5, r5
  103892:	b22f      	sxth	r7, r5
  103894:	2f02      	cmp	r7, #2
  103896:	4606      	mov	r6, r0
  103898:	d011      	beq.n	1038be <GPS::SavePosition()+0xd6>
  10389a:	2f03      	cmp	r7, #3
  10389c:	d13e      	bne.n	10391c <GPS::SavePosition()+0x134>
  10389e:	f8d4 318c 	ldr.w	r3, [r4, #396]	; 0x18c
  1038a2:	2051      	movs	r0, #81	; 0x51
  1038a4:	fb00 4003 	mla	r0, r0, r3, r4
  1038a8:	4669      	mov	r1, sp
  1038aa:	f200 200d 	addw	r0, r0, #525	; 0x20d
  1038ae:	f009 fe14 	bl	10d4da <strcpy>
  1038b2:	200a      	movs	r0, #10
  1038b4:	f005 fe72 	bl	10959c <wait_us>
  1038b8:	2e00      	cmp	r6, #0
  1038ba:	d1e0      	bne.n	10387e <GPS::SavePosition()+0x96>
  1038bc:	e080      	b.n	1039c0 <GPS::SavePosition()+0x1d8>
  1038be:	ab07      	add	r3, sp, #28
  1038c0:	f04f 0800 	mov.w	r8, #0
  1038c4:	4669      	mov	r1, sp
  1038c6:	a805      	add	r0, sp, #20
  1038c8:	9305      	str	r3, [sp, #20]
  1038ca:	f8cd 8018 	str.w	r8, [sp, #24]
  1038ce:	f88d 801c 	strb.w	r8, [sp, #28]
  1038d2:	f006 f986 	bl	109be2 <std::__cxx11::basic_string<char, std::char_traits<char>, std::allocator<char> >::operator=(char const*)>
  1038d6:	4a3d      	ldr	r2, [pc, #244]	; (1039cc <GPS::SavePosition()+0x1e4>)
  1038d8:	4639      	mov	r1, r7
  1038da:	a805      	add	r0, sp, #20
  1038dc:	f006 f99e 	bl	109c1c <std::__cxx11::basic_string<char, std::char_traits<char>, std::allocator<char> >::insert(unsigned int, char const*)>
  1038e0:	9905      	ldr	r1, [sp, #20]
  1038e2:	a805      	add	r0, sp, #20
  1038e4:	3105      	adds	r1, #5
  1038e6:	f006 f8e8 	bl	109aba <std::__cxx11::basic_string<char, std::char_traits<char>, std::allocator<char> >::erase(__gnu_cxx::__normal_iterator<char const*, std::__cxx11::basic_string<char, std::char_traits<char>, std::allocator<char> > >)>
  1038ea:	9905      	ldr	r1, [sp, #20]
  1038ec:	a805      	add	r0, sp, #20
  1038ee:	310a      	adds	r1, #10
  1038f0:	f006 f8e3 	bl	109aba <std::__cxx11::basic_string<char, std::char_traits<char>, std::allocator<char> >::erase(__gnu_cxx::__normal_iterator<char const*, std::__cxx11::basic_string<char, std::char_traits<char>, std::allocator<char> > >)>
  1038f4:	9b06      	ldr	r3, [sp, #24]
  1038f6:	f8d4 018c 	ldr.w	r0, [r4, #396]	; 0x18c
  1038fa:	3b09      	subs	r3, #9
  1038fc:	2b01      	cmp	r3, #1
  1038fe:	f04f 0751 	mov.w	r7, #81	; 0x51
  103902:	d84c      	bhi.n	10399e <GPS::SavePosition()+0x1b6>
  103904:	fb07 4000 	mla	r0, r7, r0, r4
  103908:	9905      	ldr	r1, [sp, #20]
  10390a:	f200 10f9 	addw	r0, r0, #505	; 0x1f9
  10390e:	f009 fde4 	bl	10d4da <strcpy>
  103912:	f8d4 018c 	ldr.w	r0, [r4, #396]	; 0x18c
  103916:	fb07 4000 	mla	r0, r7, r0, r4
  10391a:	e048      	b.n	1039ae <GPS::SavePosition()+0x1c6>
  10391c:	2f04      	cmp	r7, #4
  10391e:	d130      	bne.n	103982 <GPS::SavePosition()+0x19a>
  103920:	ab07      	add	r3, sp, #28
  103922:	2700      	movs	r7, #0
  103924:	4669      	mov	r1, sp
  103926:	a805      	add	r0, sp, #20
  103928:	9305      	str	r3, [sp, #20]
  10392a:	9706      	str	r7, [sp, #24]
  10392c:	f88d 701c 	strb.w	r7, [sp, #28]
  103930:	f006 f957 	bl	109be2 <std::__cxx11::basic_string<char, std::char_traits<char>, std::allocator<char> >::operator=(char const*)>
  103934:	9905      	ldr	r1, [sp, #20]
  103936:	a805      	add	r0, sp, #20
  103938:	f006 f8bf 	bl	109aba <std::__cxx11::basic_string<char, std::char_traits<char>, std::allocator<char> >::erase(__gnu_cxx::__normal_iterator<char const*, std::__cxx11::basic_string<char, std::char_traits<char>, std::allocator<char> > >)>
  10393c:	9905      	ldr	r1, [sp, #20]
  10393e:	a805      	add	r0, sp, #20
  103940:	3104      	adds	r1, #4
  103942:	f006 f8ba 	bl	109aba <std::__cxx11::basic_string<char, std::char_traits<char>, std::allocator<char> >::erase(__gnu_cxx::__normal_iterator<char const*, std::__cxx11::basic_string<char, std::char_traits<char>, std::allocator<char> > >)>
  103946:	4a21      	ldr	r2, [pc, #132]	; (1039cc <GPS::SavePosition()+0x1e4>)
  103948:	2102      	movs	r1, #2
  10394a:	a805      	add	r0, sp, #20
  10394c:	f006 f966 	bl	109c1c <std::__cxx11::basic_string<char, std::char_traits<char>, std::allocator<char> >::insert(unsigned int, char const*)>
  103950:	9905      	ldr	r1, [sp, #20]
  103952:	a805      	add	r0, sp, #20
  103954:	310a      	adds	r1, #10
  103956:	f006 f8b0 	bl	109aba <std::__cxx11::basic_string<char, std::char_traits<char>, std::allocator<char> >::erase(__gnu_cxx::__normal_iterator<char const*, std::__cxx11::basic_string<char, std::char_traits<char>, std::allocator<char> > >)>
  10395a:	9b06      	ldr	r3, [sp, #24]
  10395c:	f8d4 018c 	ldr.w	r0, [r4, #396]	; 0x18c
  103960:	3b09      	subs	r3, #9
  103962:	2b01      	cmp	r3, #1
  103964:	f04f 0851 	mov.w	r8, #81	; 0x51
  103968:	d825      	bhi.n	1039b6 <GPS::SavePosition()+0x1ce>
  10396a:	fb08 4000 	mla	r0, r8, r0, r4
  10396e:	9905      	ldr	r1, [sp, #20]
  103970:	f200 2021 	addw	r0, r0, #545	; 0x221
  103974:	f009 fdb1 	bl	10d4da <strcpy>
  103978:	f8d4 018c 	ldr.w	r0, [r4, #396]	; 0x18c
  10397c:	fb08 4000 	mla	r0, r8, r0, r4
  103980:	e015      	b.n	1039ae <GPS::SavePosition()+0x1c6>
  103982:	2f05      	cmp	r7, #5
  103984:	d195      	bne.n	1038b2 <GPS::SavePosition()+0xca>
  103986:	f8d4 318c 	ldr.w	r3, [r4, #396]	; 0x18c
  10398a:	2051      	movs	r0, #81	; 0x51
  10398c:	fb00 4003 	mla	r0, r0, r3, r4
  103990:	2201      	movs	r2, #1
  103992:	4669      	mov	r1, sp
  103994:	f200 2035 	addw	r0, r0, #565	; 0x235
  103998:	f009 fdc4 	bl	10d524 <strncpy>
  10399c:	e789      	b.n	1038b2 <GPS::SavePosition()+0xca>
  10399e:	fb07 4000 	mla	r0, r7, r0, r4
  1039a2:	f880 81f8 	strb.w	r8, [r0, #504]	; 0x1f8
  1039a6:	a805      	add	r0, sp, #20
  1039a8:	f005 ffe0 	bl	10996c <std::__cxx11::basic_string<char, std::char_traits<char>, std::allocator<char> >::_M_dispose()>
  1039ac:	e781      	b.n	1038b2 <GPS::SavePosition()+0xca>
  1039ae:	2301      	movs	r3, #1
  1039b0:	f880 31f8 	strb.w	r3, [r0, #504]	; 0x1f8
  1039b4:	e7f7      	b.n	1039a6 <GPS::SavePosition()+0x1be>
  1039b6:	fb08 4000 	mla	r0, r8, r0, r4
  1039ba:	f880 71f8 	strb.w	r7, [r0, #504]	; 0x1f8
  1039be:	e7f2      	b.n	1039a6 <GPS::SavePosition()+0x1be>
  1039c0:	b024      	add	sp, #144	; 0x90
  1039c2:	e8bd 81f0 	ldmia.w	sp!, {r4, r5, r6, r7, r8, pc}
  1039c6:	bf00      	nop
  1039c8:	00110b44 	.word	0x00110b44
  1039cc:	00110c8b 	.word	0x00110c8b

001039d0 <GPS::GPS()>:
  1039d0:	4a02      	ldr	r2, [pc, #8]	; (1039dc <GPS::GPS()+0xc>)
  1039d2:	6002      	str	r2, [r0, #0]
  1039d4:	2200      	movs	r2, #0
  1039d6:	f8c0 218c 	str.w	r2, [r0, #396]	; 0x18c
  1039da:	4770      	bx	lr
  1039dc:	00110c7c 	.word	0x00110c7c

001039e0 <_GLOBAL__sub_I_TOUCH_LC717A00_mode>:
  1039e0:	b573      	push	{r0, r1, r4, r5, r6, lr}
  1039e2:	4835      	ldr	r0, [pc, #212]	; (103ab8 <_GLOBAL__sub_I_TOUCH_LC717A00_mode+0xd8>)
  1039e4:	f7ff fdec 	bl	1035c0 <std::__cxx11::basic_string<char, std::char_traits<char>, std::allocator<char> >::basic_string(char const*, std::allocator<char> const&) [clone .isra.17] [clone .constprop.19]>
  1039e8:	4a34      	ldr	r2, [pc, #208]	; (103abc <_GLOBAL__sub_I_TOUCH_LC717A00_mode+0xdc>)
  1039ea:	4935      	ldr	r1, [pc, #212]	; (103ac0 <_GLOBAL__sub_I_TOUCH_LC717A00_mode+0xe0>)
  1039ec:	4832      	ldr	r0, [pc, #200]	; (103ab8 <_GLOBAL__sub_I_TOUCH_LC717A00_mode+0xd8>)
  1039ee:	f005 fce6 	bl	1093be <__aeabi_atexit>
  1039f2:	4b34      	ldr	r3, [pc, #208]	; (103ac4 <_GLOBAL__sub_I_TOUCH_LC717A00_mode+0xe4>)
  1039f4:	2200      	movs	r2, #0
  1039f6:	f503 70c0 	add.w	r0, r3, #384	; 0x180
  1039fa:	4619      	mov	r1, r3
  1039fc:	f843 2c04 	str.w	r2, [r3, #-4]
  103a00:	f843 3c08 	str.w	r3, [r3, #-8]
  103a04:	f801 2b18 	strb.w	r2, [r1], #24
  103a08:	6119      	str	r1, [r3, #16]
  103a0a:	615a      	str	r2, [r3, #20]
  103a0c:	761a      	strb	r2, [r3, #24]
  103a0e:	3330      	adds	r3, #48	; 0x30
  103a10:	4283      	cmp	r3, r0
  103a12:	f04f 0400 	mov.w	r4, #0
  103a16:	d1f0      	bne.n	1039fa <_GLOBAL__sub_I_TOUCH_LC717A00_mode+0x1a>
  103a18:	4a28      	ldr	r2, [pc, #160]	; (103abc <_GLOBAL__sub_I_TOUCH_LC717A00_mode+0xdc>)
  103a1a:	492b      	ldr	r1, [pc, #172]	; (103ac8 <_GLOBAL__sub_I_TOUCH_LC717A00_mode+0xe8>)
  103a1c:	4620      	mov	r0, r4
  103a1e:	f005 fcce 	bl	1093be <__aeabi_atexit>
  103a22:	482a      	ldr	r0, [pc, #168]	; (103acc <_GLOBAL__sub_I_TOUCH_LC717A00_mode+0xec>)
  103a24:	f7ff fdcc 	bl	1035c0 <std::__cxx11::basic_string<char, std::char_traits<char>, std::allocator<char> >::basic_string(char const*, std::allocator<char> const&) [clone .isra.17] [clone .constprop.19]>
  103a28:	4a24      	ldr	r2, [pc, #144]	; (103abc <_GLOBAL__sub_I_TOUCH_LC717A00_mode+0xdc>)
  103a2a:	4925      	ldr	r1, [pc, #148]	; (103ac0 <_GLOBAL__sub_I_TOUCH_LC717A00_mode+0xe0>)
  103a2c:	4827      	ldr	r0, [pc, #156]	; (103acc <_GLOBAL__sub_I_TOUCH_LC717A00_mode+0xec>)
  103a2e:	f005 fcc6 	bl	1093be <__aeabi_atexit>
  103a32:	4827      	ldr	r0, [pc, #156]	; (103ad0 <_GLOBAL__sub_I_TOUCH_LC717A00_mode+0xf0>)
  103a34:	f7ff fdc4 	bl	1035c0 <std::__cxx11::basic_string<char, std::char_traits<char>, std::allocator<char> >::basic_string(char const*, std::allocator<char> const&) [clone .isra.17] [clone .constprop.19]>
  103a38:	4a20      	ldr	r2, [pc, #128]	; (103abc <_GLOBAL__sub_I_TOUCH_LC717A00_mode+0xdc>)
  103a3a:	4921      	ldr	r1, [pc, #132]	; (103ac0 <_GLOBAL__sub_I_TOUCH_LC717A00_mode+0xe0>)
  103a3c:	4824      	ldr	r0, [pc, #144]	; (103ad0 <_GLOBAL__sub_I_TOUCH_LC717A00_mode+0xf0>)
  103a3e:	f005 fcbe 	bl	1093be <__aeabi_atexit>
  103a42:	4824      	ldr	r0, [pc, #144]	; (103ad4 <_GLOBAL__sub_I_TOUCH_LC717A00_mode+0xf4>)
  103a44:	f7ff fdbc 	bl	1035c0 <std::__cxx11::basic_string<char, std::char_traits<char>, std::allocator<char> >::basic_string(char const*, std::allocator<char> const&) [clone .isra.17] [clone .constprop.19]>
  103a48:	4a1c      	ldr	r2, [pc, #112]	; (103abc <_GLOBAL__sub_I_TOUCH_LC717A00_mode+0xdc>)
  103a4a:	491d      	ldr	r1, [pc, #116]	; (103ac0 <_GLOBAL__sub_I_TOUCH_LC717A00_mode+0xe0>)
  103a4c:	4821      	ldr	r0, [pc, #132]	; (103ad4 <_GLOBAL__sub_I_TOUCH_LC717A00_mode+0xf4>)
  103a4e:	4d22      	ldr	r5, [pc, #136]	; (103ad8 <_GLOBAL__sub_I_TOUCH_LC717A00_mode+0xf8>)
  103a50:	f005 fcb5 	bl	1093be <__aeabi_atexit>
  103a54:	4821      	ldr	r0, [pc, #132]	; (103adc <_GLOBAL__sub_I_TOUCH_LC717A00_mode+0xfc>)
  103a56:	f005 fec5 	bl	1097e4 <rtos::Mutex::Mutex()>
  103a5a:	f04f 36ff 	mov.w	r6, #4294967295
  103a5e:	4a17      	ldr	r2, [pc, #92]	; (103abc <_GLOBAL__sub_I_TOUCH_LC717A00_mode+0xdc>)
  103a60:	491f      	ldr	r1, [pc, #124]	; (103ae0 <_GLOBAL__sub_I_TOUCH_LC717A00_mode+0x100>)
  103a62:	481e      	ldr	r0, [pc, #120]	; (103adc <_GLOBAL__sub_I_TOUCH_LC717A00_mode+0xfc>)
  103a64:	f005 fcab 	bl	1093be <__aeabi_atexit>
  103a68:	2304      	movs	r3, #4
  103a6a:	2206      	movs	r2, #6
  103a6c:	9600      	str	r6, [sp, #0]
  103a6e:	2105      	movs	r1, #5
  103a70:	4628      	mov	r0, r5
  103a72:	f005 f867 	bl	108b44 <mbed::SPI::SPI(PinName, PinName, PinName, PinName)>
  103a76:	4631      	mov	r1, r6
  103a78:	f105 002c 	add.w	r0, r5, #44	; 0x2c
  103a7c:	62ec      	str	r4, [r5, #44]	; 0x2c
  103a7e:	f885 4030 	strb.w	r4, [r5, #48]	; 0x30
  103a82:	636c      	str	r4, [r5, #52]	; 0x34
  103a84:	f001 fb48 	bl	105118 <gpio_init_out>
  103a88:	2320      	movs	r3, #32
  103a8a:	9600      	str	r6, [sp, #0]
  103a8c:	2202      	movs	r2, #2
  103a8e:	2103      	movs	r1, #3
  103a90:	f105 0040 	add.w	r0, r5, #64	; 0x40
  103a94:	f000 ff84 	bl	1049a0 <PCA9655E::PCA9655E(PinName, PinName, unsigned char, PinName)>
  103a98:	4a08      	ldr	r2, [pc, #32]	; (103abc <_GLOBAL__sub_I_TOUCH_LC717A00_mode+0xdc>)
  103a9a:	4912      	ldr	r1, [pc, #72]	; (103ae4 <_GLOBAL__sub_I_TOUCH_LC717A00_mode+0x104>)
  103a9c:	4628      	mov	r0, r5
  103a9e:	f005 fc8e 	bl	1093be <__aeabi_atexit>
  103aa2:	4811      	ldr	r0, [pc, #68]	; (103ae8 <_GLOBAL__sub_I_TOUCH_LC717A00_mode+0x108>)
  103aa4:	210c      	movs	r1, #12
  103aa6:	6004      	str	r4, [r0, #0]
  103aa8:	7104      	strb	r4, [r0, #4]
  103aaa:	6084      	str	r4, [r0, #8]
  103aac:	b002      	add	sp, #8
  103aae:	e8bd 4070 	ldmia.w	sp!, {r4, r5, r6, lr}
  103ab2:	f001 bb0a 	b.w	1050ca <gpio_init_in>
  103ab6:	bf00      	nop
  103ab8:	3fff79c4 	.word	0x3fff79c4
  103abc:	3fff40a0 	.word	0x3fff40a0
  103ac0:	00109aaf 	.word	0x00109aaf
  103ac4:	3fff784c 	.word	0x3fff784c
  103ac8:	00103595 	.word	0x00103595
  103acc:	3fff79f4 	.word	0x3fff79f4
  103ad0:	3fff79dc 	.word	0x3fff79dc
  103ad4:	3fff7a3c 	.word	0x3fff7a3c
  103ad8:	3fff77a8 	.word	0x3fff77a8
  103adc:	3fff7a0c 	.word	0x3fff7a0c
  103ae0:	001097ff 	.word	0x001097ff
  103ae4:	00102165 	.word	0x00102165
  103ae8:	3fff7a54 	.word	0x3fff7a54

00103aec <__tcf_0>:
  103aec:	b538      	push	{r3, r4, r5, lr}
  103aee:	4d06      	ldr	r5, [pc, #24]	; (103b08 <__tcf_0+0x1c>)
  103af0:	2400      	movs	r4, #0
  103af2:	f504 70b4 	add.w	r0, r4, #360	; 0x168
  103af6:	4428      	add	r0, r5
  103af8:	3c18      	subs	r4, #24
  103afa:	f005 ff37 	bl	10996c <std::__cxx11::basic_string<char, std::char_traits<char>, std::allocator<char> >::_M_dispose()>
  103afe:	f514 7fc0 	cmn.w	r4, #384	; 0x180
  103b02:	d1f6      	bne.n	103af2 <__tcf_0+0x6>
  103b04:	bd38      	pop	{r3, r4, r5, pc}
  103b06:	bf00      	nop
  103b08:	3fff7a60 	.word	0x3fff7a60

00103b0c <std::__cxx11::basic_string<char, std::char_traits<char>, std::allocator<char> >::basic_string(char const*, std::allocator<char> const&) [clone .isra.14] [clone .constprop.16]>:
  103b0c:	b510      	push	{r4, lr}
  103b0e:	4604      	mov	r4, r0
  103b10:	4a05      	ldr	r2, [pc, #20]	; (103b28 <std::__cxx11::basic_string<char, std::char_traits<char>, std::allocator<char> >::basic_string(char const*, std::allocator<char> const&) [clone .isra.14] [clone .constprop.16]+0x1c>)
  103b12:	3008      	adds	r0, #8
  103b14:	6020      	str	r0, [r4, #0]
  103b16:	4611      	mov	r1, r2
  103b18:	f005 ff70 	bl	1099fc <std::__cxx11::basic_string<char, std::char_traits<char>, std::allocator<char> >::_S_copy_chars(char*, char const*, char const*)>
  103b1c:	6822      	ldr	r2, [r4, #0]
  103b1e:	2300      	movs	r3, #0
  103b20:	6063      	str	r3, [r4, #4]
  103b22:	7013      	strb	r3, [r2, #0]
  103b24:	4620      	mov	r0, r4
  103b26:	bd10      	pop	{r4, pc}
  103b28:	00111a2d 	.word	0x00111a2d

00103b2c <_GLOBAL__sub_I_TOUCH_LC717A00_mode>:
  103b2c:	b508      	push	{r3, lr}
  103b2e:	4820      	ldr	r0, [pc, #128]	; (103bb0 <_GLOBAL__sub_I_TOUCH_LC717A00_mode+0x84>)
  103b30:	f7ff ffec 	bl	103b0c <std::__cxx11::basic_string<char, std::char_traits<char>, std::allocator<char> >::basic_string(char const*, std::allocator<char> const&) [clone .isra.14] [clone .constprop.16]>
  103b34:	4a1f      	ldr	r2, [pc, #124]	; (103bb4 <_GLOBAL__sub_I_TOUCH_LC717A00_mode+0x88>)
  103b36:	4920      	ldr	r1, [pc, #128]	; (103bb8 <_GLOBAL__sub_I_TOUCH_LC717A00_mode+0x8c>)
  103b38:	481d      	ldr	r0, [pc, #116]	; (103bb0 <_GLOBAL__sub_I_TOUCH_LC717A00_mode+0x84>)
  103b3a:	f005 fc40 	bl	1093be <__aeabi_atexit>
  103b3e:	4b1f      	ldr	r3, [pc, #124]	; (103bbc <_GLOBAL__sub_I_TOUCH_LC717A00_mode+0x90>)
  103b40:	2200      	movs	r2, #0
  103b42:	f503 70c0 	add.w	r0, r3, #384	; 0x180
  103b46:	4619      	mov	r1, r3
  103b48:	f843 2c04 	str.w	r2, [r3, #-4]
  103b4c:	f843 3c08 	str.w	r3, [r3, #-8]
  103b50:	f801 2b18 	strb.w	r2, [r1], #24
  103b54:	6119      	str	r1, [r3, #16]
  103b56:	615a      	str	r2, [r3, #20]
  103b58:	761a      	strb	r2, [r3, #24]
  103b5a:	3330      	adds	r3, #48	; 0x30
  103b5c:	4283      	cmp	r3, r0
  103b5e:	d1f2      	bne.n	103b46 <_GLOBAL__sub_I_TOUCH_LC717A00_mode+0x1a>
  103b60:	4a14      	ldr	r2, [pc, #80]	; (103bb4 <_GLOBAL__sub_I_TOUCH_LC717A00_mode+0x88>)
  103b62:	4917      	ldr	r1, [pc, #92]	; (103bc0 <_GLOBAL__sub_I_TOUCH_LC717A00_mode+0x94>)
  103b64:	2000      	movs	r0, #0
  103b66:	f005 fc2a 	bl	1093be <__aeabi_atexit>
  103b6a:	4816      	ldr	r0, [pc, #88]	; (103bc4 <_GLOBAL__sub_I_TOUCH_LC717A00_mode+0x98>)
  103b6c:	f7ff ffce 	bl	103b0c <std::__cxx11::basic_string<char, std::char_traits<char>, std::allocator<char> >::basic_string(char const*, std::allocator<char> const&) [clone .isra.14] [clone .constprop.16]>
  103b70:	4a10      	ldr	r2, [pc, #64]	; (103bb4 <_GLOBAL__sub_I_TOUCH_LC717A00_mode+0x88>)
  103b72:	4911      	ldr	r1, [pc, #68]	; (103bb8 <_GLOBAL__sub_I_TOUCH_LC717A00_mode+0x8c>)
  103b74:	4813      	ldr	r0, [pc, #76]	; (103bc4 <_GLOBAL__sub_I_TOUCH_LC717A00_mode+0x98>)
  103b76:	f005 fc22 	bl	1093be <__aeabi_atexit>
  103b7a:	4813      	ldr	r0, [pc, #76]	; (103bc8 <_GLOBAL__sub_I_TOUCH_LC717A00_mode+0x9c>)
  103b7c:	f7ff ffc6 	bl	103b0c <std::__cxx11::basic_string<char, std::char_traits<char>, std::allocator<char> >::basic_string(char const*, std::allocator<char> const&) [clone .isra.14] [clone .constprop.16]>
  103b80:	4a0c      	ldr	r2, [pc, #48]	; (103bb4 <_GLOBAL__sub_I_TOUCH_LC717A00_mode+0x88>)
  103b82:	490d      	ldr	r1, [pc, #52]	; (103bb8 <_GLOBAL__sub_I_TOUCH_LC717A00_mode+0x8c>)
  103b84:	4810      	ldr	r0, [pc, #64]	; (103bc8 <_GLOBAL__sub_I_TOUCH_LC717A00_mode+0x9c>)
  103b86:	f005 fc1a 	bl	1093be <__aeabi_atexit>
  103b8a:	4810      	ldr	r0, [pc, #64]	; (103bcc <_GLOBAL__sub_I_TOUCH_LC717A00_mode+0xa0>)
  103b8c:	f7ff ffbe 	bl	103b0c <std::__cxx11::basic_string<char, std::char_traits<char>, std::allocator<char> >::basic_string(char const*, std::allocator<char> const&) [clone .isra.14] [clone .constprop.16]>
  103b90:	4a08      	ldr	r2, [pc, #32]	; (103bb4 <_GLOBAL__sub_I_TOUCH_LC717A00_mode+0x88>)
  103b92:	4909      	ldr	r1, [pc, #36]	; (103bb8 <_GLOBAL__sub_I_TOUCH_LC717A00_mode+0x8c>)
  103b94:	480d      	ldr	r0, [pc, #52]	; (103bcc <_GLOBAL__sub_I_TOUCH_LC717A00_mode+0xa0>)
  103b96:	f005 fc12 	bl	1093be <__aeabi_atexit>
  103b9a:	480d      	ldr	r0, [pc, #52]	; (103bd0 <_GLOBAL__sub_I_TOUCH_LC717A00_mode+0xa4>)
  103b9c:	f005 fe22 	bl	1097e4 <rtos::Mutex::Mutex()>
  103ba0:	e8bd 4008 	ldmia.w	sp!, {r3, lr}
  103ba4:	4a03      	ldr	r2, [pc, #12]	; (103bb4 <_GLOBAL__sub_I_TOUCH_LC717A00_mode+0x88>)
  103ba6:	490b      	ldr	r1, [pc, #44]	; (103bd4 <_GLOBAL__sub_I_TOUCH_LC717A00_mode+0xa8>)
  103ba8:	4809      	ldr	r0, [pc, #36]	; (103bd0 <_GLOBAL__sub_I_TOUCH_LC717A00_mode+0xa4>)
  103baa:	f005 bc08 	b.w	1093be <__aeabi_atexit>
  103bae:	bf00      	nop
  103bb0:	3fff7be0 	.word	0x3fff7be0
  103bb4:	3fff40a0 	.word	0x3fff40a0
  103bb8:	00109aaf 	.word	0x00109aaf
  103bbc:	3fff7a68 	.word	0x3fff7a68
  103bc0:	00103aed 	.word	0x00103aed
  103bc4:	3fff7c10 	.word	0x3fff7c10
  103bc8:	3fff7bf8 	.word	0x3fff7bf8
  103bcc:	3fff7c58 	.word	0x3fff7c58
  103bd0:	3fff7c28 	.word	0x3fff7c28
  103bd4:	001097ff 	.word	0x001097ff

00103bd8 <GSM::~GSM()>:
  103bd8:	4770      	bx	lr
	...

00103bdc <__tcf_0>:
  103bdc:	b538      	push	{r3, r4, r5, lr}
  103bde:	4d06      	ldr	r5, [pc, #24]	; (103bf8 <__tcf_0+0x1c>)
  103be0:	2400      	movs	r4, #0
  103be2:	f504 70b4 	add.w	r0, r4, #360	; 0x168
  103be6:	4428      	add	r0, r5
  103be8:	3c18      	subs	r4, #24
  103bea:	f005 febf 	bl	10996c <std::__cxx11::basic_string<char, std::char_traits<char>, std::allocator<char> >::_M_dispose()>
  103bee:	f514 7fc0 	cmn.w	r4, #384	; 0x180
  103bf2:	d1f6      	bne.n	103be2 <__tcf_0+0x6>
  103bf4:	bd38      	pop	{r3, r4, r5, pc}
  103bf6:	bf00      	nop
  103bf8:	3fff7c70 	.word	0x3fff7c70

00103bfc <GSM::~GSM()>:
  103bfc:	b510      	push	{r4, lr}
  103bfe:	4604      	mov	r4, r0
  103c00:	f005 fc12 	bl	109428 <operator delete(void*)>
  103c04:	4620      	mov	r0, r4
  103c06:	bd10      	pop	{r4, pc}

00103c08 <std::__cxx11::basic_string<char, std::char_traits<char>, std::allocator<char> >::basic_string(char const*, std::allocator<char> const&) [clone .isra.15] [clone .constprop.17]>:
  103c08:	b510      	push	{r4, lr}
  103c0a:	4604      	mov	r4, r0
  103c0c:	4a05      	ldr	r2, [pc, #20]	; (103c24 <std::__cxx11::basic_string<char, std::char_traits<char>, std::allocator<char> >::basic_string(char const*, std::allocator<char> const&) [clone .isra.15] [clone .constprop.17]+0x1c>)
  103c0e:	3008      	adds	r0, #8
  103c10:	6020      	str	r0, [r4, #0]
  103c12:	4611      	mov	r1, r2
  103c14:	f005 fef2 	bl	1099fc <std::__cxx11::basic_string<char, std::char_traits<char>, std::allocator<char> >::_S_copy_chars(char*, char const*, char const*)>
  103c18:	6822      	ldr	r2, [r4, #0]
  103c1a:	2300      	movs	r3, #0
  103c1c:	6063      	str	r3, [r4, #4]
  103c1e:	7013      	strb	r3, [r2, #0]
  103c20:	4620      	mov	r0, r4
  103c22:	bd10      	pop	{r4, pc}
  103c24:	00111a2d 	.word	0x00111a2d

00103c28 <mbed::SerialBase::~SerialBase()>:
  103c28:	b570      	push	{r4, r5, r6, lr}
  103c2a:	4605      	mov	r5, r0
  103c2c:	4b09      	ldr	r3, [pc, #36]	; (103c54 <mbed::SerialBase::~SerialBase()+0x2c>)
  103c2e:	4606      	mov	r6, r0
  103c30:	f845 3b10 	str.w	r3, [r5], #16
  103c34:	b15d      	cbz	r5, 103c4e <mbed::SerialBase::~SerialBase()+0x26>
  103c36:	f100 0430 	add.w	r4, r0, #48	; 0x30
  103c3a:	42ac      	cmp	r4, r5
  103c3c:	d007      	beq.n	103c4e <mbed::SerialBase::~SerialBase()+0x26>
  103c3e:	3c10      	subs	r4, #16
  103c40:	68e3      	ldr	r3, [r4, #12]
  103c42:	2b00      	cmp	r3, #0
  103c44:	d0f9      	beq.n	103c3a <mbed::SerialBase::~SerialBase()+0x12>
  103c46:	689b      	ldr	r3, [r3, #8]
  103c48:	4620      	mov	r0, r4
  103c4a:	4798      	blx	r3
  103c4c:	e7f5      	b.n	103c3a <mbed::SerialBase::~SerialBase()+0x12>
  103c4e:	4630      	mov	r0, r6
  103c50:	bd70      	pop	{r4, r5, r6, pc}
  103c52:	bf00      	nop
  103c54:	00111798 	.word	0x00111798

00103c58 <mbed::Serial::~Serial()>:
  103c58:	b510      	push	{r4, lr}
  103c5a:	4604      	mov	r4, r0
  103c5c:	4b0a      	ldr	r3, [pc, #40]	; (103c88 <mbed::Serial::~Serial()+0x30>)
  103c5e:	304c      	adds	r0, #76	; 0x4c
  103c60:	f103 0220 	add.w	r2, r3, #32
  103c64:	f840 3c4c 	str.w	r3, [r0, #-76]
  103c68:	337c      	adds	r3, #124	; 0x7c
  103c6a:	f840 2c18 	str.w	r2, [r0, #-24]
  103c6e:	f840 3c14 	str.w	r3, [r0, #-20]
  103c72:	f005 fdc4 	bl	1097fe <rtos::Mutex::~Mutex()>
  103c76:	f104 0034 	add.w	r0, r4, #52	; 0x34
  103c7a:	f005 fd39 	bl	1096f0 <mbed::Stream::~Stream()>
  103c7e:	4620      	mov	r0, r4
  103c80:	f7ff ffd2 	bl	103c28 <mbed::SerialBase::~SerialBase()>
  103c84:	4620      	mov	r0, r4
  103c86:	bd10      	pop	{r4, pc}
  103c88:	0011170c 	.word	0x0011170c

00103c8c <non-virtual thunk to mbed::Serial::~Serial()>:
  103c8c:	f1a0 0034 	sub.w	r0, r0, #52	; 0x34
  103c90:	e7e2      	b.n	103c58 <mbed::Serial::~Serial()>

00103c92 <non-virtual thunk to mbed::Serial::~Serial()>:
  103c92:	f1a0 0038 	sub.w	r0, r0, #56	; 0x38
  103c96:	e7df      	b.n	103c58 <mbed::Serial::~Serial()>

00103c98 <mbed::SerialBase::~SerialBase()>:
  103c98:	b510      	push	{r4, lr}
  103c9a:	4604      	mov	r4, r0
  103c9c:	f7ff ffc4 	bl	103c28 <mbed::SerialBase::~SerialBase()>
  103ca0:	4620      	mov	r0, r4
  103ca2:	f005 fbc1 	bl	109428 <operator delete(void*)>
  103ca6:	4620      	mov	r0, r4
  103ca8:	bd10      	pop	{r4, pc}
	...

00103cac <GSM::activate()>:
  103cac:	b538      	push	{r3, r4, r5, lr}
  103cae:	7903      	ldrb	r3, [r0, #4]
  103cb0:	4605      	mov	r5, r0
  103cb2:	bb13      	cbnz	r3, 103cfa <GSM::activate()+0x4e>
  103cb4:	2466      	movs	r4, #102	; 0x66
  103cb6:	f000 fcb3 	bl	104620 <uart_IsReadable()>
  103cba:	b128      	cbz	r0, 103cc8 <GSM::activate()+0x1c>
  103cbc:	3c01      	subs	r4, #1
  103cbe:	d003      	beq.n	103cc8 <GSM::activate()+0x1c>
  103cc0:	200a      	movs	r0, #10
  103cc2:	f005 fc6b 	bl	10959c <wait_us>
  103cc6:	e7f6      	b.n	103cb6 <GSM::activate()+0xa>
  103cc8:	f001 fba2 	bl	105410 <core_util_critical_section_enter>
  103ccc:	2101      	movs	r1, #1
  103cce:	480b      	ldr	r0, [pc, #44]	; (103cfc <GSM::activate()+0x50>)
  103cd0:	f003 fb3e 	bl	107350 <gpio_dir>
  103cd4:	f001 fbc8 	bl	105468 <core_util_critical_section_exit>
  103cd8:	f001 fb9a 	bl	105410 <core_util_critical_section_enter>
  103cdc:	2100      	movs	r1, #0
  103cde:	4807      	ldr	r0, [pc, #28]	; (103cfc <GSM::activate()+0x50>)
  103ce0:	f003 fb32 	bl	107348 <gpio_mode>
  103ce4:	f001 fbc0 	bl	105468 <core_util_critical_section_exit>
  103ce8:	2100      	movs	r1, #0
  103cea:	4804      	ldr	r0, [pc, #16]	; (103cfc <GSM::activate()+0x50>)
  103cec:	f003 fb42 	bl	107374 <gpio_write>
  103cf0:	2064      	movs	r0, #100	; 0x64
  103cf2:	f005 fc77 	bl	1095e4 <wait_ms>
  103cf6:	2301      	movs	r3, #1
  103cf8:	712b      	strb	r3, [r5, #4]
  103cfa:	bd38      	pop	{r3, r4, r5, pc}
  103cfc:	3fff7e38 	.word	0x3fff7e38

00103d00 <GSM::deactivate()>:
  103d00:	b538      	push	{r3, r4, r5, lr}
  103d02:	4605      	mov	r5, r0
  103d04:	4c0b      	ldr	r4, [pc, #44]	; (103d34 <GSM::deactivate()+0x34>)
  103d06:	f001 fb83 	bl	105410 <core_util_critical_section_enter>
  103d0a:	2101      	movs	r1, #1
  103d0c:	4620      	mov	r0, r4
  103d0e:	f003 fb1f 	bl	107350 <gpio_dir>
  103d12:	f001 fba9 	bl	105468 <core_util_critical_section_exit>
  103d16:	f001 fb7b 	bl	105410 <core_util_critical_section_enter>
  103d1a:	2102      	movs	r1, #2
  103d1c:	4620      	mov	r0, r4
  103d1e:	f003 fb13 	bl	107348 <gpio_mode>
  103d22:	f001 fba1 	bl	105468 <core_util_critical_section_exit>
  103d26:	2101      	movs	r1, #1
  103d28:	4620      	mov	r0, r4
  103d2a:	f003 fb23 	bl	107374 <gpio_write>
  103d2e:	2300      	movs	r3, #0
  103d30:	712b      	strb	r3, [r5, #4]
  103d32:	bd38      	pop	{r3, r4, r5, pc}
  103d34:	3fff7e38 	.word	0x3fff7e38

00103d38 <GSM::send(char*)>:
  103d38:	b538      	push	{r3, r4, r5, lr}
  103d3a:	460c      	mov	r4, r1
  103d3c:	1d45      	adds	r5, r0, #5
  103d3e:	4629      	mov	r1, r5
  103d40:	4620      	mov	r0, r4
  103d42:	f009 fbc0 	bl	10d4c6 <strcmp>
  103d46:	b140      	cbz	r0, 103d5a <GSM::send(char*)+0x22>
  103d48:	4621      	mov	r1, r4
  103d4a:	4628      	mov	r0, r5
  103d4c:	f009 fbc5 	bl	10d4da <strcpy>
  103d50:	4620      	mov	r0, r4
  103d52:	e8bd 4038 	ldmia.w	sp!, {r3, r4, r5, lr}
  103d56:	f000 bc57 	b.w	104608 <Send_UART(char*)>
  103d5a:	bd38      	pop	{r3, r4, r5, pc}

00103d5c <GSM::read(float)>:
  103d5c:	b530      	push	{r4, r5, lr}
  103d5e:	460d      	mov	r5, r1
  103d60:	b09b      	sub	sp, #108	; 0x6c
  103d62:	f100 0469 	add.w	r4, r0, #105	; 0x69
  103d66:	4621      	mov	r1, r4
  103d68:	a801      	add	r0, sp, #4
  103d6a:	f009 fbb6 	bl	10d4da <strcpy>
  103d6e:	4628      	mov	r0, r5
  103d70:	f006 fed0 	bl	10ab14 <__aeabi_f2iz>
  103d74:	f006 fcb4 	bl	10a6e0 <__aeabi_i2f>
  103d78:	f000 fcac 	bl	1046d4 <Read_GSM_UART_Wait(float)>
  103d7c:	4620      	mov	r0, r4
  103d7e:	b01b      	add	sp, #108	; 0x6c
  103d80:	e8bd 4030 	ldmia.w	sp!, {r4, r5, lr}
  103d84:	f000 bc72 	b.w	10466c <Take_dataUART(char*)>

00103d88 <GSM::Communication(char*, char*, float)>:
  103d88:	b5f8      	push	{r3, r4, r5, r6, r7, lr}
  103d8a:	461e      	mov	r6, r3
  103d8c:	7903      	ldrb	r3, [r0, #4]
  103d8e:	4604      	mov	r4, r0
  103d90:	460f      	mov	r7, r1
  103d92:	4615      	mov	r5, r2
  103d94:	b90b      	cbnz	r3, 103d9a <GSM::Communication(char*, char*, float)+0x12>
  103d96:	f7ff ff89 	bl	103cac <GSM::activate()>
  103d9a:	4639      	mov	r1, r7
  103d9c:	4620      	mov	r0, r4
  103d9e:	f7ff ffcb 	bl	103d38 <GSM::send(char*)>
  103da2:	4631      	mov	r1, r6
  103da4:	4620      	mov	r0, r4
  103da6:	f7ff ffd9 	bl	103d5c <GSM::read(float)>
  103daa:	f104 0169 	add.w	r1, r4, #105	; 0x69
  103dae:	4628      	mov	r0, r5
  103db0:	e8bd 40f8 	ldmia.w	sp!, {r3, r4, r5, r6, r7, lr}
  103db4:	f009 bb91 	b.w	10d4da <strcpy>

00103db8 <GSM::TestAT(char*)>:
  103db8:	b510      	push	{r4, lr}
  103dba:	460c      	mov	r4, r1
  103dbc:	4804      	ldr	r0, [pc, #16]	; (103dd0 <GSM::TestAT(char*)+0x18>)
  103dbe:	4905      	ldr	r1, [pc, #20]	; (103dd4 <GSM::TestAT(char*)+0x1c>)
  103dc0:	f005 fca8 	bl	109714 <mbed::Stream::printf(char const*, ...)>
  103dc4:	4620      	mov	r0, r4
  103dc6:	e8bd 4010 	ldmia.w	sp!, {r4, lr}
  103dca:	f000 bc13 	b.w	1045f4 <Reading_UART(char*)>
  103dce:	bf00      	nop
  103dd0:	3fff7e78 	.word	0x3fff7e78
  103dd4:	00110cb4 	.word	0x00110cb4

00103dd8 <GSM::Call(char*)>:
  103dd8:	b500      	push	{lr}
  103dda:	b08b      	sub	sp, #44	; 0x2c
  103ddc:	460a      	mov	r2, r1
  103dde:	4668      	mov	r0, sp
  103de0:	4905      	ldr	r1, [pc, #20]	; (103df8 <GSM::Call(char*)+0x20>)
  103de2:	f009 fadd 	bl	10d3a0 <siprintf>
  103de6:	466a      	mov	r2, sp
  103de8:	4904      	ldr	r1, [pc, #16]	; (103dfc <GSM::Call(char*)+0x24>)
  103dea:	4805      	ldr	r0, [pc, #20]	; (103e00 <GSM::Call(char*)+0x28>)
  103dec:	f005 fc92 	bl	109714 <mbed::Stream::printf(char const*, ...)>
  103df0:	b00b      	add	sp, #44	; 0x2c
  103df2:	f85d fb04 	ldr.w	pc, [sp], #4
  103df6:	bf00      	nop
  103df8:	00110cb8 	.word	0x00110cb8
  103dfc:	00110ce2 	.word	0x00110ce2
  103e00:	3fff7e78 	.word	0x3fff7e78

00103e04 <GSM::CallwithEnd(char*, int, char*)>:
  103e04:	b570      	push	{r4, r5, r6, lr}
  103e06:	461e      	mov	r6, r3
  103e08:	460d      	mov	r5, r1
  103e0a:	b096      	sub	sp, #88	; 0x58
  103e0c:	a804      	add	r0, sp, #16
  103e0e:	4614      	mov	r4, r2
  103e10:	f005 f804 	bl	108e1c <mbed::Timer::Timer()>
  103e14:	2228      	movs	r2, #40	; 0x28
  103e16:	2120      	movs	r1, #32
  103e18:	a80c      	add	r0, sp, #48	; 0x30
  103e1a:	f007 fe23 	bl	10ba64 <memset>
  103e1e:	f04f 3320 	mov.w	r3, #538976288	; 0x20202020
  103e22:	491b      	ldr	r1, [pc, #108]	; (103e90 <GSM::CallwithEnd(char*, int, char*)+0x8c>)
  103e24:	6033      	str	r3, [r6, #0]
  103e26:	462a      	mov	r2, r5
  103e28:	481a      	ldr	r0, [pc, #104]	; (103e94 <GSM::CallwithEnd(char*, int, char*)+0x90>)
  103e2a:	f005 fc73 	bl	109714 <mbed::Stream::printf(char const*, ...)>
  103e2e:	a804      	add	r0, sp, #16
  103e30:	f004 ff7d 	bl	108d2e <mbed::Timer::start()>
  103e34:	a80c      	add	r0, sp, #48	; 0x30
  103e36:	f000 fbdd 	bl	1045f4 <Reading_UART(char*)>
  103e3a:	4917      	ldr	r1, [pc, #92]	; (103e98 <GSM::CallwithEnd(char*, int, char*)+0x94>)
  103e3c:	a80c      	add	r0, sp, #48	; 0x30
  103e3e:	f009 fb42 	bl	10d4c6 <strcmp>
  103e42:	b9e8      	cbnz	r0, 103e80 <GSM::CallwithEnd(char*, int, char*)+0x7c>
  103e44:	4815      	ldr	r0, [pc, #84]	; (103e9c <GSM::CallwithEnd(char*, int, char*)+0x98>)
  103e46:	f000 ff15 	bl	104c74 <NHD_C0216CZ::clearDisplay()>
  103e4a:	f44f 737a 	mov.w	r3, #1000	; 0x3e8
  103e4e:	435c      	muls	r4, r3
  103e50:	a804      	add	r0, sp, #16
  103e52:	f004 ffc9 	bl	108de8 <mbed::Timer::read_ms()>
  103e56:	4284      	cmp	r4, r0
  103e58:	db0e      	blt.n	103e78 <GSM::CallwithEnd(char*, int, char*)+0x74>
  103e5a:	a804      	add	r0, sp, #16
  103e5c:	f004 ffc4 	bl	108de8 <mbed::Timer::read_ms()>
  103e60:	490f      	ldr	r1, [pc, #60]	; (103ea0 <GSM::CallwithEnd(char*, int, char*)+0x9c>)
  103e62:	4602      	mov	r2, r0
  103e64:	4668      	mov	r0, sp
  103e66:	f009 fa9b 	bl	10d3a0 <siprintf>
  103e6a:	2301      	movs	r3, #1
  103e6c:	461a      	mov	r2, r3
  103e6e:	4669      	mov	r1, sp
  103e70:	480a      	ldr	r0, [pc, #40]	; (103e9c <GSM::CallwithEnd(char*, int, char*)+0x98>)
  103e72:	f000 ffcb 	bl	104e0c <NHD_C0216CZ::displayStringToPos(char const*, int, int)>
  103e76:	e7eb      	b.n	103e50 <GSM::CallwithEnd(char*, int, char*)+0x4c>
  103e78:	490a      	ldr	r1, [pc, #40]	; (103ea4 <GSM::CallwithEnd(char*, int, char*)+0xa0>)
  103e7a:	4806      	ldr	r0, [pc, #24]	; (103e94 <GSM::CallwithEnd(char*, int, char*)+0x90>)
  103e7c:	f005 fc4a 	bl	109714 <mbed::Stream::printf(char const*, ...)>
  103e80:	4806      	ldr	r0, [pc, #24]	; (103e9c <GSM::CallwithEnd(char*, int, char*)+0x98>)
  103e82:	f000 fef7 	bl	104c74 <NHD_C0216CZ::clearDisplay()>
  103e86:	a804      	add	r0, sp, #16
  103e88:	f004 ff7a 	bl	108d80 <mbed::Timer::stop()>
  103e8c:	b016      	add	sp, #88	; 0x58
  103e8e:	bd70      	pop	{r4, r5, r6, pc}
  103e90:	00110cc0 	.word	0x00110cc0
  103e94:	3fff7e78 	.word	0x3fff7e78
  103e98:	00110ccc 	.word	0x00110ccc
  103e9c:	3fff7f08 	.word	0x3fff7f08
  103ea0:	00110ccf 	.word	0x00110ccf
  103ea4:	00110cd5 	.word	0x00110cd5

00103ea8 <GSM::WriteSMS(char*, char*)>:
  103ea8:	b570      	push	{r4, r5, r6, lr}
  103eaa:	460e      	mov	r6, r1
  103eac:	4615      	mov	r5, r2
  103eae:	4c12      	ldr	r4, [pc, #72]	; (103ef8 <GSM::WriteSMS(char*, char*)+0x50>)
  103eb0:	4912      	ldr	r1, [pc, #72]	; (103efc <GSM::WriteSMS(char*, char*)+0x54>)
  103eb2:	4620      	mov	r0, r4
  103eb4:	f005 fc2e 	bl	109714 <mbed::Stream::printf(char const*, ...)>
  103eb8:	f44f 70fa 	mov.w	r0, #500	; 0x1f4
  103ebc:	f005 fb6e 	bl	10959c <wait_us>
  103ec0:	4632      	mov	r2, r6
  103ec2:	490f      	ldr	r1, [pc, #60]	; (103f00 <GSM::WriteSMS(char*, char*)+0x58>)
  103ec4:	4620      	mov	r0, r4
  103ec6:	f005 fc25 	bl	109714 <mbed::Stream::printf(char const*, ...)>
  103eca:	f44f 70fa 	mov.w	r0, #500	; 0x1f4
  103ece:	f005 fb65 	bl	10959c <wait_us>
  103ed2:	462a      	mov	r2, r5
  103ed4:	490b      	ldr	r1, [pc, #44]	; (103f04 <GSM::WriteSMS(char*, char*)+0x5c>)
  103ed6:	4620      	mov	r0, r4
  103ed8:	f005 fc1c 	bl	109714 <mbed::Stream::printf(char const*, ...)>
  103edc:	f44f 70fa 	mov.w	r0, #500	; 0x1f4
  103ee0:	f005 fb5c 	bl	10959c <wait_us>
  103ee4:	4620      	mov	r0, r4
  103ee6:	221a      	movs	r2, #26
  103ee8:	4907      	ldr	r1, [pc, #28]	; (103f08 <GSM::WriteSMS(char*, char*)+0x60>)
  103eea:	f005 fc13 	bl	109714 <mbed::Stream::printf(char const*, ...)>
  103eee:	e8bd 4070 	ldmia.w	sp!, {r4, r5, r6, lr}
  103ef2:	4806      	ldr	r0, [pc, #24]	; (103f0c <GSM::WriteSMS(char*, char*)+0x64>)
  103ef4:	f005 bb6a 	b.w	1095cc <wait>
  103ef8:	3fff7e78 	.word	0x3fff7e78
  103efc:	00110ce5 	.word	0x00110ce5
  103f00:	00110cf0 	.word	0x00110cf0
  103f04:	00110c87 	.word	0x00110c87
  103f08:	00110cfe 	.word	0x00110cfe
  103f0c:	40400000 	.word	0x40400000

00103f10 <GSM::GSM()>:
  103f10:	4b01      	ldr	r3, [pc, #4]	; (103f18 <GSM::GSM()+0x8>)
  103f12:	6003      	str	r3, [r0, #0]
  103f14:	4770      	bx	lr
  103f16:	bf00      	nop
  103f18:	00110cac 	.word	0x00110cac

00103f1c <mbed::Serial::~Serial()>:
  103f1c:	b510      	push	{r4, lr}
  103f1e:	4604      	mov	r4, r0
  103f20:	f7ff fe9a 	bl	103c58 <mbed::Serial::~Serial()>
  103f24:	4620      	mov	r0, r4
  103f26:	f005 fa7f 	bl	109428 <operator delete(void*)>
  103f2a:	4620      	mov	r0, r4
  103f2c:	bd10      	pop	{r4, pc}

00103f2e <non-virtual thunk to mbed::Serial::~Serial()>:
  103f2e:	f1a0 0034 	sub.w	r0, r0, #52	; 0x34
  103f32:	e7f3      	b.n	103f1c <mbed::Serial::~Serial()>

00103f34 <non-virtual thunk to mbed::Serial::~Serial()>:
  103f34:	f1a0 0038 	sub.w	r0, r0, #56	; 0x38
  103f38:	e7f0      	b.n	103f1c <mbed::Serial::~Serial()>
	...

00103f3c <_GLOBAL__sub_I_TOUCH_LC717A00_mode>:
  103f3c:	b573      	push	{r0, r1, r4, r5, r6, lr}
  103f3e:	483b      	ldr	r0, [pc, #236]	; (10402c <_GLOBAL__sub_I_TOUCH_LC717A00_mode+0xf0>)
  103f40:	f7ff fe62 	bl	103c08 <std::__cxx11::basic_string<char, std::char_traits<char>, std::allocator<char> >::basic_string(char const*, std::allocator<char> const&) [clone .isra.15] [clone .constprop.17]>
  103f44:	4a3a      	ldr	r2, [pc, #232]	; (104030 <_GLOBAL__sub_I_TOUCH_LC717A00_mode+0xf4>)
  103f46:	493b      	ldr	r1, [pc, #236]	; (104034 <_GLOBAL__sub_I_TOUCH_LC717A00_mode+0xf8>)
  103f48:	4838      	ldr	r0, [pc, #224]	; (10402c <_GLOBAL__sub_I_TOUCH_LC717A00_mode+0xf0>)
  103f4a:	f005 fa38 	bl	1093be <__aeabi_atexit>
  103f4e:	4b3a      	ldr	r3, [pc, #232]	; (104038 <_GLOBAL__sub_I_TOUCH_LC717A00_mode+0xfc>)
  103f50:	2200      	movs	r2, #0
  103f52:	f503 70c0 	add.w	r0, r3, #384	; 0x180
  103f56:	4619      	mov	r1, r3
  103f58:	f843 2c04 	str.w	r2, [r3, #-4]
  103f5c:	f843 3c08 	str.w	r3, [r3, #-8]
  103f60:	f801 2b18 	strb.w	r2, [r1], #24
  103f64:	6119      	str	r1, [r3, #16]
  103f66:	615a      	str	r2, [r3, #20]
  103f68:	761a      	strb	r2, [r3, #24]
  103f6a:	3330      	adds	r3, #48	; 0x30
  103f6c:	4283      	cmp	r3, r0
  103f6e:	f04f 0400 	mov.w	r4, #0
  103f72:	d1f0      	bne.n	103f56 <_GLOBAL__sub_I_TOUCH_LC717A00_mode+0x1a>
  103f74:	4a2e      	ldr	r2, [pc, #184]	; (104030 <_GLOBAL__sub_I_TOUCH_LC717A00_mode+0xf4>)
  103f76:	4931      	ldr	r1, [pc, #196]	; (10403c <_GLOBAL__sub_I_TOUCH_LC717A00_mode+0x100>)
  103f78:	4620      	mov	r0, r4
  103f7a:	f005 fa20 	bl	1093be <__aeabi_atexit>
  103f7e:	4830      	ldr	r0, [pc, #192]	; (104040 <_GLOBAL__sub_I_TOUCH_LC717A00_mode+0x104>)
  103f80:	f7ff fe42 	bl	103c08 <std::__cxx11::basic_string<char, std::char_traits<char>, std::allocator<char> >::basic_string(char const*, std::allocator<char> const&) [clone .isra.15] [clone .constprop.17]>
  103f84:	4a2a      	ldr	r2, [pc, #168]	; (104030 <_GLOBAL__sub_I_TOUCH_LC717A00_mode+0xf4>)
  103f86:	492b      	ldr	r1, [pc, #172]	; (104034 <_GLOBAL__sub_I_TOUCH_LC717A00_mode+0xf8>)
  103f88:	482d      	ldr	r0, [pc, #180]	; (104040 <_GLOBAL__sub_I_TOUCH_LC717A00_mode+0x104>)
  103f8a:	f005 fa18 	bl	1093be <__aeabi_atexit>
  103f8e:	482d      	ldr	r0, [pc, #180]	; (104044 <_GLOBAL__sub_I_TOUCH_LC717A00_mode+0x108>)
  103f90:	f7ff fe3a 	bl	103c08 <std::__cxx11::basic_string<char, std::char_traits<char>, std::allocator<char> >::basic_string(char const*, std::allocator<char> const&) [clone .isra.15] [clone .constprop.17]>
  103f94:	4a26      	ldr	r2, [pc, #152]	; (104030 <_GLOBAL__sub_I_TOUCH_LC717A00_mode+0xf4>)
  103f96:	4927      	ldr	r1, [pc, #156]	; (104034 <_GLOBAL__sub_I_TOUCH_LC717A00_mode+0xf8>)
  103f98:	482a      	ldr	r0, [pc, #168]	; (104044 <_GLOBAL__sub_I_TOUCH_LC717A00_mode+0x108>)
  103f9a:	f005 fa10 	bl	1093be <__aeabi_atexit>
  103f9e:	482a      	ldr	r0, [pc, #168]	; (104048 <_GLOBAL__sub_I_TOUCH_LC717A00_mode+0x10c>)
  103fa0:	f7ff fe32 	bl	103c08 <std::__cxx11::basic_string<char, std::char_traits<char>, std::allocator<char> >::basic_string(char const*, std::allocator<char> const&) [clone .isra.15] [clone .constprop.17]>
  103fa4:	4a22      	ldr	r2, [pc, #136]	; (104030 <_GLOBAL__sub_I_TOUCH_LC717A00_mode+0xf4>)
  103fa6:	4923      	ldr	r1, [pc, #140]	; (104034 <_GLOBAL__sub_I_TOUCH_LC717A00_mode+0xf8>)
  103fa8:	4827      	ldr	r0, [pc, #156]	; (104048 <_GLOBAL__sub_I_TOUCH_LC717A00_mode+0x10c>)
  103faa:	4d28      	ldr	r5, [pc, #160]	; (10404c <_GLOBAL__sub_I_TOUCH_LC717A00_mode+0x110>)
  103fac:	f005 fa07 	bl	1093be <__aeabi_atexit>
  103fb0:	4827      	ldr	r0, [pc, #156]	; (104050 <_GLOBAL__sub_I_TOUCH_LC717A00_mode+0x114>)
  103fb2:	f005 fc17 	bl	1097e4 <rtos::Mutex::Mutex()>
  103fb6:	f04f 36ff 	mov.w	r6, #4294967295
  103fba:	4a1d      	ldr	r2, [pc, #116]	; (104030 <_GLOBAL__sub_I_TOUCH_LC717A00_mode+0xf4>)
  103fbc:	4925      	ldr	r1, [pc, #148]	; (104054 <_GLOBAL__sub_I_TOUCH_LC717A00_mode+0x118>)
  103fbe:	4824      	ldr	r0, [pc, #144]	; (104050 <_GLOBAL__sub_I_TOUCH_LC717A00_mode+0x114>)
  103fc0:	f005 f9fd 	bl	1093be <__aeabi_atexit>
  103fc4:	2304      	movs	r3, #4
  103fc6:	2206      	movs	r2, #6
  103fc8:	9600      	str	r6, [sp, #0]
  103fca:	2105      	movs	r1, #5
  103fcc:	4628      	mov	r0, r5
  103fce:	f004 fdb9 	bl	108b44 <mbed::SPI::SPI(PinName, PinName, PinName, PinName)>
  103fd2:	4631      	mov	r1, r6
  103fd4:	f105 002c 	add.w	r0, r5, #44	; 0x2c
  103fd8:	62ec      	str	r4, [r5, #44]	; 0x2c
  103fda:	f885 4030 	strb.w	r4, [r5, #48]	; 0x30
  103fde:	636c      	str	r4, [r5, #52]	; 0x34
  103fe0:	f001 f89a 	bl	105118 <gpio_init_out>
  103fe4:	2320      	movs	r3, #32
  103fe6:	9600      	str	r6, [sp, #0]
  103fe8:	2202      	movs	r2, #2
  103fea:	2103      	movs	r1, #3
  103fec:	f105 0040 	add.w	r0, r5, #64	; 0x40
  103ff0:	f000 fcd6 	bl	1049a0 <PCA9655E::PCA9655E(PinName, PinName, unsigned char, PinName)>
  103ff4:	4a0e      	ldr	r2, [pc, #56]	; (104030 <_GLOBAL__sub_I_TOUCH_LC717A00_mode+0xf4>)
  103ff6:	4918      	ldr	r1, [pc, #96]	; (104058 <_GLOBAL__sub_I_TOUCH_LC717A00_mode+0x11c>)
  103ff8:	4628      	mov	r0, r5
  103ffa:	f005 f9e0 	bl	1093be <__aeabi_atexit>
  103ffe:	f44f 5316 	mov.w	r3, #9600	; 0x2580
  104002:	4621      	mov	r1, r4
  104004:	2201      	movs	r2, #1
  104006:	4815      	ldr	r0, [pc, #84]	; (10405c <_GLOBAL__sub_I_TOUCH_LC717A00_mode+0x120>)
  104008:	f004 fce4 	bl	1089d4 <mbed::Serial::Serial(PinName, PinName, int)>
  10400c:	4a08      	ldr	r2, [pc, #32]	; (104030 <_GLOBAL__sub_I_TOUCH_LC717A00_mode+0xf4>)
  10400e:	4914      	ldr	r1, [pc, #80]	; (104060 <_GLOBAL__sub_I_TOUCH_LC717A00_mode+0x124>)
  104010:	4812      	ldr	r0, [pc, #72]	; (10405c <_GLOBAL__sub_I_TOUCH_LC717A00_mode+0x120>)
  104012:	f005 f9d4 	bl	1093be <__aeabi_atexit>
  104016:	4813      	ldr	r0, [pc, #76]	; (104064 <_GLOBAL__sub_I_TOUCH_LC717A00_mode+0x128>)
  104018:	2110      	movs	r1, #16
  10401a:	6004      	str	r4, [r0, #0]
  10401c:	7104      	strb	r4, [r0, #4]
  10401e:	6084      	str	r4, [r0, #8]
  104020:	b002      	add	sp, #8
  104022:	e8bd 4070 	ldmia.w	sp!, {r4, r5, r6, lr}
  104026:	f001 b850 	b.w	1050ca <gpio_init_in>
  10402a:	bf00      	nop
  10402c:	3fff7df0 	.word	0x3fff7df0
  104030:	3fff40a0 	.word	0x3fff40a0
  104034:	00109aaf 	.word	0x00109aaf
  104038:	3fff7c78 	.word	0x3fff7c78
  10403c:	00103bdd 	.word	0x00103bdd
  104040:	3fff7e20 	.word	0x3fff7e20
  104044:	3fff7e08 	.word	0x3fff7e08
  104048:	3fff7ef0 	.word	0x3fff7ef0
  10404c:	3fff7f08 	.word	0x3fff7f08
  104050:	3fff7ec0 	.word	0x3fff7ec0
  104054:	001097ff 	.word	0x001097ff
  104058:	00102165 	.word	0x00102165
  10405c:	3fff7e44 	.word	0x3fff7e44
  104060:	00103c59 	.word	0x00103c59
  104064:	3fff7e38 	.word	0x3fff7e38

00104068 <__tcf_0>:
  104068:	b538      	push	{r3, r4, r5, lr}
  10406a:	4d06      	ldr	r5, [pc, #24]	; (104084 <__tcf_0+0x1c>)
  10406c:	2400      	movs	r4, #0
  10406e:	f504 70b4 	add.w	r0, r4, #360	; 0x168
  104072:	4428      	add	r0, r5
  104074:	3c18      	subs	r4, #24
  104076:	f005 fc79 	bl	10996c <std::__cxx11::basic_string<char, std::char_traits<char>, std::allocator<char> >::_M_dispose()>
  10407a:	f514 7fc0 	cmn.w	r4, #384	; 0x180
  10407e:	d1f6      	bne.n	10406e <__tcf_0+0x6>
  104080:	bd38      	pop	{r3, r4, r5, pc}
  104082:	bf00      	nop
  104084:	3fff7fa4 	.word	0x3fff7fa4

00104088 <std::__cxx11::basic_string<char, std::char_traits<char>, std::allocator<char> >::basic_string(char const*, std::allocator<char> const&) [clone .isra.15] [clone .constprop.17]>:
  104088:	b510      	push	{r4, lr}
  10408a:	4604      	mov	r4, r0
  10408c:	4a05      	ldr	r2, [pc, #20]	; (1040a4 <std::__cxx11::basic_string<char, std::char_traits<char>, std::allocator<char> >::basic_string(char const*, std::allocator<char> const&) [clone .isra.15] [clone .constprop.17]+0x1c>)
  10408e:	3008      	adds	r0, #8
  104090:	6020      	str	r0, [r4, #0]
  104092:	4611      	mov	r1, r2
  104094:	f005 fcb2 	bl	1099fc <std::__cxx11::basic_string<char, std::char_traits<char>, std::allocator<char> >::_S_copy_chars(char*, char const*, char const*)>
  104098:	6822      	ldr	r2, [r4, #0]
  10409a:	2300      	movs	r3, #0
  10409c:	6063      	str	r3, [r4, #4]
  10409e:	7013      	strb	r3, [r2, #0]
  1040a0:	4620      	mov	r0, r4
  1040a2:	bd10      	pop	{r4, pc}
  1040a4:	00111a2d 	.word	0x00111a2d

001040a8 <_GLOBAL__sub_I_TOUCH_LC717A00_mode>:
  1040a8:	b538      	push	{r3, r4, r5, lr}
  1040aa:	4827      	ldr	r0, [pc, #156]	; (104148 <_GLOBAL__sub_I_TOUCH_LC717A00_mode+0xa0>)
  1040ac:	f7ff ffec 	bl	104088 <std::__cxx11::basic_string<char, std::char_traits<char>, std::allocator<char> >::basic_string(char const*, std::allocator<char> const&) [clone .isra.15] [clone .constprop.17]>
  1040b0:	4a26      	ldr	r2, [pc, #152]	; (10414c <_GLOBAL__sub_I_TOUCH_LC717A00_mode+0xa4>)
  1040b2:	4927      	ldr	r1, [pc, #156]	; (104150 <_GLOBAL__sub_I_TOUCH_LC717A00_mode+0xa8>)
  1040b4:	4824      	ldr	r0, [pc, #144]	; (104148 <_GLOBAL__sub_I_TOUCH_LC717A00_mode+0xa0>)
  1040b6:	f005 f982 	bl	1093be <__aeabi_atexit>
  1040ba:	4b26      	ldr	r3, [pc, #152]	; (104154 <_GLOBAL__sub_I_TOUCH_LC717A00_mode+0xac>)
  1040bc:	2200      	movs	r2, #0
  1040be:	f503 70c0 	add.w	r0, r3, #384	; 0x180
  1040c2:	4619      	mov	r1, r3
  1040c4:	f843 2c04 	str.w	r2, [r3, #-4]
  1040c8:	f843 3c08 	str.w	r3, [r3, #-8]
  1040cc:	f801 2b18 	strb.w	r2, [r1], #24
  1040d0:	6119      	str	r1, [r3, #16]
  1040d2:	615a      	str	r2, [r3, #20]
  1040d4:	761a      	strb	r2, [r3, #24]
  1040d6:	3330      	adds	r3, #48	; 0x30
  1040d8:	4283      	cmp	r3, r0
  1040da:	f04f 0500 	mov.w	r5, #0
  1040de:	d1f0      	bne.n	1040c2 <_GLOBAL__sub_I_TOUCH_LC717A00_mode+0x1a>
  1040e0:	4a1a      	ldr	r2, [pc, #104]	; (10414c <_GLOBAL__sub_I_TOUCH_LC717A00_mode+0xa4>)
  1040e2:	491d      	ldr	r1, [pc, #116]	; (104158 <_GLOBAL__sub_I_TOUCH_LC717A00_mode+0xb0>)
  1040e4:	4628      	mov	r0, r5
  1040e6:	f005 f96a 	bl	1093be <__aeabi_atexit>
  1040ea:	481c      	ldr	r0, [pc, #112]	; (10415c <_GLOBAL__sub_I_TOUCH_LC717A00_mode+0xb4>)
  1040ec:	f7ff ffcc 	bl	104088 <std::__cxx11::basic_string<char, std::char_traits<char>, std::allocator<char> >::basic_string(char const*, std::allocator<char> const&) [clone .isra.15] [clone .constprop.17]>
  1040f0:	4a16      	ldr	r2, [pc, #88]	; (10414c <_GLOBAL__sub_I_TOUCH_LC717A00_mode+0xa4>)
  1040f2:	4917      	ldr	r1, [pc, #92]	; (104150 <_GLOBAL__sub_I_TOUCH_LC717A00_mode+0xa8>)
  1040f4:	4819      	ldr	r0, [pc, #100]	; (10415c <_GLOBAL__sub_I_TOUCH_LC717A00_mode+0xb4>)
  1040f6:	f005 f962 	bl	1093be <__aeabi_atexit>
  1040fa:	4819      	ldr	r0, [pc, #100]	; (104160 <_GLOBAL__sub_I_TOUCH_LC717A00_mode+0xb8>)
  1040fc:	f7ff ffc4 	bl	104088 <std::__cxx11::basic_string<char, std::char_traits<char>, std::allocator<char> >::basic_string(char const*, std::allocator<char> const&) [clone .isra.15] [clone .constprop.17]>
  104100:	4a12      	ldr	r2, [pc, #72]	; (10414c <_GLOBAL__sub_I_TOUCH_LC717A00_mode+0xa4>)
  104102:	4913      	ldr	r1, [pc, #76]	; (104150 <_GLOBAL__sub_I_TOUCH_LC717A00_mode+0xa8>)
  104104:	4816      	ldr	r0, [pc, #88]	; (104160 <_GLOBAL__sub_I_TOUCH_LC717A00_mode+0xb8>)
  104106:	f005 f95a 	bl	1093be <__aeabi_atexit>
  10410a:	4816      	ldr	r0, [pc, #88]	; (104164 <_GLOBAL__sub_I_TOUCH_LC717A00_mode+0xbc>)
  10410c:	f7ff ffbc 	bl	104088 <std::__cxx11::basic_string<char, std::char_traits<char>, std::allocator<char> >::basic_string(char const*, std::allocator<char> const&) [clone .isra.15] [clone .constprop.17]>
  104110:	4a0e      	ldr	r2, [pc, #56]	; (10414c <_GLOBAL__sub_I_TOUCH_LC717A00_mode+0xa4>)
  104112:	490f      	ldr	r1, [pc, #60]	; (104150 <_GLOBAL__sub_I_TOUCH_LC717A00_mode+0xa8>)
  104114:	4813      	ldr	r0, [pc, #76]	; (104164 <_GLOBAL__sub_I_TOUCH_LC717A00_mode+0xbc>)
  104116:	f005 f952 	bl	1093be <__aeabi_atexit>
  10411a:	4c13      	ldr	r4, [pc, #76]	; (104168 <_GLOBAL__sub_I_TOUCH_LC717A00_mode+0xc0>)
  10411c:	4813      	ldr	r0, [pc, #76]	; (10416c <_GLOBAL__sub_I_TOUCH_LC717A00_mode+0xc4>)
  10411e:	f005 fb61 	bl	1097e4 <rtos::Mutex::Mutex()>
  104122:	4a0a      	ldr	r2, [pc, #40]	; (10414c <_GLOBAL__sub_I_TOUCH_LC717A00_mode+0xa4>)
  104124:	4912      	ldr	r1, [pc, #72]	; (104170 <_GLOBAL__sub_I_TOUCH_LC717A00_mode+0xc8>)
  104126:	4811      	ldr	r0, [pc, #68]	; (10416c <_GLOBAL__sub_I_TOUCH_LC717A00_mode+0xc4>)
  104128:	f005 f949 	bl	1093be <__aeabi_atexit>
  10412c:	4620      	mov	r0, r4
  10412e:	f004 fe8d 	bl	108e4c <mbed::TimerEvent::TimerEvent()>
  104132:	4b10      	ldr	r3, [pc, #64]	; (104174 <_GLOBAL__sub_I_TOUCH_LC717A00_mode+0xcc>)
  104134:	6365      	str	r5, [r4, #52]	; 0x34
  104136:	6023      	str	r3, [r4, #0]
  104138:	4620      	mov	r0, r4
  10413a:	e8bd 4038 	ldmia.w	sp!, {r3, r4, r5, lr}
  10413e:	4a03      	ldr	r2, [pc, #12]	; (10414c <_GLOBAL__sub_I_TOUCH_LC717A00_mode+0xa4>)
  104140:	490d      	ldr	r1, [pc, #52]	; (104178 <_GLOBAL__sub_I_TOUCH_LC717A00_mode+0xd0>)
  104142:	f005 b93c 	b.w	1093be <__aeabi_atexit>
  104146:	bf00      	nop
  104148:	3fff8124 	.word	0x3fff8124
  10414c:	3fff40a0 	.word	0x3fff40a0
  104150:	00109aaf 	.word	0x00109aaf
  104154:	3fff7fac 	.word	0x3fff7fac
  104158:	00104069 	.word	0x00104069
  10415c:	3fff8190 	.word	0x3fff8190
  104160:	3fff813c 	.word	0x3fff813c
  104164:	3fff81d8 	.word	0x3fff81d8
  104168:	3fff8158 	.word	0x3fff8158
  10416c:	3fff81a8 	.word	0x3fff81a8
  104170:	001097ff 	.word	0x001097ff
  104174:	001117d0 	.word	0x001117d0
  104178:	00102175 	.word	0x00102175

0010417c <__tcf_0>:
  10417c:	b538      	push	{r3, r4, r5, lr}
  10417e:	4d06      	ldr	r5, [pc, #24]	; (104198 <__tcf_0+0x1c>)
  104180:	2400      	movs	r4, #0
  104182:	f504 70b4 	add.w	r0, r4, #360	; 0x168
  104186:	4428      	add	r0, r5
  104188:	3c18      	subs	r4, #24
  10418a:	f005 fbef 	bl	10996c <std::__cxx11::basic_string<char, std::char_traits<char>, std::allocator<char> >::_M_dispose()>
  10418e:	f514 7fc0 	cmn.w	r4, #384	; 0x180
  104192:	d1f6      	bne.n	104182 <__tcf_0+0x6>
  104194:	bd38      	pop	{r3, r4, r5, pc}
  104196:	bf00      	nop
  104198:	3fff8ae4 	.word	0x3fff8ae4

0010419c <std::__cxx11::basic_string<char, std::char_traits<char>, std::allocator<char> >::basic_string(char const*, std::allocator<char> const&) [clone .isra.21]>:
  10419c:	f100 0308 	add.w	r3, r0, #8
  1041a0:	b573      	push	{r0, r1, r4, r5, r6, lr}
  1041a2:	4604      	mov	r4, r0
  1041a4:	6003      	str	r3, [r0, #0]
  1041a6:	460d      	mov	r5, r1
  1041a8:	b181      	cbz	r1, 1041cc <std::__cxx11::basic_string<char, std::char_traits<char>, std::allocator<char> >::basic_string(char const*, std::allocator<char> const&) [clone .isra.21]+0x30>
  1041aa:	4608      	mov	r0, r1
  1041ac:	f009 f99d 	bl	10d4ea <strlen>
  1041b0:	280f      	cmp	r0, #15
  1041b2:	eb05 0600 	add.w	r6, r5, r0
  1041b6:	9001      	str	r0, [sp, #4]
  1041b8:	d90b      	bls.n	1041d2 <std::__cxx11::basic_string<char, std::char_traits<char>, std::allocator<char> >::basic_string(char const*, std::allocator<char> const&) [clone .isra.21]+0x36>
  1041ba:	2200      	movs	r2, #0
  1041bc:	a901      	add	r1, sp, #4
  1041be:	4620      	mov	r0, r4
  1041c0:	f005 fbb8 	bl	109934 <std::__cxx11::basic_string<char, std::char_traits<char>, std::allocator<char> >::_M_create(unsigned int&, unsigned int)>
  1041c4:	9b01      	ldr	r3, [sp, #4]
  1041c6:	6020      	str	r0, [r4, #0]
  1041c8:	60a3      	str	r3, [r4, #8]
  1041ca:	e002      	b.n	1041d2 <std::__cxx11::basic_string<char, std::char_traits<char>, std::allocator<char> >::basic_string(char const*, std::allocator<char> const&) [clone .isra.21]+0x36>
  1041cc:	4807      	ldr	r0, [pc, #28]	; (1041ec <std::__cxx11::basic_string<char, std::char_traits<char>, std::allocator<char> >::basic_string(char const*, std::allocator<char> const&) [clone .isra.21]+0x50>)
  1041ce:	f005 fb8b 	bl	1098e8 <std::__throw_logic_error(char const*)>
  1041d2:	4632      	mov	r2, r6
  1041d4:	4629      	mov	r1, r5
  1041d6:	6820      	ldr	r0, [r4, #0]
  1041d8:	f005 fc10 	bl	1099fc <std::__cxx11::basic_string<char, std::char_traits<char>, std::allocator<char> >::_S_copy_chars(char*, char const*, char const*)>
  1041dc:	4620      	mov	r0, r4
  1041de:	9b01      	ldr	r3, [sp, #4]
  1041e0:	6822      	ldr	r2, [r4, #0]
  1041e2:	2100      	movs	r1, #0
  1041e4:	6063      	str	r3, [r4, #4]
  1041e6:	54d1      	strb	r1, [r2, r3]
  1041e8:	b002      	add	sp, #8
  1041ea:	bd70      	pop	{r4, r5, r6, pc}
  1041ec:	00110ad1 	.word	0x00110ad1

001041f0 <_GLOBAL__sub_I_TOUCH_LC717A00_mode>:
  1041f0:	b573      	push	{r0, r1, r4, r5, r6, lr}
  1041f2:	4970      	ldr	r1, [pc, #448]	; (1043b4 <_GLOBAL__sub_I_TOUCH_LC717A00_mode+0x1c4>)
  1041f4:	4870      	ldr	r0, [pc, #448]	; (1043b8 <_GLOBAL__sub_I_TOUCH_LC717A00_mode+0x1c8>)
  1041f6:	f7ff ffd1 	bl	10419c <std::__cxx11::basic_string<char, std::char_traits<char>, std::allocator<char> >::basic_string(char const*, std::allocator<char> const&) [clone .isra.21]>
  1041fa:	4a70      	ldr	r2, [pc, #448]	; (1043bc <_GLOBAL__sub_I_TOUCH_LC717A00_mode+0x1cc>)
  1041fc:	4970      	ldr	r1, [pc, #448]	; (1043c0 <_GLOBAL__sub_I_TOUCH_LC717A00_mode+0x1d0>)
  1041fe:	486e      	ldr	r0, [pc, #440]	; (1043b8 <_GLOBAL__sub_I_TOUCH_LC717A00_mode+0x1c8>)
  104200:	f005 f8dd 	bl	1093be <__aeabi_atexit>
  104204:	4b6f      	ldr	r3, [pc, #444]	; (1043c4 <_GLOBAL__sub_I_TOUCH_LC717A00_mode+0x1d4>)
  104206:	2200      	movs	r2, #0
  104208:	f503 70c0 	add.w	r0, r3, #384	; 0x180
  10420c:	4619      	mov	r1, r3
  10420e:	f843 2c04 	str.w	r2, [r3, #-4]
  104212:	f843 3c08 	str.w	r3, [r3, #-8]
  104216:	f801 2b18 	strb.w	r2, [r1], #24
  10421a:	6119      	str	r1, [r3, #16]
  10421c:	615a      	str	r2, [r3, #20]
  10421e:	761a      	strb	r2, [r3, #24]
  104220:	3330      	adds	r3, #48	; 0x30
  104222:	4283      	cmp	r3, r0
  104224:	f04f 0400 	mov.w	r4, #0
  104228:	d1f0      	bne.n	10420c <_GLOBAL__sub_I_TOUCH_LC717A00_mode+0x1c>
  10422a:	4a64      	ldr	r2, [pc, #400]	; (1043bc <_GLOBAL__sub_I_TOUCH_LC717A00_mode+0x1cc>)
  10422c:	4966      	ldr	r1, [pc, #408]	; (1043c8 <_GLOBAL__sub_I_TOUCH_LC717A00_mode+0x1d8>)
  10422e:	4620      	mov	r0, r4
  104230:	f005 f8c5 	bl	1093be <__aeabi_atexit>
  104234:	495f      	ldr	r1, [pc, #380]	; (1043b4 <_GLOBAL__sub_I_TOUCH_LC717A00_mode+0x1c4>)
  104236:	4865      	ldr	r0, [pc, #404]	; (1043cc <_GLOBAL__sub_I_TOUCH_LC717A00_mode+0x1dc>)
  104238:	f7ff ffb0 	bl	10419c <std::__cxx11::basic_string<char, std::char_traits<char>, std::allocator<char> >::basic_string(char const*, std::allocator<char> const&) [clone .isra.21]>
  10423c:	4a5f      	ldr	r2, [pc, #380]	; (1043bc <_GLOBAL__sub_I_TOUCH_LC717A00_mode+0x1cc>)
  10423e:	4960      	ldr	r1, [pc, #384]	; (1043c0 <_GLOBAL__sub_I_TOUCH_LC717A00_mode+0x1d0>)
  104240:	4862      	ldr	r0, [pc, #392]	; (1043cc <_GLOBAL__sub_I_TOUCH_LC717A00_mode+0x1dc>)
  104242:	f005 f8bc 	bl	1093be <__aeabi_atexit>
  104246:	495b      	ldr	r1, [pc, #364]	; (1043b4 <_GLOBAL__sub_I_TOUCH_LC717A00_mode+0x1c4>)
  104248:	4861      	ldr	r0, [pc, #388]	; (1043d0 <_GLOBAL__sub_I_TOUCH_LC717A00_mode+0x1e0>)
  10424a:	f7ff ffa7 	bl	10419c <std::__cxx11::basic_string<char, std::char_traits<char>, std::allocator<char> >::basic_string(char const*, std::allocator<char> const&) [clone .isra.21]>
  10424e:	4a5b      	ldr	r2, [pc, #364]	; (1043bc <_GLOBAL__sub_I_TOUCH_LC717A00_mode+0x1cc>)
  104250:	495b      	ldr	r1, [pc, #364]	; (1043c0 <_GLOBAL__sub_I_TOUCH_LC717A00_mode+0x1d0>)
  104252:	485f      	ldr	r0, [pc, #380]	; (1043d0 <_GLOBAL__sub_I_TOUCH_LC717A00_mode+0x1e0>)
  104254:	f005 f8b3 	bl	1093be <__aeabi_atexit>
  104258:	4956      	ldr	r1, [pc, #344]	; (1043b4 <_GLOBAL__sub_I_TOUCH_LC717A00_mode+0x1c4>)
  10425a:	485e      	ldr	r0, [pc, #376]	; (1043d4 <_GLOBAL__sub_I_TOUCH_LC717A00_mode+0x1e4>)
  10425c:	f7ff ff9e 	bl	10419c <std::__cxx11::basic_string<char, std::char_traits<char>, std::allocator<char> >::basic_string(char const*, std::allocator<char> const&) [clone .isra.21]>
  104260:	4a56      	ldr	r2, [pc, #344]	; (1043bc <_GLOBAL__sub_I_TOUCH_LC717A00_mode+0x1cc>)
  104262:	4957      	ldr	r1, [pc, #348]	; (1043c0 <_GLOBAL__sub_I_TOUCH_LC717A00_mode+0x1d0>)
  104264:	485b      	ldr	r0, [pc, #364]	; (1043d4 <_GLOBAL__sub_I_TOUCH_LC717A00_mode+0x1e4>)
  104266:	4d5c      	ldr	r5, [pc, #368]	; (1043d8 <_GLOBAL__sub_I_TOUCH_LC717A00_mode+0x1e8>)
  104268:	f005 f8a9 	bl	1093be <__aeabi_atexit>
  10426c:	485b      	ldr	r0, [pc, #364]	; (1043dc <_GLOBAL__sub_I_TOUCH_LC717A00_mode+0x1ec>)
  10426e:	f005 fab9 	bl	1097e4 <rtos::Mutex::Mutex()>
  104272:	f04f 36ff 	mov.w	r6, #4294967295
  104276:	4a51      	ldr	r2, [pc, #324]	; (1043bc <_GLOBAL__sub_I_TOUCH_LC717A00_mode+0x1cc>)
  104278:	4959      	ldr	r1, [pc, #356]	; (1043e0 <_GLOBAL__sub_I_TOUCH_LC717A00_mode+0x1f0>)
  10427a:	4858      	ldr	r0, [pc, #352]	; (1043dc <_GLOBAL__sub_I_TOUCH_LC717A00_mode+0x1ec>)
  10427c:	f005 f89f 	bl	1093be <__aeabi_atexit>
  104280:	2304      	movs	r3, #4
  104282:	2206      	movs	r2, #6
  104284:	9600      	str	r6, [sp, #0]
  104286:	2105      	movs	r1, #5
  104288:	4628      	mov	r0, r5
  10428a:	f004 fc5b 	bl	108b44 <mbed::SPI::SPI(PinName, PinName, PinName, PinName)>
  10428e:	4631      	mov	r1, r6
  104290:	f105 002c 	add.w	r0, r5, #44	; 0x2c
  104294:	62ec      	str	r4, [r5, #44]	; 0x2c
  104296:	f885 4030 	strb.w	r4, [r5, #48]	; 0x30
  10429a:	636c      	str	r4, [r5, #52]	; 0x34
  10429c:	f000 ff3c 	bl	105118 <gpio_init_out>
  1042a0:	2320      	movs	r3, #32
  1042a2:	9600      	str	r6, [sp, #0]
  1042a4:	2202      	movs	r2, #2
  1042a6:	2103      	movs	r1, #3
  1042a8:	f105 0040 	add.w	r0, r5, #64	; 0x40
  1042ac:	f000 fb78 	bl	1049a0 <PCA9655E::PCA9655E(PinName, PinName, unsigned char, PinName)>
  1042b0:	4a42      	ldr	r2, [pc, #264]	; (1043bc <_GLOBAL__sub_I_TOUCH_LC717A00_mode+0x1cc>)
  1042b2:	494c      	ldr	r1, [pc, #304]	; (1043e4 <_GLOBAL__sub_I_TOUCH_LC717A00_mode+0x1f4>)
  1042b4:	4628      	mov	r0, r5
  1042b6:	f005 f882 	bl	1093be <__aeabi_atexit>
  1042ba:	484b      	ldr	r0, [pc, #300]	; (1043e8 <_GLOBAL__sub_I_TOUCH_LC717A00_mode+0x1f8>)
  1042bc:	f7ff fb88 	bl	1039d0 <GPS::GPS()>
  1042c0:	4a3e      	ldr	r2, [pc, #248]	; (1043bc <_GLOBAL__sub_I_TOUCH_LC717A00_mode+0x1cc>)
  1042c2:	494a      	ldr	r1, [pc, #296]	; (1043ec <_GLOBAL__sub_I_TOUCH_LC717A00_mode+0x1fc>)
  1042c4:	4848      	ldr	r0, [pc, #288]	; (1043e8 <_GLOBAL__sub_I_TOUCH_LC717A00_mode+0x1f8>)
  1042c6:	f005 f87a 	bl	1093be <__aeabi_atexit>
  1042ca:	4849      	ldr	r0, [pc, #292]	; (1043f0 <_GLOBAL__sub_I_TOUCH_LC717A00_mode+0x200>)
  1042cc:	f7ff fe20 	bl	103f10 <GSM::GSM()>
  1042d0:	4a3a      	ldr	r2, [pc, #232]	; (1043bc <_GLOBAL__sub_I_TOUCH_LC717A00_mode+0x1cc>)
  1042d2:	4948      	ldr	r1, [pc, #288]	; (1043f4 <_GLOBAL__sub_I_TOUCH_LC717A00_mode+0x204>)
  1042d4:	4846      	ldr	r0, [pc, #280]	; (1043f0 <_GLOBAL__sub_I_TOUCH_LC717A00_mode+0x200>)
  1042d6:	f005 f872 	bl	1093be <__aeabi_atexit>
  1042da:	2111      	movs	r1, #17
  1042dc:	4846      	ldr	r0, [pc, #280]	; (1043f8 <_GLOBAL__sub_I_TOUCH_LC717A00_mode+0x208>)
  1042de:	f004 faf3 	bl	1088c8 <mbed::InterruptIn::InterruptIn(PinName)>
  1042e2:	4a36      	ldr	r2, [pc, #216]	; (1043bc <_GLOBAL__sub_I_TOUCH_LC717A00_mode+0x1cc>)
  1042e4:	4945      	ldr	r1, [pc, #276]	; (1043fc <_GLOBAL__sub_I_TOUCH_LC717A00_mode+0x20c>)
  1042e6:	4844      	ldr	r0, [pc, #272]	; (1043f8 <_GLOBAL__sub_I_TOUCH_LC717A00_mode+0x208>)
  1042e8:	f005 f869 	bl	1093be <__aeabi_atexit>
  1042ec:	4844      	ldr	r0, [pc, #272]	; (104400 <_GLOBAL__sub_I_TOUCH_LC717A00_mode+0x210>)
  1042ee:	f7fe f88b 	bl	102408 <Accelerometer::Accelerometer()>
  1042f2:	4a32      	ldr	r2, [pc, #200]	; (1043bc <_GLOBAL__sub_I_TOUCH_LC717A00_mode+0x1cc>)
  1042f4:	4943      	ldr	r1, [pc, #268]	; (104404 <_GLOBAL__sub_I_TOUCH_LC717A00_mode+0x214>)
  1042f6:	4842      	ldr	r0, [pc, #264]	; (104400 <_GLOBAL__sub_I_TOUCH_LC717A00_mode+0x210>)
  1042f8:	f005 f861 	bl	1093be <__aeabi_atexit>
  1042fc:	4842      	ldr	r0, [pc, #264]	; (104408 <_GLOBAL__sub_I_TOUCH_LC717A00_mode+0x218>)
  1042fe:	f7fe faab 	bl	102858 <mbed::Ticker::Ticker()>
  104302:	4a2e      	ldr	r2, [pc, #184]	; (1043bc <_GLOBAL__sub_I_TOUCH_LC717A00_mode+0x1cc>)
  104304:	4941      	ldr	r1, [pc, #260]	; (10440c <_GLOBAL__sub_I_TOUCH_LC717A00_mode+0x21c>)
  104306:	4840      	ldr	r0, [pc, #256]	; (104408 <_GLOBAL__sub_I_TOUCH_LC717A00_mode+0x218>)
  104308:	f005 f859 	bl	1093be <__aeabi_atexit>
  10430c:	4840      	ldr	r0, [pc, #256]	; (104410 <_GLOBAL__sub_I_TOUCH_LC717A00_mode+0x220>)
  10430e:	4a2b      	ldr	r2, [pc, #172]	; (1043bc <_GLOBAL__sub_I_TOUCH_LC717A00_mode+0x1cc>)
  104310:	f100 0308 	add.w	r3, r0, #8
  104314:	e880 0018 	stmia.w	r0, {r3, r4}
  104318:	4929      	ldr	r1, [pc, #164]	; (1043c0 <_GLOBAL__sub_I_TOUCH_LC717A00_mode+0x1d0>)
  10431a:	7204      	strb	r4, [r0, #8]
  10431c:	f005 f84f 	bl	1093be <__aeabi_atexit>
  104320:	483c      	ldr	r0, [pc, #240]	; (104414 <_GLOBAL__sub_I_TOUCH_LC717A00_mode+0x224>)
  104322:	f7fe fa99 	bl	102858 <mbed::Ticker::Ticker()>
  104326:	4a25      	ldr	r2, [pc, #148]	; (1043bc <_GLOBAL__sub_I_TOUCH_LC717A00_mode+0x1cc>)
  104328:	4938      	ldr	r1, [pc, #224]	; (10440c <_GLOBAL__sub_I_TOUCH_LC717A00_mode+0x21c>)
  10432a:	483a      	ldr	r0, [pc, #232]	; (104414 <_GLOBAL__sub_I_TOUCH_LC717A00_mode+0x224>)
  10432c:	f005 f847 	bl	1093be <__aeabi_atexit>
  104330:	4839      	ldr	r0, [pc, #228]	; (104418 <_GLOBAL__sub_I_TOUCH_LC717A00_mode+0x228>)
  104332:	2111      	movs	r1, #17
  104334:	6004      	str	r4, [r0, #0]
  104336:	7104      	strb	r4, [r0, #4]
  104338:	6084      	str	r4, [r0, #8]
  10433a:	f000 fec6 	bl	1050ca <gpio_init_in>
  10433e:	4837      	ldr	r0, [pc, #220]	; (10441c <_GLOBAL__sub_I_TOUCH_LC717A00_mode+0x22c>)
  104340:	2107      	movs	r1, #7
  104342:	6004      	str	r4, [r0, #0]
  104344:	7104      	strb	r4, [r0, #4]
  104346:	6084      	str	r4, [r0, #8]
  104348:	f000 febf 	bl	1050ca <gpio_init_in>
  10434c:	4834      	ldr	r0, [pc, #208]	; (104420 <_GLOBAL__sub_I_TOUCH_LC717A00_mode+0x230>)
  10434e:	f7fe fa83 	bl	102858 <mbed::Ticker::Ticker()>
  104352:	4a1a      	ldr	r2, [pc, #104]	; (1043bc <_GLOBAL__sub_I_TOUCH_LC717A00_mode+0x1cc>)
  104354:	492d      	ldr	r1, [pc, #180]	; (10440c <_GLOBAL__sub_I_TOUCH_LC717A00_mode+0x21c>)
  104356:	4832      	ldr	r0, [pc, #200]	; (104420 <_GLOBAL__sub_I_TOUCH_LC717A00_mode+0x230>)
  104358:	f005 f831 	bl	1093be <__aeabi_atexit>
  10435c:	4831      	ldr	r0, [pc, #196]	; (104424 <_GLOBAL__sub_I_TOUCH_LC717A00_mode+0x234>)
  10435e:	f7fe fa7b 	bl	102858 <mbed::Ticker::Ticker()>
  104362:	4a16      	ldr	r2, [pc, #88]	; (1043bc <_GLOBAL__sub_I_TOUCH_LC717A00_mode+0x1cc>)
  104364:	4929      	ldr	r1, [pc, #164]	; (10440c <_GLOBAL__sub_I_TOUCH_LC717A00_mode+0x21c>)
  104366:	482f      	ldr	r0, [pc, #188]	; (104424 <_GLOBAL__sub_I_TOUCH_LC717A00_mode+0x234>)
  104368:	f005 f829 	bl	1093be <__aeabi_atexit>
  10436c:	482e      	ldr	r0, [pc, #184]	; (104428 <_GLOBAL__sub_I_TOUCH_LC717A00_mode+0x238>)
  10436e:	f7fe fa73 	bl	102858 <mbed::Ticker::Ticker()>
  104372:	4a12      	ldr	r2, [pc, #72]	; (1043bc <_GLOBAL__sub_I_TOUCH_LC717A00_mode+0x1cc>)
  104374:	4925      	ldr	r1, [pc, #148]	; (10440c <_GLOBAL__sub_I_TOUCH_LC717A00_mode+0x21c>)
  104376:	482c      	ldr	r0, [pc, #176]	; (104428 <_GLOBAL__sub_I_TOUCH_LC717A00_mode+0x238>)
  104378:	f005 f821 	bl	1093be <__aeabi_atexit>
  10437c:	482b      	ldr	r0, [pc, #172]	; (10442c <_GLOBAL__sub_I_TOUCH_LC717A00_mode+0x23c>)
  10437e:	f7fe fa6b 	bl	102858 <mbed::Ticker::Ticker()>
  104382:	4a0e      	ldr	r2, [pc, #56]	; (1043bc <_GLOBAL__sub_I_TOUCH_LC717A00_mode+0x1cc>)
  104384:	4921      	ldr	r1, [pc, #132]	; (10440c <_GLOBAL__sub_I_TOUCH_LC717A00_mode+0x21c>)
  104386:	4829      	ldr	r0, [pc, #164]	; (10442c <_GLOBAL__sub_I_TOUCH_LC717A00_mode+0x23c>)
  104388:	f005 f819 	bl	1093be <__aeabi_atexit>
  10438c:	4828      	ldr	r0, [pc, #160]	; (104430 <_GLOBAL__sub_I_TOUCH_LC717A00_mode+0x240>)
  10438e:	f7fe fa63 	bl	102858 <mbed::Ticker::Ticker()>
  104392:	4a0a      	ldr	r2, [pc, #40]	; (1043bc <_GLOBAL__sub_I_TOUCH_LC717A00_mode+0x1cc>)
  104394:	491d      	ldr	r1, [pc, #116]	; (10440c <_GLOBAL__sub_I_TOUCH_LC717A00_mode+0x21c>)
  104396:	4826      	ldr	r0, [pc, #152]	; (104430 <_GLOBAL__sub_I_TOUCH_LC717A00_mode+0x240>)
  104398:	f005 f811 	bl	1093be <__aeabi_atexit>
  10439c:	4825      	ldr	r0, [pc, #148]	; (104434 <_GLOBAL__sub_I_TOUCH_LC717A00_mode+0x244>)
  10439e:	f7fe fa5b 	bl	102858 <mbed::Ticker::Ticker()>
  1043a2:	4a06      	ldr	r2, [pc, #24]	; (1043bc <_GLOBAL__sub_I_TOUCH_LC717A00_mode+0x1cc>)
  1043a4:	4919      	ldr	r1, [pc, #100]	; (10440c <_GLOBAL__sub_I_TOUCH_LC717A00_mode+0x21c>)
  1043a6:	4823      	ldr	r0, [pc, #140]	; (104434 <_GLOBAL__sub_I_TOUCH_LC717A00_mode+0x244>)
  1043a8:	b002      	add	sp, #8
  1043aa:	e8bd 4070 	ldmia.w	sp!, {r4, r5, r6, lr}
  1043ae:	f005 b806 	b.w	1093be <__aeabi_atexit>
  1043b2:	bf00      	nop
  1043b4:	00111a2d 	.word	0x00111a2d
  1043b8:	3fff81f0 	.word	0x3fff81f0
  1043bc:	3fff40a0 	.word	0x3fff40a0
  1043c0:	00109aaf 	.word	0x00109aaf
  1043c4:	3fff8aec 	.word	0x3fff8aec
  1043c8:	0010417d 	.word	0x0010417d
  1043cc:	3fff8278 	.word	0x3fff8278
  1043d0:	3fff84a8 	.word	0x3fff84a8
  1043d4:	3fff8530 	.word	0x3fff8530
  1043d8:	3fff840c 	.word	0x3fff840c
  1043dc:	3fff8590 	.word	0x3fff8590
  1043e0:	001097ff 	.word	0x001097ff
  1043e4:	00102165 	.word	0x00102165
  1043e8:	3fff85c0 	.word	0x3fff85c0
  1043ec:	00103591 	.word	0x00103591
  1043f0:	3fff829c 	.word	0x3fff829c
  1043f4:	00103bd9 	.word	0x00103bd9
  1043f8:	3fff836c 	.word	0x3fff836c
  1043fc:	0010888d 	.word	0x0010888d
  104400:	3fff83f8 	.word	0x3fff83f8
  104404:	00102137 	.word	0x00102137
  104408:	3fff8c68 	.word	0x3fff8c68
  10440c:	00102175 	.word	0x00102175
  104410:	3fff83a8 	.word	0x3fff83a8
  104414:	3fff83c0 	.word	0x3fff83c0
  104418:	3fff8290 	.word	0x3fff8290
  10441c:	3fff8548 	.word	0x3fff8548
  104420:	3fff8558 	.word	0x3fff8558
  104424:	3fff8240 	.word	0x3fff8240
  104428:	3fff84c0 	.word	0x3fff84c0
  10442c:	3fff84f8 	.word	0x3fff84f8
  104430:	3fff8208 	.word	0x3fff8208
  104434:	3fff8ca0 	.word	0x3fff8ca0

00104438 <__tcf_0>:
  104438:	b538      	push	{r3, r4, r5, lr}
  10443a:	4d06      	ldr	r5, [pc, #24]	; (104454 <__tcf_0+0x1c>)
  10443c:	2400      	movs	r4, #0
  10443e:	f504 70b4 	add.w	r0, r4, #360	; 0x168
  104442:	4428      	add	r0, r5
  104444:	3c18      	subs	r4, #24
  104446:	f005 fa91 	bl	10996c <std::__cxx11::basic_string<char, std::char_traits<char>, std::allocator<char> >::_M_dispose()>
  10444a:	f514 7fc0 	cmn.w	r4, #384	; 0x180
  10444e:	d1f6      	bne.n	10443e <__tcf_0+0x6>
  104450:	bd38      	pop	{r3, r4, r5, pc}
  104452:	bf00      	nop
  104454:	3fff8cd8 	.word	0x3fff8cd8

00104458 <std::__cxx11::basic_string<char, std::char_traits<char>, std::allocator<char> >::basic_string(char const*, std::allocator<char> const&) [clone .isra.14] [clone .constprop.16]>:
  104458:	b510      	push	{r4, lr}
  10445a:	4604      	mov	r4, r0
  10445c:	4a05      	ldr	r2, [pc, #20]	; (104474 <std::__cxx11::basic_string<char, std::char_traits<char>, std::allocator<char> >::basic_string(char const*, std::allocator<char> const&) [clone .isra.14] [clone .constprop.16]+0x1c>)
  10445e:	3008      	adds	r0, #8
  104460:	6020      	str	r0, [r4, #0]
  104462:	4611      	mov	r1, r2
  104464:	f005 faca 	bl	1099fc <std::__cxx11::basic_string<char, std::char_traits<char>, std::allocator<char> >::_S_copy_chars(char*, char const*, char const*)>
  104468:	6822      	ldr	r2, [r4, #0]
  10446a:	2300      	movs	r3, #0
  10446c:	6063      	str	r3, [r4, #4]
  10446e:	7013      	strb	r3, [r2, #0]
  104470:	4620      	mov	r0, r4
  104472:	bd10      	pop	{r4, pc}
  104474:	00111a2d 	.word	0x00111a2d

00104478 <_GLOBAL__sub_I_TOUCH_LC717A00_mode>:
  104478:	b508      	push	{r3, lr}
  10447a:	4820      	ldr	r0, [pc, #128]	; (1044fc <_GLOBAL__sub_I_TOUCH_LC717A00_mode+0x84>)
  10447c:	f7ff ffec 	bl	104458 <std::__cxx11::basic_string<char, std::char_traits<char>, std::allocator<char> >::basic_string(char const*, std::allocator<char> const&) [clone .isra.14] [clone .constprop.16]>
  104480:	4a1f      	ldr	r2, [pc, #124]	; (104500 <_GLOBAL__sub_I_TOUCH_LC717A00_mode+0x88>)
  104482:	4920      	ldr	r1, [pc, #128]	; (104504 <_GLOBAL__sub_I_TOUCH_LC717A00_mode+0x8c>)
  104484:	481d      	ldr	r0, [pc, #116]	; (1044fc <_GLOBAL__sub_I_TOUCH_LC717A00_mode+0x84>)
  104486:	f004 ff9a 	bl	1093be <__aeabi_atexit>
  10448a:	4b1f      	ldr	r3, [pc, #124]	; (104508 <_GLOBAL__sub_I_TOUCH_LC717A00_mode+0x90>)
  10448c:	2200      	movs	r2, #0
  10448e:	f503 70c0 	add.w	r0, r3, #384	; 0x180
  104492:	4619      	mov	r1, r3
  104494:	f843 2c04 	str.w	r2, [r3, #-4]
  104498:	f843 3c08 	str.w	r3, [r3, #-8]
  10449c:	f801 2b18 	strb.w	r2, [r1], #24
  1044a0:	6119      	str	r1, [r3, #16]
  1044a2:	615a      	str	r2, [r3, #20]
  1044a4:	761a      	strb	r2, [r3, #24]
  1044a6:	3330      	adds	r3, #48	; 0x30
  1044a8:	4283      	cmp	r3, r0
  1044aa:	d1f2      	bne.n	104492 <_GLOBAL__sub_I_TOUCH_LC717A00_mode+0x1a>
  1044ac:	4a14      	ldr	r2, [pc, #80]	; (104500 <_GLOBAL__sub_I_TOUCH_LC717A00_mode+0x88>)
  1044ae:	4917      	ldr	r1, [pc, #92]	; (10450c <_GLOBAL__sub_I_TOUCH_LC717A00_mode+0x94>)
  1044b0:	2000      	movs	r0, #0
  1044b2:	f004 ff84 	bl	1093be <__aeabi_atexit>
  1044b6:	4816      	ldr	r0, [pc, #88]	; (104510 <_GLOBAL__sub_I_TOUCH_LC717A00_mode+0x98>)
  1044b8:	f7ff ffce 	bl	104458 <std::__cxx11::basic_string<char, std::char_traits<char>, std::allocator<char> >::basic_string(char const*, std::allocator<char> const&) [clone .isra.14] [clone .constprop.16]>
  1044bc:	4a10      	ldr	r2, [pc, #64]	; (104500 <_GLOBAL__sub_I_TOUCH_LC717A00_mode+0x88>)
  1044be:	4911      	ldr	r1, [pc, #68]	; (104504 <_GLOBAL__sub_I_TOUCH_LC717A00_mode+0x8c>)
  1044c0:	4813      	ldr	r0, [pc, #76]	; (104510 <_GLOBAL__sub_I_TOUCH_LC717A00_mode+0x98>)
  1044c2:	f004 ff7c 	bl	1093be <__aeabi_atexit>
  1044c6:	4813      	ldr	r0, [pc, #76]	; (104514 <_GLOBAL__sub_I_TOUCH_LC717A00_mode+0x9c>)
  1044c8:	f7ff ffc6 	bl	104458 <std::__cxx11::basic_string<char, std::char_traits<char>, std::allocator<char> >::basic_string(char const*, std::allocator<char> const&) [clone .isra.14] [clone .constprop.16]>
  1044cc:	4a0c      	ldr	r2, [pc, #48]	; (104500 <_GLOBAL__sub_I_TOUCH_LC717A00_mode+0x88>)
  1044ce:	490d      	ldr	r1, [pc, #52]	; (104504 <_GLOBAL__sub_I_TOUCH_LC717A00_mode+0x8c>)
  1044d0:	4810      	ldr	r0, [pc, #64]	; (104514 <_GLOBAL__sub_I_TOUCH_LC717A00_mode+0x9c>)
  1044d2:	f004 ff74 	bl	1093be <__aeabi_atexit>
  1044d6:	4810      	ldr	r0, [pc, #64]	; (104518 <_GLOBAL__sub_I_TOUCH_LC717A00_mode+0xa0>)
  1044d8:	f7ff ffbe 	bl	104458 <std::__cxx11::basic_string<char, std::char_traits<char>, std::allocator<char> >::basic_string(char const*, std::allocator<char> const&) [clone .isra.14] [clone .constprop.16]>
  1044dc:	4a08      	ldr	r2, [pc, #32]	; (104500 <_GLOBAL__sub_I_TOUCH_LC717A00_mode+0x88>)
  1044de:	4909      	ldr	r1, [pc, #36]	; (104504 <_GLOBAL__sub_I_TOUCH_LC717A00_mode+0x8c>)
  1044e0:	480d      	ldr	r0, [pc, #52]	; (104518 <_GLOBAL__sub_I_TOUCH_LC717A00_mode+0xa0>)
  1044e2:	f004 ff6c 	bl	1093be <__aeabi_atexit>
  1044e6:	480d      	ldr	r0, [pc, #52]	; (10451c <_GLOBAL__sub_I_TOUCH_LC717A00_mode+0xa4>)
  1044e8:	f005 f97c 	bl	1097e4 <rtos::Mutex::Mutex()>
  1044ec:	e8bd 4008 	ldmia.w	sp!, {r3, lr}
  1044f0:	4a03      	ldr	r2, [pc, #12]	; (104500 <_GLOBAL__sub_I_TOUCH_LC717A00_mode+0x88>)
  1044f2:	490b      	ldr	r1, [pc, #44]	; (104520 <_GLOBAL__sub_I_TOUCH_LC717A00_mode+0xa8>)
  1044f4:	4809      	ldr	r0, [pc, #36]	; (10451c <_GLOBAL__sub_I_TOUCH_LC717A00_mode+0xa4>)
  1044f6:	f004 bf62 	b.w	1093be <__aeabi_atexit>
  1044fa:	bf00      	nop
  1044fc:	3fff8e58 	.word	0x3fff8e58
  104500:	3fff40a0 	.word	0x3fff40a0
  104504:	00109aaf 	.word	0x00109aaf
  104508:	3fff8ce0 	.word	0x3fff8ce0
  10450c:	00104439 	.word	0x00104439
  104510:	3fff8e88 	.word	0x3fff8e88
  104514:	3fff8e70 	.word	0x3fff8e70
  104518:	3fff8ed0 	.word	0x3fff8ed0
  10451c:	3fff8ea0 	.word	0x3fff8ea0
  104520:	001097ff 	.word	0x001097ff

00104524 <__tcf_0>:
  104524:	b538      	push	{r3, r4, r5, lr}
  104526:	4d06      	ldr	r5, [pc, #24]	; (104540 <__tcf_0+0x1c>)
  104528:	2400      	movs	r4, #0
  10452a:	f504 70b4 	add.w	r0, r4, #360	; 0x168
  10452e:	4428      	add	r0, r5
  104530:	3c18      	subs	r4, #24
  104532:	f005 fa1b 	bl	10996c <std::__cxx11::basic_string<char, std::char_traits<char>, std::allocator<char> >::_M_dispose()>
  104536:	f514 7fc0 	cmn.w	r4, #384	; 0x180
  10453a:	d1f6      	bne.n	10452a <__tcf_0+0x6>
  10453c:	bd38      	pop	{r3, r4, r5, pc}
  10453e:	bf00      	nop
  104540:	3fff8ee8 	.word	0x3fff8ee8

00104544 <std::__cxx11::basic_string<char, std::char_traits<char>, std::allocator<char> >::basic_string(char const*, std::allocator<char> const&) [clone .isra.16] [clone .constprop.18]>:
  104544:	b510      	push	{r4, lr}
  104546:	4604      	mov	r4, r0
  104548:	4a05      	ldr	r2, [pc, #20]	; (104560 <std::__cxx11::basic_string<char, std::char_traits<char>, std::allocator<char> >::basic_string(char const*, std::allocator<char> const&) [clone .isra.16] [clone .constprop.18]+0x1c>)
  10454a:	3008      	adds	r0, #8
  10454c:	6020      	str	r0, [r4, #0]
  10454e:	4611      	mov	r1, r2
  104550:	f005 fa54 	bl	1099fc <std::__cxx11::basic_string<char, std::char_traits<char>, std::allocator<char> >::_S_copy_chars(char*, char const*, char const*)>
  104554:	6822      	ldr	r2, [r4, #0]
  104556:	2300      	movs	r3, #0
  104558:	6063      	str	r3, [r4, #4]
  10455a:	7013      	strb	r3, [r2, #0]
  10455c:	4620      	mov	r0, r4
  10455e:	bd10      	pop	{r4, pc}
  104560:	00111a2d 	.word	0x00111a2d

00104564 <IRQ_GSM_ReadUART()>:
  104564:	b508      	push	{r3, lr}
  104566:	480a      	ldr	r0, [pc, #40]	; (104590 <IRQ_GSM_ReadUART()+0x2c>)
  104568:	f004 fbc0 	bl	108cec <mbed::Ticker::detach()>
  10456c:	4809      	ldr	r0, [pc, #36]	; (104594 <IRQ_GSM_ReadUART()+0x30>)
  10456e:	f004 fa67 	bl	108a40 <mbed::SerialBase::readable()>
  104572:	b130      	cbz	r0, 104582 <IRQ_GSM_ReadUART()+0x1e>
  104574:	e8bd 4008 	ldmia.w	sp!, {r3, lr}
  104578:	4a07      	ldr	r2, [pc, #28]	; (104598 <IRQ_GSM_ReadUART()+0x34>)
  10457a:	4908      	ldr	r1, [pc, #32]	; (10459c <IRQ_GSM_ReadUART()+0x38>)
  10457c:	4808      	ldr	r0, [pc, #32]	; (1045a0 <IRQ_GSM_ReadUART()+0x3c>)
  10457e:	f005 b8e6 	b.w	10974e <mbed::Stream::scanf(char const*, ...)>
  104582:	2232      	movs	r2, #50	; 0x32
  104584:	2120      	movs	r1, #32
  104586:	4804      	ldr	r0, [pc, #16]	; (104598 <IRQ_GSM_ReadUART()+0x34>)
  104588:	e8bd 4008 	ldmia.w	sp!, {r3, lr}
  10458c:	f007 ba6a 	b.w	10ba64 <memset>
  104590:	3fff96c0 	.word	0x3fff96c0
  104594:	3fff914c 	.word	0x3fff914c
  104598:	3fff91c8 	.word	0x3fff91c8
  10459c:	00110ce2 	.word	0x00110ce2
  1045a0:	3fff9180 	.word	0x3fff9180

001045a4 <IRQ_ReadUART()>:
  1045a4:	b508      	push	{r3, lr}
  1045a6:	4808      	ldr	r0, [pc, #32]	; (1045c8 <IRQ_ReadUART()+0x24>)
  1045a8:	f004 fa4a 	bl	108a40 <mbed::SerialBase::readable()>
  1045ac:	b120      	cbz	r0, 1045b8 <IRQ_ReadUART()+0x14>
  1045ae:	4a07      	ldr	r2, [pc, #28]	; (1045cc <IRQ_ReadUART()+0x28>)
  1045b0:	4907      	ldr	r1, [pc, #28]	; (1045d0 <IRQ_ReadUART()+0x2c>)
  1045b2:	4808      	ldr	r0, [pc, #32]	; (1045d4 <IRQ_ReadUART()+0x30>)
  1045b4:	f005 f8cb 	bl	10974e <mbed::Stream::scanf(char const*, ...)>
  1045b8:	200a      	movs	r0, #10
  1045ba:	f005 f813 	bl	1095e4 <wait_ms>
  1045be:	e8bd 4008 	ldmia.w	sp!, {r3, lr}
  1045c2:	4805      	ldr	r0, [pc, #20]	; (1045d8 <IRQ_ReadUART()+0x34>)
  1045c4:	f004 bb92 	b.w	108cec <mbed::Ticker::detach()>
  1045c8:	3fff914c 	.word	0x3fff914c
  1045cc:	3fff91c8 	.word	0x3fff91c8
  1045d0:	00110ce2 	.word	0x00110ce2
  1045d4:	3fff9180 	.word	0x3fff9180
  1045d8:	3fff96c0 	.word	0x3fff96c0

001045dc <Read_UART_scanf()>:
  1045dc:	4a02      	ldr	r2, [pc, #8]	; (1045e8 <Read_UART_scanf()+0xc>)
  1045de:	4903      	ldr	r1, [pc, #12]	; (1045ec <Read_UART_scanf()+0x10>)
  1045e0:	4803      	ldr	r0, [pc, #12]	; (1045f0 <Read_UART_scanf()+0x14>)
  1045e2:	f005 b8b4 	b.w	10974e <mbed::Stream::scanf(char const*, ...)>
  1045e6:	bf00      	nop
  1045e8:	3fff91c8 	.word	0x3fff91c8
  1045ec:	00110d02 	.word	0x00110d02
  1045f0:	3fff9180 	.word	0x3fff9180

001045f4 <Reading_UART(char*)>:
  1045f4:	4602      	mov	r2, r0
  1045f6:	4902      	ldr	r1, [pc, #8]	; (104600 <Reading_UART(char*)+0xc>)
  1045f8:	4802      	ldr	r0, [pc, #8]	; (104604 <Reading_UART(char*)+0x10>)
  1045fa:	f005 b8a8 	b.w	10974e <mbed::Stream::scanf(char const*, ...)>
  1045fe:	bf00      	nop
  104600:	00110ce2 	.word	0x00110ce2
  104604:	3fff9180 	.word	0x3fff9180

00104608 <Send_UART(char*)>:
  104608:	b508      	push	{r3, lr}
  10460a:	4602      	mov	r2, r0
  10460c:	4902      	ldr	r1, [pc, #8]	; (104618 <Send_UART(char*)+0x10>)
  10460e:	4803      	ldr	r0, [pc, #12]	; (10461c <Send_UART(char*)+0x14>)
  104610:	f005 f880 	bl	109714 <mbed::Stream::printf(char const*, ...)>
  104614:	2000      	movs	r0, #0
  104616:	bd08      	pop	{r3, pc}
  104618:	00110c87 	.word	0x00110c87
  10461c:	3fff9180 	.word	0x3fff9180

00104620 <uart_IsReadable()>:
  104620:	b508      	push	{r3, lr}
  104622:	4803      	ldr	r0, [pc, #12]	; (104630 <uart_IsReadable()+0x10>)
  104624:	f004 fa0c 	bl	108a40 <mbed::SerialBase::readable()>
  104628:	3000      	adds	r0, #0
  10462a:	bf18      	it	ne
  10462c:	2001      	movne	r0, #1
  10462e:	bd08      	pop	{r3, pc}
  104630:	3fff914c 	.word	0x3fff914c

00104634 <Send_UART_nonPrintableChar(int*, int)>:
  104634:	b570      	push	{r4, r5, r6, lr}
  104636:	4605      	mov	r5, r0
  104638:	460e      	mov	r6, r1
  10463a:	2400      	movs	r4, #0
  10463c:	42b4      	cmp	r4, r6
  10463e:	dc07      	bgt.n	104650 <Send_UART_nonPrintableChar(int*, int)+0x1c>
  104640:	f855 2024 	ldr.w	r2, [r5, r4, lsl #2]
  104644:	4906      	ldr	r1, [pc, #24]	; (104660 <Send_UART_nonPrintableChar(int*, int)+0x2c>)
  104646:	4807      	ldr	r0, [pc, #28]	; (104664 <Send_UART_nonPrintableChar(int*, int)+0x30>)
  104648:	f005 f864 	bl	109714 <mbed::Stream::printf(char const*, ...)>
  10464c:	3401      	adds	r4, #1
  10464e:	e7f5      	b.n	10463c <Send_UART_nonPrintableChar(int*, int)+0x8>
  104650:	220d      	movs	r2, #13
  104652:	4905      	ldr	r1, [pc, #20]	; (104668 <Send_UART_nonPrintableChar(int*, int)+0x34>)
  104654:	4803      	ldr	r0, [pc, #12]	; (104664 <Send_UART_nonPrintableChar(int*, int)+0x30>)
  104656:	f005 f85d 	bl	109714 <mbed::Stream::printf(char const*, ...)>
  10465a:	2000      	movs	r0, #0
  10465c:	bd70      	pop	{r4, r5, r6, pc}
  10465e:	bf00      	nop
  104660:	00110d0b 	.word	0x00110d0b
  104664:	3fff9180 	.word	0x3fff9180
  104668:	00110bfa 	.word	0x00110bfa

0010466c <Take_dataUART(char*)>:
  10466c:	4901      	ldr	r1, [pc, #4]	; (104674 <Take_dataUART(char*)+0x8>)
  10466e:	f008 bf34 	b.w	10d4da <strcpy>
  104672:	bf00      	nop
  104674:	3fff91c8 	.word	0x3fff91c8

00104678 <mbed::Callback<void ()>::operator=(mbed::Callback<void ()> const&)>:
  104678:	4288      	cmp	r0, r1
  10467a:	b538      	push	{r3, r4, r5, lr}
  10467c:	4604      	mov	r4, r0
  10467e:	460d      	mov	r5, r1
  104680:	d00a      	beq.n	104698 <mbed::Callback<void ()>::operator=(mbed::Callback<void ()> const&)+0x20>
  104682:	f7fe f94b 	bl	10291c <mbed::Callback<void ()>::~Callback()>
  104686:	b13c      	cbz	r4, 104698 <mbed::Callback<void ()>::operator=(mbed::Callback<void ()> const&)+0x20>
  104688:	68eb      	ldr	r3, [r5, #12]
  10468a:	b11b      	cbz	r3, 104694 <mbed::Callback<void ()>::operator=(mbed::Callback<void ()> const&)+0x1c>
  10468c:	685b      	ldr	r3, [r3, #4]
  10468e:	4629      	mov	r1, r5
  104690:	4620      	mov	r0, r4
  104692:	4798      	blx	r3
  104694:	68eb      	ldr	r3, [r5, #12]
  104696:	60e3      	str	r3, [r4, #12]
  104698:	4620      	mov	r0, r4
  10469a:	bd38      	pop	{r3, r4, r5, pc}

0010469c <Read_UART()>:
  10469c:	b51f      	push	{r0, r1, r2, r3, r4, lr}
  10469e:	4b0a      	ldr	r3, [pc, #40]	; (1046c8 <Read_UART()+0x2c>)
  1046a0:	4c0a      	ldr	r4, [pc, #40]	; (1046cc <Read_UART()+0x30>)
  1046a2:	9300      	str	r3, [sp, #0]
  1046a4:	4b0a      	ldr	r3, [pc, #40]	; (1046d0 <Read_UART()+0x34>)
  1046a6:	4669      	mov	r1, sp
  1046a8:	f104 0028 	add.w	r0, r4, #40	; 0x28
  1046ac:	9303      	str	r3, [sp, #12]
  1046ae:	f7ff ffe3 	bl	104678 <mbed::Callback<void ()>::operator=(mbed::Callback<void ()> const&)>
  1046b2:	220a      	movs	r2, #10
  1046b4:	2300      	movs	r3, #0
  1046b6:	4620      	mov	r0, r4
  1046b8:	f004 fb00 	bl	108cbc <mbed::Ticker::setup(unsigned long long)>
  1046bc:	4668      	mov	r0, sp
  1046be:	f7fe f92d 	bl	10291c <mbed::Callback<void ()>::~Callback()>
  1046c2:	b004      	add	sp, #16
  1046c4:	bd10      	pop	{r4, pc}
  1046c6:	bf00      	nop
  1046c8:	001045a5 	.word	0x001045a5
  1046cc:	3fff96c0 	.word	0x3fff96c0
  1046d0:	00110a98 	.word	0x00110a98

001046d4 <Read_GSM_UART_Wait(float)>:
  1046d4:	b570      	push	{r4, r5, r6, lr}
  1046d6:	4b14      	ldr	r3, [pc, #80]	; (104728 <Read_GSM_UART_Wait(float)+0x54>)
  1046d8:	b08c      	sub	sp, #48	; 0x30
  1046da:	6018      	str	r0, [r3, #0]
  1046dc:	4604      	mov	r4, r0
  1046de:	a804      	add	r0, sp, #16
  1046e0:	f004 fb9c 	bl	108e1c <mbed::Timer::Timer()>
  1046e4:	a804      	add	r0, sp, #16
  1046e6:	f004 fb22 	bl	108d2e <mbed::Timer::start()>
  1046ea:	4e10      	ldr	r6, [pc, #64]	; (10472c <Read_GSM_UART_Wait(float)+0x58>)
  1046ec:	4d10      	ldr	r5, [pc, #64]	; (104730 <Read_GSM_UART_Wait(float)+0x5c>)
  1046ee:	a804      	add	r0, sp, #16
  1046f0:	f004 fba6 	bl	108e40 <mbed::Timer::operator float()>
  1046f4:	4601      	mov	r1, r0
  1046f6:	4620      	mov	r0, r4
  1046f8:	f006 f9f8 	bl	10aaec <__aeabi_fcmpge>
  1046fc:	b170      	cbz	r0, 10471c <Read_GSM_UART_Wait(float)+0x48>
  1046fe:	4669      	mov	r1, sp
  104700:	480c      	ldr	r0, [pc, #48]	; (104734 <Read_GSM_UART_Wait(float)+0x60>)
  104702:	9600      	str	r6, [sp, #0]
  104704:	9503      	str	r5, [sp, #12]
  104706:	f7ff ffb7 	bl	104678 <mbed::Callback<void ()>::operator=(mbed::Callback<void ()> const&)>
  10470a:	220a      	movs	r2, #10
  10470c:	2300      	movs	r3, #0
  10470e:	480a      	ldr	r0, [pc, #40]	; (104738 <Read_GSM_UART_Wait(float)+0x64>)
  104710:	f004 fad4 	bl	108cbc <mbed::Ticker::setup(unsigned long long)>
  104714:	4668      	mov	r0, sp
  104716:	f7fe f901 	bl	10291c <mbed::Callback<void ()>::~Callback()>
  10471a:	e7e8      	b.n	1046ee <Read_GSM_UART_Wait(float)+0x1a>
  10471c:	a804      	add	r0, sp, #16
  10471e:	f004 fb2f 	bl	108d80 <mbed::Timer::stop()>
  104722:	b00c      	add	sp, #48	; 0x30
  104724:	bd70      	pop	{r4, r5, r6, pc}
  104726:	bf00      	nop
  104728:	3fff63fc 	.word	0x3fff63fc
  10472c:	00104565 	.word	0x00104565
  104730:	00110a98 	.word	0x00110a98
  104734:	3fff96e8 	.word	0x3fff96e8
  104738:	3fff96c0 	.word	0x3fff96c0

0010473c <_GLOBAL__sub_I_TOUCH_LC717A00_mode>:
  10473c:	b573      	push	{r0, r1, r4, r5, r6, lr}
  10473e:	483d      	ldr	r0, [pc, #244]	; (104834 <_GLOBAL__sub_I_TOUCH_LC717A00_mode+0xf8>)
  104740:	f7ff ff00 	bl	104544 <std::__cxx11::basic_string<char, std::char_traits<char>, std::allocator<char> >::basic_string(char const*, std::allocator<char> const&) [clone .isra.16] [clone .constprop.18]>
  104744:	4a3c      	ldr	r2, [pc, #240]	; (104838 <_GLOBAL__sub_I_TOUCH_LC717A00_mode+0xfc>)
  104746:	493d      	ldr	r1, [pc, #244]	; (10483c <_GLOBAL__sub_I_TOUCH_LC717A00_mode+0x100>)
  104748:	483a      	ldr	r0, [pc, #232]	; (104834 <_GLOBAL__sub_I_TOUCH_LC717A00_mode+0xf8>)
  10474a:	f004 fe38 	bl	1093be <__aeabi_atexit>
  10474e:	4b3c      	ldr	r3, [pc, #240]	; (104840 <_GLOBAL__sub_I_TOUCH_LC717A00_mode+0x104>)
  104750:	2200      	movs	r2, #0
  104752:	f503 70c0 	add.w	r0, r3, #384	; 0x180
  104756:	4619      	mov	r1, r3
  104758:	f843 2c04 	str.w	r2, [r3, #-4]
  10475c:	f843 3c08 	str.w	r3, [r3, #-8]
  104760:	f801 2b18 	strb.w	r2, [r1], #24
  104764:	6119      	str	r1, [r3, #16]
  104766:	615a      	str	r2, [r3, #20]
  104768:	761a      	strb	r2, [r3, #24]
  10476a:	3330      	adds	r3, #48	; 0x30
  10476c:	4283      	cmp	r3, r0
  10476e:	f04f 0500 	mov.w	r5, #0
  104772:	d1f0      	bne.n	104756 <_GLOBAL__sub_I_TOUCH_LC717A00_mode+0x1a>
  104774:	4a30      	ldr	r2, [pc, #192]	; (104838 <_GLOBAL__sub_I_TOUCH_LC717A00_mode+0xfc>)
  104776:	4933      	ldr	r1, [pc, #204]	; (104844 <_GLOBAL__sub_I_TOUCH_LC717A00_mode+0x108>)
  104778:	4628      	mov	r0, r5
  10477a:	f004 fe20 	bl	1093be <__aeabi_atexit>
  10477e:	4832      	ldr	r0, [pc, #200]	; (104848 <_GLOBAL__sub_I_TOUCH_LC717A00_mode+0x10c>)
  104780:	f7ff fee0 	bl	104544 <std::__cxx11::basic_string<char, std::char_traits<char>, std::allocator<char> >::basic_string(char const*, std::allocator<char> const&) [clone .isra.16] [clone .constprop.18]>
  104784:	4a2c      	ldr	r2, [pc, #176]	; (104838 <_GLOBAL__sub_I_TOUCH_LC717A00_mode+0xfc>)
  104786:	492d      	ldr	r1, [pc, #180]	; (10483c <_GLOBAL__sub_I_TOUCH_LC717A00_mode+0x100>)
  104788:	482f      	ldr	r0, [pc, #188]	; (104848 <_GLOBAL__sub_I_TOUCH_LC717A00_mode+0x10c>)
  10478a:	f004 fe18 	bl	1093be <__aeabi_atexit>
  10478e:	482f      	ldr	r0, [pc, #188]	; (10484c <_GLOBAL__sub_I_TOUCH_LC717A00_mode+0x110>)
  104790:	f7ff fed8 	bl	104544 <std::__cxx11::basic_string<char, std::char_traits<char>, std::allocator<char> >::basic_string(char const*, std::allocator<char> const&) [clone .isra.16] [clone .constprop.18]>
  104794:	4a28      	ldr	r2, [pc, #160]	; (104838 <_GLOBAL__sub_I_TOUCH_LC717A00_mode+0xfc>)
  104796:	4929      	ldr	r1, [pc, #164]	; (10483c <_GLOBAL__sub_I_TOUCH_LC717A00_mode+0x100>)
  104798:	482c      	ldr	r0, [pc, #176]	; (10484c <_GLOBAL__sub_I_TOUCH_LC717A00_mode+0x110>)
  10479a:	f004 fe10 	bl	1093be <__aeabi_atexit>
  10479e:	482c      	ldr	r0, [pc, #176]	; (104850 <_GLOBAL__sub_I_TOUCH_LC717A00_mode+0x114>)
  1047a0:	f7ff fed0 	bl	104544 <std::__cxx11::basic_string<char, std::char_traits<char>, std::allocator<char> >::basic_string(char const*, std::allocator<char> const&) [clone .isra.16] [clone .constprop.18]>
  1047a4:	4a24      	ldr	r2, [pc, #144]	; (104838 <_GLOBAL__sub_I_TOUCH_LC717A00_mode+0xfc>)
  1047a6:	4925      	ldr	r1, [pc, #148]	; (10483c <_GLOBAL__sub_I_TOUCH_LC717A00_mode+0x100>)
  1047a8:	4829      	ldr	r0, [pc, #164]	; (104850 <_GLOBAL__sub_I_TOUCH_LC717A00_mode+0x114>)
  1047aa:	4c2a      	ldr	r4, [pc, #168]	; (104854 <_GLOBAL__sub_I_TOUCH_LC717A00_mode+0x118>)
  1047ac:	f004 fe07 	bl	1093be <__aeabi_atexit>
  1047b0:	4829      	ldr	r0, [pc, #164]	; (104858 <_GLOBAL__sub_I_TOUCH_LC717A00_mode+0x11c>)
  1047b2:	f005 f817 	bl	1097e4 <rtos::Mutex::Mutex()>
  1047b6:	f04f 36ff 	mov.w	r6, #4294967295
  1047ba:	4a1f      	ldr	r2, [pc, #124]	; (104838 <_GLOBAL__sub_I_TOUCH_LC717A00_mode+0xfc>)
  1047bc:	4927      	ldr	r1, [pc, #156]	; (10485c <_GLOBAL__sub_I_TOUCH_LC717A00_mode+0x120>)
  1047be:	4826      	ldr	r0, [pc, #152]	; (104858 <_GLOBAL__sub_I_TOUCH_LC717A00_mode+0x11c>)
  1047c0:	f004 fdfd 	bl	1093be <__aeabi_atexit>
  1047c4:	2304      	movs	r3, #4
  1047c6:	2206      	movs	r2, #6
  1047c8:	9600      	str	r6, [sp, #0]
  1047ca:	2105      	movs	r1, #5
  1047cc:	4620      	mov	r0, r4
  1047ce:	f004 f9b9 	bl	108b44 <mbed::SPI::SPI(PinName, PinName, PinName, PinName)>
  1047d2:	62e5      	str	r5, [r4, #44]	; 0x2c
  1047d4:	f884 5030 	strb.w	r5, [r4, #48]	; 0x30
  1047d8:	6365      	str	r5, [r4, #52]	; 0x34
  1047da:	4631      	mov	r1, r6
  1047dc:	f104 002c 	add.w	r0, r4, #44	; 0x2c
  1047e0:	f000 fc9a 	bl	105118 <gpio_init_out>
  1047e4:	2320      	movs	r3, #32
  1047e6:	9600      	str	r6, [sp, #0]
  1047e8:	2202      	movs	r2, #2
  1047ea:	2103      	movs	r1, #3
  1047ec:	f104 0040 	add.w	r0, r4, #64	; 0x40
  1047f0:	f000 f8d6 	bl	1049a0 <PCA9655E::PCA9655E(PinName, PinName, unsigned char, PinName)>
  1047f4:	4620      	mov	r0, r4
  1047f6:	4c1a      	ldr	r4, [pc, #104]	; (104860 <_GLOBAL__sub_I_TOUCH_LC717A00_mode+0x124>)
  1047f8:	4a0f      	ldr	r2, [pc, #60]	; (104838 <_GLOBAL__sub_I_TOUCH_LC717A00_mode+0xfc>)
  1047fa:	491a      	ldr	r1, [pc, #104]	; (104864 <_GLOBAL__sub_I_TOUCH_LC717A00_mode+0x128>)
  1047fc:	f004 fddf 	bl	1093be <__aeabi_atexit>
  104800:	4620      	mov	r0, r4
  104802:	f004 fb23 	bl	108e4c <mbed::TimerEvent::TimerEvent()>
  104806:	4b18      	ldr	r3, [pc, #96]	; (104868 <_GLOBAL__sub_I_TOUCH_LC717A00_mode+0x12c>)
  104808:	6365      	str	r5, [r4, #52]	; 0x34
  10480a:	4a0b      	ldr	r2, [pc, #44]	; (104838 <_GLOBAL__sub_I_TOUCH_LC717A00_mode+0xfc>)
  10480c:	4917      	ldr	r1, [pc, #92]	; (10486c <_GLOBAL__sub_I_TOUCH_LC717A00_mode+0x130>)
  10480e:	4620      	mov	r0, r4
  104810:	6023      	str	r3, [r4, #0]
  104812:	f004 fdd4 	bl	1093be <__aeabi_atexit>
  104816:	4629      	mov	r1, r5
  104818:	f44f 5316 	mov.w	r3, #9600	; 0x2580
  10481c:	2201      	movs	r2, #1
  10481e:	4814      	ldr	r0, [pc, #80]	; (104870 <_GLOBAL__sub_I_TOUCH_LC717A00_mode+0x134>)
  104820:	f004 f8d8 	bl	1089d4 <mbed::Serial::Serial(PinName, PinName, int)>
  104824:	4a04      	ldr	r2, [pc, #16]	; (104838 <_GLOBAL__sub_I_TOUCH_LC717A00_mode+0xfc>)
  104826:	4913      	ldr	r1, [pc, #76]	; (104874 <_GLOBAL__sub_I_TOUCH_LC717A00_mode+0x138>)
  104828:	4811      	ldr	r0, [pc, #68]	; (104870 <_GLOBAL__sub_I_TOUCH_LC717A00_mode+0x134>)
  10482a:	b002      	add	sp, #8
  10482c:	e8bd 4070 	ldmia.w	sp!, {r4, r5, r6, lr}
  104830:	f004 bdc5 	b.w	1093be <__aeabi_atexit>
  104834:	3fff9104 	.word	0x3fff9104
  104838:	3fff40a0 	.word	0x3fff40a0
  10483c:	00109aaf 	.word	0x00109aaf
  104840:	3fff8ef0 	.word	0x3fff8ef0
  104844:	00104525 	.word	0x00104525
  104848:	3fff9134 	.word	0x3fff9134
  10484c:	3fff911c 	.word	0x3fff911c
  104850:	3fff96a8 	.word	0x3fff96a8
  104854:	3fff9068 	.word	0x3fff9068
  104858:	3fff9678 	.word	0x3fff9678
  10485c:	001097ff 	.word	0x001097ff
  104860:	3fff96c0 	.word	0x3fff96c0
  104864:	00102165 	.word	0x00102165
  104868:	001117d0 	.word	0x001117d0
  10486c:	00102175 	.word	0x00102175
  104870:	3fff914c 	.word	0x3fff914c
  104874:	00103c59 	.word	0x00103c59

00104878 <_start>:
  104878:	4808      	ldr	r0, [pc, #32]	; (10489c <_start+0x24>)
  10487a:	4a09      	ldr	r2, [pc, #36]	; (1048a0 <_start+0x28>)
  10487c:	b508      	push	{r3, lr}
  10487e:	1a12      	subs	r2, r2, r0
  104880:	2100      	movs	r1, #0
  104882:	f007 f8ef 	bl	10ba64 <memset>
  104886:	f000 feb7 	bl	1055f8 <software_init_hook>
  10488a:	f007 f831 	bl	10b8f0 <__libc_init_array>
  10488e:	f002 ff2b 	bl	1076e8 <expReset_AppLedON>
  104892:	f000 fea9 	bl	1055e8 <__wrap_main>
  104896:	f004 fd94 	bl	1093c2 <__wrap_exit>
  10489a:	bf00      	nop
  10489c:	3fff65c0 	.word	0x3fff65c0
  1048a0:	3fffb154 	.word	0x3fffb154

001048a4 <__wrap__isatty>:
  1048a4:	2802      	cmp	r0, #2
  1048a6:	dd01      	ble.n	1048ac <__wrap__isatty+0x8>
  1048a8:	f004 bd10 	b.w	1092cc <_isatty>
  1048ac:	2001      	movs	r0, #1
  1048ae:	4770      	bx	lr

001048b0 <abort>:
  1048b0:	b508      	push	{r3, lr}
  1048b2:	2001      	movs	r0, #1
  1048b4:	f004 fd85 	bl	1093c2 <__wrap_exit>

001048b8 <__cxa_pure_virtual>:
  1048b8:	b508      	push	{r3, lr}
  1048ba:	f7ff fff9 	bl	1048b0 <abort>
	...

001048c0 <LED::LED()>:
  1048c0:	b538      	push	{r3, r4, r5, lr}
  1048c2:	4605      	mov	r5, r0
  1048c4:	4c09      	ldr	r4, [pc, #36]	; (1048ec <LED::LED()+0x2c>)
  1048c6:	490a      	ldr	r1, [pc, #40]	; (1048f0 <LED::LED()+0x30>)
  1048c8:	4620      	mov	r0, r4
  1048ca:	f000 f87d 	bl	1049c8 <PCA9655E::frequency(int)>
  1048ce:	4620      	mov	r0, r4
  1048d0:	2300      	movs	r3, #0
  1048d2:	2202      	movs	r2, #2
  1048d4:	2101      	movs	r1, #1
  1048d6:	f000 f8f7 	bl	104ac8 <PCA9655E::setDirection(Port, signed char, Direction)>
  1048da:	4620      	mov	r0, r4
  1048dc:	2300      	movs	r3, #0
  1048de:	2203      	movs	r2, #3
  1048e0:	2101      	movs	r1, #1
  1048e2:	f000 f8f1 	bl	104ac8 <PCA9655E::setDirection(Port, signed char, Direction)>
  1048e6:	4628      	mov	r0, r5
  1048e8:	bd38      	pop	{r3, r4, r5, pc}
  1048ea:	bf00      	nop
  1048ec:	3fff96f8 	.word	0x3fff96f8
  1048f0:	000f4240 	.word	0x000f4240

001048f4 <LED::ledOn(myLED)>:
  1048f4:	2901      	cmp	r1, #1
  1048f6:	b510      	push	{r4, lr}
  1048f8:	460a      	mov	r2, r1
  1048fa:	d006      	beq.n	10490a <LED::ledOn(myLED)+0x16>
  1048fc:	d302      	bcc.n	104904 <LED::ledOn(myLED)+0x10>
  1048fe:	2902      	cmp	r1, #2
  104900:	d006      	beq.n	104910 <LED::ledOn(myLED)+0x1c>
  104902:	bd10      	pop	{r4, pc}
  104904:	2300      	movs	r3, #0
  104906:	2202      	movs	r2, #2
  104908:	e009      	b.n	10491e <LED::ledOn(myLED)+0x2a>
  10490a:	2300      	movs	r3, #0
  10490c:	2203      	movs	r2, #3
  10490e:	e007      	b.n	104920 <LED::ledOn(myLED)+0x2c>
  104910:	2300      	movs	r3, #0
  104912:	2101      	movs	r1, #1
  104914:	4805      	ldr	r0, [pc, #20]	; (10492c <LED::ledOn(myLED)+0x38>)
  104916:	f000 f8a7 	bl	104a68 <PCA9655E::setValue(Port, signed char, SetVal)>
  10491a:	2300      	movs	r3, #0
  10491c:	2203      	movs	r2, #3
  10491e:	2101      	movs	r1, #1
  104920:	4802      	ldr	r0, [pc, #8]	; (10492c <LED::ledOn(myLED)+0x38>)
  104922:	e8bd 4010 	ldmia.w	sp!, {r4, lr}
  104926:	f000 b89f 	b.w	104a68 <PCA9655E::setValue(Port, signed char, SetVal)>
  10492a:	bf00      	nop
  10492c:	3fff96f8 	.word	0x3fff96f8

00104930 <LED::ledOff(myLED)>:
  104930:	2901      	cmp	r1, #1
  104932:	b510      	push	{r4, lr}
  104934:	460a      	mov	r2, r1
  104936:	d006      	beq.n	104946 <LED::ledOff(myLED)+0x16>
  104938:	d302      	bcc.n	104940 <LED::ledOff(myLED)+0x10>
  10493a:	2902      	cmp	r1, #2
  10493c:	d006      	beq.n	10494c <LED::ledOff(myLED)+0x1c>
  10493e:	bd10      	pop	{r4, pc}
  104940:	2301      	movs	r3, #1
  104942:	2202      	movs	r2, #2
  104944:	e009      	b.n	10495a <LED::ledOff(myLED)+0x2a>
  104946:	460b      	mov	r3, r1
  104948:	2203      	movs	r2, #3
  10494a:	e007      	b.n	10495c <LED::ledOff(myLED)+0x2c>
  10494c:	2301      	movs	r3, #1
  10494e:	4619      	mov	r1, r3
  104950:	4805      	ldr	r0, [pc, #20]	; (104968 <LED::ledOff(myLED)+0x38>)
  104952:	f000 f889 	bl	104a68 <PCA9655E::setValue(Port, signed char, SetVal)>
  104956:	2301      	movs	r3, #1
  104958:	2203      	movs	r2, #3
  10495a:	4619      	mov	r1, r3
  10495c:	e8bd 4010 	ldmia.w	sp!, {r4, lr}
  104960:	4801      	ldr	r0, [pc, #4]	; (104968 <LED::ledOff(myLED)+0x38>)
  104962:	f000 b881 	b.w	104a68 <PCA9655E::setValue(Port, signed char, SetVal)>
  104966:	bf00      	nop
  104968:	3fff96f8 	.word	0x3fff96f8

0010496c <_GLOBAL__sub_I_led_ioexp>:
  10496c:	b513      	push	{r0, r1, r4, lr}
  10496e:	4c09      	ldr	r4, [pc, #36]	; (104994 <_GLOBAL__sub_I_led_ioexp+0x28>)
  104970:	f04f 33ff 	mov.w	r3, #4294967295
  104974:	9300      	str	r3, [sp, #0]
  104976:	2202      	movs	r2, #2
  104978:	2320      	movs	r3, #32
  10497a:	2103      	movs	r1, #3
  10497c:	4620      	mov	r0, r4
  10497e:	f000 f80f 	bl	1049a0 <PCA9655E::PCA9655E(PinName, PinName, unsigned char, PinName)>
  104982:	4620      	mov	r0, r4
  104984:	4a04      	ldr	r2, [pc, #16]	; (104998 <_GLOBAL__sub_I_led_ioexp+0x2c>)
  104986:	4905      	ldr	r1, [pc, #20]	; (10499c <_GLOBAL__sub_I_led_ioexp+0x30>)
  104988:	b002      	add	sp, #8
  10498a:	e8bd 4010 	ldmia.w	sp!, {r4, lr}
  10498e:	f004 bd16 	b.w	1093be <__aeabi_atexit>
  104992:	bf00      	nop
  104994:	3fff96f8 	.word	0x3fff96f8
  104998:	3fff40a0 	.word	0x3fff40a0
  10499c:	00104b29 	.word	0x00104b29

001049a0 <PCA9655E::PCA9655E(PinName, PinName, unsigned char, PinName)>:
  1049a0:	b538      	push	{r3, r4, r5, lr}
  1049a2:	4604      	mov	r4, r0
  1049a4:	461d      	mov	r5, r3
  1049a6:	f003 fea9 	bl	1086fc <mbed::I2C::I2C(PinName, PinName)>
  1049aa:	f99d 1010 	ldrsb.w	r1, [sp, #16]
  1049ae:	f104 0020 	add.w	r0, r4, #32
  1049b2:	f003 ff89 	bl	1088c8 <mbed::InterruptIn::InterruptIn(PinName)>
  1049b6:	4620      	mov	r0, r4
  1049b8:	7725      	strb	r5, [r4, #28]
  1049ba:	4902      	ldr	r1, [pc, #8]	; (1049c4 <PCA9655E::PCA9655E(PinName, PinName, unsigned char, PinName)+0x24>)
  1049bc:	f003 febc 	bl	108738 <mbed::I2C::frequency(int)>
  1049c0:	4620      	mov	r0, r4
  1049c2:	bd38      	pop	{r3, r4, r5, pc}
  1049c4:	000f4240 	.word	0x000f4240

001049c8 <PCA9655E::frequency(int)>:
  1049c8:	b508      	push	{r3, lr}
  1049ca:	b672      	cpsid	i
  1049cc:	f003 feb4 	bl	108738 <mbed::I2C::frequency(int)>
  1049d0:	b662      	cpsie	i
  1049d2:	bd08      	pop	{r3, pc}

001049d4 <PCA9655E::write(Register, char)>:
  1049d4:	b51f      	push	{r0, r1, r2, r3, r4, lr}
  1049d6:	b672      	cpsid	i
  1049d8:	2300      	movs	r3, #0
  1049da:	f88d 100c 	strb.w	r1, [sp, #12]
  1049de:	f88d 200d 	strb.w	r2, [sp, #13]
  1049e2:	7f01      	ldrb	r1, [r0, #28]
  1049e4:	aa03      	add	r2, sp, #12
  1049e6:	9300      	str	r3, [sp, #0]
  1049e8:	2302      	movs	r3, #2
  1049ea:	f003 fed1 	bl	108790 <mbed::I2C::write(int, char const*, int, bool)>
  1049ee:	b662      	cpsie	i
  1049f0:	b005      	add	sp, #20
  1049f2:	f85d fb04 	ldr.w	pc, [sp], #4

001049f6 <PCA9655E::read(Register)>:
  1049f6:	b530      	push	{r4, r5, lr}
  1049f8:	b085      	sub	sp, #20
  1049fa:	aa04      	add	r2, sp, #16
  1049fc:	4604      	mov	r4, r0
  1049fe:	f802 1d01 	strb.w	r1, [r2, #-1]!
  104a02:	b672      	cpsid	i
  104a04:	2501      	movs	r5, #1
  104a06:	7f01      	ldrb	r1, [r0, #28]
  104a08:	462b      	mov	r3, r5
  104a0a:	9500      	str	r5, [sp, #0]
  104a0c:	f003 fec0 	bl	108790 <mbed::I2C::write(int, char const*, int, bool)>
  104a10:	2300      	movs	r3, #0
  104a12:	9300      	str	r3, [sp, #0]
  104a14:	7f21      	ldrb	r1, [r4, #28]
  104a16:	462b      	mov	r3, r5
  104a18:	f10d 020e 	add.w	r2, sp, #14
  104a1c:	4620      	mov	r0, r4
  104a1e:	f003 fed7 	bl	1087d0 <mbed::I2C::read(int, char*, int, bool)>
  104a22:	b662      	cpsie	i
  104a24:	f89d 000e 	ldrb.w	r0, [sp, #14]
  104a28:	b005      	add	sp, #20
  104a2a:	bd30      	pop	{r4, r5, pc}

00104a2c <PCA9655E::readPinVal(Port, signed char)>:
  104a2c:	b2d3      	uxtb	r3, r2
  104a2e:	2b07      	cmp	r3, #7
  104a30:	b570      	push	{r4, r5, r6, lr}
  104a32:	4606      	mov	r6, r0
  104a34:	460d      	mov	r5, r1
  104a36:	4614      	mov	r4, r2
  104a38:	d904      	bls.n	104a44 <PCA9655E::readPinVal(Port, signed char)+0x18>
  104a3a:	2233      	movs	r2, #51	; 0x33
  104a3c:	4908      	ldr	r1, [pc, #32]	; (104a60 <PCA9655E::readPinVal(Port, signed char)+0x34>)
  104a3e:	4809      	ldr	r0, [pc, #36]	; (104a64 <PCA9655E::readPinVal(Port, signed char)+0x38>)
  104a40:	f000 fc8e 	bl	105360 <mbed_assert_internal>
  104a44:	b10d      	cbz	r5, 104a4a <PCA9655E::readPinVal(Port, signed char)+0x1e>
  104a46:	2d01      	cmp	r5, #1
  104a48:	d107      	bne.n	104a5a <PCA9655E::readPinVal(Port, signed char)+0x2e>
  104a4a:	4629      	mov	r1, r5
  104a4c:	4630      	mov	r0, r6
  104a4e:	f7ff ffd2 	bl	1049f6 <PCA9655E::read(Register)>
  104a52:	4120      	asrs	r0, r4
  104a54:	f000 0001 	and.w	r0, r0, #1
  104a58:	bd70      	pop	{r4, r5, r6, pc}
  104a5a:	f04f 30ff 	mov.w	r0, #4294967295
  104a5e:	bd70      	pop	{r4, r5, r6, pc}
  104a60:	00110d0e 	.word	0x00110d0e
  104a64:	00110d33 	.word	0x00110d33

00104a68 <PCA9655E::setValue(Port, signed char, SetVal)>:
  104a68:	b5f8      	push	{r3, r4, r5, r6, r7, lr}
  104a6a:	461c      	mov	r4, r3
  104a6c:	b2d3      	uxtb	r3, r2
  104a6e:	2b07      	cmp	r3, #7
  104a70:	4606      	mov	r6, r0
  104a72:	460d      	mov	r5, r1
  104a74:	4617      	mov	r7, r2
  104a76:	d904      	bls.n	104a82 <PCA9655E::setValue(Port, signed char, SetVal)+0x1a>
  104a78:	225c      	movs	r2, #92	; 0x5c
  104a7a:	4911      	ldr	r1, [pc, #68]	; (104ac0 <PCA9655E::setValue(Port, signed char, SetVal)+0x58>)
  104a7c:	4811      	ldr	r0, [pc, #68]	; (104ac4 <PCA9655E::setValue(Port, signed char, SetVal)+0x5c>)
  104a7e:	f000 fc6f 	bl	105360 <mbed_assert_internal>
  104a82:	b11d      	cbz	r5, 104a8c <PCA9655E::setValue(Port, signed char, SetVal)+0x24>
  104a84:	2d01      	cmp	r5, #1
  104a86:	d11a      	bne.n	104abe <PCA9655E::setValue(Port, signed char, SetVal)+0x56>
  104a88:	2503      	movs	r5, #3
  104a8a:	e000      	b.n	104a8e <PCA9655E::setValue(Port, signed char, SetVal)+0x26>
  104a8c:	2502      	movs	r5, #2
  104a8e:	4629      	mov	r1, r5
  104a90:	4630      	mov	r0, r6
  104a92:	f7ff ffb0 	bl	1049f6 <PCA9655E::read(Register)>
  104a96:	b13c      	cbz	r4, 104aa8 <PCA9655E::setValue(Port, signed char, SetVal)+0x40>
  104a98:	2c01      	cmp	r4, #1
  104a9a:	d001      	beq.n	104aa0 <PCA9655E::setValue(Port, signed char, SetVal)+0x38>
  104a9c:	b2c2      	uxtb	r2, r0
  104a9e:	e008      	b.n	104ab2 <PCA9655E::setValue(Port, signed char, SetVal)+0x4a>
  104aa0:	fa04 f207 	lsl.w	r2, r4, r7
  104aa4:	4302      	orrs	r2, r0
  104aa6:	e003      	b.n	104ab0 <PCA9655E::setValue(Port, signed char, SetVal)+0x48>
  104aa8:	2201      	movs	r2, #1
  104aaa:	40ba      	lsls	r2, r7
  104aac:	ea20 0202 	bic.w	r2, r0, r2
  104ab0:	b2d2      	uxtb	r2, r2
  104ab2:	4629      	mov	r1, r5
  104ab4:	4630      	mov	r0, r6
  104ab6:	e8bd 40f8 	ldmia.w	sp!, {r3, r4, r5, r6, r7, lr}
  104aba:	f7ff bf8b 	b.w	1049d4 <PCA9655E::write(Register, char)>
  104abe:	bdf8      	pop	{r3, r4, r5, r6, r7, pc}
  104ac0:	00110d0e 	.word	0x00110d0e
  104ac4:	00110d33 	.word	0x00110d33

00104ac8 <PCA9655E::setDirection(Port, signed char, Direction)>:
  104ac8:	b5f8      	push	{r3, r4, r5, r6, r7, lr}
  104aca:	461c      	mov	r4, r3
  104acc:	b2d3      	uxtb	r3, r2
  104ace:	2b07      	cmp	r3, #7
  104ad0:	4606      	mov	r6, r0
  104ad2:	460d      	mov	r5, r1
  104ad4:	4617      	mov	r7, r2
  104ad6:	d904      	bls.n	104ae2 <PCA9655E::setDirection(Port, signed char, Direction)+0x1a>
  104ad8:	227b      	movs	r2, #123	; 0x7b
  104ada:	4911      	ldr	r1, [pc, #68]	; (104b20 <PCA9655E::setDirection(Port, signed char, Direction)+0x58>)
  104adc:	4811      	ldr	r0, [pc, #68]	; (104b24 <PCA9655E::setDirection(Port, signed char, Direction)+0x5c>)
  104ade:	f000 fc3f 	bl	105360 <mbed_assert_internal>
  104ae2:	b11d      	cbz	r5, 104aec <PCA9655E::setDirection(Port, signed char, Direction)+0x24>
  104ae4:	2d01      	cmp	r5, #1
  104ae6:	d11a      	bne.n	104b1e <PCA9655E::setDirection(Port, signed char, Direction)+0x56>
  104ae8:	2507      	movs	r5, #7
  104aea:	e000      	b.n	104aee <PCA9655E::setDirection(Port, signed char, Direction)+0x26>
  104aec:	2506      	movs	r5, #6
  104aee:	4629      	mov	r1, r5
  104af0:	4630      	mov	r0, r6
  104af2:	f7ff ff80 	bl	1049f6 <PCA9655E::read(Register)>
  104af6:	b11c      	cbz	r4, 104b00 <PCA9655E::setDirection(Port, signed char, Direction)+0x38>
  104af8:	2c01      	cmp	r4, #1
  104afa:	d006      	beq.n	104b0a <PCA9655E::setDirection(Port, signed char, Direction)+0x42>
  104afc:	b2c2      	uxtb	r2, r0
  104afe:	e008      	b.n	104b12 <PCA9655E::setDirection(Port, signed char, Direction)+0x4a>
  104b00:	2201      	movs	r2, #1
  104b02:	40ba      	lsls	r2, r7
  104b04:	ea20 0202 	bic.w	r2, r0, r2
  104b08:	e002      	b.n	104b10 <PCA9655E::setDirection(Port, signed char, Direction)+0x48>
  104b0a:	fa04 f207 	lsl.w	r2, r4, r7
  104b0e:	4302      	orrs	r2, r0
  104b10:	b2d2      	uxtb	r2, r2
  104b12:	4629      	mov	r1, r5
  104b14:	4630      	mov	r0, r6
  104b16:	e8bd 40f8 	ldmia.w	sp!, {r3, r4, r5, r6, r7, lr}
  104b1a:	f7ff bf5b 	b.w	1049d4 <PCA9655E::write(Register, char)>
  104b1e:	bdf8      	pop	{r3, r4, r5, r6, r7, pc}
  104b20:	00110d0e 	.word	0x00110d0e
  104b24:	00110d33 	.word	0x00110d33

00104b28 <PCA9655E::~PCA9655E()>:
  104b28:	b510      	push	{r4, lr}
  104b2a:	4604      	mov	r4, r0
  104b2c:	3020      	adds	r0, #32
  104b2e:	f003 fead 	bl	10888c <mbed::InterruptIn::~InterruptIn()>
  104b32:	4620      	mov	r0, r4
  104b34:	bd10      	pop	{r4, pc}

00104b36 <NHD_C0216CZ::getDdramAddr(int, int, unsigned char*)>:
  104b36:	1e48      	subs	r0, r1, #1
  104b38:	2801      	cmp	r0, #1
  104b3a:	d809      	bhi.n	104b50 <NHD_C0216CZ::getDdramAddr(int, int, unsigned char*)+0x1a>
  104b3c:	1e50      	subs	r0, r2, #1
  104b3e:	280f      	cmp	r0, #15
  104b40:	d806      	bhi.n	104b50 <NHD_C0216CZ::getDdramAddr(int, int, unsigned char*)+0x1a>
  104b42:	2902      	cmp	r1, #2
  104b44:	bf0a      	itet	eq
  104b46:	323f      	addeq	r2, #63	; 0x3f
  104b48:	7018      	strbne	r0, [r3, #0]
  104b4a:	701a      	strbeq	r2, [r3, #0]
  104b4c:	2001      	movs	r0, #1
  104b4e:	4770      	bx	lr
  104b50:	2000      	movs	r0, #0
  104b52:	4770      	bx	lr

00104b54 <NHD_C0216CZ::i2cCsEnable()>:
  104b54:	b510      	push	{r4, lr}
  104b56:	f100 0440 	add.w	r4, r0, #64	; 0x40
  104b5a:	2301      	movs	r3, #1
  104b5c:	2202      	movs	r2, #2
  104b5e:	2100      	movs	r1, #0
  104b60:	4620      	mov	r0, r4
  104b62:	f7ff ff81 	bl	104a68 <PCA9655E::setValue(Port, signed char, SetVal)>
  104b66:	2014      	movs	r0, #20
  104b68:	f004 fd18 	bl	10959c <wait_us>
  104b6c:	2001      	movs	r0, #1
  104b6e:	f004 fd15 	bl	10959c <wait_us>
  104b72:	2300      	movs	r3, #0
  104b74:	4620      	mov	r0, r4
  104b76:	2202      	movs	r2, #2
  104b78:	4619      	mov	r1, r3
  104b7a:	f7ff ff75 	bl	104a68 <PCA9655E::setValue(Port, signed char, SetVal)>
  104b7e:	2014      	movs	r0, #20
  104b80:	f004 fd0c 	bl	10959c <wait_us>
  104b84:	e8bd 4010 	ldmia.w	sp!, {r4, lr}
  104b88:	2001      	movs	r0, #1
  104b8a:	f004 bd07 	b.w	10959c <wait_us>

00104b8e <NHD_C0216CZ::i2cCsDisable()>:
  104b8e:	b510      	push	{r4, lr}
  104b90:	4604      	mov	r4, r0
  104b92:	2001      	movs	r0, #1
  104b94:	f004 fd02 	bl	10959c <wait_us>
  104b98:	f104 0040 	add.w	r0, r4, #64	; 0x40
  104b9c:	2301      	movs	r3, #1
  104b9e:	2202      	movs	r2, #2
  104ba0:	2100      	movs	r1, #0
  104ba2:	f7ff ff61 	bl	104a68 <PCA9655E::setValue(Port, signed char, SetVal)>
  104ba6:	e8bd 4010 	ldmia.w	sp!, {r4, lr}
  104baa:	2014      	movs	r0, #20
  104bac:	f004 bcf6 	b.w	10959c <wait_us>

00104bb0 <NHD_C0216CZ::setRsPin(NHD_C0216CZ::LEVEL_T)>:
  104bb0:	b538      	push	{r3, r4, r5, lr}
  104bb2:	460c      	mov	r4, r1
  104bb4:	4605      	mov	r5, r0
  104bb6:	f44f 70fa 	mov.w	r0, #500	; 0x1f4
  104bba:	f004 fcef 	bl	10959c <wait_us>
  104bbe:	b12c      	cbz	r4, 104bcc <NHD_C0216CZ::setRsPin(NHD_C0216CZ::LEVEL_T)+0x1c>
  104bc0:	2c01      	cmp	r4, #1
  104bc2:	d10a      	bne.n	104bda <NHD_C0216CZ::setRsPin(NHD_C0216CZ::LEVEL_T)+0x2a>
  104bc4:	4623      	mov	r3, r4
  104bc6:	2203      	movs	r2, #3
  104bc8:	2100      	movs	r1, #0
  104bca:	e002      	b.n	104bd2 <NHD_C0216CZ::setRsPin(NHD_C0216CZ::LEVEL_T)+0x22>
  104bcc:	4623      	mov	r3, r4
  104bce:	4621      	mov	r1, r4
  104bd0:	2203      	movs	r2, #3
  104bd2:	f105 0040 	add.w	r0, r5, #64	; 0x40
  104bd6:	f7ff ff47 	bl	104a68 <PCA9655E::setValue(Port, signed char, SetVal)>
  104bda:	2014      	movs	r0, #20
  104bdc:	f004 fcde 	bl	10959c <wait_us>
  104be0:	e8bd 4038 	ldmia.w	sp!, {r3, r4, r5, lr}
  104be4:	f44f 70fa 	mov.w	r0, #500	; 0x1f4
  104be8:	f004 bcd8 	b.w	10959c <wait_us>

00104bec <NHD_C0216CZ::setSpiParams()>:
  104bec:	b510      	push	{r4, lr}
  104bee:	4604      	mov	r4, r0
  104bf0:	2108      	movs	r1, #8
  104bf2:	2200      	movs	r2, #0
  104bf4:	f003 ffd0 	bl	108b98 <mbed::SPI::format(int, int)>
  104bf8:	4620      	mov	r0, r4
  104bfa:	e8bd 4010 	ldmia.w	sp!, {r4, lr}
  104bfe:	4901      	ldr	r1, [pc, #4]	; (104c04 <NHD_C0216CZ::setSpiParams()+0x18>)
  104c00:	f003 bfe2 	b.w	108bc8 <mbed::SPI::frequency(int)>
  104c04:	0007a120 	.word	0x0007a120

00104c08 <NHD_C0216CZ::resetSpiParams()>:
  104c08:	b510      	push	{r4, lr}
  104c0a:	4604      	mov	r4, r0
  104c0c:	2108      	movs	r1, #8
  104c0e:	2200      	movs	r2, #0
  104c10:	f003 ffc2 	bl	108b98 <mbed::SPI::format(int, int)>
  104c14:	4620      	mov	r0, r4
  104c16:	e8bd 4010 	ldmia.w	sp!, {r4, lr}
  104c1a:	4901      	ldr	r1, [pc, #4]	; (104c20 <NHD_C0216CZ::resetSpiParams()+0x18>)
  104c1c:	f003 bfd4 	b.w	108bc8 <mbed::SPI::frequency(int)>
  104c20:	000f4240 	.word	0x000f4240

00104c24 <NHD_C0216CZ::sendCommand(unsigned char)>:
  104c24:	b538      	push	{r3, r4, r5, lr}
  104c26:	4604      	mov	r4, r0
  104c28:	460d      	mov	r5, r1
  104c2a:	4811      	ldr	r0, [pc, #68]	; (104c70 <NHD_C0216CZ::sendCommand(unsigned char)+0x4c>)
  104c2c:	f04f 31ff 	mov.w	r1, #4294967295
  104c30:	f004 fddf 	bl	1097f2 <rtos::Mutex::lock(unsigned long)>
  104c34:	4620      	mov	r0, r4
  104c36:	f7ff ffd9 	bl	104bec <NHD_C0216CZ::setSpiParams()>
  104c3a:	4620      	mov	r0, r4
  104c3c:	f7ff ff8a 	bl	104b54 <NHD_C0216CZ::i2cCsEnable()>
  104c40:	4620      	mov	r0, r4
  104c42:	2100      	movs	r1, #0
  104c44:	f7ff ffb4 	bl	104bb0 <NHD_C0216CZ::setRsPin(NHD_C0216CZ::LEVEL_T)>
  104c48:	4629      	mov	r1, r5
  104c4a:	4620      	mov	r0, r4
  104c4c:	f003 ffd2 	bl	108bf4 <mbed::SPI::write(int)>
  104c50:	4620      	mov	r0, r4
  104c52:	f7ff ff9c 	bl	104b8e <NHD_C0216CZ::i2cCsDisable()>
  104c56:	2d01      	cmp	r5, #1
  104c58:	4620      	mov	r0, r4
  104c5a:	bf04      	itt	eq
  104c5c:	63a5      	streq	r5, [r4, #56]	; 0x38
  104c5e:	63e5      	streq	r5, [r4, #60]	; 0x3c
  104c60:	f7ff ffd2 	bl	104c08 <NHD_C0216CZ::resetSpiParams()>
  104c64:	e8bd 4038 	ldmia.w	sp!, {r3, r4, r5, lr}
  104c68:	4801      	ldr	r0, [pc, #4]	; (104c70 <NHD_C0216CZ::sendCommand(unsigned char)+0x4c>)
  104c6a:	f004 bdc5 	b.w	1097f8 <rtos::Mutex::unlock()>
  104c6e:	bf00      	nop
  104c70:	3fff6830 	.word	0x3fff6830

00104c74 <NHD_C0216CZ::clearDisplay()>:
  104c74:	2101      	movs	r1, #1
  104c76:	f7ff bfd5 	b.w	104c24 <NHD_C0216CZ::sendCommand(unsigned char)>

00104c7a <NHD_C0216CZ::setPosition(int, int)>:
  104c7a:	b573      	push	{r0, r1, r4, r5, r6, lr}
  104c7c:	f10d 0307 	add.w	r3, sp, #7
  104c80:	4604      	mov	r4, r0
  104c82:	4615      	mov	r5, r2
  104c84:	f7ff ff57 	bl	104b36 <NHD_C0216CZ::getDdramAddr(int, int, unsigned char*)>
  104c88:	b150      	cbz	r0, 104ca0 <NHD_C0216CZ::setPosition(int, int)+0x26>
  104c8a:	63a1      	str	r1, [r4, #56]	; 0x38
  104c8c:	f89d 1007 	ldrb.w	r1, [sp, #7]
  104c90:	4620      	mov	r0, r4
  104c92:	63e5      	str	r5, [r4, #60]	; 0x3c
  104c94:	f041 0180 	orr.w	r1, r1, #128	; 0x80
  104c98:	f7ff ffc4 	bl	104c24 <NHD_C0216CZ::sendCommand(unsigned char)>
  104c9c:	2000      	movs	r0, #0
  104c9e:	e001      	b.n	104ca4 <NHD_C0216CZ::setPosition(int, int)+0x2a>
  104ca0:	f04f 30ff 	mov.w	r0, #4294967295
  104ca4:	b002      	add	sp, #8
  104ca6:	bd70      	pop	{r4, r5, r6, pc}

00104ca8 <NHD_C0216CZ::intializeLcd()>:
  104ca8:	b510      	push	{r4, lr}
  104caa:	4604      	mov	r4, r0
  104cac:	2130      	movs	r1, #48	; 0x30
  104cae:	f7ff ffb9 	bl	104c24 <NHD_C0216CZ::sendCommand(unsigned char)>
  104cb2:	2002      	movs	r0, #2
  104cb4:	f004 fc96 	bl	1095e4 <wait_ms>
  104cb8:	4620      	mov	r0, r4
  104cba:	2130      	movs	r1, #48	; 0x30
  104cbc:	f7ff ffb2 	bl	104c24 <NHD_C0216CZ::sendCommand(unsigned char)>
  104cc0:	4620      	mov	r0, r4
  104cc2:	2130      	movs	r1, #48	; 0x30
  104cc4:	f7ff ffae 	bl	104c24 <NHD_C0216CZ::sendCommand(unsigned char)>
  104cc8:	4620      	mov	r0, r4
  104cca:	2139      	movs	r1, #57	; 0x39
  104ccc:	f7ff ffaa 	bl	104c24 <NHD_C0216CZ::sendCommand(unsigned char)>
  104cd0:	4620      	mov	r0, r4
  104cd2:	2114      	movs	r1, #20
  104cd4:	f7ff ffa6 	bl	104c24 <NHD_C0216CZ::sendCommand(unsigned char)>
  104cd8:	4620      	mov	r0, r4
  104cda:	2156      	movs	r1, #86	; 0x56
  104cdc:	f7ff ffa2 	bl	104c24 <NHD_C0216CZ::sendCommand(unsigned char)>
  104ce0:	4620      	mov	r0, r4
  104ce2:	216d      	movs	r1, #109	; 0x6d
  104ce4:	f7ff ff9e 	bl	104c24 <NHD_C0216CZ::sendCommand(unsigned char)>
  104ce8:	4620      	mov	r0, r4
  104cea:	2170      	movs	r1, #112	; 0x70
  104cec:	f7ff ff9a 	bl	104c24 <NHD_C0216CZ::sendCommand(unsigned char)>
  104cf0:	4620      	mov	r0, r4
  104cf2:	210c      	movs	r1, #12
  104cf4:	f7ff ff96 	bl	104c24 <NHD_C0216CZ::sendCommand(unsigned char)>
  104cf8:	4620      	mov	r0, r4
  104cfa:	2106      	movs	r1, #6
  104cfc:	f7ff ff92 	bl	104c24 <NHD_C0216CZ::sendCommand(unsigned char)>
  104d00:	4620      	mov	r0, r4
  104d02:	2101      	movs	r1, #1
  104d04:	f7ff ff8e 	bl	104c24 <NHD_C0216CZ::sendCommand(unsigned char)>
  104d08:	e8bd 4010 	ldmia.w	sp!, {r4, lr}
  104d0c:	200a      	movs	r0, #10
  104d0e:	f004 bc69 	b.w	1095e4 <wait_ms>
	...

00104d14 <NHD_C0216CZ::init()>:
  104d14:	b538      	push	{r3, r4, r5, lr}
  104d16:	4604      	mov	r4, r0
  104d18:	f100 0540 	add.w	r5, r0, #64	; 0x40
  104d1c:	4628      	mov	r0, r5
  104d1e:	490f      	ldr	r1, [pc, #60]	; (104d5c <NHD_C0216CZ::init()+0x48>)
  104d20:	f7ff fe52 	bl	1049c8 <PCA9655E::frequency(int)>
  104d24:	2300      	movs	r3, #0
  104d26:	4619      	mov	r1, r3
  104d28:	4628      	mov	r0, r5
  104d2a:	2202      	movs	r2, #2
  104d2c:	f7ff fecc 	bl	104ac8 <PCA9655E::setDirection(Port, signed char, Direction)>
  104d30:	2300      	movs	r3, #0
  104d32:	4619      	mov	r1, r3
  104d34:	2203      	movs	r2, #3
  104d36:	4628      	mov	r0, r5
  104d38:	f7ff fec6 	bl	104ac8 <PCA9655E::setDirection(Port, signed char, Direction)>
  104d3c:	4620      	mov	r0, r4
  104d3e:	f7ff ff26 	bl	104b8e <NHD_C0216CZ::i2cCsDisable()>
  104d42:	4620      	mov	r0, r4
  104d44:	f7ff ff52 	bl	104bec <NHD_C0216CZ::setSpiParams()>
  104d48:	4620      	mov	r0, r4
  104d4a:	f7ff ffad 	bl	104ca8 <NHD_C0216CZ::intializeLcd()>
  104d4e:	2201      	movs	r2, #1
  104d50:	4620      	mov	r0, r4
  104d52:	e8bd 4038 	ldmia.w	sp!, {r3, r4, r5, lr}
  104d56:	4611      	mov	r1, r2
  104d58:	f7ff bf8f 	b.w	104c7a <NHD_C0216CZ::setPosition(int, int)>
  104d5c:	000f4240 	.word	0x000f4240

00104d60 <NHD_C0216CZ::sendData(char const*, int)>:
  104d60:	e92d 41f0 	stmdb	sp!, {r4, r5, r6, r7, r8, lr}
  104d64:	1e16      	subs	r6, r2, #0
  104d66:	4604      	mov	r4, r0
  104d68:	460d      	mov	r5, r1
  104d6a:	dd48      	ble.n	104dfe <NHD_C0216CZ::sendData(char const*, int)+0x9e>
  104d6c:	2900      	cmp	r1, #0
  104d6e:	d046      	beq.n	104dfe <NHD_C0216CZ::sendData(char const*, int)+0x9e>
  104d70:	f04f 31ff 	mov.w	r1, #4294967295
  104d74:	4824      	ldr	r0, [pc, #144]	; (104e08 <NHD_C0216CZ::sendData(char const*, int)+0xa8>)
  104d76:	f004 fd3c 	bl	1097f2 <rtos::Mutex::lock(unsigned long)>
  104d7a:	4620      	mov	r0, r4
  104d7c:	f7ff ff36 	bl	104bec <NHD_C0216CZ::setSpiParams()>
  104d80:	4620      	mov	r0, r4
  104d82:	f7ff fee7 	bl	104b54 <NHD_C0216CZ::i2cCsEnable()>
  104d86:	2101      	movs	r1, #1
  104d88:	4620      	mov	r0, r4
  104d8a:	f7ff ff11 	bl	104bb0 <NHD_C0216CZ::setRsPin(NHD_C0216CZ::LEVEL_T)>
  104d8e:	442e      	add	r6, r5
  104d90:	f04f 0801 	mov.w	r8, #1
  104d94:	6be3      	ldr	r3, [r4, #60]	; 0x3c
  104d96:	f815 7b01 	ldrb.w	r7, [r5], #1
  104d9a:	2b10      	cmp	r3, #16
  104d9c:	dc09      	bgt.n	104db2 <NHD_C0216CZ::sendData(char const*, int)+0x52>
  104d9e:	2f0a      	cmp	r7, #10
  104da0:	d007      	beq.n	104db2 <NHD_C0216CZ::sendData(char const*, int)+0x52>
  104da2:	4639      	mov	r1, r7
  104da4:	4620      	mov	r0, r4
  104da6:	f003 ff25 	bl	108bf4 <mbed::SPI::write(int)>
  104daa:	6be3      	ldr	r3, [r4, #60]	; 0x3c
  104dac:	3301      	adds	r3, #1
  104dae:	63e3      	str	r3, [r4, #60]	; 0x3c
  104db0:	e017      	b.n	104de2 <NHD_C0216CZ::sendData(char const*, int)+0x82>
  104db2:	6ba1      	ldr	r1, [r4, #56]	; 0x38
  104db4:	2201      	movs	r2, #1
  104db6:	3101      	adds	r1, #1
  104db8:	2902      	cmp	r1, #2
  104dba:	bfc8      	it	gt
  104dbc:	2101      	movgt	r1, #1
  104dbe:	63a1      	str	r1, [r4, #56]	; 0x38
  104dc0:	f8c4 803c 	str.w	r8, [r4, #60]	; 0x3c
  104dc4:	4620      	mov	r0, r4
  104dc6:	f7ff ff58 	bl	104c7a <NHD_C0216CZ::setPosition(int, int)>
  104dca:	4620      	mov	r0, r4
  104dcc:	f7ff ff0e 	bl	104bec <NHD_C0216CZ::setSpiParams()>
  104dd0:	2101      	movs	r1, #1
  104dd2:	4620      	mov	r0, r4
  104dd4:	f7ff feec 	bl	104bb0 <NHD_C0216CZ::setRsPin(NHD_C0216CZ::LEVEL_T)>
  104dd8:	4620      	mov	r0, r4
  104dda:	f7ff febb 	bl	104b54 <NHD_C0216CZ::i2cCsEnable()>
  104dde:	2f0a      	cmp	r7, #10
  104de0:	d1df      	bne.n	104da2 <NHD_C0216CZ::sendData(char const*, int)+0x42>
  104de2:	42b5      	cmp	r5, r6
  104de4:	d1d6      	bne.n	104d94 <NHD_C0216CZ::sendData(char const*, int)+0x34>
  104de6:	4620      	mov	r0, r4
  104de8:	f7ff fed1 	bl	104b8e <NHD_C0216CZ::i2cCsDisable()>
  104dec:	4620      	mov	r0, r4
  104dee:	f7ff ff0b 	bl	104c08 <NHD_C0216CZ::resetSpiParams()>
  104df2:	4805      	ldr	r0, [pc, #20]	; (104e08 <NHD_C0216CZ::sendData(char const*, int)+0xa8>)
  104df4:	f004 fd00 	bl	1097f8 <rtos::Mutex::unlock()>
  104df8:	2000      	movs	r0, #0
  104dfa:	e8bd 81f0 	ldmia.w	sp!, {r4, r5, r6, r7, r8, pc}
  104dfe:	f04f 30ff 	mov.w	r0, #4294967295
  104e02:	e8bd 81f0 	ldmia.w	sp!, {r4, r5, r6, r7, r8, pc}
  104e06:	bf00      	nop
  104e08:	3fff6830 	.word	0x3fff6830

00104e0c <NHD_C0216CZ::displayStringToPos(char const*, int, int)>:
  104e0c:	b570      	push	{r4, r5, r6, lr}
  104e0e:	4606      	mov	r6, r0
  104e10:	4614      	mov	r4, r2
  104e12:	460d      	mov	r5, r1
  104e14:	b911      	cbnz	r1, 104e1c <NHD_C0216CZ::displayStringToPos(char const*, int, int)+0x10>
  104e16:	f04f 30ff 	mov.w	r0, #4294967295
  104e1a:	bd70      	pop	{r4, r5, r6, pc}
  104e1c:	461a      	mov	r2, r3
  104e1e:	4621      	mov	r1, r4
  104e20:	f7ff ff2b 	bl	104c7a <NHD_C0216CZ::setPosition(int, int)>
  104e24:	2800      	cmp	r0, #0
  104e26:	d1f6      	bne.n	104e16 <NHD_C0216CZ::displayStringToPos(char const*, int, int)+0xa>
  104e28:	462b      	mov	r3, r5
  104e2a:	1b5a      	subs	r2, r3, r5
  104e2c:	f813 4b01 	ldrb.w	r4, [r3], #1
  104e30:	2c00      	cmp	r4, #0
  104e32:	d1fa      	bne.n	104e2a <NHD_C0216CZ::displayStringToPos(char const*, int, int)+0x1e>
  104e34:	4629      	mov	r1, r5
  104e36:	4630      	mov	r0, r6
  104e38:	f7ff ff92 	bl	104d60 <NHD_C0216CZ::sendData(char const*, int)>
  104e3c:	4620      	mov	r0, r4
  104e3e:	bd70      	pop	{r4, r5, r6, pc}

00104e40 <NHD_C0216CZ::displayString(char const*)>:
  104e40:	b570      	push	{r4, r5, r6, lr}
  104e42:	4604      	mov	r4, r0
  104e44:	460d      	mov	r5, r1
  104e46:	f7ff ff15 	bl	104c74 <NHD_C0216CZ::clearDisplay()>
  104e4a:	2301      	movs	r3, #1
  104e4c:	4629      	mov	r1, r5
  104e4e:	4620      	mov	r0, r4
  104e50:	e8bd 4070 	ldmia.w	sp!, {r4, r5, r6, lr}
  104e54:	461a      	mov	r2, r3
  104e56:	f7ff bfd9 	b.w	104e0c <NHD_C0216CZ::displayStringToPos(char const*, int, int)>

00104e5a <RSL10_BLE::spiCsEnable()>:
  104e5a:	2300      	movs	r3, #0
  104e5c:	461a      	mov	r2, r3
  104e5e:	2101      	movs	r1, #1
  104e60:	3004      	adds	r0, #4
  104e62:	f7ff be01 	b.w	104a68 <PCA9655E::setValue(Port, signed char, SetVal)>

00104e66 <RSL10_BLE::spiCsDisable()>:
  104e66:	2301      	movs	r3, #1
  104e68:	2200      	movs	r2, #0
  104e6a:	4619      	mov	r1, r3
  104e6c:	3004      	adds	r0, #4
  104e6e:	f7ff bdfb 	b.w	104a68 <PCA9655E::setValue(Port, signed char, SetVal)>
	...

00104e74 <RSL10_BLE::RSL10_BLE()>:
  104e74:	b573      	push	{r0, r1, r4, r5, r6, lr}
  104e76:	4604      	mov	r4, r0
  104e78:	4605      	mov	r5, r0
  104e7a:	4b18      	ldr	r3, [pc, #96]	; (104edc <RSL10_BLE::RSL10_BLE()+0x68>)
  104e7c:	2202      	movs	r2, #2
  104e7e:	f844 3b04 	str.w	r3, [r4], #4
  104e82:	2311      	movs	r3, #17
  104e84:	9300      	str	r3, [sp, #0]
  104e86:	2103      	movs	r1, #3
  104e88:	234a      	movs	r3, #74	; 0x4a
  104e8a:	4620      	mov	r0, r4
  104e8c:	f7ff fd88 	bl	1049a0 <PCA9655E::PCA9655E(PinName, PinName, unsigned char, PinName)>
  104e90:	f105 0660 	add.w	r6, r5, #96	; 0x60
  104e94:	f04f 33ff 	mov.w	r3, #4294967295
  104e98:	9300      	str	r3, [sp, #0]
  104e9a:	2206      	movs	r2, #6
  104e9c:	2304      	movs	r3, #4
  104e9e:	2105      	movs	r1, #5
  104ea0:	4630      	mov	r0, r6
  104ea2:	f003 fe4f 	bl	108b44 <mbed::SPI::SPI(PinName, PinName, PinName, PinName)>
  104ea6:	2200      	movs	r2, #0
  104ea8:	4630      	mov	r0, r6
  104eaa:	2120      	movs	r1, #32
  104eac:	f003 fe74 	bl	108b98 <mbed::SPI::format(int, int)>
  104eb0:	4630      	mov	r0, r6
  104eb2:	490b      	ldr	r1, [pc, #44]	; (104ee0 <RSL10_BLE::RSL10_BLE()+0x6c>)
  104eb4:	f003 fe88 	bl	108bc8 <mbed::SPI::frequency(int)>
  104eb8:	2300      	movs	r3, #0
  104eba:	461a      	mov	r2, r3
  104ebc:	2101      	movs	r1, #1
  104ebe:	4620      	mov	r0, r4
  104ec0:	f7ff fe02 	bl	104ac8 <PCA9655E::setDirection(Port, signed char, Direction)>
  104ec4:	4628      	mov	r0, r5
  104ec6:	f7ff ffce 	bl	104e66 <RSL10_BLE::spiCsDisable()>
  104eca:	2200      	movs	r2, #0
  104ecc:	4620      	mov	r0, r4
  104ece:	2301      	movs	r3, #1
  104ed0:	4611      	mov	r1, r2
  104ed2:	f7ff fdf9 	bl	104ac8 <PCA9655E::setDirection(Port, signed char, Direction)>
  104ed6:	4628      	mov	r0, r5
  104ed8:	b002      	add	sp, #8
  104eda:	bd70      	pop	{r4, r5, r6, pc}
  104edc:	00110a90 	.word	0x00110a90
  104ee0:	000f4240 	.word	0x000f4240

00104ee4 <RSL10_BLE::send(char const*, unsigned int)>:
  104ee4:	e92d 41f0 	stmdb	sp!, {r4, r5, r6, r7, r8, lr}
  104ee8:	4607      	mov	r7, r0
  104eea:	4615      	mov	r5, r2
  104eec:	460c      	mov	r4, r1
  104eee:	b921      	cbnz	r1, 104efa <RSL10_BLE::send(char const*, unsigned int)+0x16>
  104ef0:	225b      	movs	r2, #91	; 0x5b
  104ef2:	4920      	ldr	r1, [pc, #128]	; (104f74 <RSL10_BLE::send(char const*, unsigned int)+0x90>)
  104ef4:	4820      	ldr	r0, [pc, #128]	; (104f78 <RSL10_BLE::send(char const*, unsigned int)+0x94>)
  104ef6:	f000 fa33 	bl	105360 <mbed_assert_internal>
  104efa:	2d14      	cmp	r5, #20
  104efc:	d904      	bls.n	104f08 <RSL10_BLE::send(char const*, unsigned int)+0x24>
  104efe:	225c      	movs	r2, #92	; 0x5c
  104f00:	491c      	ldr	r1, [pc, #112]	; (104f74 <RSL10_BLE::send(char const*, unsigned int)+0x90>)
  104f02:	481e      	ldr	r0, [pc, #120]	; (104f7c <RSL10_BLE::send(char const*, unsigned int)+0x98>)
  104f04:	f000 fa2c 	bl	105360 <mbed_assert_internal>
  104f08:	f04f 31ff 	mov.w	r1, #4294967295
  104f0c:	481c      	ldr	r0, [pc, #112]	; (104f80 <RSL10_BLE::send(char const*, unsigned int)+0x9c>)
  104f0e:	f004 fc70 	bl	1097f2 <rtos::Mutex::lock(unsigned long)>
  104f12:	f107 0660 	add.w	r6, r7, #96	; 0x60
  104f16:	4638      	mov	r0, r7
  104f18:	f7ff ff9f 	bl	104e5a <RSL10_BLE::spiCsEnable()>
  104f1c:	4919      	ldr	r1, [pc, #100]	; (104f84 <RSL10_BLE::send(char const*, unsigned int)+0xa0>)
  104f1e:	4630      	mov	r0, r6
  104f20:	f003 fe68 	bl	108bf4 <mbed::SPI::write(int)>
  104f24:	200a      	movs	r0, #10
  104f26:	f004 fb39 	bl	10959c <wait_us>
  104f2a:	eb04 0805 	add.w	r8, r4, r5
  104f2e:	4544      	cmp	r4, r8
  104f30:	d008      	beq.n	104f44 <RSL10_BLE::send(char const*, unsigned int)+0x60>
  104f32:	f814 1b01 	ldrb.w	r1, [r4], #1
  104f36:	4630      	mov	r0, r6
  104f38:	f003 fe5c 	bl	108bf4 <mbed::SPI::write(int)>
  104f3c:	200a      	movs	r0, #10
  104f3e:	f004 fb2d 	bl	10959c <wait_us>
  104f42:	e7f4      	b.n	104f2e <RSL10_BLE::send(char const*, unsigned int)+0x4a>
  104f44:	4910      	ldr	r1, [pc, #64]	; (104f88 <RSL10_BLE::send(char const*, unsigned int)+0xa4>)
  104f46:	4630      	mov	r0, r6
  104f48:	f003 fe54 	bl	108bf4 <mbed::SPI::write(int)>
  104f4c:	4606      	mov	r6, r0
  104f4e:	200a      	movs	r0, #10
  104f50:	f004 fb24 	bl	10959c <wait_us>
  104f54:	4638      	mov	r0, r7
  104f56:	f7ff ff86 	bl	104e66 <RSL10_BLE::spiCsDisable()>
  104f5a:	f814 3c01 	ldrb.w	r3, [r4, #-1]
  104f5e:	b2f6      	uxtb	r6, r6
  104f60:	42b3      	cmp	r3, r6
  104f62:	bf18      	it	ne
  104f64:	f04f 35ff 	movne.w	r5, #4294967295
  104f68:	4805      	ldr	r0, [pc, #20]	; (104f80 <RSL10_BLE::send(char const*, unsigned int)+0x9c>)
  104f6a:	f004 fc45 	bl	1097f8 <rtos::Mutex::unlock()>
  104f6e:	4628      	mov	r0, r5
  104f70:	e8bd 81f0 	ldmia.w	sp!, {r4, r5, r6, r7, r8, pc}
  104f74:	00110d4c 	.word	0x00110d4c
  104f78:	00110d5a 	.word	0x00110d5a
  104f7c:	00110d66 	.word	0x00110d66
  104f80:	3fff6830 	.word	0x3fff6830
  104f84:	f0000002 	.word	0xf0000002
  104f88:	f0000004 	.word	0xf0000004

00104f8c <RSL10_BLE::readable()>:
  104f8c:	b538      	push	{r3, r4, r5, lr}
  104f8e:	4605      	mov	r5, r0
  104f90:	4c09      	ldr	r4, [pc, #36]	; (104fb8 <RSL10_BLE::readable()+0x2c>)
  104f92:	f04f 31ff 	mov.w	r1, #4294967295
  104f96:	4620      	mov	r0, r4
  104f98:	f004 fc2b 	bl	1097f2 <rtos::Mutex::lock(unsigned long)>
  104f9c:	2200      	movs	r2, #0
  104f9e:	4611      	mov	r1, r2
  104fa0:	1d28      	adds	r0, r5, #4
  104fa2:	f7ff fd43 	bl	104a2c <PCA9655E::readPinVal(Port, signed char)>
  104fa6:	4605      	mov	r5, r0
  104fa8:	4620      	mov	r0, r4
  104faa:	f004 fc25 	bl	1097f8 <rtos::Mutex::unlock()>
  104fae:	fab5 f085 	clz	r0, r5
  104fb2:	0940      	lsrs	r0, r0, #5
  104fb4:	bd38      	pop	{r3, r4, r5, pc}
  104fb6:	bf00      	nop
  104fb8:	3fff6830 	.word	0x3fff6830

00104fbc <RSL10_BLE::readableNoLock()>:
  104fbc:	2200      	movs	r2, #0
  104fbe:	b508      	push	{r3, lr}
  104fc0:	4611      	mov	r1, r2
  104fc2:	3004      	adds	r0, #4
  104fc4:	f7ff fd32 	bl	104a2c <PCA9655E::readPinVal(Port, signed char)>
  104fc8:	fab0 f080 	clz	r0, r0
  104fcc:	0940      	lsrs	r0, r0, #5
  104fce:	bd08      	pop	{r3, pc}

00104fd0 <RSL10_BLE::recv(char*, unsigned int)>:
  104fd0:	e92d 4ff7 	stmdb	sp!, {r0, r1, r2, r4, r5, r6, r7, r8, r9, r10, r11, lr}
  104fd4:	4680      	mov	r8, r0
  104fd6:	4692      	mov	r10, r2
  104fd8:	4689      	mov	r9, r1
  104fda:	b921      	cbnz	r1, 104fe6 <RSL10_BLE::recv(char*, unsigned int)+0x16>
  104fdc:	227d      	movs	r2, #125	; 0x7d
  104fde:	492a      	ldr	r1, [pc, #168]	; (105088 <RSL10_BLE::recv(char*, unsigned int)+0xb8>)
  104fe0:	482a      	ldr	r0, [pc, #168]	; (10508c <RSL10_BLE::recv(char*, unsigned int)+0xbc>)
  104fe2:	f000 f9bd 	bl	105360 <mbed_assert_internal>
  104fe6:	f1ba 0f14 	cmp.w	r10, #20
  104fea:	d904      	bls.n	104ff6 <RSL10_BLE::recv(char*, unsigned int)+0x26>
  104fec:	227e      	movs	r2, #126	; 0x7e
  104fee:	4926      	ldr	r1, [pc, #152]	; (105088 <RSL10_BLE::recv(char*, unsigned int)+0xb8>)
  104ff0:	4827      	ldr	r0, [pc, #156]	; (105090 <RSL10_BLE::recv(char*, unsigned int)+0xc0>)
  104ff2:	f000 f9b5 	bl	105360 <mbed_assert_internal>
  104ff6:	f04f 31ff 	mov.w	r1, #4294967295
  104ffa:	4826      	ldr	r0, [pc, #152]	; (105094 <RSL10_BLE::recv(char*, unsigned int)+0xc4>)
  104ffc:	f004 fbf9 	bl	1097f2 <rtos::Mutex::lock(unsigned long)>
  105000:	4640      	mov	r0, r8
  105002:	f7ff ffdb 	bl	104fbc <RSL10_BLE::readableNoLock()>
  105006:	b3b0      	cbz	r0, 105076 <RSL10_BLE::recv(char*, unsigned int)+0xa6>
  105008:	464d      	mov	r5, r9
  10500a:	4640      	mov	r0, r8
  10500c:	f108 0660 	add.w	r6, r8, #96	; 0x60
  105010:	f7ff ff23 	bl	104e5a <RSL10_BLE::spiCsEnable()>
  105014:	4920      	ldr	r1, [pc, #128]	; (105098 <RSL10_BLE::recv(char*, unsigned int)+0xc8>)
  105016:	4630      	mov	r0, r6
  105018:	f003 fdec 	bl	108bf4 <mbed::SPI::write(int)>
  10501c:	200a      	movs	r0, #10
  10501e:	f004 fabd 	bl	10959c <wait_us>
  105022:	4b1e      	ldr	r3, [pc, #120]	; (10509c <RSL10_BLE::recv(char*, unsigned int)+0xcc>)
  105024:	4a1e      	ldr	r2, [pc, #120]	; (1050a0 <RSL10_BLE::recv(char*, unsigned int)+0xd0>)
  105026:	eb09 0b0a 	add.w	r11, r9, r10
  10502a:	455d      	cmp	r5, r11
  10502c:	9201      	str	r2, [sp, #4]
  10502e:	9300      	str	r3, [sp, #0]
  105030:	ebc9 0405 	rsb	r4, r9, r5
  105034:	d012      	beq.n	10505c <RSL10_BLE::recv(char*, unsigned int)+0x8c>
  105036:	2100      	movs	r1, #0
  105038:	4630      	mov	r0, r6
  10503a:	f003 fddb 	bl	108bf4 <mbed::SPI::write(int)>
  10503e:	4607      	mov	r7, r0
  105040:	200a      	movs	r0, #10
  105042:	f004 faab 	bl	10959c <wait_us>
  105046:	9b00      	ldr	r3, [sp, #0]
  105048:	429f      	cmp	r7, r3
  10504a:	d007      	beq.n	10505c <RSL10_BLE::recv(char*, unsigned int)+0x8c>
  10504c:	9a01      	ldr	r2, [sp, #4]
  10504e:	4297      	cmp	r7, r2
  105050:	d002      	beq.n	105058 <RSL10_BLE::recv(char*, unsigned int)+0x88>
  105052:	f805 7b01 	strb.w	r7, [r5], #1
  105056:	e7e8      	b.n	10502a <RSL10_BLE::recv(char*, unsigned int)+0x5a>
  105058:	f04f 34ff 	mov.w	r4, #4294967295
  10505c:	4554      	cmp	r4, r10
  10505e:	d106      	bne.n	10506e <RSL10_BLE::recv(char*, unsigned int)+0x9e>
  105060:	490e      	ldr	r1, [pc, #56]	; (10509c <RSL10_BLE::recv(char*, unsigned int)+0xcc>)
  105062:	4630      	mov	r0, r6
  105064:	f003 fdc6 	bl	108bf4 <mbed::SPI::write(int)>
  105068:	200a      	movs	r0, #10
  10506a:	f004 fa97 	bl	10959c <wait_us>
  10506e:	4640      	mov	r0, r8
  105070:	f7ff fef9 	bl	104e66 <RSL10_BLE::spiCsDisable()>
  105074:	e000      	b.n	105078 <RSL10_BLE::recv(char*, unsigned int)+0xa8>
  105076:	4604      	mov	r4, r0
  105078:	4806      	ldr	r0, [pc, #24]	; (105094 <RSL10_BLE::recv(char*, unsigned int)+0xc4>)
  10507a:	f004 fbbd 	bl	1097f8 <rtos::Mutex::unlock()>
  10507e:	4620      	mov	r0, r4
  105080:	b003      	add	sp, #12
  105082:	e8bd 8ff0 	ldmia.w	sp!, {r4, r5, r6, r7, r8, r9, r10, r11, pc}
  105086:	bf00      	nop
  105088:	00110d4c 	.word	0x00110d4c
  10508c:	00110d5a 	.word	0x00110d5a
  105090:	00110d66 	.word	0x00110d66
  105094:	3fff6830 	.word	0x3fff6830
  105098:	f0000001 	.word	0xf0000001
  10509c:	f0000004 	.word	0xf0000004
  1050a0:	f0000010 	.word	0xf0000010

001050a4 <_gpio_init_in>:
  1050a4:	b570      	push	{r4, r5, r6, lr}
  1050a6:	460e      	mov	r6, r1
  1050a8:	4604      	mov	r4, r0
  1050aa:	4615      	mov	r5, r2
  1050ac:	f002 f926 	bl	1072fc <gpio_init>
  1050b0:	3601      	adds	r6, #1
  1050b2:	d009      	beq.n	1050c8 <_gpio_init_in+0x24>
  1050b4:	4620      	mov	r0, r4
  1050b6:	2100      	movs	r1, #0
  1050b8:	f002 f94a 	bl	107350 <gpio_dir>
  1050bc:	4629      	mov	r1, r5
  1050be:	4620      	mov	r0, r4
  1050c0:	e8bd 4070 	ldmia.w	sp!, {r4, r5, r6, lr}
  1050c4:	f002 b940 	b.w	107348 <gpio_mode>
  1050c8:	bd70      	pop	{r4, r5, r6, pc}

001050ca <gpio_init_in>:
  1050ca:	b538      	push	{r3, r4, r5, lr}
  1050cc:	460c      	mov	r4, r1
  1050ce:	2201      	movs	r2, #1
