
NCS36510/5_SmartSystem_v006.elf:     file format elf32-littlearm
architecture: arm, flags 0x00000112:
EXEC_P, HAS_SYMS, D_PAGED
start address 0x001090c9


Disassembly of section .text:

00102090 <deregister_tm_clones>:
  102090:	4b04      	ldr	r3, [pc, #16]	; (1020a4 <deregister_tm_clones+0x14>)
  102092:	4805      	ldr	r0, [pc, #20]	; (1020a8 <deregister_tm_clones+0x18>)
  102094:	1a1b      	subs	r3, r3, r0
  102096:	2b06      	cmp	r3, #6
  102098:	d902      	bls.n	1020a0 <deregister_tm_clones+0x10>
  10209a:	4b04      	ldr	r3, [pc, #16]	; (1020ac <deregister_tm_clones+0x1c>)
  10209c:	b103      	cbz	r3, 1020a0 <deregister_tm_clones+0x10>
  10209e:	4718      	bx	r3
  1020a0:	4770      	bx	lr
  1020a2:	bf00      	nop
  1020a4:	3fff65c3 	.word	0x3fff65c3
  1020a8:	3fff65c0 	.word	0x3fff65c0
  1020ac:	00000000 	.word	0x00000000

001020b0 <register_tm_clones>:
  1020b0:	4905      	ldr	r1, [pc, #20]	; (1020c8 <register_tm_clones+0x18>)
  1020b2:	4806      	ldr	r0, [pc, #24]	; (1020cc <register_tm_clones+0x1c>)
  1020b4:	1a09      	subs	r1, r1, r0
  1020b6:	1089      	asrs	r1, r1, #2
  1020b8:	eb01 71d1 	add.w	r1, r1, r1, lsr #31
  1020bc:	1049      	asrs	r1, r1, #1
  1020be:	d002      	beq.n	1020c6 <register_tm_clones+0x16>
  1020c0:	4b03      	ldr	r3, [pc, #12]	; (1020d0 <register_tm_clones+0x20>)
  1020c2:	b103      	cbz	r3, 1020c6 <register_tm_clones+0x16>
  1020c4:	4718      	bx	r3
  1020c6:	4770      	bx	lr
  1020c8:	3fff65c0 	.word	0x3fff65c0
  1020cc:	3fff65c0 	.word	0x3fff65c0
  1020d0:	00000000 	.word	0x00000000

001020d4 <__do_global_dtors_aux>:
  1020d4:	b510      	push	{r4, lr}
  1020d6:	4c06      	ldr	r4, [pc, #24]	; (1020f0 <__do_global_dtors_aux+0x1c>)
  1020d8:	7823      	ldrb	r3, [r4, #0]
  1020da:	b943      	cbnz	r3, 1020ee <__do_global_dtors_aux+0x1a>
  1020dc:	f7ff ffd8 	bl	102090 <deregister_tm_clones>
  1020e0:	4b04      	ldr	r3, [pc, #16]	; (1020f4 <__do_global_dtors_aux+0x20>)
  1020e2:	b113      	cbz	r3, 1020ea <__do_global_dtors_aux+0x16>
  1020e4:	4804      	ldr	r0, [pc, #16]	; (1020f8 <__do_global_dtors_aux+0x24>)
  1020e6:	f3af 8000 	nop.w
  1020ea:	2301      	movs	r3, #1
  1020ec:	7023      	strb	r3, [r4, #0]
  1020ee:	bd10      	pop	{r4, pc}
  1020f0:	3fff65c0 	.word	0x3fff65c0
  1020f4:	00000000 	.word	0x00000000
  1020f8:	00111348 	.word	0x00111348

001020fc <frame_dummy>:
  1020fc:	b508      	push	{r3, lr}
  1020fe:	4b08      	ldr	r3, [pc, #32]	; (102120 <frame_dummy+0x24>)
  102100:	b11b      	cbz	r3, 10210a <frame_dummy+0xe>
  102102:	4908      	ldr	r1, [pc, #32]	; (102124 <frame_dummy+0x28>)
  102104:	4808      	ldr	r0, [pc, #32]	; (102128 <frame_dummy+0x2c>)
  102106:	f3af 8000 	nop.w
  10210a:	4808      	ldr	r0, [pc, #32]	; (10212c <frame_dummy+0x30>)
  10210c:	6803      	ldr	r3, [r0, #0]
  10210e:	b913      	cbnz	r3, 102116 <frame_dummy+0x1a>
  102110:	e8bd 4008 	ldmia.w	sp!, {r3, lr}
  102114:	e7cc      	b.n	1020b0 <register_tm_clones>
  102116:	4b06      	ldr	r3, [pc, #24]	; (102130 <frame_dummy+0x34>)
  102118:	2b00      	cmp	r3, #0
  10211a:	d0f9      	beq.n	102110 <frame_dummy+0x14>
  10211c:	4798      	blx	r3
  10211e:	e7f7      	b.n	102110 <frame_dummy+0x14>
  102120:	00000000 	.word	0x00000000
  102124:	3fff65c4 	.word	0x3fff65c4
  102128:	00111348 	.word	0x00111348
  10212c:	3fff65c0 	.word	0x3fff65c0
  102130:	00000000 	.word	0x00000000

00102134 <mbed::I2C::~I2C()>:
  102134:	4770      	bx	lr

00102136 <Accelerometer::~Accelerometer()>:
  102136:	4770      	bx	lr

00102138 <__tcf_0>:
  102138:	b538      	push	{r3, r4, r5, lr}
  10213a:	4d06      	ldr	r5, [pc, #24]	; (102154 <__tcf_0+0x1c>)
  10213c:	2400      	movs	r4, #0
  10213e:	f504 70b4 	add.w	r0, r4, #360	; 0x168
  102142:	4428      	add	r0, r5
  102144:	3c18      	subs	r4, #24
  102146:	f006 ffff 	bl	109148 <std::__cxx11::basic_string<char, std::char_traits<char>, std::allocator<char> >::_M_dispose()>
  10214a:	f514 7fc0 	cmn.w	r4, #384	; 0x180
  10214e:	d1f6      	bne.n	10213e <__tcf_0+0x6>
  102150:	bd38      	pop	{r3, r4, r5, pc}
  102152:	bf00      	nop
  102154:	3fff65dc 	.word	0x3fff65dc

00102158 <Accelerometer::~Accelerometer()>:
  102158:	b510      	push	{r4, lr}
  10215a:	4604      	mov	r4, r0
  10215c:	f006 fd26 	bl	108bac <operator delete(void*)>
  102160:	4620      	mov	r0, r4
  102162:	bd10      	pop	{r4, pc}

00102164 <NHD_C0216CZ::~NHD_C0216CZ()>:
  102164:	b510      	push	{r4, lr}
  102166:	4604      	mov	r4, r0
  102168:	3040      	adds	r0, #64	; 0x40
  10216a:	f002 f841 	bl	1041f0 <PCA9655E::~PCA9655E()>
  10216e:	4620      	mov	r0, r4
  102170:	bd10      	pop	{r4, pc}
	...

00102174 <mbed::Ticker::~Ticker()>:
  102174:	b538      	push	{r3, r4, r5, lr}
  102176:	4605      	mov	r5, r0
  102178:	4604      	mov	r4, r0
  10217a:	4b07      	ldr	r3, [pc, #28]	; (102198 <mbed::Ticker::~Ticker()+0x24>)
  10217c:	f845 3b28 	str.w	r3, [r5], #40
  102180:	f006 f976 	bl	108470 <mbed::Ticker::detach()>
  102184:	6b63      	ldr	r3, [r4, #52]	; 0x34
  102186:	b113      	cbz	r3, 10218e <mbed::Ticker::~Ticker()+0x1a>
  102188:	689b      	ldr	r3, [r3, #8]
  10218a:	4628      	mov	r0, r5
  10218c:	4798      	blx	r3
  10218e:	4620      	mov	r0, r4
  102190:	f006 fa46 	bl	108620 <mbed::TimerEvent::~TimerEvent()>
  102194:	4620      	mov	r0, r4
  102196:	bd38      	pop	{r3, r4, r5, pc}
  102198:	00110bd0 	.word	0x00110bd0

0010219c <std::__cxx11::basic_string<char, std::char_traits<char>, std::allocator<char> >::basic_string(char const*, std::allocator<char> const&) [clone .isra.15] [clone .constprop.17]>:
  10219c:	b510      	push	{r4, lr}
  10219e:	4604      	mov	r4, r0
  1021a0:	4a05      	ldr	r2, [pc, #20]	; (1021b8 <std::__cxx11::basic_string<char, std::char_traits<char>, std::allocator<char> >::basic_string(char const*, std::allocator<char> const&) [clone .isra.15] [clone .constprop.17]+0x1c>)
  1021a2:	3008      	adds	r0, #8
  1021a4:	6020      	str	r0, [r4, #0]
  1021a6:	4611      	mov	r1, r2
  1021a8:	f006 ffe4 	bl	109174 <std::__cxx11::basic_string<char, std::char_traits<char>, std::allocator<char> >::_S_copy_chars(char*, char const*, char const*)>
  1021ac:	6822      	ldr	r2, [r4, #0]
  1021ae:	2300      	movs	r3, #0
  1021b0:	6063      	str	r3, [r4, #4]
  1021b2:	7013      	strb	r3, [r2, #0]
  1021b4:	4620      	mov	r0, r4
  1021b6:	bd10      	pop	{r4, pc}
  1021b8:	00110e2d 	.word	0x00110e2d

001021bc <mbed::I2C::~I2C()>:
  1021bc:	b510      	push	{r4, lr}
  1021be:	4604      	mov	r4, r0
  1021c0:	f006 fcf4 	bl	108bac <operator delete(void*)>
  1021c4:	4620      	mov	r0, r4
  1021c6:	bd10      	pop	{r4, pc}

001021c8 <mbed::Ticker::~Ticker()>:
  1021c8:	b510      	push	{r4, lr}
  1021ca:	4604      	mov	r4, r0
  1021cc:	f7ff ffd2 	bl	102174 <mbed::Ticker::~Ticker()>
  1021d0:	4620      	mov	r0, r4
  1021d2:	f006 fceb 	bl	108bac <operator delete(void*)>
  1021d6:	4620      	mov	r0, r4
  1021d8:	bd10      	pop	{r4, pc}
	...

001021dc <Accelerometer::accel_initialize()>:
  1021dc:	b57f      	push	{r0, r1, r2, r3, r4, r5, r6, lr}
  1021de:	4d0f      	ldr	r5, [pc, #60]	; (10221c <Accelerometer::accel_initialize()+0x40>)
  1021e0:	4c0f      	ldr	r4, [pc, #60]	; (102220 <Accelerometer::accel_initialize()+0x44>)
  1021e2:	232d      	movs	r3, #45	; 0x2d
  1021e4:	f88d 300c 	strb.w	r3, [sp, #12]
  1021e8:	2600      	movs	r6, #0
  1021ea:	2308      	movs	r3, #8
  1021ec:	f88d 300d 	strb.w	r3, [sp, #13]
  1021f0:	aa03      	add	r2, sp, #12
  1021f2:	6829      	ldr	r1, [r5, #0]
  1021f4:	9600      	str	r6, [sp, #0]
  1021f6:	2302      	movs	r3, #2
  1021f8:	4620      	mov	r0, r4
  1021fa:	f005 fe8b 	bl	107f14 <mbed::I2C::write(int, char const*, int, bool)>
  1021fe:	2338      	movs	r3, #56	; 0x38
  102200:	f88d 300c 	strb.w	r3, [sp, #12]
  102204:	233f      	movs	r3, #63	; 0x3f
  102206:	f88d 300d 	strb.w	r3, [sp, #13]
  10220a:	9600      	str	r6, [sp, #0]
  10220c:	2302      	movs	r3, #2
  10220e:	aa03      	add	r2, sp, #12
  102210:	6829      	ldr	r1, [r5, #0]
  102212:	4620      	mov	r0, r4
  102214:	f005 fe7e 	bl	107f14 <mbed::I2C::write(int, char const*, int, bool)>
  102218:	b004      	add	sp, #16
  10221a:	bd70      	pop	{r4, r5, r6, pc}
  10221c:	3fff40a4 	.word	0x3fff40a4
  102220:	3fff678c 	.word	0x3fff678c

00102224 <Accelerometer::read_X()>:
  102224:	b5f0      	push	{r4, r5, r6, r7, lr}
  102226:	4d14      	ldr	r5, [pc, #80]	; (102278 <Accelerometer::read_X()+0x54>)
  102228:	b08d      	sub	sp, #52	; 0x34
  10222a:	4c14      	ldr	r4, [pc, #80]	; (10227c <Accelerometer::read_X()+0x58>)
  10222c:	aa0c      	add	r2, sp, #48	; 0x30
  10222e:	2600      	movs	r6, #0
  102230:	2332      	movs	r3, #50	; 0x32
  102232:	f802 3d24 	strb.w	r3, [r2, #-36]!
  102236:	4607      	mov	r7, r0
  102238:	6829      	ldr	r1, [r5, #0]
  10223a:	9600      	str	r6, [sp, #0]
  10223c:	2301      	movs	r3, #1
  10223e:	4620      	mov	r0, r4
  102240:	f005 fe68 	bl	107f14 <mbed::I2C::write(int, char const*, int, bool)>
  102244:	2302      	movs	r3, #2
  102246:	aa02      	add	r2, sp, #8
  102248:	6829      	ldr	r1, [r5, #0]
  10224a:	9600      	str	r6, [sp, #0]
  10224c:	4620      	mov	r0, r4
  10224e:	f005 fe81 	bl	107f54 <mbed::I2C::read(int, char*, int, bool)>
  102252:	a802      	add	r0, sp, #8
  102254:	f008 fa56 	bl	10a704 <atoi>
  102258:	f89d 2009 	ldrb.w	r2, [sp, #9]
  10225c:	6078      	str	r0, [r7, #4]
  10225e:	4908      	ldr	r1, [pc, #32]	; (102280 <Accelerometer::read_X()+0x5c>)
  102260:	a804      	add	r0, sp, #16
  102262:	f00a faed 	bl	10c840 <siprintf>
  102266:	2301      	movs	r3, #1
  102268:	461a      	mov	r2, r3
  10226a:	a904      	add	r1, sp, #16
  10226c:	4805      	ldr	r0, [pc, #20]	; (102284 <Accelerometer::read_X()+0x60>)
  10226e:	f002 f931 	bl	1044d4 <NHD_C0216CZ::displayStringToPos(char const*, int, int)>
  102272:	b00d      	add	sp, #52	; 0x34
  102274:	bdf0      	pop	{r4, r5, r6, r7, pc}
  102276:	bf00      	nop
  102278:	3fff40a4 	.word	0x3fff40a4
  10227c:	3fff678c 	.word	0x3fff678c
  102280:	0010fec8 	.word	0x0010fec8
  102284:	3fff6840 	.word	0x3fff6840

00102288 <Accelerometer::read_y()>:
  102288:	b5f0      	push	{r4, r5, r6, r7, lr}
  10228a:	4d14      	ldr	r5, [pc, #80]	; (1022dc <Accelerometer::read_y()+0x54>)
  10228c:	b08d      	sub	sp, #52	; 0x34
  10228e:	4c14      	ldr	r4, [pc, #80]	; (1022e0 <Accelerometer::read_y()+0x58>)
  102290:	aa0c      	add	r2, sp, #48	; 0x30
  102292:	2600      	movs	r6, #0
  102294:	2334      	movs	r3, #52	; 0x34
  102296:	f802 3d24 	strb.w	r3, [r2, #-36]!
  10229a:	4607      	mov	r7, r0
  10229c:	6829      	ldr	r1, [r5, #0]
  10229e:	9600      	str	r6, [sp, #0]
  1022a0:	2301      	movs	r3, #1
  1022a2:	4620      	mov	r0, r4
  1022a4:	f005 fe36 	bl	107f14 <mbed::I2C::write(int, char const*, int, bool)>
  1022a8:	2302      	movs	r3, #2
  1022aa:	aa02      	add	r2, sp, #8
  1022ac:	6829      	ldr	r1, [r5, #0]
  1022ae:	9600      	str	r6, [sp, #0]
  1022b0:	4620      	mov	r0, r4
  1022b2:	f005 fe4f 	bl	107f54 <mbed::I2C::read(int, char*, int, bool)>
  1022b6:	a802      	add	r0, sp, #8
  1022b8:	f008 fa24 	bl	10a704 <atoi>
  1022bc:	f89d 2009 	ldrb.w	r2, [sp, #9]
  1022c0:	60b8      	str	r0, [r7, #8]
  1022c2:	4908      	ldr	r1, [pc, #32]	; (1022e4 <Accelerometer::read_y()+0x5c>)
  1022c4:	a804      	add	r0, sp, #16
  1022c6:	f00a fabb 	bl	10c840 <siprintf>
  1022ca:	230a      	movs	r3, #10
  1022cc:	2201      	movs	r2, #1
  1022ce:	a904      	add	r1, sp, #16
  1022d0:	4805      	ldr	r0, [pc, #20]	; (1022e8 <Accelerometer::read_y()+0x60>)
  1022d2:	f002 f8ff 	bl	1044d4 <NHD_C0216CZ::displayStringToPos(char const*, int, int)>
  1022d6:	b00d      	add	sp, #52	; 0x34
  1022d8:	bdf0      	pop	{r4, r5, r6, r7, pc}
  1022da:	bf00      	nop
  1022dc:	3fff40a4 	.word	0x3fff40a4
  1022e0:	3fff678c 	.word	0x3fff678c
  1022e4:	0010fecd 	.word	0x0010fecd
  1022e8:	3fff6840 	.word	0x3fff6840

001022ec <Accelerometer::read_z()>:
  1022ec:	b5f0      	push	{r4, r5, r6, r7, lr}
  1022ee:	4d14      	ldr	r5, [pc, #80]	; (102340 <Accelerometer::read_z()+0x54>)
  1022f0:	b08d      	sub	sp, #52	; 0x34
  1022f2:	4c14      	ldr	r4, [pc, #80]	; (102344 <Accelerometer::read_z()+0x58>)
  1022f4:	aa0c      	add	r2, sp, #48	; 0x30
  1022f6:	2600      	movs	r6, #0
  1022f8:	2336      	movs	r3, #54	; 0x36
  1022fa:	f802 3d24 	strb.w	r3, [r2, #-36]!
  1022fe:	4607      	mov	r7, r0
  102300:	6829      	ldr	r1, [r5, #0]
  102302:	9600      	str	r6, [sp, #0]
  102304:	2301      	movs	r3, #1
  102306:	4620      	mov	r0, r4
  102308:	f005 fe04 	bl	107f14 <mbed::I2C::write(int, char const*, int, bool)>
  10230c:	2302      	movs	r3, #2
  10230e:	aa02      	add	r2, sp, #8
  102310:	6829      	ldr	r1, [r5, #0]
  102312:	9600      	str	r6, [sp, #0]
  102314:	4620      	mov	r0, r4
  102316:	f005 fe1d 	bl	107f54 <mbed::I2C::read(int, char*, int, bool)>
  10231a:	a802      	add	r0, sp, #8
  10231c:	f008 f9f2 	bl	10a704 <atoi>
  102320:	f89d 2009 	ldrb.w	r2, [sp, #9]
  102324:	60f8      	str	r0, [r7, #12]
  102326:	4908      	ldr	r1, [pc, #32]	; (102348 <Accelerometer::read_z()+0x5c>)
  102328:	a804      	add	r0, sp, #16
  10232a:	f00a fa89 	bl	10c840 <siprintf>
  10232e:	2301      	movs	r3, #1
  102330:	2202      	movs	r2, #2
  102332:	a904      	add	r1, sp, #16
  102334:	4805      	ldr	r0, [pc, #20]	; (10234c <Accelerometer::read_z()+0x60>)
  102336:	f002 f8cd 	bl	1044d4 <NHD_C0216CZ::displayStringToPos(char const*, int, int)>
  10233a:	b00d      	add	sp, #52	; 0x34
  10233c:	bdf0      	pop	{r4, r5, r6, r7, pc}
  10233e:	bf00      	nop
  102340:	3fff40a4 	.word	0x3fff40a4
  102344:	3fff678c 	.word	0x3fff678c
  102348:	0010fed2 	.word	0x0010fed2
  10234c:	3fff6840 	.word	0x3fff6840

00102350 <Accelerometer::read_axis()>:
  102350:	b510      	push	{r4, lr}
  102352:	4604      	mov	r4, r0
  102354:	f7ff ff66 	bl	102224 <Accelerometer::read_X()>
  102358:	4620      	mov	r0, r4
  10235a:	f7ff ff95 	bl	102288 <Accelerometer::read_y()>
  10235e:	4620      	mov	r0, r4
  102360:	e8bd 4010 	ldmia.w	sp!, {r4, lr}
  102364:	f7ff bfc2 	b.w	1022ec <Accelerometer::read_z()>

00102368 <Accelerometer::GetNewData(int, int, int)>:
  102368:	b508      	push	{r3, lr}
  10236a:	f7ff fff1 	bl	102350 <Accelerometer::read_axis()>
  10236e:	e8bd 4008 	ldmia.w	sp!, {r3, lr}
  102372:	2032      	movs	r0, #50	; 0x32
  102374:	f006 bd1c 	b.w	108db0 <wait_us>

00102378 <Accelerometer::devSetup(char*)>:
  102378:	b51f      	push	{r0, r1, r2, r3, r4, lr}
  10237a:	780b      	ldrb	r3, [r1, #0]
  10237c:	4604      	mov	r4, r0
  10237e:	2b6d      	cmp	r3, #109	; 0x6d
  102380:	4608      	mov	r0, r1
  102382:	d14d      	bne.n	102420 <Accelerometer::devSetup(char*)+0xa8>
  102384:	4b27      	ldr	r3, [pc, #156]	; (102424 <Accelerometer::devSetup(char*)+0xac>)
  102386:	4299      	cmp	r1, r3
  102388:	d104      	bne.n	102394 <Accelerometer::devSetup(char*)+0x1c>
  10238a:	2331      	movs	r3, #49	; 0x31
  10238c:	f88d 300c 	strb.w	r3, [sp, #12]
  102390:	23fc      	movs	r3, #252	; 0xfc
  102392:	e03a      	b.n	10240a <Accelerometer::devSetup(char*)+0x92>
  102394:	4b24      	ldr	r3, [pc, #144]	; (102428 <Accelerometer::devSetup(char*)+0xb0>)
  102396:	4299      	cmp	r1, r3
  102398:	d104      	bne.n	1023a4 <Accelerometer::devSetup(char*)+0x2c>
  10239a:	2331      	movs	r3, #49	; 0x31
  10239c:	f88d 300c 	strb.w	r3, [sp, #12]
  1023a0:	23fd      	movs	r3, #253	; 0xfd
  1023a2:	e032      	b.n	10240a <Accelerometer::devSetup(char*)+0x92>
  1023a4:	4b21      	ldr	r3, [pc, #132]	; (10242c <Accelerometer::devSetup(char*)+0xb4>)
  1023a6:	4299      	cmp	r1, r3
  1023a8:	d104      	bne.n	1023b4 <Accelerometer::devSetup(char*)+0x3c>
  1023aa:	2331      	movs	r3, #49	; 0x31
  1023ac:	f88d 300c 	strb.w	r3, [sp, #12]
  1023b0:	23fe      	movs	r3, #254	; 0xfe
  1023b2:	e02a      	b.n	10240a <Accelerometer::devSetup(char*)+0x92>
  1023b4:	4b1e      	ldr	r3, [pc, #120]	; (102430 <Accelerometer::devSetup(char*)+0xb8>)
  1023b6:	4299      	cmp	r1, r3
  1023b8:	d101      	bne.n	1023be <Accelerometer::devSetup(char*)+0x46>
  1023ba:	2331      	movs	r3, #49	; 0x31
  1023bc:	e016      	b.n	1023ec <Accelerometer::devSetup(char*)+0x74>
  1023be:	4b1d      	ldr	r3, [pc, #116]	; (102434 <Accelerometer::devSetup(char*)+0xbc>)
  1023c0:	4299      	cmp	r1, r3
  1023c2:	d01e      	beq.n	102402 <Accelerometer::devSetup(char*)+0x8a>
  1023c4:	4b1c      	ldr	r3, [pc, #112]	; (102438 <Accelerometer::devSetup(char*)+0xc0>)
  1023c6:	4299      	cmp	r1, r3
  1023c8:	d104      	bne.n	1023d4 <Accelerometer::devSetup(char*)+0x5c>
  1023ca:	2338      	movs	r3, #56	; 0x38
  1023cc:	f88d 300c 	strb.w	r3, [sp, #12]
  1023d0:	237f      	movs	r3, #127	; 0x7f
  1023d2:	e01a      	b.n	10240a <Accelerometer::devSetup(char*)+0x92>
  1023d4:	4b19      	ldr	r3, [pc, #100]	; (10243c <Accelerometer::devSetup(char*)+0xc4>)
  1023d6:	4299      	cmp	r1, r3
  1023d8:	d104      	bne.n	1023e4 <Accelerometer::devSetup(char*)+0x6c>
  1023da:	2338      	movs	r3, #56	; 0x38
  1023dc:	f88d 300c 	strb.w	r3, [sp, #12]
  1023e0:	23bf      	movs	r3, #191	; 0xbf
  1023e2:	e012      	b.n	10240a <Accelerometer::devSetup(char*)+0x92>
  1023e4:	4b16      	ldr	r3, [pc, #88]	; (102440 <Accelerometer::devSetup(char*)+0xc8>)
  1023e6:	4299      	cmp	r1, r3
  1023e8:	d104      	bne.n	1023f4 <Accelerometer::devSetup(char*)+0x7c>
  1023ea:	2338      	movs	r3, #56	; 0x38
  1023ec:	f88d 300c 	strb.w	r3, [sp, #12]
  1023f0:	2303      	movs	r3, #3
  1023f2:	e00a      	b.n	10240a <Accelerometer::devSetup(char*)+0x92>
  1023f4:	4913      	ldr	r1, [pc, #76]	; (102444 <Accelerometer::devSetup(char*)+0xcc>)
  1023f6:	f00a fab6 	bl	10c966 <strcmp>
  1023fa:	b988      	cbnz	r0, 102420 <Accelerometer::devSetup(char*)+0xa8>
  1023fc:	4620      	mov	r0, r4
  1023fe:	f7ff feed 	bl	1021dc <Accelerometer::accel_initialize()>
  102402:	2338      	movs	r3, #56	; 0x38
  102404:	f88d 300c 	strb.w	r3, [sp, #12]
  102408:	233f      	movs	r3, #63	; 0x3f
  10240a:	f88d 300d 	strb.w	r3, [sp, #13]
  10240e:	490e      	ldr	r1, [pc, #56]	; (102448 <Accelerometer::devSetup(char*)+0xd0>)
  102410:	2300      	movs	r3, #0
  102412:	9300      	str	r3, [sp, #0]
  102414:	aa03      	add	r2, sp, #12
  102416:	2302      	movs	r3, #2
  102418:	6809      	ldr	r1, [r1, #0]
  10241a:	480c      	ldr	r0, [pc, #48]	; (10244c <Accelerometer::devSetup(char*)+0xd4>)
  10241c:	f005 fd7a 	bl	107f14 <mbed::I2C::write(int, char const*, int, bool)>
  102420:	b004      	add	sp, #16
  102422:	bd10      	pop	{r4, pc}
  102424:	0010fed7 	.word	0x0010fed7
  102428:	0010fedb 	.word	0x0010fedb
  10242c:	0010fedf 	.word	0x0010fedf
  102430:	0010fee3 	.word	0x0010fee3
  102434:	0010fee8 	.word	0x0010fee8
  102438:	0010feee 	.word	0x0010feee
  10243c:	0010fefc 	.word	0x0010fefc
  102440:	0010ff08 	.word	0x0010ff08
  102444:	0010ff15 	.word	0x0010ff15
  102448:	3fff40a4 	.word	0x3fff40a4
  10244c:	3fff678c 	.word	0x3fff678c

00102450 <Accelerometer::Accelerometer()>:
  102450:	4b01      	ldr	r3, [pc, #4]	; (102458 <Accelerometer::Accelerometer()+0x8>)
  102452:	6003      	str	r3, [r0, #0]
  102454:	4770      	bx	lr
  102456:	bf00      	nop
  102458:	0010fec0 	.word	0x0010fec0

0010245c <_GLOBAL__sub_I_AccelAddres>:
  10245c:	b573      	push	{r0, r1, r4, r5, r6, lr}
  10245e:	483c      	ldr	r0, [pc, #240]	; (102550 <_GLOBAL__sub_I_AccelAddres+0xf4>)
  102460:	f7ff fe9c 	bl	10219c <std::__cxx11::basic_string<char, std::char_traits<char>, std::allocator<char> >::basic_string(char const*, std::allocator<char> const&) [clone .isra.15] [clone .constprop.17]>
  102464:	4a3b      	ldr	r2, [pc, #236]	; (102554 <_GLOBAL__sub_I_AccelAddres+0xf8>)
  102466:	493c      	ldr	r1, [pc, #240]	; (102558 <_GLOBAL__sub_I_AccelAddres+0xfc>)
  102468:	4839      	ldr	r0, [pc, #228]	; (102550 <_GLOBAL__sub_I_AccelAddres+0xf4>)
  10246a:	f006 fb6a 	bl	108b42 <__aeabi_atexit>
  10246e:	4b3b      	ldr	r3, [pc, #236]	; (10255c <_GLOBAL__sub_I_AccelAddres+0x100>)
  102470:	2200      	movs	r2, #0
  102472:	f503 70c0 	add.w	r0, r3, #384	; 0x180
  102476:	4619      	mov	r1, r3
  102478:	f843 2c04 	str.w	r2, [r3, #-4]
  10247c:	f843 3c08 	str.w	r3, [r3, #-8]
  102480:	f801 2b18 	strb.w	r2, [r1], #24
  102484:	6119      	str	r1, [r3, #16]
  102486:	615a      	str	r2, [r3, #20]
  102488:	761a      	strb	r2, [r3, #24]
  10248a:	3330      	adds	r3, #48	; 0x30
  10248c:	4283      	cmp	r3, r0
  10248e:	f04f 0500 	mov.w	r5, #0
  102492:	d1f0      	bne.n	102476 <_GLOBAL__sub_I_AccelAddres+0x1a>
  102494:	4a2f      	ldr	r2, [pc, #188]	; (102554 <_GLOBAL__sub_I_AccelAddres+0xf8>)
  102496:	4932      	ldr	r1, [pc, #200]	; (102560 <_GLOBAL__sub_I_AccelAddres+0x104>)
  102498:	4628      	mov	r0, r5
  10249a:	f006 fb52 	bl	108b42 <__aeabi_atexit>
  10249e:	4831      	ldr	r0, [pc, #196]	; (102564 <_GLOBAL__sub_I_AccelAddres+0x108>)
  1024a0:	f7ff fe7c 	bl	10219c <std::__cxx11::basic_string<char, std::char_traits<char>, std::allocator<char> >::basic_string(char const*, std::allocator<char> const&) [clone .isra.15] [clone .constprop.17]>
  1024a4:	4a2b      	ldr	r2, [pc, #172]	; (102554 <_GLOBAL__sub_I_AccelAddres+0xf8>)
  1024a6:	492c      	ldr	r1, [pc, #176]	; (102558 <_GLOBAL__sub_I_AccelAddres+0xfc>)
  1024a8:	482e      	ldr	r0, [pc, #184]	; (102564 <_GLOBAL__sub_I_AccelAddres+0x108>)
  1024aa:	f006 fb4a 	bl	108b42 <__aeabi_atexit>
  1024ae:	482e      	ldr	r0, [pc, #184]	; (102568 <_GLOBAL__sub_I_AccelAddres+0x10c>)
  1024b0:	f7ff fe74 	bl	10219c <std::__cxx11::basic_string<char, std::char_traits<char>, std::allocator<char> >::basic_string(char const*, std::allocator<char> const&) [clone .isra.15] [clone .constprop.17]>
  1024b4:	4a27      	ldr	r2, [pc, #156]	; (102554 <_GLOBAL__sub_I_AccelAddres+0xf8>)
  1024b6:	4928      	ldr	r1, [pc, #160]	; (102558 <_GLOBAL__sub_I_AccelAddres+0xfc>)
  1024b8:	482b      	ldr	r0, [pc, #172]	; (102568 <_GLOBAL__sub_I_AccelAddres+0x10c>)
  1024ba:	f006 fb42 	bl	108b42 <__aeabi_atexit>
  1024be:	482b      	ldr	r0, [pc, #172]	; (10256c <_GLOBAL__sub_I_AccelAddres+0x110>)
  1024c0:	f7ff fe6c 	bl	10219c <std::__cxx11::basic_string<char, std::char_traits<char>, std::allocator<char> >::basic_string(char const*, std::allocator<char> const&) [clone .isra.15] [clone .constprop.17]>
  1024c4:	4a23      	ldr	r2, [pc, #140]	; (102554 <_GLOBAL__sub_I_AccelAddres+0xf8>)
  1024c6:	4924      	ldr	r1, [pc, #144]	; (102558 <_GLOBAL__sub_I_AccelAddres+0xfc>)
  1024c8:	4828      	ldr	r0, [pc, #160]	; (10256c <_GLOBAL__sub_I_AccelAddres+0x110>)
  1024ca:	f006 fb3a 	bl	108b42 <__aeabi_atexit>
  1024ce:	4828      	ldr	r0, [pc, #160]	; (102570 <_GLOBAL__sub_I_AccelAddres+0x114>)
  1024d0:	f006 fd92 	bl	108ff8 <rtos::Mutex::Mutex()>
  1024d4:	4a1f      	ldr	r2, [pc, #124]	; (102554 <_GLOBAL__sub_I_AccelAddres+0xf8>)
  1024d6:	4927      	ldr	r1, [pc, #156]	; (102574 <_GLOBAL__sub_I_AccelAddres+0x118>)
  1024d8:	4825      	ldr	r0, [pc, #148]	; (102570 <_GLOBAL__sub_I_AccelAddres+0x114>)
  1024da:	f006 fb32 	bl	108b42 <__aeabi_atexit>
  1024de:	4c26      	ldr	r4, [pc, #152]	; (102578 <_GLOBAL__sub_I_AccelAddres+0x11c>)
  1024e0:	2202      	movs	r2, #2
  1024e2:	2103      	movs	r1, #3
  1024e4:	4825      	ldr	r0, [pc, #148]	; (10257c <_GLOBAL__sub_I_AccelAddres+0x120>)
  1024e6:	f005 fccb 	bl	107e80 <mbed::I2C::I2C(PinName, PinName)>
  1024ea:	4a1a      	ldr	r2, [pc, #104]	; (102554 <_GLOBAL__sub_I_AccelAddres+0xf8>)
  1024ec:	4924      	ldr	r1, [pc, #144]	; (102580 <_GLOBAL__sub_I_AccelAddres+0x124>)
  1024ee:	4823      	ldr	r0, [pc, #140]	; (10257c <_GLOBAL__sub_I_AccelAddres+0x120>)
  1024f0:	f006 fb27 	bl	108b42 <__aeabi_atexit>
  1024f4:	4620      	mov	r0, r4
  1024f6:	f006 f86b 	bl	1085d0 <mbed::TimerEvent::TimerEvent()>
  1024fa:	4b22      	ldr	r3, [pc, #136]	; (102584 <_GLOBAL__sub_I_AccelAddres+0x128>)
  1024fc:	6365      	str	r5, [r4, #52]	; 0x34
  1024fe:	6023      	str	r3, [r4, #0]
  102500:	4620      	mov	r0, r4
  102502:	4c21      	ldr	r4, [pc, #132]	; (102588 <_GLOBAL__sub_I_AccelAddres+0x12c>)
  102504:	f04f 36ff 	mov.w	r6, #4294967295
  102508:	4a12      	ldr	r2, [pc, #72]	; (102554 <_GLOBAL__sub_I_AccelAddres+0xf8>)
  10250a:	4920      	ldr	r1, [pc, #128]	; (10258c <_GLOBAL__sub_I_AccelAddres+0x130>)
  10250c:	f006 fb19 	bl	108b42 <__aeabi_atexit>
  102510:	2304      	movs	r3, #4
  102512:	2206      	movs	r2, #6
  102514:	9600      	str	r6, [sp, #0]
  102516:	2105      	movs	r1, #5
  102518:	4620      	mov	r0, r4
  10251a:	f005 fed5 	bl	1082c8 <mbed::SPI::SPI(PinName, PinName, PinName, PinName)>
  10251e:	4631      	mov	r1, r6
  102520:	f104 002c 	add.w	r0, r4, #44	; 0x2c
  102524:	62e5      	str	r5, [r4, #44]	; 0x2c
  102526:	f884 5030 	strb.w	r5, [r4, #48]	; 0x30
  10252a:	6365      	str	r5, [r4, #52]	; 0x34
  10252c:	f002 f958 	bl	1047e0 <gpio_init_out>
  102530:	9600      	str	r6, [sp, #0]
  102532:	2320      	movs	r3, #32
  102534:	2202      	movs	r2, #2
  102536:	2103      	movs	r1, #3
  102538:	f104 0040 	add.w	r0, r4, #64	; 0x40
  10253c:	f001 fd94 	bl	104068 <PCA9655E::PCA9655E(PinName, PinName, unsigned char, PinName)>
  102540:	4620      	mov	r0, r4
  102542:	4a04      	ldr	r2, [pc, #16]	; (102554 <_GLOBAL__sub_I_AccelAddres+0xf8>)
  102544:	4912      	ldr	r1, [pc, #72]	; (102590 <_GLOBAL__sub_I_AccelAddres+0x134>)
  102546:	b002      	add	sp, #8
  102548:	e8bd 4070 	ldmia.w	sp!, {r4, r5, r6, lr}
  10254c:	f006 baf9 	b.w	108b42 <__aeabi_atexit>
  102550:	3fff675c 	.word	0x3fff675c
  102554:	3fff40a0 	.word	0x3fff40a0
  102558:	0010917f 	.word	0x0010917f
  10255c:	3fff65e4 	.word	0x3fff65e4
  102560:	00102139 	.word	0x00102139
  102564:	3fff67e0 	.word	0x3fff67e0
  102568:	3fff6774 	.word	0x3fff6774
  10256c:	3fff6828 	.word	0x3fff6828
  102570:	3fff67f8 	.word	0x3fff67f8
  102574:	00109013 	.word	0x00109013
  102578:	3fff67a8 	.word	0x3fff67a8
  10257c:	3fff678c 	.word	0x3fff678c
  102580:	00102135 	.word	0x00102135
  102584:	00110bd0 	.word	0x00110bd0
  102588:	3fff6840 	.word	0x3fff6840
  10258c:	00102175 	.word	0x00102175
  102590:	00102165 	.word	0x00102165

00102594 <void mbed::Callback<void ()>::function_call<void (*)()>(void const*)>:
  102594:	6803      	ldr	r3, [r0, #0]
  102596:	4718      	bx	r3

00102598 <void mbed::Callback<void ()>::function_move<void (*)()>(void*, void const*)>:
  102598:	b108      	cbz	r0, 10259e <void mbed::Callback<void ()>::function_move<void (*)()>(void*, void const*)+0x6>
  10259a:	680b      	ldr	r3, [r1, #0]
  10259c:	6003      	str	r3, [r0, #0]
  10259e:	4770      	bx	lr

001025a0 <void mbed::Callback<void ()>::function_dtor<void (*)()>(void*)>:
  1025a0:	4770      	bx	lr
	...

001025a4 <__tcf_0>:
  1025a4:	b538      	push	{r3, r4, r5, lr}
  1025a6:	4d06      	ldr	r5, [pc, #24]	; (1025c0 <__tcf_0+0x1c>)
  1025a8:	2400      	movs	r4, #0
  1025aa:	f504 70b4 	add.w	r0, r4, #360	; 0x168
  1025ae:	4428      	add	r0, r5
  1025b0:	3c18      	subs	r4, #24
  1025b2:	f006 fdc9 	bl	109148 <std::__cxx11::basic_string<char, std::char_traits<char>, std::allocator<char> >::_M_dispose()>
  1025b6:	f514 7fc0 	cmn.w	r4, #384	; 0x180
  1025ba:	d1f6      	bne.n	1025aa <__tcf_0+0x6>
  1025bc:	bd38      	pop	{r3, r4, r5, pc}
  1025be:	bf00      	nop
  1025c0:	3fff6b34 	.word	0x3fff6b34

001025c4 <IRQ_Watchdoq_ContinuoslyRun()>:
  1025c4:	b510      	push	{r4, lr}
  1025c6:	b086      	sub	sp, #24
  1025c8:	4668      	mov	r0, sp
  1025ca:	f001 fcdd 	bl	103f88 <LED::LED()>
  1025ce:	4a24      	ldr	r2, [pc, #144]	; (102660 <IRQ_Watchdoq_ContinuoslyRun()+0x9c>)
  1025d0:	6813      	ldr	r3, [r2, #0]
  1025d2:	3301      	adds	r3, #1
  1025d4:	6013      	str	r3, [r2, #0]
  1025d6:	4b23      	ldr	r3, [pc, #140]	; (102664 <IRQ_Watchdoq_ContinuoslyRun()+0xa0>)
  1025d8:	7819      	ldrb	r1, [r3, #0]
  1025da:	b149      	cbz	r1, 1025f0 <IRQ_Watchdoq_ContinuoslyRun()+0x2c>
  1025dc:	2100      	movs	r1, #0
  1025de:	4668      	mov	r0, sp
  1025e0:	7019      	strb	r1, [r3, #0]
  1025e2:	f001 fceb 	bl	103fbc <LED::ledOn(myLED)>
  1025e6:	2101      	movs	r1, #1
  1025e8:	4668      	mov	r0, sp
  1025ea:	f001 fd05 	bl	103ff8 <LED::ledOff(myLED)>
  1025ee:	e008      	b.n	102602 <IRQ_Watchdoq_ContinuoslyRun()+0x3e>
  1025f0:	2401      	movs	r4, #1
  1025f2:	4668      	mov	r0, sp
  1025f4:	701c      	strb	r4, [r3, #0]
  1025f6:	f001 fcff 	bl	103ff8 <LED::ledOff(myLED)>
  1025fa:	4621      	mov	r1, r4
  1025fc:	4668      	mov	r0, sp
  1025fe:	f001 fcdd 	bl	103fbc <LED::ledOn(myLED)>
  102602:	f002 fa69 	bl	104ad8 <core_util_critical_section_enter>
  102606:	2100      	movs	r1, #0
  102608:	4817      	ldr	r0, [pc, #92]	; (102668 <IRQ_Watchdoq_ContinuoslyRun()+0xa4>)
  10260a:	f004 fa05 	bl	106a18 <gpio_dir>
  10260e:	f002 fa8f 	bl	104b30 <core_util_critical_section_exit>
  102612:	4815      	ldr	r0, [pc, #84]	; (102668 <IRQ_Watchdoq_ContinuoslyRun()+0xa4>)
  102614:	f004 fa20 	bl	106a58 <gpio_read>
  102618:	4c14      	ldr	r4, [pc, #80]	; (10266c <IRQ_Watchdoq_ContinuoslyRun()+0xa8>)
  10261a:	b960      	cbnz	r0, 102636 <IRQ_Watchdoq_ContinuoslyRun()+0x72>
  10261c:	4914      	ldr	r1, [pc, #80]	; (102670 <IRQ_Watchdoq_ContinuoslyRun()+0xac>)
  10261e:	a801      	add	r0, sp, #4
  102620:	f00a f9ab 	bl	10c97a <strcpy>
  102624:	2305      	movs	r3, #5
  102626:	2202      	movs	r2, #2
  102628:	a901      	add	r1, sp, #4
  10262a:	4812      	ldr	r0, [pc, #72]	; (102674 <IRQ_Watchdoq_ContinuoslyRun()+0xb0>)
  10262c:	f001 ff52 	bl	1044d4 <NHD_C0216CZ::displayStringToPos(char const*, int, int)>
  102630:	2301      	movs	r3, #1
  102632:	7023      	strb	r3, [r4, #0]
  102634:	e00c      	b.n	102650 <IRQ_Watchdoq_ContinuoslyRun()+0x8c>
  102636:	4910      	ldr	r1, [pc, #64]	; (102678 <IRQ_Watchdoq_ContinuoslyRun()+0xb4>)
  102638:	a801      	add	r0, sp, #4
  10263a:	f00a f99e 	bl	10c97a <strcpy>
  10263e:	2305      	movs	r3, #5
  102640:	2202      	movs	r2, #2
  102642:	a901      	add	r1, sp, #4
  102644:	480b      	ldr	r0, [pc, #44]	; (102674 <IRQ_Watchdoq_ContinuoslyRun()+0xb0>)
  102646:	f001 ff45 	bl	1044d4 <NHD_C0216CZ::displayStringToPos(char const*, int, int)>
  10264a:	2300      	movs	r3, #0
  10264c:	7023      	strb	r3, [r4, #0]
  10264e:	2301      	movs	r3, #1
  102650:	2202      	movs	r2, #2
  102652:	a901      	add	r1, sp, #4
  102654:	4807      	ldr	r0, [pc, #28]	; (102674 <IRQ_Watchdoq_ContinuoslyRun()+0xb0>)
  102656:	f001 ff3d 	bl	1044d4 <NHD_C0216CZ::displayStringToPos(char const*, int, int)>
  10265a:	b006      	add	sp, #24
  10265c:	bd10      	pop	{r4, pc}
  10265e:	bf00      	nop
  102660:	3fff7688 	.word	0x3fff7688
  102664:	3fff710c 	.word	0x3fff710c
  102668:	3fff767c 	.word	0x3fff767c
  10266c:	3fff71b0 	.word	0x3fff71b0
  102670:	0010ff38 	.word	0x0010ff38
  102674:	3fff6cb4 	.word	0x3fff6cb4
  102678:	0010ff3f 	.word	0x0010ff3f

0010267c <IRQ_BLEmenu_sendAccel()>:
  10267c:	b500      	push	{lr}
  10267e:	2300      	movs	r3, #0
  102680:	b08f      	sub	sp, #60	; 0x3c
  102682:	4619      	mov	r1, r3
  102684:	461a      	mov	r2, r3
  102686:	4807      	ldr	r0, [pc, #28]	; (1026a4 <IRQ_BLEmenu_sendAccel()+0x28>)
  102688:	f7ff fe6e 	bl	102368 <Accelerometer::GetNewData(int, int, int)>
  10268c:	4906      	ldr	r1, [pc, #24]	; (1026a8 <IRQ_BLEmenu_sendAccel()+0x2c>)
  10268e:	a801      	add	r0, sp, #4
  102690:	f00a f973 	bl	10c97a <strcpy>
  102694:	a901      	add	r1, sp, #4
  102696:	4805      	ldr	r0, [pc, #20]	; (1026ac <IRQ_BLEmenu_sendAccel()+0x30>)
  102698:	f000 fd30 	bl	1030fc <GPS::send(char*)>
  10269c:	b00f      	add	sp, #60	; 0x3c
  10269e:	f85d fb04 	ldr.w	pc, [sp], #4
  1026a2:	bf00      	nop
  1026a4:	3fff6e88 	.word	0x3fff6e88
  1026a8:	0010ff48 	.word	0x0010ff48
  1026ac:	3fff71b4 	.word	0x3fff71b4

001026b0 <RSL10_BLE::~RSL10_BLE()>:
  1026b0:	b510      	push	{r4, lr}
  1026b2:	4604      	mov	r4, r0
  1026b4:	4b03      	ldr	r3, [pc, #12]	; (1026c4 <RSL10_BLE::~RSL10_BLE()+0x14>)
  1026b6:	f840 3b04 	str.w	r3, [r0], #4
  1026ba:	f001 fd99 	bl	1041f0 <PCA9655E::~PCA9655E()>
  1026be:	4620      	mov	r0, r4
  1026c0:	bd10      	pop	{r4, pc}
  1026c2:	bf00      	nop
  1026c4:	0010ff24 	.word	0x0010ff24

001026c8 <RSL10_BLE::~RSL10_BLE()>:
  1026c8:	b510      	push	{r4, lr}
  1026ca:	4604      	mov	r4, r0
  1026cc:	f7ff fff0 	bl	1026b0 <RSL10_BLE::~RSL10_BLE()>
  1026d0:	4620      	mov	r0, r4
  1026d2:	f006 fa6b 	bl	108bac <operator delete(void*)>
  1026d6:	4620      	mov	r0, r4
  1026d8:	bd10      	pop	{r4, pc}
	...

001026dc <std::__cxx11::basic_string<char, std::char_traits<char>, std::allocator<char> >::basic_string(char const*, std::allocator<char> const&) [clone .isra.21]>:
  1026dc:	f100 0308 	add.w	r3, r0, #8
  1026e0:	b573      	push	{r0, r1, r4, r5, r6, lr}
  1026e2:	4604      	mov	r4, r0
  1026e4:	6003      	str	r3, [r0, #0]
  1026e6:	460d      	mov	r5, r1
  1026e8:	b181      	cbz	r1, 10270c <std::__cxx11::basic_string<char, std::char_traits<char>, std::allocator<char> >::basic_string(char const*, std::allocator<char> const&) [clone .isra.21]+0x30>
  1026ea:	4608      	mov	r0, r1
  1026ec:	f00a f94d 	bl	10c98a <strlen>
  1026f0:	280f      	cmp	r0, #15
  1026f2:	eb05 0600 	add.w	r6, r5, r0
  1026f6:	9001      	str	r0, [sp, #4]
  1026f8:	d90b      	bls.n	102712 <std::__cxx11::basic_string<char, std::char_traits<char>, std::allocator<char> >::basic_string(char const*, std::allocator<char> const&) [clone .isra.21]+0x36>
  1026fa:	2200      	movs	r2, #0
  1026fc:	a901      	add	r1, sp, #4
  1026fe:	4620      	mov	r0, r4
  102700:	f006 fd06 	bl	109110 <std::__cxx11::basic_string<char, std::char_traits<char>, std::allocator<char> >::_M_create(unsigned int&, unsigned int)>
  102704:	9b01      	ldr	r3, [sp, #4]
  102706:	6020      	str	r0, [r4, #0]
  102708:	60a3      	str	r3, [r4, #8]
  10270a:	e002      	b.n	102712 <std::__cxx11::basic_string<char, std::char_traits<char>, std::allocator<char> >::basic_string(char const*, std::allocator<char> const&) [clone .isra.21]+0x36>
  10270c:	4807      	ldr	r0, [pc, #28]	; (10272c <std::__cxx11::basic_string<char, std::char_traits<char>, std::allocator<char> >::basic_string(char const*, std::allocator<char> const&) [clone .isra.21]+0x50>)
  10270e:	f006 fcf5 	bl	1090fc <std::__throw_logic_error(char const*)>
  102712:	4632      	mov	r2, r6
  102714:	4629      	mov	r1, r5
  102716:	6820      	ldr	r0, [r4, #0]
  102718:	f006 fd2c 	bl	109174 <std::__cxx11::basic_string<char, std::char_traits<char>, std::allocator<char> >::_S_copy_chars(char*, char const*, char const*)>
  10271c:	4620      	mov	r0, r4
  10271e:	9b01      	ldr	r3, [sp, #4]
  102720:	6822      	ldr	r2, [r4, #0]
  102722:	2100      	movs	r1, #0
  102724:	6063      	str	r3, [r4, #4]
  102726:	54d1      	strb	r1, [r2, r3]
  102728:	b002      	add	sp, #8
  10272a:	bd70      	pop	{r4, r5, r6, pc}
  10272c:	0010ff51 	.word	0x0010ff51

00102730 <mbed::Ticker::Ticker()>:
  102730:	b510      	push	{r4, lr}
  102732:	4604      	mov	r4, r0
  102734:	f005 ff4c 	bl	1085d0 <mbed::TimerEvent::TimerEvent()>
  102738:	4b02      	ldr	r3, [pc, #8]	; (102744 <mbed::Ticker::Ticker()+0x14>)
  10273a:	4620      	mov	r0, r4
  10273c:	6023      	str	r3, [r4, #0]
  10273e:	2300      	movs	r3, #0
  102740:	6363      	str	r3, [r4, #52]	; 0x34
  102742:	bd10      	pop	{r4, pc}
  102744:	00110bd0 	.word	0x00110bd0

00102748 <UartBUS_init()>:
  102748:	b510      	push	{r4, lr}
  10274a:	4c06      	ldr	r4, [pc, #24]	; (102764 <UartBUS_init()+0x1c>)
  10274c:	4620      	mov	r0, r4
  10274e:	f000 fefd 	bl	10354c <GSM::deactivate()>
  102752:	4805      	ldr	r0, [pc, #20]	; (102768 <UartBUS_init()+0x20>)
  102754:	f000 fcb6 	bl	1030c4 <GPS::deactivate()>
  102758:	4620      	mov	r0, r4
  10275a:	e8bd 4010 	ldmia.w	sp!, {r4, lr}
  10275e:	4903      	ldr	r1, [pc, #12]	; (10276c <UartBUS_init()+0x24>)
  102760:	f000 bf10 	b.w	103584 <GSM::send(char*)>
  102764:	3fff6db8 	.word	0x3fff6db8
  102768:	3fff71b4 	.word	0x3fff71b4
  10276c:	0010ff7b 	.word	0x0010ff7b

00102770 <BLE_SendData(std::__cxx11::basic_string<char, std::char_traits<char>, std::allocator<char> >)>:
  102770:	b508      	push	{r3, lr}
  102772:	e890 0006 	ldmia.w	r0, {r1, r2}
  102776:	4804      	ldr	r0, [pc, #16]	; (102788 <BLE_SendData(std::__cxx11::basic_string<char, std::char_traits<char>, std::allocator<char> >)+0x18>)
  102778:	f001 ff18 	bl	1045ac <RSL10_BLE::send(char const*, unsigned int)>
  10277c:	4b03      	ldr	r3, [pc, #12]	; (10278c <BLE_SendData(std::__cxx11::basic_string<char, std::char_traits<char>, std::allocator<char> >)+0x1c>)
  10277e:	6018      	str	r0, [r3, #0]
  102780:	3814      	subs	r0, #20
  102782:	bf18      	it	ne
  102784:	2001      	movne	r0, #1
  102786:	bd08      	pop	{r3, pc}
  102788:	3fff6ee8 	.word	0x3fff6ee8
  10278c:	3fff7174 	.word	0x3fff7174

00102790 <BLE_SendChar(char*)>:
  102790:	b510      	push	{r4, lr}
  102792:	4601      	mov	r1, r0
  102794:	4604      	mov	r4, r0
  102796:	2204      	movs	r2, #4
  102798:	4804      	ldr	r0, [pc, #16]	; (1027ac <BLE_SendChar(char*)+0x1c>)
  10279a:	f001 ff07 	bl	1045ac <RSL10_BLE::send(char const*, unsigned int)>
  10279e:	4b04      	ldr	r3, [pc, #16]	; (1027b0 <BLE_SendChar(char*)+0x20>)
  1027a0:	6018      	str	r0, [r3, #0]
  1027a2:	f04f 3320 	mov.w	r3, #538976288	; 0x20202020
  1027a6:	6023      	str	r3, [r4, #0]
  1027a8:	bd10      	pop	{r4, pc}
  1027aa:	bf00      	nop
  1027ac:	3fff6ee8 	.word	0x3fff6ee8
  1027b0:	3fff7174 	.word	0x3fff7174

001027b4 <BLE_ReadReceivedData()>:
  1027b4:	b508      	push	{r3, lr}
  1027b6:	480b      	ldr	r0, [pc, #44]	; (1027e4 <BLE_ReadReceivedData()+0x30>)
  1027b8:	f001 ff4c 	bl	104654 <RSL10_BLE::readable()>
  1027bc:	b180      	cbz	r0, 1027e0 <BLE_ReadReceivedData()+0x2c>
  1027be:	2214      	movs	r2, #20
  1027c0:	2120      	movs	r1, #32
  1027c2:	4809      	ldr	r0, [pc, #36]	; (1027e8 <BLE_ReadReceivedData()+0x34>)
  1027c4:	f008 fb3c 	bl	10ae40 <memset>
  1027c8:	2214      	movs	r2, #20
  1027ca:	4907      	ldr	r1, [pc, #28]	; (1027e8 <BLE_ReadReceivedData()+0x34>)
  1027cc:	4805      	ldr	r0, [pc, #20]	; (1027e4 <BLE_ReadReceivedData()+0x30>)
  1027ce:	f001 ff63 	bl	104698 <RSL10_BLE::recv(char*, unsigned int)>
  1027d2:	4b06      	ldr	r3, [pc, #24]	; (1027ec <BLE_ReadReceivedData()+0x38>)
  1027d4:	4904      	ldr	r1, [pc, #16]	; (1027e8 <BLE_ReadReceivedData()+0x34>)
  1027d6:	6018      	str	r0, [r3, #0]
  1027d8:	4805      	ldr	r0, [pc, #20]	; (1027f0 <BLE_ReadReceivedData()+0x3c>)
  1027da:	f00a f8ce 	bl	10c97a <strcpy>
  1027de:	2001      	movs	r0, #1
  1027e0:	bd08      	pop	{r3, pc}
  1027e2:	bf00      	nop
  1027e4:	3fff6ee8 	.word	0x3fff6ee8
  1027e8:	3fff7000 	.word	0x3fff7000
  1027ec:	3fff7174 	.word	0x3fff7174
  1027f0:	3fff710d 	.word	0x3fff710d

001027f4 <mbed::Callback<void ()>::~Callback()>:
  1027f4:	68c3      	ldr	r3, [r0, #12]
  1027f6:	b510      	push	{r4, lr}
  1027f8:	4604      	mov	r4, r0
  1027fa:	b10b      	cbz	r3, 102800 <mbed::Callback<void ()>::~Callback()+0xc>
  1027fc:	689b      	ldr	r3, [r3, #8]
  1027fe:	4798      	blx	r3
  102800:	4620      	mov	r0, r4
  102802:	bd10      	pop	{r4, pc}

00102804 <mbed::Callback<void ()>::Callback(mbed::Callback<void ()> const&)>:
  102804:	b538      	push	{r3, r4, r5, lr}
  102806:	68cb      	ldr	r3, [r1, #12]
  102808:	4604      	mov	r4, r0
  10280a:	460d      	mov	r5, r1
  10280c:	b10b      	cbz	r3, 102812 <mbed::Callback<void ()>::Callback(mbed::Callback<void ()> const&)+0xe>
  10280e:	685b      	ldr	r3, [r3, #4]
  102810:	4798      	blx	r3
  102812:	68eb      	ldr	r3, [r5, #12]
  102814:	4620      	mov	r0, r4
  102816:	60e3      	str	r3, [r4, #12]
  102818:	bd38      	pop	{r3, r4, r5, pc}
	...

0010281c <mbed::Ticker::attach(mbed::Callback<void ()>, float)>:
  10281c:	e92d 437f 	stmdb	sp!, {r0, r1, r2, r3, r4, r5, r6, r8, r9, lr}
  102820:	4615      	mov	r5, r2
  102822:	4606      	mov	r6, r0
  102824:	4668      	mov	r0, sp
  102826:	f7ff ffed 	bl	102804 <mbed::Callback<void ()>::Callback(mbed::Callback<void ()> const&)>
  10282a:	4910      	ldr	r1, [pc, #64]	; (10286c <mbed::Ticker::attach(mbed::Callback<void ()>, float)+0x50>)
  10282c:	4628      	mov	r0, r5
  10282e:	f007 f975 	bl	109b1c <__aeabi_fmul>
  102832:	466c      	mov	r4, sp
  102834:	f007 fb96 	bl	109f64 <__aeabi_f2ulz>
  102838:	f106 0528 	add.w	r5, r6, #40	; 0x28
  10283c:	42a5      	cmp	r5, r4
  10283e:	4680      	mov	r8, r0
  102840:	4689      	mov	r9, r1
  102842:	d007      	beq.n	102854 <mbed::Ticker::attach(mbed::Callback<void ()>, float)+0x38>
  102844:	4628      	mov	r0, r5
  102846:	f7ff ffd5 	bl	1027f4 <mbed::Callback<void ()>::~Callback()>
  10284a:	b11d      	cbz	r5, 102854 <mbed::Ticker::attach(mbed::Callback<void ()>, float)+0x38>
  10284c:	4669      	mov	r1, sp
  10284e:	4628      	mov	r0, r5
  102850:	f7ff ffd8 	bl	102804 <mbed::Callback<void ()>::Callback(mbed::Callback<void ()> const&)>
  102854:	4642      	mov	r2, r8
  102856:	464b      	mov	r3, r9
  102858:	4630      	mov	r0, r6
  10285a:	f005 fdf1 	bl	108440 <mbed::Ticker::setup(unsigned long long)>
  10285e:	4620      	mov	r0, r4
  102860:	f7ff ffc8 	bl	1027f4 <mbed::Callback<void ()>::~Callback()>
  102864:	b004      	add	sp, #16
  102866:	e8bd 8370 	ldmia.w	sp!, {r4, r5, r6, r8, r9, pc}
  10286a:	bf00      	nop
  10286c:	49742400 	.word	0x49742400

00102870 <main>:
  102870:	b51f      	push	{r0, r1, r2, r3, r4, lr}
  102872:	4815      	ldr	r0, [pc, #84]	; (1028c8 <main+0x58>)
  102874:	f001 fdb2 	bl	1043dc <NHD_C0216CZ::init()>
  102878:	4914      	ldr	r1, [pc, #80]	; (1028cc <main+0x5c>)
  10287a:	4813      	ldr	r0, [pc, #76]	; (1028c8 <main+0x58>)
  10287c:	f001 fe44 	bl	104508 <NHD_C0216CZ::displayString(char const*)>
  102880:	f04f 4080 	mov.w	r0, #1073741824	; 0x40000000
  102884:	f006 faac 	bl	108de0 <wait>
  102888:	480f      	ldr	r0, [pc, #60]	; (1028c8 <main+0x58>)
  10288a:	f001 fd57 	bl	10433c <NHD_C0216CZ::clearDisplay()>
  10288e:	f7ff ff5b 	bl	102748 <UartBUS_init()>
  102892:	480f      	ldr	r0, [pc, #60]	; (1028d0 <main+0x60>)
  102894:	f000 fe30 	bl	1034f8 <GSM::activate()>
  102898:	4c0e      	ldr	r4, [pc, #56]	; (1028d4 <main+0x64>)
  10289a:	4b0f      	ldr	r3, [pc, #60]	; (1028d8 <main+0x68>)
  10289c:	4a0f      	ldr	r2, [pc, #60]	; (1028dc <main+0x6c>)
  10289e:	4669      	mov	r1, sp
  1028a0:	480f      	ldr	r0, [pc, #60]	; (1028e0 <main+0x70>)
  1028a2:	9300      	str	r3, [sp, #0]
  1028a4:	9403      	str	r4, [sp, #12]
  1028a6:	f7ff ffb9 	bl	10281c <mbed::Ticker::attach(mbed::Callback<void ()>, float)>
  1028aa:	4668      	mov	r0, sp
  1028ac:	f7ff ffa2 	bl	1027f4 <mbed::Callback<void ()>::~Callback()>
  1028b0:	4b0c      	ldr	r3, [pc, #48]	; (1028e4 <main+0x74>)
  1028b2:	480d      	ldr	r0, [pc, #52]	; (1028e8 <main+0x78>)
  1028b4:	4a0d      	ldr	r2, [pc, #52]	; (1028ec <main+0x7c>)
  1028b6:	4669      	mov	r1, sp
  1028b8:	9300      	str	r3, [sp, #0]
  1028ba:	9403      	str	r4, [sp, #12]
  1028bc:	f7ff ffae 	bl	10281c <mbed::Ticker::attach(mbed::Callback<void ()>, float)>
  1028c0:	4668      	mov	r0, sp
  1028c2:	f7ff ff97 	bl	1027f4 <mbed::Callback<void ()>::~Callback()>
  1028c6:	e7fe      	b.n	1028c6 <main+0x56>
  1028c8:	3fff6cb4 	.word	0x3fff6cb4
  1028cc:	0010ff81 	.word	0x0010ff81
  1028d0:	3fff6db8 	.word	0x3fff6db8
  1028d4:	0010ff2c 	.word	0x0010ff2c
  1028d8:	001025c5 	.word	0x001025c5
  1028dc:	3ecccccd 	.word	0x3ecccccd
  1028e0:	3fff7050 	.word	0x3fff7050
  1028e4:	00102db9 	.word	0x00102db9
  1028e8:	3fff7178 	.word	0x3fff7178
  1028ec:	3f333333 	.word	0x3f333333

001028f0 <Ble_Menu(char*)>:
  1028f0:	b5f0      	push	{r4, r5, r6, r7, lr}
  1028f2:	4604      	mov	r4, r0
  1028f4:	b0af      	sub	sp, #188	; 0xbc
  1028f6:	48a0      	ldr	r0, [pc, #640]	; (102b78 <Ble_Menu(char*)+0x288>)
  1028f8:	f005 fdba 	bl	108470 <mbed::Ticker::detach()>
  1028fc:	4621      	mov	r1, r4
  1028fe:	489f      	ldr	r0, [pc, #636]	; (102b7c <Ble_Menu(char*)+0x28c>)
  102900:	f001 fe02 	bl	104508 <NHD_C0216CZ::displayString(char const*)>
  102904:	4620      	mov	r0, r4
  102906:	499e      	ldr	r1, [pc, #632]	; (102b80 <Ble_Menu(char*)+0x290>)
  102908:	f00a fe7e 	bl	10d608 <strtok>
  10290c:	4d9d      	ldr	r5, [pc, #628]	; (102b84 <Ble_Menu(char*)+0x294>)
  10290e:	2400      	movs	r4, #0
  102910:	b160      	cbz	r0, 10292c <Ble_Menu(char*)+0x3c>
  102912:	f5b4 7f96 	cmp.w	r4, #300	; 0x12c
  102916:	d009      	beq.n	10292c <Ble_Menu(char*)+0x3c>
  102918:	4601      	mov	r1, r0
  10291a:	1928      	adds	r0, r5, r4
  10291c:	f00a f82d 	bl	10c97a <strcpy>
  102920:	4997      	ldr	r1, [pc, #604]	; (102b80 <Ble_Menu(char*)+0x290>)
  102922:	2000      	movs	r0, #0
  102924:	f00a fe70 	bl	10d608 <strtok>
  102928:	341e      	adds	r4, #30
  10292a:	e7f1      	b.n	102910 <Ble_Menu(char*)+0x20>
  10292c:	4c95      	ldr	r4, [pc, #596]	; (102b84 <Ble_Menu(char*)+0x294>)
  10292e:	4996      	ldr	r1, [pc, #600]	; (102b88 <Ble_Menu(char*)+0x298>)
  102930:	4620      	mov	r0, r4
  102932:	f00a f818 	bl	10c966 <strcmp>
  102936:	4605      	mov	r5, r0
  102938:	2800      	cmp	r0, #0
  10293a:	d171      	bne.n	102a20 <Ble_Menu(char*)+0x130>
  10293c:	4993      	ldr	r1, [pc, #588]	; (102b8c <Ble_Menu(char*)+0x29c>)
  10293e:	f104 001e 	add.w	r0, r4, #30
  102942:	f00a f810 	bl	10c966 <strcmp>
  102946:	b908      	cbnz	r0, 10294c <Ble_Menu(char*)+0x5c>
  102948:	2201      	movs	r2, #1
  10294a:	e006      	b.n	10295a <Ble_Menu(char*)+0x6a>
  10294c:	4990      	ldr	r1, [pc, #576]	; (102b90 <Ble_Menu(char*)+0x2a0>)
  10294e:	f104 001e 	add.w	r0, r4, #30
  102952:	f00a f808 	bl	10c966 <strcmp>
  102956:	b988      	cbnz	r0, 10297c <Ble_Menu(char*)+0x8c>
  102958:	462a      	mov	r2, r5
  10295a:	2102      	movs	r1, #2
  10295c:	488d      	ldr	r0, [pc, #564]	; (102b94 <Ble_Menu(char*)+0x2a4>)
  10295e:	f000 fbf3 	bl	103148 <GPS::control(int, bool)>
  102962:	4b8d      	ldr	r3, [pc, #564]	; (102b98 <Ble_Menu(char*)+0x2a8>)
  102964:	9315      	str	r3, [sp, #84]	; 0x54
  102966:	4b8d      	ldr	r3, [pc, #564]	; (102b9c <Ble_Menu(char*)+0x2ac>)
  102968:	9318      	str	r3, [sp, #96]	; 0x60
  10296a:	4883      	ldr	r0, [pc, #524]	; (102b78 <Ble_Menu(char*)+0x288>)
  10296c:	4a8c      	ldr	r2, [pc, #560]	; (102ba0 <Ble_Menu(char*)+0x2b0>)
  10296e:	a915      	add	r1, sp, #84	; 0x54
  102970:	f7ff ff54 	bl	10281c <mbed::Ticker::attach(mbed::Callback<void ()>, float)>
  102974:	a815      	add	r0, sp, #84	; 0x54
  102976:	f7ff ff3d 	bl	1027f4 <mbed::Callback<void ()>::~Callback()>
  10297a:	e1f3      	b.n	102d64 <Ble_Menu(char*)+0x474>
  10297c:	4989      	ldr	r1, [pc, #548]	; (102ba4 <Ble_Menu(char*)+0x2b4>)
  10297e:	f104 001e 	add.w	r0, r4, #30
  102982:	f009 fff0 	bl	10c966 <strcmp>
  102986:	b910      	cbnz	r0, 10298e <Ble_Menu(char*)+0x9e>
  102988:	2201      	movs	r2, #1
  10298a:	4611      	mov	r1, r2
  10298c:	e7e6      	b.n	10295c <Ble_Menu(char*)+0x6c>
  10298e:	4986      	ldr	r1, [pc, #536]	; (102ba8 <Ble_Menu(char*)+0x2b8>)
  102990:	f104 001e 	add.w	r0, r4, #30
  102994:	f009 ffe7 	bl	10c966 <strcmp>
  102998:	b910      	cbnz	r0, 1029a0 <Ble_Menu(char*)+0xb0>
  10299a:	462a      	mov	r2, r5
  10299c:	2101      	movs	r1, #1
  10299e:	e7dd      	b.n	10295c <Ble_Menu(char*)+0x6c>
  1029a0:	4982      	ldr	r1, [pc, #520]	; (102bac <Ble_Menu(char*)+0x2bc>)
  1029a2:	f104 001e 	add.w	r0, r4, #30
  1029a6:	f009 ffde 	bl	10c966 <strcmp>
  1029aa:	b910      	cbnz	r0, 1029b2 <Ble_Menu(char*)+0xc2>
  1029ac:	462a      	mov	r2, r5
  1029ae:	2163      	movs	r1, #99	; 0x63
  1029b0:	e7d4      	b.n	10295c <Ble_Menu(char*)+0x6c>
  1029b2:	f104 001e 	add.w	r0, r4, #30
  1029b6:	497e      	ldr	r1, [pc, #504]	; (102bb0 <Ble_Menu(char*)+0x2c0>)
  1029b8:	f009 ffd5 	bl	10c966 <strcmp>
  1029bc:	4604      	mov	r4, r0
  1029be:	bb50      	cbnz	r0, 102a16 <Ble_Menu(char*)+0x126>
  1029c0:	4874      	ldr	r0, [pc, #464]	; (102b94 <Ble_Menu(char*)+0x2a4>)
  1029c2:	f000 fbf7 	bl	1031b4 <GPS::FakeDataGenerator()>
  1029c6:	4621      	mov	r1, r4
  1029c8:	ab04      	add	r3, sp, #16
  1029ca:	aa01      	add	r2, sp, #4
  1029cc:	4871      	ldr	r0, [pc, #452]	; (102b94 <Ble_Menu(char*)+0x2a4>)
  1029ce:	f000 fba7 	bl	103120 <GPS::ShowStruct(int, char*, char*)>
  1029d2:	ab04      	add	r3, sp, #16
  1029d4:	aa01      	add	r2, sp, #4
  1029d6:	4977      	ldr	r1, [pc, #476]	; (102bb4 <Ble_Menu(char*)+0x2c4>)
  1029d8:	a815      	add	r0, sp, #84	; 0x54
  1029da:	f009 ff31 	bl	10c840 <siprintf>
  1029de:	a915      	add	r1, sp, #84	; 0x54
  1029e0:	4866      	ldr	r0, [pc, #408]	; (102b7c <Ble_Menu(char*)+0x28c>)
  1029e2:	f001 fd91 	bl	104508 <NHD_C0216CZ::displayString(char const*)>
  1029e6:	a815      	add	r0, sp, #84	; 0x54
  1029e8:	f7ff fed2 	bl	102790 <BLE_SendChar(char*)>
  1029ec:	3401      	adds	r4, #1
  1029ee:	f44f 70fa 	mov.w	r0, #500	; 0x1f4
  1029f2:	f006 fa01 	bl	108df8 <wait_ms>
  1029f6:	2c0b      	cmp	r4, #11
  1029f8:	d1e5      	bne.n	1029c6 <Ble_Menu(char*)+0xd6>
  1029fa:	4b67      	ldr	r3, [pc, #412]	; (102b98 <Ble_Menu(char*)+0x2a8>)
  1029fc:	4a68      	ldr	r2, [pc, #416]	; (102ba0 <Ble_Menu(char*)+0x2b0>)
  1029fe:	9308      	str	r3, [sp, #32]
  102a00:	4b66      	ldr	r3, [pc, #408]	; (102b9c <Ble_Menu(char*)+0x2ac>)
  102a02:	a908      	add	r1, sp, #32
  102a04:	485c      	ldr	r0, [pc, #368]	; (102b78 <Ble_Menu(char*)+0x288>)
  102a06:	930b      	str	r3, [sp, #44]	; 0x2c
  102a08:	f7ff ff08 	bl	10281c <mbed::Ticker::attach(mbed::Callback<void ()>, float)>
  102a0c:	a808      	add	r0, sp, #32
  102a0e:	f7ff fef1 	bl	1027f4 <mbed::Callback<void ()>::~Callback()>
  102a12:	2500      	movs	r5, #0
  102a14:	e1a6      	b.n	102d64 <Ble_Menu(char*)+0x474>
  102a16:	4968      	ldr	r1, [pc, #416]	; (102bb8 <Ble_Menu(char*)+0x2c8>)
  102a18:	485e      	ldr	r0, [pc, #376]	; (102b94 <Ble_Menu(char*)+0x2a4>)
  102a1a:	f000 fb6f 	bl	1030fc <GPS::send(char*)>
  102a1e:	e7a0      	b.n	102962 <Ble_Menu(char*)+0x72>
  102a20:	4966      	ldr	r1, [pc, #408]	; (102bbc <Ble_Menu(char*)+0x2cc>)
  102a22:	4620      	mov	r0, r4
  102a24:	f009 ff9f 	bl	10c966 <strcmp>
  102a28:	4605      	mov	r5, r0
  102a2a:	2800      	cmp	r0, #0
  102a2c:	d16e      	bne.n	102b0c <Ble_Menu(char*)+0x21c>
  102a2e:	4964      	ldr	r1, [pc, #400]	; (102bc0 <Ble_Menu(char*)+0x2d0>)
  102a30:	f104 001e 	add.w	r0, r4, #30
  102a34:	f009 ff97 	bl	10c966 <strcmp>
  102a38:	4606      	mov	r6, r0
  102a3a:	bb40      	cbnz	r0, 102a8e <Ble_Menu(char*)+0x19e>
  102a3c:	4961      	ldr	r1, [pc, #388]	; (102bc4 <Ble_Menu(char*)+0x2d4>)
  102a3e:	f104 003c 	add.w	r0, r4, #60	; 0x3c
  102a42:	f009 ff90 	bl	10c966 <strcmp>
  102a46:	4605      	mov	r5, r0
  102a48:	4a53      	ldr	r2, [pc, #332]	; (102b98 <Ble_Menu(char*)+0x2a8>)
  102a4a:	4b54      	ldr	r3, [pc, #336]	; (102b9c <Ble_Menu(char*)+0x2ac>)
  102a4c:	9215      	str	r2, [sp, #84]	; 0x54
  102a4e:	9318      	str	r3, [sp, #96]	; 0x60
  102a50:	4a53      	ldr	r2, [pc, #332]	; (102ba0 <Ble_Menu(char*)+0x2b0>)
  102a52:	a915      	add	r1, sp, #84	; 0x54
  102a54:	4848      	ldr	r0, [pc, #288]	; (102b78 <Ble_Menu(char*)+0x288>)
  102a56:	b96d      	cbnz	r5, 102a74 <Ble_Menu(char*)+0x184>
  102a58:	f7ff fee0 	bl	10281c <mbed::Ticker::attach(mbed::Callback<void ()>, float)>
  102a5c:	a815      	add	r0, sp, #84	; 0x54
  102a5e:	f7ff fec9 	bl	1027f4 <mbed::Callback<void ()>::~Callback()>
  102a62:	4959      	ldr	r1, [pc, #356]	; (102bc8 <Ble_Menu(char*)+0x2d8>)
  102a64:	a808      	add	r0, sp, #32
  102a66:	f009 ff88 	bl	10c97a <strcpy>
  102a6a:	a908      	add	r1, sp, #32
  102a6c:	4857      	ldr	r0, [pc, #348]	; (102bcc <Ble_Menu(char*)+0x2dc>)
  102a6e:	f000 fd89 	bl	103584 <GSM::send(char*)>
  102a72:	e177      	b.n	102d64 <Ble_Menu(char*)+0x474>
  102a74:	f7ff fed2 	bl	10281c <mbed::Ticker::attach(mbed::Callback<void ()>, float)>
  102a78:	a815      	add	r0, sp, #84	; 0x54
  102a7a:	f7ff febb 	bl	1027f4 <mbed::Callback<void ()>::~Callback()>
  102a7e:	ab15      	add	r3, sp, #84	; 0x54
  102a80:	2250      	movs	r2, #80	; 0x50
  102a82:	4953      	ldr	r1, [pc, #332]	; (102bd0 <Ble_Menu(char*)+0x2e0>)
  102a84:	4851      	ldr	r0, [pc, #324]	; (102bcc <Ble_Menu(char*)+0x2dc>)
  102a86:	f000 fdcd 	bl	103624 <GSM::CallwithEnd(char*, int, char*)>
  102a8a:	4635      	mov	r5, r6
  102a8c:	e16a      	b.n	102d64 <Ble_Menu(char*)+0x474>
  102a8e:	4951      	ldr	r1, [pc, #324]	; (102bd4 <Ble_Menu(char*)+0x2e4>)
  102a90:	f104 001e 	add.w	r0, r4, #30
  102a94:	f009 ff67 	bl	10c966 <strcmp>
  102a98:	b9c8      	cbnz	r0, 102ace <Ble_Menu(char*)+0x1de>
  102a9a:	4b3f      	ldr	r3, [pc, #252]	; (102b98 <Ble_Menu(char*)+0x2a8>)
  102a9c:	4a40      	ldr	r2, [pc, #256]	; (102ba0 <Ble_Menu(char*)+0x2b0>)
  102a9e:	9315      	str	r3, [sp, #84]	; 0x54
  102aa0:	4b3e      	ldr	r3, [pc, #248]	; (102b9c <Ble_Menu(char*)+0x2ac>)
  102aa2:	a915      	add	r1, sp, #84	; 0x54
  102aa4:	4834      	ldr	r0, [pc, #208]	; (102b78 <Ble_Menu(char*)+0x288>)
  102aa6:	9318      	str	r3, [sp, #96]	; 0x60
  102aa8:	f7ff feb8 	bl	10281c <mbed::Ticker::attach(mbed::Callback<void ()>, float)>
  102aac:	a815      	add	r0, sp, #84	; 0x54
  102aae:	f7ff fea1 	bl	1027f4 <mbed::Callback<void ()>::~Callback()>
  102ab2:	a915      	add	r1, sp, #84	; 0x54
  102ab4:	4845      	ldr	r0, [pc, #276]	; (102bcc <Ble_Menu(char*)+0x2dc>)
  102ab6:	f000 fda5 	bl	103604 <GSM::TestAT(char*)>
  102aba:	a815      	add	r0, sp, #84	; 0x54
  102abc:	f7ff fe68 	bl	102790 <BLE_SendChar(char*)>
  102ac0:	2301      	movs	r3, #1
  102ac2:	461a      	mov	r2, r3
  102ac4:	a915      	add	r1, sp, #84	; 0x54
  102ac6:	482d      	ldr	r0, [pc, #180]	; (102b7c <Ble_Menu(char*)+0x28c>)
  102ac8:	f001 fd04 	bl	1044d4 <NHD_C0216CZ::displayStringToPos(char const*, int, int)>
  102acc:	e14a      	b.n	102d64 <Ble_Menu(char*)+0x474>
  102ace:	4942      	ldr	r1, [pc, #264]	; (102bd8 <Ble_Menu(char*)+0x2e8>)
  102ad0:	f104 001e 	add.w	r0, r4, #30
  102ad4:	f009 ff47 	bl	10c966 <strcmp>
  102ad8:	2800      	cmp	r0, #0
  102ada:	f040 8143 	bne.w	102d64 <Ble_Menu(char*)+0x474>
  102ade:	4b2e      	ldr	r3, [pc, #184]	; (102b98 <Ble_Menu(char*)+0x2a8>)
  102ae0:	4a2f      	ldr	r2, [pc, #188]	; (102ba0 <Ble_Menu(char*)+0x2b0>)
  102ae2:	9315      	str	r3, [sp, #84]	; 0x54
  102ae4:	4b2d      	ldr	r3, [pc, #180]	; (102b9c <Ble_Menu(char*)+0x2ac>)
  102ae6:	a915      	add	r1, sp, #84	; 0x54
  102ae8:	4823      	ldr	r0, [pc, #140]	; (102b78 <Ble_Menu(char*)+0x288>)
  102aea:	9318      	str	r3, [sp, #96]	; 0x60
  102aec:	f7ff fe96 	bl	10281c <mbed::Ticker::attach(mbed::Callback<void ()>, float)>
  102af0:	a815      	add	r0, sp, #84	; 0x54
  102af2:	f7ff fe7f 	bl	1027f4 <mbed::Callback<void ()>::~Callback()>
  102af6:	4939      	ldr	r1, [pc, #228]	; (102bdc <Ble_Menu(char*)+0x2ec>)
  102af8:	a808      	add	r0, sp, #32
  102afa:	f009 ff3e 	bl	10c97a <strcpy>
  102afe:	4b38      	ldr	r3, [pc, #224]	; (102be0 <Ble_Menu(char*)+0x2f0>)
  102b00:	aa15      	add	r2, sp, #84	; 0x54
  102b02:	a908      	add	r1, sp, #32
  102b04:	4831      	ldr	r0, [pc, #196]	; (102bcc <Ble_Menu(char*)+0x2dc>)
  102b06:	f000 fd65 	bl	1035d4 <GSM::Communication(char*, char*, float)>
  102b0a:	e12b      	b.n	102d64 <Ble_Menu(char*)+0x474>
  102b0c:	4935      	ldr	r1, [pc, #212]	; (102be4 <Ble_Menu(char*)+0x2f4>)
  102b0e:	4620      	mov	r0, r4
  102b10:	f009 ff29 	bl	10c966 <strcmp>
  102b14:	4f20      	ldr	r7, [pc, #128]	; (102b98 <Ble_Menu(char*)+0x2a8>)
  102b16:	4605      	mov	r5, r0
  102b18:	4e20      	ldr	r6, [pc, #128]	; (102b9c <Ble_Menu(char*)+0x2ac>)
  102b1a:	2800      	cmp	r0, #0
  102b1c:	f040 80b2 	bne.w	102c84 <Ble_Menu(char*)+0x394>
  102b20:	4931      	ldr	r1, [pc, #196]	; (102be8 <Ble_Menu(char*)+0x2f8>)
  102b22:	a808      	add	r0, sp, #32
  102b24:	f009 ff29 	bl	10c97a <strcpy>
  102b28:	a908      	add	r1, sp, #32
  102b2a:	481a      	ldr	r0, [pc, #104]	; (102b94 <Ble_Menu(char*)+0x2a4>)
  102b2c:	f000 fae6 	bl	1030fc <GPS::send(char*)>
  102b30:	492e      	ldr	r1, [pc, #184]	; (102bec <Ble_Menu(char*)+0x2fc>)
  102b32:	f104 001e 	add.w	r0, r4, #30
  102b36:	f009 ff16 	bl	10c966 <strcmp>
  102b3a:	2800      	cmp	r0, #0
  102b3c:	d160      	bne.n	102c00 <Ble_Menu(char*)+0x310>
  102b3e:	4a18      	ldr	r2, [pc, #96]	; (102ba0 <Ble_Menu(char*)+0x2b0>)
  102b40:	a915      	add	r1, sp, #84	; 0x54
  102b42:	480d      	ldr	r0, [pc, #52]	; (102b78 <Ble_Menu(char*)+0x288>)
  102b44:	9715      	str	r7, [sp, #84]	; 0x54
  102b46:	9618      	str	r6, [sp, #96]	; 0x60
  102b48:	f7ff fe68 	bl	10281c <mbed::Ticker::attach(mbed::Callback<void ()>, float)>
  102b4c:	a815      	add	r0, sp, #84	; 0x54
  102b4e:	f7ff fe51 	bl	1027f4 <mbed::Callback<void ()>::~Callback()>
  102b52:	4927      	ldr	r1, [pc, #156]	; (102bf0 <Ble_Menu(char*)+0x300>)
  102b54:	a815      	add	r0, sp, #84	; 0x54
  102b56:	f009 ff10 	bl	10c97a <strcpy>
  102b5a:	a915      	add	r1, sp, #84	; 0x54
  102b5c:	4807      	ldr	r0, [pc, #28]	; (102b7c <Ble_Menu(char*)+0x28c>)
  102b5e:	f001 fcd3 	bl	104508 <NHD_C0216CZ::displayString(char const*)>
  102b62:	4b24      	ldr	r3, [pc, #144]	; (102bf4 <Ble_Menu(char*)+0x304>)
  102b64:	4824      	ldr	r0, [pc, #144]	; (102bf8 <Ble_Menu(char*)+0x308>)
  102b66:	4a25      	ldr	r2, [pc, #148]	; (102bfc <Ble_Menu(char*)+0x30c>)
  102b68:	a904      	add	r1, sp, #16
  102b6a:	9304      	str	r3, [sp, #16]
  102b6c:	9607      	str	r6, [sp, #28]
  102b6e:	f7ff fe55 	bl	10281c <mbed::Ticker::attach(mbed::Callback<void ()>, float)>
  102b72:	a804      	add	r0, sp, #16
  102b74:	e6ff      	b.n	102976 <Ble_Menu(char*)+0x86>
  102b76:	bf00      	nop
  102b78:	3fff7178 	.word	0x3fff7178
  102b7c:	3fff6cb4 	.word	0x3fff6cb4
  102b80:	0010ff97 	.word	0x0010ff97
  102b84:	3fff68dc 	.word	0x3fff68dc
  102b88:	0010ff99 	.word	0x0010ff99
  102b8c:	0010ff9e 	.word	0x0010ff9e
  102b90:	0010ffa4 	.word	0x0010ffa4
  102b94:	3fff71b4 	.word	0x3fff71b4
  102b98:	00102db9 	.word	0x00102db9
  102b9c:	0010ff2c 	.word	0x0010ff2c
  102ba0:	3f333333 	.word	0x3f333333
  102ba4:	0010ffab 	.word	0x0010ffab
  102ba8:	0010ffb2 	.word	0x0010ffb2
  102bac:	0010ffba 	.word	0x0010ffba
  102bb0:	0010ffc1 	.word	0x0010ffc1
  102bb4:	0010ffc5 	.word	0x0010ffc5
  102bb8:	0010ffcb 	.word	0x0010ffcb
  102bbc:	0010ffd0 	.word	0x0010ffd0
  102bc0:	0010ffd5 	.word	0x0010ffd5
  102bc4:	0010ffda 	.word	0x0010ffda
  102bc8:	0010ffe3 	.word	0x0010ffe3
  102bcc:	3fff6db8 	.word	0x3fff6db8
  102bd0:	0010fff6 	.word	0x0010fff6
  102bd4:	00110005 	.word	0x00110005
  102bd8:	00110008 	.word	0x00110008
  102bdc:	00110016 	.word	0x00110016
  102be0:	44bb8000 	.word	0x44bb8000
  102be4:	0011001e 	.word	0x0011001e
  102be8:	00110025 	.word	0x00110025
  102bec:	0010ff4e 	.word	0x0010ff4e
  102bf0:	00110038 	.word	0x00110038
  102bf4:	0010267d 	.word	0x0010267d
  102bf8:	3fff6eb0 	.word	0x3fff6eb0
  102bfc:	3f4ccccd 	.word	0x3f4ccccd
  102c00:	495a      	ldr	r1, [pc, #360]	; (102d6c <Ble_Menu(char*)+0x47c>)
  102c02:	f104 001e 	add.w	r0, r4, #30
  102c06:	f009 feae 	bl	10c966 <strcmp>
  102c0a:	b980      	cbnz	r0, 102c2e <Ble_Menu(char*)+0x33e>
  102c0c:	4a58      	ldr	r2, [pc, #352]	; (102d70 <Ble_Menu(char*)+0x480>)
  102c0e:	a915      	add	r1, sp, #84	; 0x54
  102c10:	4858      	ldr	r0, [pc, #352]	; (102d74 <Ble_Menu(char*)+0x484>)
  102c12:	9715      	str	r7, [sp, #84]	; 0x54
  102c14:	9618      	str	r6, [sp, #96]	; 0x60
  102c16:	f7ff fe01 	bl	10281c <mbed::Ticker::attach(mbed::Callback<void ()>, float)>
  102c1a:	a815      	add	r0, sp, #84	; 0x54
  102c1c:	f7ff fdea 	bl	1027f4 <mbed::Callback<void ()>::~Callback()>
  102c20:	4855      	ldr	r0, [pc, #340]	; (102d78 <Ble_Menu(char*)+0x488>)
  102c22:	f001 fb8b 	bl	10433c <NHD_C0216CZ::clearDisplay()>
  102c26:	4855      	ldr	r0, [pc, #340]	; (102d7c <Ble_Menu(char*)+0x48c>)
  102c28:	f005 fc22 	bl	108470 <mbed::Ticker::detach()>
  102c2c:	e09a      	b.n	102d64 <Ble_Menu(char*)+0x474>
  102c2e:	4954      	ldr	r1, [pc, #336]	; (102d80 <Ble_Menu(char*)+0x490>)
  102c30:	f104 001e 	add.w	r0, r4, #30
  102c34:	f009 fe97 	bl	10c966 <strcmp>
  102c38:	b9c8      	cbnz	r0, 102c6e <Ble_Menu(char*)+0x37e>
  102c3a:	a915      	add	r1, sp, #84	; 0x54
  102c3c:	4a4c      	ldr	r2, [pc, #304]	; (102d70 <Ble_Menu(char*)+0x480>)
  102c3e:	484d      	ldr	r0, [pc, #308]	; (102d74 <Ble_Menu(char*)+0x484>)
  102c40:	9715      	str	r7, [sp, #84]	; 0x54
  102c42:	9618      	str	r6, [sp, #96]	; 0x60
  102c44:	f7ff fdea 	bl	10281c <mbed::Ticker::attach(mbed::Callback<void ()>, float)>
  102c48:	a815      	add	r0, sp, #84	; 0x54
  102c4a:	f7ff fdd3 	bl	1027f4 <mbed::Callback<void ()>::~Callback()>
  102c4e:	2300      	movs	r3, #0
  102c50:	461c      	mov	r4, r3
  102c52:	461a      	mov	r2, r3
  102c54:	4619      	mov	r1, r3
  102c56:	484b      	ldr	r0, [pc, #300]	; (102d84 <Ble_Menu(char*)+0x494>)
  102c58:	f7ff fb86 	bl	102368 <Accelerometer::GetNewData(int, int, int)>
  102c5c:	4622      	mov	r2, r4
  102c5e:	494a      	ldr	r1, [pc, #296]	; (102d88 <Ble_Menu(char*)+0x498>)
  102c60:	a815      	add	r0, sp, #84	; 0x54
  102c62:	f009 fded 	bl	10c840 <siprintf>
  102c66:	a815      	add	r0, sp, #84	; 0x54
  102c68:	f7ff fd92 	bl	102790 <BLE_SendChar(char*)>
  102c6c:	e07a      	b.n	102d64 <Ble_Menu(char*)+0x474>
  102c6e:	7fe3      	ldrb	r3, [r4, #31]
  102c70:	2b6d      	cmp	r3, #109	; 0x6d
  102c72:	d14e      	bne.n	102d12 <Ble_Menu(char*)+0x422>
  102c74:	f104 011e 	add.w	r1, r4, #30
  102c78:	4842      	ldr	r0, [pc, #264]	; (102d84 <Ble_Menu(char*)+0x494>)
  102c7a:	f7ff fb7d 	bl	102378 <Accelerometer::devSetup(char*)>
  102c7e:	9715      	str	r7, [sp, #84]	; 0x54
  102c80:	9618      	str	r6, [sp, #96]	; 0x60
  102c82:	e672      	b.n	10296a <Ble_Menu(char*)+0x7a>
  102c84:	4941      	ldr	r1, [pc, #260]	; (102d8c <Ble_Menu(char*)+0x49c>)
  102c86:	4620      	mov	r0, r4
  102c88:	f009 fe6d 	bl	10c966 <strcmp>
  102c8c:	2800      	cmp	r0, #0
  102c8e:	d154      	bne.n	102d3a <Ble_Menu(char*)+0x44a>
  102c90:	493f      	ldr	r1, [pc, #252]	; (102d90 <Ble_Menu(char*)+0x4a0>)
  102c92:	f104 001e 	add.w	r0, r4, #30
  102c96:	f009 fe66 	bl	10c966 <strcmp>
  102c9a:	b950      	cbnz	r0, 102cb2 <Ble_Menu(char*)+0x3c2>
  102c9c:	483d      	ldr	r0, [pc, #244]	; (102d94 <Ble_Menu(char*)+0x4a4>)
  102c9e:	f000 fa11 	bl	1030c4 <GPS::deactivate()>
  102ca2:	2005      	movs	r0, #5
  102ca4:	f006 f884 	bl	108db0 <wait_us>
  102ca8:	483b      	ldr	r0, [pc, #236]	; (102d98 <Ble_Menu(char*)+0x4a8>)
  102caa:	f000 fc25 	bl	1034f8 <GSM::activate()>
  102cae:	493b      	ldr	r1, [pc, #236]	; (102d9c <Ble_Menu(char*)+0x4ac>)
  102cb0:	e020      	b.n	102cf4 <Ble_Menu(char*)+0x404>
  102cb2:	493b      	ldr	r1, [pc, #236]	; (102da0 <Ble_Menu(char*)+0x4b0>)
  102cb4:	f104 001e 	add.w	r0, r4, #30
  102cb8:	f009 fe55 	bl	10c966 <strcmp>
  102cbc:	b950      	cbnz	r0, 102cd4 <Ble_Menu(char*)+0x3e4>
  102cbe:	4836      	ldr	r0, [pc, #216]	; (102d98 <Ble_Menu(char*)+0x4a8>)
  102cc0:	f000 fc44 	bl	10354c <GSM::deactivate()>
  102cc4:	2005      	movs	r0, #5
  102cc6:	f006 f873 	bl	108db0 <wait_us>
  102cca:	4832      	ldr	r0, [pc, #200]	; (102d94 <Ble_Menu(char*)+0x4a4>)
  102ccc:	f000 f9d0 	bl	103070 <GPS::activate()>
  102cd0:	4934      	ldr	r1, [pc, #208]	; (102da4 <Ble_Menu(char*)+0x4b4>)
  102cd2:	e00f      	b.n	102cf4 <Ble_Menu(char*)+0x404>
  102cd4:	4934      	ldr	r1, [pc, #208]	; (102da8 <Ble_Menu(char*)+0x4b8>)
  102cd6:	f104 001e 	add.w	r0, r4, #30
  102cda:	f009 fe44 	bl	10c966 <strcmp>
  102cde:	b9c0      	cbnz	r0, 102d12 <Ble_Menu(char*)+0x422>
  102ce0:	482d      	ldr	r0, [pc, #180]	; (102d98 <Ble_Menu(char*)+0x4a8>)
  102ce2:	f000 fc33 	bl	10354c <GSM::deactivate()>
  102ce6:	2005      	movs	r0, #5
  102ce8:	f006 f862 	bl	108db0 <wait_us>
  102cec:	4829      	ldr	r0, [pc, #164]	; (102d94 <Ble_Menu(char*)+0x4a4>)
  102cee:	f000 f9e9 	bl	1030c4 <GPS::deactivate()>
  102cf2:	492e      	ldr	r1, [pc, #184]	; (102dac <Ble_Menu(char*)+0x4bc>)
  102cf4:	a815      	add	r0, sp, #84	; 0x54
  102cf6:	f009 fe40 	bl	10c97a <strcpy>
  102cfa:	a815      	add	r0, sp, #84	; 0x54
  102cfc:	f7ff fd48 	bl	102790 <BLE_SendChar(char*)>
  102d00:	481c      	ldr	r0, [pc, #112]	; (102d74 <Ble_Menu(char*)+0x484>)
  102d02:	4a1b      	ldr	r2, [pc, #108]	; (102d70 <Ble_Menu(char*)+0x480>)
  102d04:	a908      	add	r1, sp, #32
  102d06:	9708      	str	r7, [sp, #32]
  102d08:	960b      	str	r6, [sp, #44]	; 0x2c
  102d0a:	f7ff fd87 	bl	10281c <mbed::Ticker::attach(mbed::Callback<void ()>, float)>
  102d0e:	a808      	add	r0, sp, #32
  102d10:	e00f      	b.n	102d32 <Ble_Menu(char*)+0x442>
  102d12:	4927      	ldr	r1, [pc, #156]	; (102db0 <Ble_Menu(char*)+0x4c0>)
  102d14:	a808      	add	r0, sp, #32
  102d16:	f009 fe30 	bl	10c97a <strcpy>
  102d1a:	a908      	add	r1, sp, #32
  102d1c:	481d      	ldr	r0, [pc, #116]	; (102d94 <Ble_Menu(char*)+0x4a4>)
  102d1e:	f000 f9ed 	bl	1030fc <GPS::send(char*)>
  102d22:	4814      	ldr	r0, [pc, #80]	; (102d74 <Ble_Menu(char*)+0x484>)
  102d24:	4a12      	ldr	r2, [pc, #72]	; (102d70 <Ble_Menu(char*)+0x480>)
  102d26:	a915      	add	r1, sp, #84	; 0x54
  102d28:	9715      	str	r7, [sp, #84]	; 0x54
  102d2a:	9618      	str	r6, [sp, #96]	; 0x60
  102d2c:	f7ff fd76 	bl	10281c <mbed::Ticker::attach(mbed::Callback<void ()>, float)>
  102d30:	a815      	add	r0, sp, #84	; 0x54
  102d32:	f7ff fd5f 	bl	1027f4 <mbed::Callback<void ()>::~Callback()>
  102d36:	2501      	movs	r5, #1
  102d38:	e014      	b.n	102d64 <Ble_Menu(char*)+0x474>
  102d3a:	491e      	ldr	r1, [pc, #120]	; (102db4 <Ble_Menu(char*)+0x4c4>)
  102d3c:	a815      	add	r0, sp, #84	; 0x54
  102d3e:	f006 fa49 	bl	1091d4 <std::__cxx11::basic_string<char, std::char_traits<char>, std::allocator<char> >::basic_string(std::__cxx11::basic_string<char, std::char_traits<char>, std::allocator<char> > const&)>
  102d42:	a815      	add	r0, sp, #84	; 0x54
  102d44:	f7ff fd14 	bl	102770 <BLE_SendData(std::__cxx11::basic_string<char, std::char_traits<char>, std::allocator<char> >)>
  102d48:	a815      	add	r0, sp, #84	; 0x54
  102d4a:	f006 f9fd 	bl	109148 <std::__cxx11::basic_string<char, std::char_traits<char>, std::allocator<char> >::_M_dispose()>
  102d4e:	4a08      	ldr	r2, [pc, #32]	; (102d70 <Ble_Menu(char*)+0x480>)
  102d50:	a915      	add	r1, sp, #84	; 0x54
  102d52:	4808      	ldr	r0, [pc, #32]	; (102d74 <Ble_Menu(char*)+0x484>)
  102d54:	9715      	str	r7, [sp, #84]	; 0x54
  102d56:	9618      	str	r6, [sp, #96]	; 0x60
  102d58:	f7ff fd60 	bl	10281c <mbed::Ticker::attach(mbed::Callback<void ()>, float)>
  102d5c:	a815      	add	r0, sp, #84	; 0x54
  102d5e:	f7ff fd49 	bl	1027f4 <mbed::Callback<void ()>::~Callback()>
  102d62:	e000      	b.n	102d66 <Ble_Menu(char*)+0x476>
  102d64:	4628      	mov	r0, r5
  102d66:	b02f      	add	sp, #188	; 0xbc
  102d68:	bdf0      	pop	{r4, r5, r6, r7, pc}
  102d6a:	bf00      	nop
  102d6c:	0010ffb6 	.word	0x0010ffb6
  102d70:	3f333333 	.word	0x3f333333
  102d74:	3fff7178 	.word	0x3fff7178
  102d78:	3fff6cb4 	.word	0x3fff6cb4
  102d7c:	3fff6eb0 	.word	0x3fff6eb0
  102d80:	00110045 	.word	0x00110045
  102d84:	3fff6e88 	.word	0x3fff6e88
  102d88:	0011004a 	.word	0x0011004a
  102d8c:	0011005d 	.word	0x0011005d
  102d90:	00110060 	.word	0x00110060
  102d94:	3fff71b4 	.word	0x3fff71b4
  102d98:	3fff6db8 	.word	0x3fff6db8
  102d9c:	0011006c 	.word	0x0011006c
  102da0:	00110073 	.word	0x00110073
  102da4:	0011007f 	.word	0x0011007f
  102da8:	00110086 	.word	0x00110086
  102dac:	0011008d 	.word	0x0011008d
  102db0:	00110052 	.word	0x00110052
  102db4:	3fff6f74 	.word	0x3fff6f74

00102db8 <IRQ_Bluetooth_Communication()>:
  102db8:	b508      	push	{r3, lr}
  102dba:	4b09      	ldr	r3, [pc, #36]	; (102de0 <IRQ_Bluetooth_Communication()+0x28>)
  102dbc:	781b      	ldrb	r3, [r3, #0]
  102dbe:	b16b      	cbz	r3, 102ddc <IRQ_Bluetooth_Communication()+0x24>
  102dc0:	f7ff fcf8 	bl	1027b4 <BLE_ReadReceivedData()>
  102dc4:	2801      	cmp	r0, #1
  102dc6:	d109      	bne.n	102ddc <IRQ_Bluetooth_Communication()+0x24>
  102dc8:	4806      	ldr	r0, [pc, #24]	; (102de4 <IRQ_Bluetooth_Communication()+0x2c>)
  102dca:	f7ff fd91 	bl	1028f0 <Ble_Menu(char*)>
  102dce:	e8bd 4008 	ldmia.w	sp!, {r3, lr}
  102dd2:	2264      	movs	r2, #100	; 0x64
  102dd4:	2120      	movs	r1, #32
  102dd6:	4803      	ldr	r0, [pc, #12]	; (102de4 <IRQ_Bluetooth_Communication()+0x2c>)
  102dd8:	f008 b832 	b.w	10ae40 <memset>
  102ddc:	bd08      	pop	{r3, pc}
  102dde:	bf00      	nop
  102de0:	3fff40a8 	.word	0x3fff40a8
  102de4:	3fff710d 	.word	0x3fff710d

00102de8 <_GLOBAL__sub_I_TOUCH_LC717A00_mode>:
  102de8:	b573      	push	{r0, r1, r4, r5, r6, lr}
  102dea:	496c      	ldr	r1, [pc, #432]	; (102f9c <_GLOBAL__sub_I_TOUCH_LC717A00_mode+0x1b4>)
  102dec:	486c      	ldr	r0, [pc, #432]	; (102fa0 <_GLOBAL__sub_I_TOUCH_LC717A00_mode+0x1b8>)
  102dee:	f7ff fc75 	bl	1026dc <std::__cxx11::basic_string<char, std::char_traits<char>, std::allocator<char> >::basic_string(char const*, std::allocator<char> const&) [clone .isra.21]>
  102df2:	4a6c      	ldr	r2, [pc, #432]	; (102fa4 <_GLOBAL__sub_I_TOUCH_LC717A00_mode+0x1bc>)
  102df4:	496c      	ldr	r1, [pc, #432]	; (102fa8 <_GLOBAL__sub_I_TOUCH_LC717A00_mode+0x1c0>)
  102df6:	486a      	ldr	r0, [pc, #424]	; (102fa0 <_GLOBAL__sub_I_TOUCH_LC717A00_mode+0x1b8>)
  102df8:	f005 fea3 	bl	108b42 <__aeabi_atexit>
  102dfc:	4b6b      	ldr	r3, [pc, #428]	; (102fac <_GLOBAL__sub_I_TOUCH_LC717A00_mode+0x1c4>)
  102dfe:	2200      	movs	r2, #0
  102e00:	f503 70c0 	add.w	r0, r3, #384	; 0x180
  102e04:	4619      	mov	r1, r3
  102e06:	f843 2c04 	str.w	r2, [r3, #-4]
  102e0a:	f843 3c08 	str.w	r3, [r3, #-8]
  102e0e:	f801 2b18 	strb.w	r2, [r1], #24
  102e12:	6119      	str	r1, [r3, #16]
  102e14:	615a      	str	r2, [r3, #20]
  102e16:	761a      	strb	r2, [r3, #24]
  102e18:	3330      	adds	r3, #48	; 0x30
  102e1a:	4283      	cmp	r3, r0
  102e1c:	f04f 0400 	mov.w	r4, #0
  102e20:	d1f0      	bne.n	102e04 <_GLOBAL__sub_I_TOUCH_LC717A00_mode+0x1c>
  102e22:	4a60      	ldr	r2, [pc, #384]	; (102fa4 <_GLOBAL__sub_I_TOUCH_LC717A00_mode+0x1bc>)
  102e24:	4962      	ldr	r1, [pc, #392]	; (102fb0 <_GLOBAL__sub_I_TOUCH_LC717A00_mode+0x1c8>)
  102e26:	4620      	mov	r0, r4
  102e28:	f005 fe8b 	bl	108b42 <__aeabi_atexit>
  102e2c:	495b      	ldr	r1, [pc, #364]	; (102f9c <_GLOBAL__sub_I_TOUCH_LC717A00_mode+0x1b4>)
  102e2e:	4861      	ldr	r0, [pc, #388]	; (102fb4 <_GLOBAL__sub_I_TOUCH_LC717A00_mode+0x1cc>)
  102e30:	f7ff fc54 	bl	1026dc <std::__cxx11::basic_string<char, std::char_traits<char>, std::allocator<char> >::basic_string(char const*, std::allocator<char> const&) [clone .isra.21]>
  102e34:	4a5b      	ldr	r2, [pc, #364]	; (102fa4 <_GLOBAL__sub_I_TOUCH_LC717A00_mode+0x1bc>)
  102e36:	495c      	ldr	r1, [pc, #368]	; (102fa8 <_GLOBAL__sub_I_TOUCH_LC717A00_mode+0x1c0>)
  102e38:	485e      	ldr	r0, [pc, #376]	; (102fb4 <_GLOBAL__sub_I_TOUCH_LC717A00_mode+0x1cc>)
  102e3a:	f005 fe82 	bl	108b42 <__aeabi_atexit>
  102e3e:	4957      	ldr	r1, [pc, #348]	; (102f9c <_GLOBAL__sub_I_TOUCH_LC717A00_mode+0x1b4>)
  102e40:	485d      	ldr	r0, [pc, #372]	; (102fb8 <_GLOBAL__sub_I_TOUCH_LC717A00_mode+0x1d0>)
  102e42:	f7ff fc4b 	bl	1026dc <std::__cxx11::basic_string<char, std::char_traits<char>, std::allocator<char> >::basic_string(char const*, std::allocator<char> const&) [clone .isra.21]>
  102e46:	4a57      	ldr	r2, [pc, #348]	; (102fa4 <_GLOBAL__sub_I_TOUCH_LC717A00_mode+0x1bc>)
  102e48:	4957      	ldr	r1, [pc, #348]	; (102fa8 <_GLOBAL__sub_I_TOUCH_LC717A00_mode+0x1c0>)
  102e4a:	485b      	ldr	r0, [pc, #364]	; (102fb8 <_GLOBAL__sub_I_TOUCH_LC717A00_mode+0x1d0>)
  102e4c:	f005 fe79 	bl	108b42 <__aeabi_atexit>
  102e50:	4952      	ldr	r1, [pc, #328]	; (102f9c <_GLOBAL__sub_I_TOUCH_LC717A00_mode+0x1b4>)
  102e52:	485a      	ldr	r0, [pc, #360]	; (102fbc <_GLOBAL__sub_I_TOUCH_LC717A00_mode+0x1d4>)
  102e54:	f7ff fc42 	bl	1026dc <std::__cxx11::basic_string<char, std::char_traits<char>, std::allocator<char> >::basic_string(char const*, std::allocator<char> const&) [clone .isra.21]>
  102e58:	4a52      	ldr	r2, [pc, #328]	; (102fa4 <_GLOBAL__sub_I_TOUCH_LC717A00_mode+0x1bc>)
  102e5a:	4953      	ldr	r1, [pc, #332]	; (102fa8 <_GLOBAL__sub_I_TOUCH_LC717A00_mode+0x1c0>)
  102e5c:	4857      	ldr	r0, [pc, #348]	; (102fbc <_GLOBAL__sub_I_TOUCH_LC717A00_mode+0x1d4>)
  102e5e:	4d58      	ldr	r5, [pc, #352]	; (102fc0 <_GLOBAL__sub_I_TOUCH_LC717A00_mode+0x1d8>)
  102e60:	f005 fe6f 	bl	108b42 <__aeabi_atexit>
  102e64:	4857      	ldr	r0, [pc, #348]	; (102fc4 <_GLOBAL__sub_I_TOUCH_LC717A00_mode+0x1dc>)
  102e66:	f006 f8c7 	bl	108ff8 <rtos::Mutex::Mutex()>
  102e6a:	f04f 36ff 	mov.w	r6, #4294967295
  102e6e:	4a4d      	ldr	r2, [pc, #308]	; (102fa4 <_GLOBAL__sub_I_TOUCH_LC717A00_mode+0x1bc>)
  102e70:	4955      	ldr	r1, [pc, #340]	; (102fc8 <_GLOBAL__sub_I_TOUCH_LC717A00_mode+0x1e0>)
  102e72:	4854      	ldr	r0, [pc, #336]	; (102fc4 <_GLOBAL__sub_I_TOUCH_LC717A00_mode+0x1dc>)
  102e74:	f005 fe65 	bl	108b42 <__aeabi_atexit>
  102e78:	2304      	movs	r3, #4
  102e7a:	2206      	movs	r2, #6
  102e7c:	9600      	str	r6, [sp, #0]
  102e7e:	2105      	movs	r1, #5
  102e80:	4628      	mov	r0, r5
  102e82:	f005 fa21 	bl	1082c8 <mbed::SPI::SPI(PinName, PinName, PinName, PinName)>
  102e86:	4631      	mov	r1, r6
  102e88:	f105 002c 	add.w	r0, r5, #44	; 0x2c
  102e8c:	62ec      	str	r4, [r5, #44]	; 0x2c
  102e8e:	f885 4030 	strb.w	r4, [r5, #48]	; 0x30
  102e92:	636c      	str	r4, [r5, #52]	; 0x34
  102e94:	f001 fca4 	bl	1047e0 <gpio_init_out>
  102e98:	2320      	movs	r3, #32
  102e9a:	9600      	str	r6, [sp, #0]
  102e9c:	2202      	movs	r2, #2
  102e9e:	2103      	movs	r1, #3
  102ea0:	f105 0040 	add.w	r0, r5, #64	; 0x40
  102ea4:	f001 f8e0 	bl	104068 <PCA9655E::PCA9655E(PinName, PinName, unsigned char, PinName)>
  102ea8:	4a3e      	ldr	r2, [pc, #248]	; (102fa4 <_GLOBAL__sub_I_TOUCH_LC717A00_mode+0x1bc>)
  102eaa:	4948      	ldr	r1, [pc, #288]	; (102fcc <_GLOBAL__sub_I_TOUCH_LC717A00_mode+0x1e4>)
  102eac:	4628      	mov	r0, r5
  102eae:	f005 fe48 	bl	108b42 <__aeabi_atexit>
  102eb2:	4847      	ldr	r0, [pc, #284]	; (102fd0 <_GLOBAL__sub_I_TOUCH_LC717A00_mode+0x1e8>)
  102eb4:	f000 f9b2 	bl	10321c <GPS::GPS()>
  102eb8:	4a3a      	ldr	r2, [pc, #232]	; (102fa4 <_GLOBAL__sub_I_TOUCH_LC717A00_mode+0x1bc>)
  102eba:	4946      	ldr	r1, [pc, #280]	; (102fd4 <_GLOBAL__sub_I_TOUCH_LC717A00_mode+0x1ec>)
  102ebc:	4844      	ldr	r0, [pc, #272]	; (102fd0 <_GLOBAL__sub_I_TOUCH_LC717A00_mode+0x1e8>)
  102ebe:	f005 fe40 	bl	108b42 <__aeabi_atexit>
  102ec2:	4845      	ldr	r0, [pc, #276]	; (102fd8 <_GLOBAL__sub_I_TOUCH_LC717A00_mode+0x1f0>)
  102ec4:	f000 fc00 	bl	1036c8 <GSM::GSM()>
  102ec8:	4a36      	ldr	r2, [pc, #216]	; (102fa4 <_GLOBAL__sub_I_TOUCH_LC717A00_mode+0x1bc>)
  102eca:	4944      	ldr	r1, [pc, #272]	; (102fdc <_GLOBAL__sub_I_TOUCH_LC717A00_mode+0x1f4>)
  102ecc:	4842      	ldr	r0, [pc, #264]	; (102fd8 <_GLOBAL__sub_I_TOUCH_LC717A00_mode+0x1f0>)
  102ece:	f005 fe38 	bl	108b42 <__aeabi_atexit>
  102ed2:	2111      	movs	r1, #17
  102ed4:	4842      	ldr	r0, [pc, #264]	; (102fe0 <_GLOBAL__sub_I_TOUCH_LC717A00_mode+0x1f8>)
  102ed6:	f005 f8b9 	bl	10804c <mbed::InterruptIn::InterruptIn(PinName)>
  102eda:	4a32      	ldr	r2, [pc, #200]	; (102fa4 <_GLOBAL__sub_I_TOUCH_LC717A00_mode+0x1bc>)
  102edc:	4941      	ldr	r1, [pc, #260]	; (102fe4 <_GLOBAL__sub_I_TOUCH_LC717A00_mode+0x1fc>)
  102ede:	4840      	ldr	r0, [pc, #256]	; (102fe0 <_GLOBAL__sub_I_TOUCH_LC717A00_mode+0x1f8>)
  102ee0:	f005 fe2f 	bl	108b42 <__aeabi_atexit>
  102ee4:	4840      	ldr	r0, [pc, #256]	; (102fe8 <_GLOBAL__sub_I_TOUCH_LC717A00_mode+0x200>)
  102ee6:	f7ff fab3 	bl	102450 <Accelerometer::Accelerometer()>
  102eea:	4a2e      	ldr	r2, [pc, #184]	; (102fa4 <_GLOBAL__sub_I_TOUCH_LC717A00_mode+0x1bc>)
  102eec:	493f      	ldr	r1, [pc, #252]	; (102fec <_GLOBAL__sub_I_TOUCH_LC717A00_mode+0x204>)
  102eee:	483e      	ldr	r0, [pc, #248]	; (102fe8 <_GLOBAL__sub_I_TOUCH_LC717A00_mode+0x200>)
  102ef0:	f005 fe27 	bl	108b42 <__aeabi_atexit>
  102ef4:	483e      	ldr	r0, [pc, #248]	; (102ff0 <_GLOBAL__sub_I_TOUCH_LC717A00_mode+0x208>)
  102ef6:	f7ff fc1b 	bl	102730 <mbed::Ticker::Ticker()>
  102efa:	4a2a      	ldr	r2, [pc, #168]	; (102fa4 <_GLOBAL__sub_I_TOUCH_LC717A00_mode+0x1bc>)
  102efc:	493d      	ldr	r1, [pc, #244]	; (102ff4 <_GLOBAL__sub_I_TOUCH_LC717A00_mode+0x20c>)
  102efe:	483c      	ldr	r0, [pc, #240]	; (102ff0 <_GLOBAL__sub_I_TOUCH_LC717A00_mode+0x208>)
  102f00:	f005 fe1f 	bl	108b42 <__aeabi_atexit>
  102f04:	483c      	ldr	r0, [pc, #240]	; (102ff8 <_GLOBAL__sub_I_TOUCH_LC717A00_mode+0x210>)
  102f06:	4a27      	ldr	r2, [pc, #156]	; (102fa4 <_GLOBAL__sub_I_TOUCH_LC717A00_mode+0x1bc>)
  102f08:	f100 0308 	add.w	r3, r0, #8
  102f0c:	e880 0018 	stmia.w	r0, {r3, r4}
  102f10:	4925      	ldr	r1, [pc, #148]	; (102fa8 <_GLOBAL__sub_I_TOUCH_LC717A00_mode+0x1c0>)
  102f12:	7204      	strb	r4, [r0, #8]
  102f14:	f005 fe15 	bl	108b42 <__aeabi_atexit>
  102f18:	4838      	ldr	r0, [pc, #224]	; (102ffc <_GLOBAL__sub_I_TOUCH_LC717A00_mode+0x214>)
  102f1a:	f7ff fc09 	bl	102730 <mbed::Ticker::Ticker()>
  102f1e:	4a21      	ldr	r2, [pc, #132]	; (102fa4 <_GLOBAL__sub_I_TOUCH_LC717A00_mode+0x1bc>)
  102f20:	4934      	ldr	r1, [pc, #208]	; (102ff4 <_GLOBAL__sub_I_TOUCH_LC717A00_mode+0x20c>)
  102f22:	4836      	ldr	r0, [pc, #216]	; (102ffc <_GLOBAL__sub_I_TOUCH_LC717A00_mode+0x214>)
  102f24:	f005 fe0d 	bl	108b42 <__aeabi_atexit>
  102f28:	4835      	ldr	r0, [pc, #212]	; (103000 <_GLOBAL__sub_I_TOUCH_LC717A00_mode+0x218>)
  102f2a:	2111      	movs	r1, #17
  102f2c:	6004      	str	r4, [r0, #0]
  102f2e:	7104      	strb	r4, [r0, #4]
  102f30:	6084      	str	r4, [r0, #8]
  102f32:	f001 fc2e 	bl	104792 <gpio_init_in>
  102f36:	4833      	ldr	r0, [pc, #204]	; (103004 <_GLOBAL__sub_I_TOUCH_LC717A00_mode+0x21c>)
  102f38:	f7ff fbfa 	bl	102730 <mbed::Ticker::Ticker()>
  102f3c:	4a19      	ldr	r2, [pc, #100]	; (102fa4 <_GLOBAL__sub_I_TOUCH_LC717A00_mode+0x1bc>)
  102f3e:	492d      	ldr	r1, [pc, #180]	; (102ff4 <_GLOBAL__sub_I_TOUCH_LC717A00_mode+0x20c>)
  102f40:	4830      	ldr	r0, [pc, #192]	; (103004 <_GLOBAL__sub_I_TOUCH_LC717A00_mode+0x21c>)
  102f42:	f005 fdfe 	bl	108b42 <__aeabi_atexit>
  102f46:	4830      	ldr	r0, [pc, #192]	; (103008 <_GLOBAL__sub_I_TOUCH_LC717A00_mode+0x220>)
  102f48:	f7ff fbf2 	bl	102730 <mbed::Ticker::Ticker()>
  102f4c:	4a15      	ldr	r2, [pc, #84]	; (102fa4 <_GLOBAL__sub_I_TOUCH_LC717A00_mode+0x1bc>)
  102f4e:	4929      	ldr	r1, [pc, #164]	; (102ff4 <_GLOBAL__sub_I_TOUCH_LC717A00_mode+0x20c>)
  102f50:	482d      	ldr	r0, [pc, #180]	; (103008 <_GLOBAL__sub_I_TOUCH_LC717A00_mode+0x220>)
  102f52:	f005 fdf6 	bl	108b42 <__aeabi_atexit>
  102f56:	482d      	ldr	r0, [pc, #180]	; (10300c <_GLOBAL__sub_I_TOUCH_LC717A00_mode+0x224>)
  102f58:	f7ff fbea 	bl	102730 <mbed::Ticker::Ticker()>
  102f5c:	4a11      	ldr	r2, [pc, #68]	; (102fa4 <_GLOBAL__sub_I_TOUCH_LC717A00_mode+0x1bc>)
  102f5e:	4925      	ldr	r1, [pc, #148]	; (102ff4 <_GLOBAL__sub_I_TOUCH_LC717A00_mode+0x20c>)
  102f60:	482a      	ldr	r0, [pc, #168]	; (10300c <_GLOBAL__sub_I_TOUCH_LC717A00_mode+0x224>)
  102f62:	f005 fdee 	bl	108b42 <__aeabi_atexit>
  102f66:	482a      	ldr	r0, [pc, #168]	; (103010 <_GLOBAL__sub_I_TOUCH_LC717A00_mode+0x228>)
  102f68:	f7ff fbe2 	bl	102730 <mbed::Ticker::Ticker()>
  102f6c:	4a0d      	ldr	r2, [pc, #52]	; (102fa4 <_GLOBAL__sub_I_TOUCH_LC717A00_mode+0x1bc>)
  102f6e:	4921      	ldr	r1, [pc, #132]	; (102ff4 <_GLOBAL__sub_I_TOUCH_LC717A00_mode+0x20c>)
  102f70:	4827      	ldr	r0, [pc, #156]	; (103010 <_GLOBAL__sub_I_TOUCH_LC717A00_mode+0x228>)
  102f72:	f005 fde6 	bl	108b42 <__aeabi_atexit>
  102f76:	4827      	ldr	r0, [pc, #156]	; (103014 <_GLOBAL__sub_I_TOUCH_LC717A00_mode+0x22c>)
  102f78:	f7ff fbda 	bl	102730 <mbed::Ticker::Ticker()>
  102f7c:	4a09      	ldr	r2, [pc, #36]	; (102fa4 <_GLOBAL__sub_I_TOUCH_LC717A00_mode+0x1bc>)
  102f7e:	491d      	ldr	r1, [pc, #116]	; (102ff4 <_GLOBAL__sub_I_TOUCH_LC717A00_mode+0x20c>)
  102f80:	4824      	ldr	r0, [pc, #144]	; (103014 <_GLOBAL__sub_I_TOUCH_LC717A00_mode+0x22c>)
  102f82:	f005 fdde 	bl	108b42 <__aeabi_atexit>
  102f86:	4824      	ldr	r0, [pc, #144]	; (103018 <_GLOBAL__sub_I_TOUCH_LC717A00_mode+0x230>)
  102f88:	f001 fad8 	bl	10453c <RSL10_BLE::RSL10_BLE()>
  102f8c:	4a05      	ldr	r2, [pc, #20]	; (102fa4 <_GLOBAL__sub_I_TOUCH_LC717A00_mode+0x1bc>)
  102f8e:	4923      	ldr	r1, [pc, #140]	; (10301c <_GLOBAL__sub_I_TOUCH_LC717A00_mode+0x234>)
  102f90:	4821      	ldr	r0, [pc, #132]	; (103018 <_GLOBAL__sub_I_TOUCH_LC717A00_mode+0x230>)
  102f92:	b002      	add	sp, #8
  102f94:	e8bd 4070 	ldmia.w	sp!, {r4, r5, r6, lr}
  102f98:	f005 bdd3 	b.w	108b42 <__aeabi_atexit>
  102f9c:	00110e2d 	.word	0x00110e2d
  102fa0:	3fff6d50 	.word	0x3fff6d50
  102fa4:	3fff40a0 	.word	0x3fff40a0
  102fa8:	0010917f 	.word	0x0010917f
  102fac:	3fff6b3c 	.word	0x3fff6b3c
  102fb0:	001025a5 	.word	0x001025a5
  102fb4:	3fff6e98 	.word	0x3fff6e98
  102fb8:	3fff6d68 	.word	0x3fff6d68
  102fbc:	3fff70f4 	.word	0x3fff70f4
  102fc0:	3fff6cb4 	.word	0x3fff6cb4
  102fc4:	3fff70c4 	.word	0x3fff70c4
  102fc8:	00109013 	.word	0x00109013
  102fcc:	00102165 	.word	0x00102165
  102fd0:	3fff71b4 	.word	0x3fff71b4
  102fd4:	00103021 	.word	0x00103021
  102fd8:	3fff6db8 	.word	0x3fff6db8
  102fdc:	00103425 	.word	0x00103425
  102fe0:	3fff7088 	.word	0x3fff7088
  102fe4:	00108011 	.word	0x00108011
  102fe8:	3fff6e88 	.word	0x3fff6e88
  102fec:	00102137 	.word	0x00102137
  102ff0:	3fff6eb0 	.word	0x3fff6eb0
  102ff4:	00102175 	.word	0x00102175
  102ff8:	3fff6f74 	.word	0x3fff6f74
  102ffc:	3fff7050 	.word	0x3fff7050
  103000:	3fff767c 	.word	0x3fff767c
  103004:	3fff7178 	.word	0x3fff7178
  103008:	3fff6fc8 	.word	0x3fff6fc8
  10300c:	3fff7018 	.word	0x3fff7018
  103010:	3fff6f90 	.word	0x3fff6f90
  103014:	3fff6d80 	.word	0x3fff6d80
  103018:	3fff6ee8 	.word	0x3fff6ee8
  10301c:	001026b1 	.word	0x001026b1

00103020 <GPS::~GPS()>:
  103020:	4770      	bx	lr
	...

00103024 <__tcf_0>:
  103024:	b538      	push	{r3, r4, r5, lr}
  103026:	4d06      	ldr	r5, [pc, #24]	; (103040 <__tcf_0+0x1c>)
  103028:	2400      	movs	r4, #0
  10302a:	f504 70b4 	add.w	r0, r4, #360	; 0x168
  10302e:	4428      	add	r0, r5
  103030:	3c18      	subs	r4, #24
  103032:	f006 f889 	bl	109148 <std::__cxx11::basic_string<char, std::char_traits<char>, std::allocator<char> >::_M_dispose()>
  103036:	f514 7fc0 	cmn.w	r4, #384	; 0x180
  10303a:	d1f6      	bne.n	10302a <__tcf_0+0x6>
  10303c:	bd38      	pop	{r3, r4, r5, pc}
  10303e:	bf00      	nop
  103040:	3fff7728 	.word	0x3fff7728

00103044 <GPS::~GPS()>:
  103044:	b510      	push	{r4, lr}
  103046:	4604      	mov	r4, r0
  103048:	f005 fdb0 	bl	108bac <operator delete(void*)>
  10304c:	4620      	mov	r0, r4
  10304e:	bd10      	pop	{r4, pc}

00103050 <std::__cxx11::basic_string<char, std::char_traits<char>, std::allocator<char> >::basic_string(char const*, std::allocator<char> const&) [clone .isra.15] [clone .constprop.17]>:
  103050:	b510      	push	{r4, lr}
  103052:	4604      	mov	r4, r0
  103054:	4a05      	ldr	r2, [pc, #20]	; (10306c <std::__cxx11::basic_string<char, std::char_traits<char>, std::allocator<char> >::basic_string(char const*, std::allocator<char> const&) [clone .isra.15] [clone .constprop.17]+0x1c>)
  103056:	3008      	adds	r0, #8
  103058:	6020      	str	r0, [r4, #0]
  10305a:	4611      	mov	r1, r2
  10305c:	f006 f88a 	bl	109174 <std::__cxx11::basic_string<char, std::char_traits<char>, std::allocator<char> >::_S_copy_chars(char*, char const*, char const*)>
  103060:	6822      	ldr	r2, [r4, #0]
  103062:	2300      	movs	r3, #0
  103064:	6063      	str	r3, [r4, #4]
  103066:	7013      	strb	r3, [r2, #0]
  103068:	4620      	mov	r0, r4
  10306a:	bd10      	pop	{r4, pc}
  10306c:	00110e2d 	.word	0x00110e2d

00103070 <GPS::activate()>:
  103070:	b538      	push	{r3, r4, r5, lr}
  103072:	7903      	ldrb	r3, [r0, #4]
  103074:	4605      	mov	r5, r0
  103076:	bb13      	cbnz	r3, 1030be <GPS::activate()+0x4e>
  103078:	2466      	movs	r4, #102	; 0x66
  10307a:	f000 fe51 	bl	103d20 <uart_IsReadable()>
  10307e:	b128      	cbz	r0, 10308c <GPS::activate()+0x1c>
  103080:	3c01      	subs	r4, #1
  103082:	d003      	beq.n	10308c <GPS::activate()+0x1c>
  103084:	200a      	movs	r0, #10
  103086:	f005 fe93 	bl	108db0 <wait_us>
  10308a:	e7f6      	b.n	10307a <GPS::activate()+0xa>
  10308c:	f001 fd24 	bl	104ad8 <core_util_critical_section_enter>
  103090:	2101      	movs	r1, #1
  103092:	480b      	ldr	r0, [pc, #44]	; (1030c0 <GPS::activate()+0x50>)
  103094:	f003 fcc0 	bl	106a18 <gpio_dir>
  103098:	f001 fd4a 	bl	104b30 <core_util_critical_section_exit>
  10309c:	f001 fd1c 	bl	104ad8 <core_util_critical_section_enter>
  1030a0:	2100      	movs	r1, #0
  1030a2:	4807      	ldr	r0, [pc, #28]	; (1030c0 <GPS::activate()+0x50>)
  1030a4:	f003 fcb4 	bl	106a10 <gpio_mode>
  1030a8:	f001 fd42 	bl	104b30 <core_util_critical_section_exit>
  1030ac:	2100      	movs	r1, #0
  1030ae:	4804      	ldr	r0, [pc, #16]	; (1030c0 <GPS::activate()+0x50>)
  1030b0:	f003 fcc4 	bl	106a3c <gpio_write>
  1030b4:	2064      	movs	r0, #100	; 0x64
  1030b6:	f005 fe9f 	bl	108df8 <wait_ms>
  1030ba:	2301      	movs	r3, #1
  1030bc:	712b      	strb	r3, [r5, #4]
  1030be:	bd38      	pop	{r3, r4, r5, pc}
  1030c0:	3fff7938 	.word	0x3fff7938

001030c4 <GPS::deactivate()>:
  1030c4:	b538      	push	{r3, r4, r5, lr}
  1030c6:	4605      	mov	r5, r0
  1030c8:	4c0b      	ldr	r4, [pc, #44]	; (1030f8 <GPS::deactivate()+0x34>)
  1030ca:	f001 fd05 	bl	104ad8 <core_util_critical_section_enter>
  1030ce:	2101      	movs	r1, #1
  1030d0:	4620      	mov	r0, r4
  1030d2:	f003 fca1 	bl	106a18 <gpio_dir>
  1030d6:	f001 fd2b 	bl	104b30 <core_util_critical_section_exit>
  1030da:	f001 fcfd 	bl	104ad8 <core_util_critical_section_enter>
  1030de:	2102      	movs	r1, #2
  1030e0:	4620      	mov	r0, r4
  1030e2:	f003 fc95 	bl	106a10 <gpio_mode>
  1030e6:	f001 fd23 	bl	104b30 <core_util_critical_section_exit>
  1030ea:	2101      	movs	r1, #1
  1030ec:	4620      	mov	r0, r4
  1030ee:	f003 fca5 	bl	106a3c <gpio_write>
  1030f2:	2300      	movs	r3, #0
  1030f4:	712b      	strb	r3, [r5, #4]
  1030f6:	bd38      	pop	{r3, r4, r5, pc}
  1030f8:	3fff7938 	.word	0x3fff7938

001030fc <GPS::send(char*)>:
  1030fc:	b538      	push	{r3, r4, r5, lr}
  1030fe:	460c      	mov	r4, r1
  103100:	1d45      	adds	r5, r0, #5
  103102:	4629      	mov	r1, r5
  103104:	4620      	mov	r0, r4
  103106:	f009 fc2e 	bl	10c966 <strcmp>
  10310a:	b140      	cbz	r0, 10311e <GPS::send(char*)+0x22>
  10310c:	4621      	mov	r1, r4
  10310e:	4628      	mov	r0, r5
  103110:	f009 fc33 	bl	10c97a <strcpy>
  103114:	4620      	mov	r0, r4
  103116:	e8bd 4038 	ldmia.w	sp!, {r3, r4, r5, lr}
  10311a:	f000 bdf5 	b.w	103d08 <Send_UART(char*)>
  10311e:	bd38      	pop	{r3, r4, r5, pc}

00103120 <GPS::ShowStruct(int, char*, char*)>:
  103120:	b570      	push	{r4, r5, r6, lr}
  103122:	4605      	mov	r5, r0
  103124:	461e      	mov	r6, r3
  103126:	2451      	movs	r4, #81	; 0x51
  103128:	434c      	muls	r4, r1
  10312a:	1901      	adds	r1, r0, r4
  10312c:	f201 119d 	addw	r1, r1, #413	; 0x19d
  103130:	4610      	mov	r0, r2
  103132:	f009 fc22 	bl	10c97a <strcpy>
  103136:	1929      	adds	r1, r5, r4
  103138:	4630      	mov	r0, r6
  10313a:	e8bd 4070 	ldmia.w	sp!, {r4, r5, r6, lr}
  10313e:	f201 11c5 	addw	r1, r1, #453	; 0x1c5
  103142:	f009 bc1a 	b.w	10c97a <strcpy>
	...

00103148 <GPS::control(int, bool)>:
  103148:	2902      	cmp	r1, #2
  10314a:	b508      	push	{r3, lr}
  10314c:	d108      	bne.n	103160 <GPS::control(int, bool)+0x18>
  10314e:	b11a      	cbz	r2, 103158 <GPS::control(int, bool)+0x10>
  103150:	4b0f      	ldr	r3, [pc, #60]	; (103190 <GPS::control(int, bool)+0x48>)
  103152:	4810      	ldr	r0, [pc, #64]	; (103194 <GPS::control(int, bool)+0x4c>)
  103154:	6819      	ldr	r1, [r3, #0]
  103156:	e013      	b.n	103180 <GPS::control(int, bool)+0x38>
  103158:	f44f 618b 	mov.w	r1, #1112	; 0x458
  10315c:	480e      	ldr	r0, [pc, #56]	; (103198 <GPS::control(int, bool)+0x50>)
  10315e:	e00f      	b.n	103180 <GPS::control(int, bool)+0x38>
  103160:	2901      	cmp	r1, #1
  103162:	d103      	bne.n	10316c <GPS::control(int, bool)+0x24>
  103164:	4b0d      	ldr	r3, [pc, #52]	; (10319c <GPS::control(int, bool)+0x54>)
  103166:	480e      	ldr	r0, [pc, #56]	; (1031a0 <GPS::control(int, bool)+0x58>)
  103168:	6819      	ldr	r1, [r3, #0]
  10316a:	e009      	b.n	103180 <GPS::control(int, bool)+0x38>
  10316c:	2963      	cmp	r1, #99	; 0x63
  10316e:	d10e      	bne.n	10318e <GPS::control(int, bool)+0x46>
  103170:	b11a      	cbz	r2, 10317a <GPS::control(int, bool)+0x32>
  103172:	4b0c      	ldr	r3, [pc, #48]	; (1031a4 <GPS::control(int, bool)+0x5c>)
  103174:	480c      	ldr	r0, [pc, #48]	; (1031a8 <GPS::control(int, bool)+0x60>)
  103176:	6819      	ldr	r1, [r3, #0]
  103178:	e002      	b.n	103180 <GPS::control(int, bool)+0x38>
  10317a:	4b0c      	ldr	r3, [pc, #48]	; (1031ac <GPS::control(int, bool)+0x64>)
  10317c:	480c      	ldr	r0, [pc, #48]	; (1031b0 <GPS::control(int, bool)+0x68>)
  10317e:	6819      	ldr	r1, [r3, #0]
  103180:	f000 fdd8 	bl	103d34 <Send_UART_nonPrintableChar(int*, int)>
  103184:	e8bd 4008 	ldmia.w	sp!, {r3, lr}
  103188:	20c8      	movs	r0, #200	; 0xc8
  10318a:	f005 be35 	b.w	108df8 <wait_ms>
  10318e:	bd08      	pop	{r3, pc}
  103190:	3fff40ac 	.word	0x3fff40ac
  103194:	3fff526c 	.word	0x3fff526c
  103198:	3fff40b0 	.word	0x3fff40b0
  10319c:	3fff5264 	.word	0x3fff5264
  1031a0:	3fff5238 	.word	0x3fff5238
  1031a4:	3fff5298 	.word	0x3fff5298
  1031a8:	3fff40dc 	.word	0x3fff40dc
  1031ac:	3fff5268 	.word	0x3fff5268
  1031b0:	3fff529c 	.word	0x3fff529c

001031b4 <GPS::FakeDataGenerator()>:
  1031b4:	b57f      	push	{r0, r1, r2, r3, r4, r5, r6, lr}
  1031b6:	f200 159d 	addw	r5, r0, #413	; 0x19d
  1031ba:	f500 66a3 	add.w	r6, r0, #1304	; 0x518
  1031be:	2000      	movs	r0, #0
  1031c0:	f005 fdce 	bl	108d60 <time>
  1031c4:	f009 f94e 	bl	10c464 <srand>
  1031c8:	f009 f974 	bl	10c4b4 <rand>
  1031cc:	2464      	movs	r4, #100	; 0x64
  1031ce:	fb90 f2f4 	sdiv	r2, r0, r4
  1031d2:	fb02 0214 	mls	r2, r2, r4, r0
  1031d6:	490f      	ldr	r1, [pc, #60]	; (103214 <GPS::FakeDataGenerator()+0x60>)
  1031d8:	3201      	adds	r2, #1
  1031da:	a801      	add	r0, sp, #4
  1031dc:	f009 fb30 	bl	10c840 <siprintf>
  1031e0:	a901      	add	r1, sp, #4
  1031e2:	4628      	mov	r0, r5
  1031e4:	f009 fbc9 	bl	10c97a <strcpy>
  1031e8:	f009 f964 	bl	10c4b4 <rand>
  1031ec:	fb90 f2f4 	sdiv	r2, r0, r4
  1031f0:	fb02 0214 	mls	r2, r2, r4, r0
  1031f4:	4908      	ldr	r1, [pc, #32]	; (103218 <GPS::FakeDataGenerator()+0x64>)
  1031f6:	3201      	adds	r2, #1
  1031f8:	a801      	add	r0, sp, #4
  1031fa:	f009 fb21 	bl	10c840 <siprintf>
  1031fe:	f105 0028 	add.w	r0, r5, #40	; 0x28
  103202:	a901      	add	r1, sp, #4
  103204:	3551      	adds	r5, #81	; 0x51
  103206:	f009 fbb8 	bl	10c97a <strcpy>
  10320a:	42b5      	cmp	r5, r6
  10320c:	d1d7      	bne.n	1031be <GPS::FakeDataGenerator()+0xa>
  10320e:	b004      	add	sp, #16
  103210:	bd70      	pop	{r4, r5, r6, pc}
  103212:	bf00      	nop
  103214:	001100b3 	.word	0x001100b3
  103218:	001100bc 	.word	0x001100bc

0010321c <GPS::GPS()>:
  10321c:	4a02      	ldr	r2, [pc, #8]	; (103228 <GPS::GPS()+0xc>)
  10321e:	6002      	str	r2, [r0, #0]
  103220:	2200      	movs	r2, #0
  103222:	f8c0 2134 	str.w	r2, [r0, #308]	; 0x134
  103226:	4770      	bx	lr
  103228:	001100a4 	.word	0x001100a4

0010322c <_GLOBAL__sub_I_TOUCH_LC717A00_mode>:
  10322c:	b573      	push	{r0, r1, r4, r5, r6, lr}
  10322e:	4835      	ldr	r0, [pc, #212]	; (103304 <_GLOBAL__sub_I_TOUCH_LC717A00_mode+0xd8>)
  103230:	f7ff ff0e 	bl	103050 <std::__cxx11::basic_string<char, std::char_traits<char>, std::allocator<char> >::basic_string(char const*, std::allocator<char> const&) [clone .isra.15] [clone .constprop.17]>
  103234:	4a34      	ldr	r2, [pc, #208]	; (103308 <_GLOBAL__sub_I_TOUCH_LC717A00_mode+0xdc>)
  103236:	4935      	ldr	r1, [pc, #212]	; (10330c <_GLOBAL__sub_I_TOUCH_LC717A00_mode+0xe0>)
  103238:	4832      	ldr	r0, [pc, #200]	; (103304 <_GLOBAL__sub_I_TOUCH_LC717A00_mode+0xd8>)
  10323a:	f005 fc82 	bl	108b42 <__aeabi_atexit>
  10323e:	4b34      	ldr	r3, [pc, #208]	; (103310 <_GLOBAL__sub_I_TOUCH_LC717A00_mode+0xe4>)
  103240:	2200      	movs	r2, #0
  103242:	f503 70c0 	add.w	r0, r3, #384	; 0x180
  103246:	4619      	mov	r1, r3
  103248:	f843 2c04 	str.w	r2, [r3, #-4]
  10324c:	f843 3c08 	str.w	r3, [r3, #-8]
  103250:	f801 2b18 	strb.w	r2, [r1], #24
  103254:	6119      	str	r1, [r3, #16]
  103256:	615a      	str	r2, [r3, #20]
  103258:	761a      	strb	r2, [r3, #24]
  10325a:	3330      	adds	r3, #48	; 0x30
  10325c:	4283      	cmp	r3, r0
  10325e:	f04f 0400 	mov.w	r4, #0
  103262:	d1f0      	bne.n	103246 <_GLOBAL__sub_I_TOUCH_LC717A00_mode+0x1a>
  103264:	4a28      	ldr	r2, [pc, #160]	; (103308 <_GLOBAL__sub_I_TOUCH_LC717A00_mode+0xdc>)
  103266:	492b      	ldr	r1, [pc, #172]	; (103314 <_GLOBAL__sub_I_TOUCH_LC717A00_mode+0xe8>)
  103268:	4620      	mov	r0, r4
  10326a:	f005 fc6a 	bl	108b42 <__aeabi_atexit>
  10326e:	482a      	ldr	r0, [pc, #168]	; (103318 <_GLOBAL__sub_I_TOUCH_LC717A00_mode+0xec>)
  103270:	f7ff feee 	bl	103050 <std::__cxx11::basic_string<char, std::char_traits<char>, std::allocator<char> >::basic_string(char const*, std::allocator<char> const&) [clone .isra.15] [clone .constprop.17]>
  103274:	4a24      	ldr	r2, [pc, #144]	; (103308 <_GLOBAL__sub_I_TOUCH_LC717A00_mode+0xdc>)
  103276:	4925      	ldr	r1, [pc, #148]	; (10330c <_GLOBAL__sub_I_TOUCH_LC717A00_mode+0xe0>)
  103278:	4827      	ldr	r0, [pc, #156]	; (103318 <_GLOBAL__sub_I_TOUCH_LC717A00_mode+0xec>)
  10327a:	f005 fc62 	bl	108b42 <__aeabi_atexit>
  10327e:	4827      	ldr	r0, [pc, #156]	; (10331c <_GLOBAL__sub_I_TOUCH_LC717A00_mode+0xf0>)
  103280:	f7ff fee6 	bl	103050 <std::__cxx11::basic_string<char, std::char_traits<char>, std::allocator<char> >::basic_string(char const*, std::allocator<char> const&) [clone .isra.15] [clone .constprop.17]>
  103284:	4a20      	ldr	r2, [pc, #128]	; (103308 <_GLOBAL__sub_I_TOUCH_LC717A00_mode+0xdc>)
  103286:	4921      	ldr	r1, [pc, #132]	; (10330c <_GLOBAL__sub_I_TOUCH_LC717A00_mode+0xe0>)
  103288:	4824      	ldr	r0, [pc, #144]	; (10331c <_GLOBAL__sub_I_TOUCH_LC717A00_mode+0xf0>)
  10328a:	f005 fc5a 	bl	108b42 <__aeabi_atexit>
  10328e:	4824      	ldr	r0, [pc, #144]	; (103320 <_GLOBAL__sub_I_TOUCH_LC717A00_mode+0xf4>)
  103290:	f7ff fede 	bl	103050 <std::__cxx11::basic_string<char, std::char_traits<char>, std::allocator<char> >::basic_string(char const*, std::allocator<char> const&) [clone .isra.15] [clone .constprop.17]>
  103294:	4a1c      	ldr	r2, [pc, #112]	; (103308 <_GLOBAL__sub_I_TOUCH_LC717A00_mode+0xdc>)
  103296:	491d      	ldr	r1, [pc, #116]	; (10330c <_GLOBAL__sub_I_TOUCH_LC717A00_mode+0xe0>)
  103298:	4821      	ldr	r0, [pc, #132]	; (103320 <_GLOBAL__sub_I_TOUCH_LC717A00_mode+0xf4>)
  10329a:	4d22      	ldr	r5, [pc, #136]	; (103324 <_GLOBAL__sub_I_TOUCH_LC717A00_mode+0xf8>)
  10329c:	f005 fc51 	bl	108b42 <__aeabi_atexit>
  1032a0:	4821      	ldr	r0, [pc, #132]	; (103328 <_GLOBAL__sub_I_TOUCH_LC717A00_mode+0xfc>)
  1032a2:	f005 fea9 	bl	108ff8 <rtos::Mutex::Mutex()>
  1032a6:	f04f 36ff 	mov.w	r6, #4294967295
  1032aa:	4a17      	ldr	r2, [pc, #92]	; (103308 <_GLOBAL__sub_I_TOUCH_LC717A00_mode+0xdc>)
  1032ac:	491f      	ldr	r1, [pc, #124]	; (10332c <_GLOBAL__sub_I_TOUCH_LC717A00_mode+0x100>)
  1032ae:	481e      	ldr	r0, [pc, #120]	; (103328 <_GLOBAL__sub_I_TOUCH_LC717A00_mode+0xfc>)
  1032b0:	f005 fc47 	bl	108b42 <__aeabi_atexit>
  1032b4:	2304      	movs	r3, #4
  1032b6:	2206      	movs	r2, #6
  1032b8:	9600      	str	r6, [sp, #0]
  1032ba:	2105      	movs	r1, #5
  1032bc:	4628      	mov	r0, r5
  1032be:	f005 f803 	bl	1082c8 <mbed::SPI::SPI(PinName, PinName, PinName, PinName)>
  1032c2:	4631      	mov	r1, r6
  1032c4:	f105 002c 	add.w	r0, r5, #44	; 0x2c
  1032c8:	62ec      	str	r4, [r5, #44]	; 0x2c
  1032ca:	f885 4030 	strb.w	r4, [r5, #48]	; 0x30
  1032ce:	636c      	str	r4, [r5, #52]	; 0x34
  1032d0:	f001 fa86 	bl	1047e0 <gpio_init_out>
  1032d4:	2320      	movs	r3, #32
  1032d6:	9600      	str	r6, [sp, #0]
  1032d8:	2202      	movs	r2, #2
  1032da:	2103      	movs	r1, #3
  1032dc:	f105 0040 	add.w	r0, r5, #64	; 0x40
  1032e0:	f000 fec2 	bl	104068 <PCA9655E::PCA9655E(PinName, PinName, unsigned char, PinName)>
  1032e4:	4a08      	ldr	r2, [pc, #32]	; (103308 <_GLOBAL__sub_I_TOUCH_LC717A00_mode+0xdc>)
  1032e6:	4912      	ldr	r1, [pc, #72]	; (103330 <_GLOBAL__sub_I_TOUCH_LC717A00_mode+0x104>)
  1032e8:	4628      	mov	r0, r5
  1032ea:	f005 fc2a 	bl	108b42 <__aeabi_atexit>
  1032ee:	4811      	ldr	r0, [pc, #68]	; (103334 <_GLOBAL__sub_I_TOUCH_LC717A00_mode+0x108>)
  1032f0:	210c      	movs	r1, #12
  1032f2:	6004      	str	r4, [r0, #0]
  1032f4:	7104      	strb	r4, [r0, #4]
  1032f6:	6084      	str	r4, [r0, #8]
  1032f8:	b002      	add	sp, #8
  1032fa:	e8bd 4070 	ldmia.w	sp!, {r4, r5, r6, lr}
  1032fe:	f001 ba48 	b.w	104792 <gpio_init_in>
  103302:	bf00      	nop
  103304:	3fff78a8 	.word	0x3fff78a8
  103308:	3fff40a0 	.word	0x3fff40a0
  10330c:	0010917f 	.word	0x0010917f
  103310:	3fff7730 	.word	0x3fff7730
  103314:	00103025 	.word	0x00103025
  103318:	3fff78d8 	.word	0x3fff78d8
  10331c:	3fff78c0 	.word	0x3fff78c0
  103320:	3fff7920 	.word	0x3fff7920
  103324:	3fff768c 	.word	0x3fff768c
  103328:	3fff78f0 	.word	0x3fff78f0
  10332c:	00109013 	.word	0x00109013
  103330:	00102165 	.word	0x00102165
  103334:	3fff7938 	.word	0x3fff7938

00103338 <__tcf_0>:
  103338:	b538      	push	{r3, r4, r5, lr}
  10333a:	4d06      	ldr	r5, [pc, #24]	; (103354 <__tcf_0+0x1c>)
  10333c:	2400      	movs	r4, #0
  10333e:	f504 70b4 	add.w	r0, r4, #360	; 0x168
  103342:	4428      	add	r0, r5
  103344:	3c18      	subs	r4, #24
  103346:	f005 feff 	bl	109148 <std::__cxx11::basic_string<char, std::char_traits<char>, std::allocator<char> >::_M_dispose()>
  10334a:	f514 7fc0 	cmn.w	r4, #384	; 0x180
  10334e:	d1f6      	bne.n	10333e <__tcf_0+0x6>
  103350:	bd38      	pop	{r3, r4, r5, pc}
  103352:	bf00      	nop
  103354:	3fff7944 	.word	0x3fff7944

00103358 <std::__cxx11::basic_string<char, std::char_traits<char>, std::allocator<char> >::basic_string(char const*, std::allocator<char> const&) [clone .isra.14] [clone .constprop.16]>:
  103358:	b510      	push	{r4, lr}
  10335a:	4604      	mov	r4, r0
  10335c:	4a05      	ldr	r2, [pc, #20]	; (103374 <std::__cxx11::basic_string<char, std::char_traits<char>, std::allocator<char> >::basic_string(char const*, std::allocator<char> const&) [clone .isra.14] [clone .constprop.16]+0x1c>)
  10335e:	3008      	adds	r0, #8
  103360:	6020      	str	r0, [r4, #0]
  103362:	4611      	mov	r1, r2
  103364:	f005 ff06 	bl	109174 <std::__cxx11::basic_string<char, std::char_traits<char>, std::allocator<char> >::_S_copy_chars(char*, char const*, char const*)>
  103368:	6822      	ldr	r2, [r4, #0]
  10336a:	2300      	movs	r3, #0
  10336c:	6063      	str	r3, [r4, #4]
  10336e:	7013      	strb	r3, [r2, #0]
  103370:	4620      	mov	r0, r4
  103372:	bd10      	pop	{r4, pc}
  103374:	00110e2d 	.word	0x00110e2d

00103378 <_GLOBAL__sub_I_TOUCH_LC717A00_mode>:
  103378:	b508      	push	{r3, lr}
  10337a:	4820      	ldr	r0, [pc, #128]	; (1033fc <_GLOBAL__sub_I_TOUCH_LC717A00_mode+0x84>)
  10337c:	f7ff ffec 	bl	103358 <std::__cxx11::basic_string<char, std::char_traits<char>, std::allocator<char> >::basic_string(char const*, std::allocator<char> const&) [clone .isra.14] [clone .constprop.16]>
  103380:	4a1f      	ldr	r2, [pc, #124]	; (103400 <_GLOBAL__sub_I_TOUCH_LC717A00_mode+0x88>)
  103382:	4920      	ldr	r1, [pc, #128]	; (103404 <_GLOBAL__sub_I_TOUCH_LC717A00_mode+0x8c>)
  103384:	481d      	ldr	r0, [pc, #116]	; (1033fc <_GLOBAL__sub_I_TOUCH_LC717A00_mode+0x84>)
  103386:	f005 fbdc 	bl	108b42 <__aeabi_atexit>
  10338a:	4b1f      	ldr	r3, [pc, #124]	; (103408 <_GLOBAL__sub_I_TOUCH_LC717A00_mode+0x90>)
  10338c:	2200      	movs	r2, #0
  10338e:	f503 70c0 	add.w	r0, r3, #384	; 0x180
  103392:	4619      	mov	r1, r3
  103394:	f843 2c04 	str.w	r2, [r3, #-4]
  103398:	f843 3c08 	str.w	r3, [r3, #-8]
  10339c:	f801 2b18 	strb.w	r2, [r1], #24
  1033a0:	6119      	str	r1, [r3, #16]
  1033a2:	615a      	str	r2, [r3, #20]
  1033a4:	761a      	strb	r2, [r3, #24]
  1033a6:	3330      	adds	r3, #48	; 0x30
  1033a8:	4283      	cmp	r3, r0
  1033aa:	d1f2      	bne.n	103392 <_GLOBAL__sub_I_TOUCH_LC717A00_mode+0x1a>
  1033ac:	4a14      	ldr	r2, [pc, #80]	; (103400 <_GLOBAL__sub_I_TOUCH_LC717A00_mode+0x88>)
  1033ae:	4917      	ldr	r1, [pc, #92]	; (10340c <_GLOBAL__sub_I_TOUCH_LC717A00_mode+0x94>)
  1033b0:	2000      	movs	r0, #0
  1033b2:	f005 fbc6 	bl	108b42 <__aeabi_atexit>
  1033b6:	4816      	ldr	r0, [pc, #88]	; (103410 <_GLOBAL__sub_I_TOUCH_LC717A00_mode+0x98>)
  1033b8:	f7ff ffce 	bl	103358 <std::__cxx11::basic_string<char, std::char_traits<char>, std::allocator<char> >::basic_string(char const*, std::allocator<char> const&) [clone .isra.14] [clone .constprop.16]>
  1033bc:	4a10      	ldr	r2, [pc, #64]	; (103400 <_GLOBAL__sub_I_TOUCH_LC717A00_mode+0x88>)
  1033be:	4911      	ldr	r1, [pc, #68]	; (103404 <_GLOBAL__sub_I_TOUCH_LC717A00_mode+0x8c>)
  1033c0:	4813      	ldr	r0, [pc, #76]	; (103410 <_GLOBAL__sub_I_TOUCH_LC717A00_mode+0x98>)
  1033c2:	f005 fbbe 	bl	108b42 <__aeabi_atexit>
  1033c6:	4813      	ldr	r0, [pc, #76]	; (103414 <_GLOBAL__sub_I_TOUCH_LC717A00_mode+0x9c>)
  1033c8:	f7ff ffc6 	bl	103358 <std::__cxx11::basic_string<char, std::char_traits<char>, std::allocator<char> >::basic_string(char const*, std::allocator<char> const&) [clone .isra.14] [clone .constprop.16]>
  1033cc:	4a0c      	ldr	r2, [pc, #48]	; (103400 <_GLOBAL__sub_I_TOUCH_LC717A00_mode+0x88>)
  1033ce:	490d      	ldr	r1, [pc, #52]	; (103404 <_GLOBAL__sub_I_TOUCH_LC717A00_mode+0x8c>)
  1033d0:	4810      	ldr	r0, [pc, #64]	; (103414 <_GLOBAL__sub_I_TOUCH_LC717A00_mode+0x9c>)
  1033d2:	f005 fbb6 	bl	108b42 <__aeabi_atexit>
  1033d6:	4810      	ldr	r0, [pc, #64]	; (103418 <_GLOBAL__sub_I_TOUCH_LC717A00_mode+0xa0>)
  1033d8:	f7ff ffbe 	bl	103358 <std::__cxx11::basic_string<char, std::char_traits<char>, std::allocator<char> >::basic_string(char const*, std::allocator<char> const&) [clone .isra.14] [clone .constprop.16]>
  1033dc:	4a08      	ldr	r2, [pc, #32]	; (103400 <_GLOBAL__sub_I_TOUCH_LC717A00_mode+0x88>)
  1033de:	4909      	ldr	r1, [pc, #36]	; (103404 <_GLOBAL__sub_I_TOUCH_LC717A00_mode+0x8c>)
  1033e0:	480d      	ldr	r0, [pc, #52]	; (103418 <_GLOBAL__sub_I_TOUCH_LC717A00_mode+0xa0>)
  1033e2:	f005 fbae 	bl	108b42 <__aeabi_atexit>
  1033e6:	480d      	ldr	r0, [pc, #52]	; (10341c <_GLOBAL__sub_I_TOUCH_LC717A00_mode+0xa4>)
  1033e8:	f005 fe06 	bl	108ff8 <rtos::Mutex::Mutex()>
  1033ec:	e8bd 4008 	ldmia.w	sp!, {r3, lr}
  1033f0:	4a03      	ldr	r2, [pc, #12]	; (103400 <_GLOBAL__sub_I_TOUCH_LC717A00_mode+0x88>)
  1033f2:	490b      	ldr	r1, [pc, #44]	; (103420 <_GLOBAL__sub_I_TOUCH_LC717A00_mode+0xa8>)
  1033f4:	4809      	ldr	r0, [pc, #36]	; (10341c <_GLOBAL__sub_I_TOUCH_LC717A00_mode+0xa4>)
  1033f6:	f005 bba4 	b.w	108b42 <__aeabi_atexit>
  1033fa:	bf00      	nop
  1033fc:	3fff7ac4 	.word	0x3fff7ac4
  103400:	3fff40a0 	.word	0x3fff40a0
  103404:	0010917f 	.word	0x0010917f
  103408:	3fff794c 	.word	0x3fff794c
  10340c:	00103339 	.word	0x00103339
  103410:	3fff7af4 	.word	0x3fff7af4
  103414:	3fff7adc 	.word	0x3fff7adc
  103418:	3fff7b3c 	.word	0x3fff7b3c
  10341c:	3fff7b0c 	.word	0x3fff7b0c
  103420:	00109013 	.word	0x00109013

00103424 <GSM::~GSM()>:
  103424:	4770      	bx	lr
	...

00103428 <__tcf_0>:
  103428:	b538      	push	{r3, r4, r5, lr}
  10342a:	4d06      	ldr	r5, [pc, #24]	; (103444 <__tcf_0+0x1c>)
  10342c:	2400      	movs	r4, #0
  10342e:	f504 70b4 	add.w	r0, r4, #360	; 0x168
  103432:	4428      	add	r0, r5
  103434:	3c18      	subs	r4, #24
  103436:	f005 fe87 	bl	109148 <std::__cxx11::basic_string<char, std::char_traits<char>, std::allocator<char> >::_M_dispose()>
  10343a:	f514 7fc0 	cmn.w	r4, #384	; 0x180
  10343e:	d1f6      	bne.n	10342e <__tcf_0+0x6>
  103440:	bd38      	pop	{r3, r4, r5, pc}
  103442:	bf00      	nop
  103444:	3fff7b54 	.word	0x3fff7b54

00103448 <GSM::~GSM()>:
  103448:	b510      	push	{r4, lr}
  10344a:	4604      	mov	r4, r0
  10344c:	f005 fbae 	bl	108bac <operator delete(void*)>
  103450:	4620      	mov	r0, r4
  103452:	bd10      	pop	{r4, pc}

00103454 <std::__cxx11::basic_string<char, std::char_traits<char>, std::allocator<char> >::basic_string(char const*, std::allocator<char> const&) [clone .isra.15] [clone .constprop.17]>:
  103454:	b510      	push	{r4, lr}
  103456:	4604      	mov	r4, r0
  103458:	4a05      	ldr	r2, [pc, #20]	; (103470 <std::__cxx11::basic_string<char, std::char_traits<char>, std::allocator<char> >::basic_string(char const*, std::allocator<char> const&) [clone .isra.15] [clone .constprop.17]+0x1c>)
  10345a:	3008      	adds	r0, #8
  10345c:	6020      	str	r0, [r4, #0]
  10345e:	4611      	mov	r1, r2
  103460:	f005 fe88 	bl	109174 <std::__cxx11::basic_string<char, std::char_traits<char>, std::allocator<char> >::_S_copy_chars(char*, char const*, char const*)>
  103464:	6822      	ldr	r2, [r4, #0]
  103466:	2300      	movs	r3, #0
  103468:	6063      	str	r3, [r4, #4]
  10346a:	7013      	strb	r3, [r2, #0]
  10346c:	4620      	mov	r0, r4
  10346e:	bd10      	pop	{r4, pc}
  103470:	00110e2d 	.word	0x00110e2d

00103474 <mbed::SerialBase::~SerialBase()>:
  103474:	b570      	push	{r4, r5, r6, lr}
  103476:	4605      	mov	r5, r0
  103478:	4b09      	ldr	r3, [pc, #36]	; (1034a0 <mbed::SerialBase::~SerialBase()+0x2c>)
  10347a:	4606      	mov	r6, r0
  10347c:	f845 3b10 	str.w	r3, [r5], #16
  103480:	b15d      	cbz	r5, 10349a <mbed::SerialBase::~SerialBase()+0x26>
  103482:	f100 0430 	add.w	r4, r0, #48	; 0x30
  103486:	42ac      	cmp	r4, r5
  103488:	d007      	beq.n	10349a <mbed::SerialBase::~SerialBase()+0x26>
  10348a:	3c10      	subs	r4, #16
  10348c:	68e3      	ldr	r3, [r4, #12]
  10348e:	2b00      	cmp	r3, #0
  103490:	d0f9      	beq.n	103486 <mbed::SerialBase::~SerialBase()+0x12>
  103492:	689b      	ldr	r3, [r3, #8]
  103494:	4620      	mov	r0, r4
  103496:	4798      	blx	r3
  103498:	e7f5      	b.n	103486 <mbed::SerialBase::~SerialBase()+0x12>
  10349a:	4630      	mov	r0, r6
  10349c:	bd70      	pop	{r4, r5, r6, pc}
  10349e:	bf00      	nop
  1034a0:	00110b98 	.word	0x00110b98

001034a4 <mbed::Serial::~Serial()>:
  1034a4:	b510      	push	{r4, lr}
  1034a6:	4604      	mov	r4, r0
  1034a8:	4b0a      	ldr	r3, [pc, #40]	; (1034d4 <mbed::Serial::~Serial()+0x30>)
  1034aa:	304c      	adds	r0, #76	; 0x4c
  1034ac:	f103 0220 	add.w	r2, r3, #32
  1034b0:	f840 3c4c 	str.w	r3, [r0, #-76]
  1034b4:	337c      	adds	r3, #124	; 0x7c
  1034b6:	f840 2c18 	str.w	r2, [r0, #-24]
  1034ba:	f840 3c14 	str.w	r3, [r0, #-20]
  1034be:	f005 fda8 	bl	109012 <rtos::Mutex::~Mutex()>
  1034c2:	f104 0034 	add.w	r0, r4, #52	; 0x34
  1034c6:	f005 fd1d 	bl	108f04 <mbed::Stream::~Stream()>
  1034ca:	4620      	mov	r0, r4
  1034cc:	f7ff ffd2 	bl	103474 <mbed::SerialBase::~SerialBase()>
  1034d0:	4620      	mov	r0, r4
  1034d2:	bd10      	pop	{r4, pc}
  1034d4:	00110b0c 	.word	0x00110b0c

001034d8 <non-virtual thunk to mbed::Serial::~Serial()>:
  1034d8:	f1a0 0034 	sub.w	r0, r0, #52	; 0x34
  1034dc:	e7e2      	b.n	1034a4 <mbed::Serial::~Serial()>

001034de <non-virtual thunk to mbed::Serial::~Serial()>:
  1034de:	f1a0 0038 	sub.w	r0, r0, #56	; 0x38
  1034e2:	e7df      	b.n	1034a4 <mbed::Serial::~Serial()>

001034e4 <mbed::SerialBase::~SerialBase()>:
  1034e4:	b510      	push	{r4, lr}
  1034e6:	4604      	mov	r4, r0
  1034e8:	f7ff ffc4 	bl	103474 <mbed::SerialBase::~SerialBase()>
  1034ec:	4620      	mov	r0, r4
  1034ee:	f005 fb5d 	bl	108bac <operator delete(void*)>
  1034f2:	4620      	mov	r0, r4
  1034f4:	bd10      	pop	{r4, pc}
	...

001034f8 <GSM::activate()>:
  1034f8:	b538      	push	{r3, r4, r5, lr}
  1034fa:	7903      	ldrb	r3, [r0, #4]
  1034fc:	4605      	mov	r5, r0
  1034fe:	bb13      	cbnz	r3, 103546 <GSM::activate()+0x4e>
  103500:	2466      	movs	r4, #102	; 0x66
  103502:	f000 fc0d 	bl	103d20 <uart_IsReadable()>
  103506:	b128      	cbz	r0, 103514 <GSM::activate()+0x1c>
  103508:	3c01      	subs	r4, #1
  10350a:	d003      	beq.n	103514 <GSM::activate()+0x1c>
  10350c:	200a      	movs	r0, #10
  10350e:	f005 fc4f 	bl	108db0 <wait_us>
  103512:	e7f6      	b.n	103502 <GSM::activate()+0xa>
  103514:	f001 fae0 	bl	104ad8 <core_util_critical_section_enter>
  103518:	2101      	movs	r1, #1
  10351a:	480b      	ldr	r0, [pc, #44]	; (103548 <GSM::activate()+0x50>)
  10351c:	f003 fa7c 	bl	106a18 <gpio_dir>
  103520:	f001 fb06 	bl	104b30 <core_util_critical_section_exit>
  103524:	f001 fad8 	bl	104ad8 <core_util_critical_section_enter>
  103528:	2100      	movs	r1, #0
  10352a:	4807      	ldr	r0, [pc, #28]	; (103548 <GSM::activate()+0x50>)
  10352c:	f003 fa70 	bl	106a10 <gpio_mode>
  103530:	f001 fafe 	bl	104b30 <core_util_critical_section_exit>
  103534:	2100      	movs	r1, #0
  103536:	4804      	ldr	r0, [pc, #16]	; (103548 <GSM::activate()+0x50>)
  103538:	f003 fa80 	bl	106a3c <gpio_write>
  10353c:	2064      	movs	r0, #100	; 0x64
  10353e:	f005 fc5b 	bl	108df8 <wait_ms>
  103542:	2301      	movs	r3, #1
  103544:	712b      	strb	r3, [r5, #4]
  103546:	bd38      	pop	{r3, r4, r5, pc}
  103548:	3fff7d1c 	.word	0x3fff7d1c

0010354c <GSM::deactivate()>:
  10354c:	b538      	push	{r3, r4, r5, lr}
  10354e:	4605      	mov	r5, r0
  103550:	4c0b      	ldr	r4, [pc, #44]	; (103580 <GSM::deactivate()+0x34>)
  103552:	f001 fac1 	bl	104ad8 <core_util_critical_section_enter>
  103556:	2101      	movs	r1, #1
  103558:	4620      	mov	r0, r4
  10355a:	f003 fa5d 	bl	106a18 <gpio_dir>
  10355e:	f001 fae7 	bl	104b30 <core_util_critical_section_exit>
  103562:	f001 fab9 	bl	104ad8 <core_util_critical_section_enter>
  103566:	2102      	movs	r1, #2
  103568:	4620      	mov	r0, r4
  10356a:	f003 fa51 	bl	106a10 <gpio_mode>
  10356e:	f001 fadf 	bl	104b30 <core_util_critical_section_exit>
  103572:	2101      	movs	r1, #1
  103574:	4620      	mov	r0, r4
  103576:	f003 fa61 	bl	106a3c <gpio_write>
  10357a:	2300      	movs	r3, #0
  10357c:	712b      	strb	r3, [r5, #4]
  10357e:	bd38      	pop	{r3, r4, r5, pc}
  103580:	3fff7d1c 	.word	0x3fff7d1c

00103584 <GSM::send(char*)>:
  103584:	b538      	push	{r3, r4, r5, lr}
  103586:	460c      	mov	r4, r1
  103588:	1d45      	adds	r5, r0, #5
  10358a:	4629      	mov	r1, r5
  10358c:	4620      	mov	r0, r4
  10358e:	f009 f9ea 	bl	10c966 <strcmp>
  103592:	b140      	cbz	r0, 1035a6 <GSM::send(char*)+0x22>
  103594:	4621      	mov	r1, r4
  103596:	4628      	mov	r0, r5
  103598:	f009 f9ef 	bl	10c97a <strcpy>
  10359c:	4620      	mov	r0, r4
  10359e:	e8bd 4038 	ldmia.w	sp!, {r3, r4, r5, lr}
  1035a2:	f000 bbb1 	b.w	103d08 <Send_UART(char*)>
  1035a6:	bd38      	pop	{r3, r4, r5, pc}

001035a8 <GSM::read(float)>:
  1035a8:	b530      	push	{r4, r5, lr}
  1035aa:	460d      	mov	r5, r1
  1035ac:	b09b      	sub	sp, #108	; 0x6c
  1035ae:	f100 0469 	add.w	r4, r0, #105	; 0x69
  1035b2:	4621      	mov	r1, r4
  1035b4:	a801      	add	r0, sp, #4
  1035b6:	f009 f9e0 	bl	10c97a <strcpy>
  1035ba:	4628      	mov	r0, r5
  1035bc:	f006 fc74 	bl	109ea8 <__aeabi_f2iz>
  1035c0:	f006 fa58 	bl	109a74 <__aeabi_i2f>
  1035c4:	f000 fbea 	bl	103d9c <Read_GSM_UART_Wait(float)>
  1035c8:	4620      	mov	r0, r4
  1035ca:	b01b      	add	sp, #108	; 0x6c
  1035cc:	e8bd 4030 	ldmia.w	sp!, {r4, r5, lr}
  1035d0:	f000 bbcc 	b.w	103d6c <Take_dataUART(char*)>

001035d4 <GSM::Communication(char*, char*, float)>:
  1035d4:	b5f8      	push	{r3, r4, r5, r6, r7, lr}
  1035d6:	461e      	mov	r6, r3
  1035d8:	7903      	ldrb	r3, [r0, #4]
  1035da:	4604      	mov	r4, r0
  1035dc:	460f      	mov	r7, r1
  1035de:	4615      	mov	r5, r2
  1035e0:	b90b      	cbnz	r3, 1035e6 <GSM::Communication(char*, char*, float)+0x12>
  1035e2:	f7ff ff89 	bl	1034f8 <GSM::activate()>
  1035e6:	4639      	mov	r1, r7
  1035e8:	4620      	mov	r0, r4
  1035ea:	f7ff ffcb 	bl	103584 <GSM::send(char*)>
  1035ee:	4631      	mov	r1, r6
  1035f0:	4620      	mov	r0, r4
  1035f2:	f7ff ffd9 	bl	1035a8 <GSM::read(float)>
  1035f6:	f104 0169 	add.w	r1, r4, #105	; 0x69
  1035fa:	4628      	mov	r0, r5
  1035fc:	e8bd 40f8 	ldmia.w	sp!, {r3, r4, r5, r6, r7, lr}
  103600:	f009 b9bb 	b.w	10c97a <strcpy>

00103604 <GSM::TestAT(char*)>:
  103604:	b510      	push	{r4, lr}
  103606:	460c      	mov	r4, r1
  103608:	4804      	ldr	r0, [pc, #16]	; (10361c <GSM::TestAT(char*)+0x18>)
  10360a:	4905      	ldr	r1, [pc, #20]	; (103620 <GSM::TestAT(char*)+0x1c>)
  10360c:	f005 fc8c 	bl	108f28 <mbed::Stream::printf(char const*, ...)>
  103610:	4620      	mov	r0, r4
  103612:	e8bd 4010 	ldmia.w	sp!, {r4, lr}
  103616:	f000 bb6d 	b.w	103cf4 <Reading_UART(char*)>
  10361a:	bf00      	nop
  10361c:	3fff7d5c 	.word	0x3fff7d5c
  103620:	001100d8 	.word	0x001100d8

00103624 <GSM::CallwithEnd(char*, int, char*)>:
  103624:	b570      	push	{r4, r5, r6, lr}
  103626:	461e      	mov	r6, r3
  103628:	460d      	mov	r5, r1
  10362a:	b096      	sub	sp, #88	; 0x58
  10362c:	a804      	add	r0, sp, #16
  10362e:	4614      	mov	r4, r2
  103630:	f004 ffb6 	bl	1085a0 <mbed::Timer::Timer()>
  103634:	2228      	movs	r2, #40	; 0x28
  103636:	2120      	movs	r1, #32
  103638:	a80c      	add	r0, sp, #48	; 0x30
  10363a:	f007 fc01 	bl	10ae40 <memset>
  10363e:	f04f 3320 	mov.w	r3, #538976288	; 0x20202020
  103642:	491b      	ldr	r1, [pc, #108]	; (1036b0 <GSM::CallwithEnd(char*, int, char*)+0x8c>)
  103644:	6033      	str	r3, [r6, #0]
  103646:	462a      	mov	r2, r5
  103648:	481a      	ldr	r0, [pc, #104]	; (1036b4 <GSM::CallwithEnd(char*, int, char*)+0x90>)
  10364a:	f005 fc6d 	bl	108f28 <mbed::Stream::printf(char const*, ...)>
  10364e:	a804      	add	r0, sp, #16
  103650:	f004 ff2f 	bl	1084b2 <mbed::Timer::start()>
  103654:	a80c      	add	r0, sp, #48	; 0x30
  103656:	f000 fb4d 	bl	103cf4 <Reading_UART(char*)>
  10365a:	4917      	ldr	r1, [pc, #92]	; (1036b8 <GSM::CallwithEnd(char*, int, char*)+0x94>)
  10365c:	a80c      	add	r0, sp, #48	; 0x30
  10365e:	f009 f982 	bl	10c966 <strcmp>
  103662:	b9e8      	cbnz	r0, 1036a0 <GSM::CallwithEnd(char*, int, char*)+0x7c>
  103664:	4815      	ldr	r0, [pc, #84]	; (1036bc <GSM::CallwithEnd(char*, int, char*)+0x98>)
  103666:	f000 fe69 	bl	10433c <NHD_C0216CZ::clearDisplay()>
  10366a:	f44f 737a 	mov.w	r3, #1000	; 0x3e8
  10366e:	435c      	muls	r4, r3
  103670:	a804      	add	r0, sp, #16
  103672:	f004 ff7b 	bl	10856c <mbed::Timer::read_ms()>
  103676:	4284      	cmp	r4, r0
  103678:	db0e      	blt.n	103698 <GSM::CallwithEnd(char*, int, char*)+0x74>
  10367a:	a804      	add	r0, sp, #16
  10367c:	f004 ff76 	bl	10856c <mbed::Timer::read_ms()>
  103680:	490f      	ldr	r1, [pc, #60]	; (1036c0 <GSM::CallwithEnd(char*, int, char*)+0x9c>)
  103682:	4602      	mov	r2, r0
  103684:	4668      	mov	r0, sp
  103686:	f009 f8db 	bl	10c840 <siprintf>
  10368a:	2301      	movs	r3, #1
  10368c:	461a      	mov	r2, r3
  10368e:	4669      	mov	r1, sp
  103690:	480a      	ldr	r0, [pc, #40]	; (1036bc <GSM::CallwithEnd(char*, int, char*)+0x98>)
  103692:	f000 ff1f 	bl	1044d4 <NHD_C0216CZ::displayStringToPos(char const*, int, int)>
  103696:	e7eb      	b.n	103670 <GSM::CallwithEnd(char*, int, char*)+0x4c>
  103698:	490a      	ldr	r1, [pc, #40]	; (1036c4 <GSM::CallwithEnd(char*, int, char*)+0xa0>)
  10369a:	4806      	ldr	r0, [pc, #24]	; (1036b4 <GSM::CallwithEnd(char*, int, char*)+0x90>)
  10369c:	f005 fc44 	bl	108f28 <mbed::Stream::printf(char const*, ...)>
  1036a0:	4806      	ldr	r0, [pc, #24]	; (1036bc <GSM::CallwithEnd(char*, int, char*)+0x98>)
  1036a2:	f000 fe4b 	bl	10433c <NHD_C0216CZ::clearDisplay()>
  1036a6:	a804      	add	r0, sp, #16
  1036a8:	f004 ff2c 	bl	108504 <mbed::Timer::stop()>
  1036ac:	b016      	add	sp, #88	; 0x58
  1036ae:	bd70      	pop	{r4, r5, r6, pc}
  1036b0:	001100e2 	.word	0x001100e2
  1036b4:	3fff7d5c 	.word	0x3fff7d5c
  1036b8:	001100ee 	.word	0x001100ee
  1036bc:	3fff7dec 	.word	0x3fff7dec
  1036c0:	001100f1 	.word	0x001100f1
  1036c4:	001100f7 	.word	0x001100f7

001036c8 <GSM::GSM()>:
  1036c8:	4b01      	ldr	r3, [pc, #4]	; (1036d0 <GSM::GSM()+0x8>)
  1036ca:	6003      	str	r3, [r0, #0]
  1036cc:	4770      	bx	lr
  1036ce:	bf00      	nop
  1036d0:	001100d0 	.word	0x001100d0

001036d4 <mbed::Serial::~Serial()>:
  1036d4:	b510      	push	{r4, lr}
  1036d6:	4604      	mov	r4, r0
  1036d8:	f7ff fee4 	bl	1034a4 <mbed::Serial::~Serial()>
  1036dc:	4620      	mov	r0, r4
  1036de:	f005 fa65 	bl	108bac <operator delete(void*)>
  1036e2:	4620      	mov	r0, r4
  1036e4:	bd10      	pop	{r4, pc}

001036e6 <non-virtual thunk to mbed::Serial::~Serial()>:
  1036e6:	f1a0 0034 	sub.w	r0, r0, #52	; 0x34
  1036ea:	e7f3      	b.n	1036d4 <mbed::Serial::~Serial()>

001036ec <non-virtual thunk to mbed::Serial::~Serial()>:
  1036ec:	f1a0 0038 	sub.w	r0, r0, #56	; 0x38
  1036f0:	e7f0      	b.n	1036d4 <mbed::Serial::~Serial()>
	...

001036f4 <_GLOBAL__sub_I_TOUCH_LC717A00_mode>:
  1036f4:	b573      	push	{r0, r1, r4, r5, r6, lr}
  1036f6:	483b      	ldr	r0, [pc, #236]	; (1037e4 <_GLOBAL__sub_I_TOUCH_LC717A00_mode+0xf0>)
  1036f8:	f7ff feac 	bl	103454 <std::__cxx11::basic_string<char, std::char_traits<char>, std::allocator<char> >::basic_string(char const*, std::allocator<char> const&) [clone .isra.15] [clone .constprop.17]>
  1036fc:	4a3a      	ldr	r2, [pc, #232]	; (1037e8 <_GLOBAL__sub_I_TOUCH_LC717A00_mode+0xf4>)
  1036fe:	493b      	ldr	r1, [pc, #236]	; (1037ec <_GLOBAL__sub_I_TOUCH_LC717A00_mode+0xf8>)
  103700:	4838      	ldr	r0, [pc, #224]	; (1037e4 <_GLOBAL__sub_I_TOUCH_LC717A00_mode+0xf0>)
  103702:	f005 fa1e 	bl	108b42 <__aeabi_atexit>
  103706:	4b3a      	ldr	r3, [pc, #232]	; (1037f0 <_GLOBAL__sub_I_TOUCH_LC717A00_mode+0xfc>)
  103708:	2200      	movs	r2, #0
  10370a:	f503 70c0 	add.w	r0, r3, #384	; 0x180
  10370e:	4619      	mov	r1, r3
  103710:	f843 2c04 	str.w	r2, [r3, #-4]
  103714:	f843 3c08 	str.w	r3, [r3, #-8]
  103718:	f801 2b18 	strb.w	r2, [r1], #24
  10371c:	6119      	str	r1, [r3, #16]
  10371e:	615a      	str	r2, [r3, #20]
  103720:	761a      	strb	r2, [r3, #24]
  103722:	3330      	adds	r3, #48	; 0x30
  103724:	4283      	cmp	r3, r0
  103726:	f04f 0400 	mov.w	r4, #0
  10372a:	d1f0      	bne.n	10370e <_GLOBAL__sub_I_TOUCH_LC717A00_mode+0x1a>
  10372c:	4a2e      	ldr	r2, [pc, #184]	; (1037e8 <_GLOBAL__sub_I_TOUCH_LC717A00_mode+0xf4>)
  10372e:	4931      	ldr	r1, [pc, #196]	; (1037f4 <_GLOBAL__sub_I_TOUCH_LC717A00_mode+0x100>)
  103730:	4620      	mov	r0, r4
  103732:	f005 fa06 	bl	108b42 <__aeabi_atexit>
  103736:	4830      	ldr	r0, [pc, #192]	; (1037f8 <_GLOBAL__sub_I_TOUCH_LC717A00_mode+0x104>)
  103738:	f7ff fe8c 	bl	103454 <std::__cxx11::basic_string<char, std::char_traits<char>, std::allocator<char> >::basic_string(char const*, std::allocator<char> const&) [clone .isra.15] [clone .constprop.17]>
  10373c:	4a2a      	ldr	r2, [pc, #168]	; (1037e8 <_GLOBAL__sub_I_TOUCH_LC717A00_mode+0xf4>)
  10373e:	492b      	ldr	r1, [pc, #172]	; (1037ec <_GLOBAL__sub_I_TOUCH_LC717A00_mode+0xf8>)
  103740:	482d      	ldr	r0, [pc, #180]	; (1037f8 <_GLOBAL__sub_I_TOUCH_LC717A00_mode+0x104>)
  103742:	f005 f9fe 	bl	108b42 <__aeabi_atexit>
  103746:	482d      	ldr	r0, [pc, #180]	; (1037fc <_GLOBAL__sub_I_TOUCH_LC717A00_mode+0x108>)
  103748:	f7ff fe84 	bl	103454 <std::__cxx11::basic_string<char, std::char_traits<char>, std::allocator<char> >::basic_string(char const*, std::allocator<char> const&) [clone .isra.15] [clone .constprop.17]>
  10374c:	4a26      	ldr	r2, [pc, #152]	; (1037e8 <_GLOBAL__sub_I_TOUCH_LC717A00_mode+0xf4>)
  10374e:	4927      	ldr	r1, [pc, #156]	; (1037ec <_GLOBAL__sub_I_TOUCH_LC717A00_mode+0xf8>)
  103750:	482a      	ldr	r0, [pc, #168]	; (1037fc <_GLOBAL__sub_I_TOUCH_LC717A00_mode+0x108>)
  103752:	f005 f9f6 	bl	108b42 <__aeabi_atexit>
  103756:	482a      	ldr	r0, [pc, #168]	; (103800 <_GLOBAL__sub_I_TOUCH_LC717A00_mode+0x10c>)
  103758:	f7ff fe7c 	bl	103454 <std::__cxx11::basic_string<char, std::char_traits<char>, std::allocator<char> >::basic_string(char const*, std::allocator<char> const&) [clone .isra.15] [clone .constprop.17]>
  10375c:	4a22      	ldr	r2, [pc, #136]	; (1037e8 <_GLOBAL__sub_I_TOUCH_LC717A00_mode+0xf4>)
  10375e:	4923      	ldr	r1, [pc, #140]	; (1037ec <_GLOBAL__sub_I_TOUCH_LC717A00_mode+0xf8>)
  103760:	4827      	ldr	r0, [pc, #156]	; (103800 <_GLOBAL__sub_I_TOUCH_LC717A00_mode+0x10c>)
  103762:	4d28      	ldr	r5, [pc, #160]	; (103804 <_GLOBAL__sub_I_TOUCH_LC717A00_mode+0x110>)
  103764:	f005 f9ed 	bl	108b42 <__aeabi_atexit>
  103768:	4827      	ldr	r0, [pc, #156]	; (103808 <_GLOBAL__sub_I_TOUCH_LC717A00_mode+0x114>)
  10376a:	f005 fc45 	bl	108ff8 <rtos::Mutex::Mutex()>
  10376e:	f04f 36ff 	mov.w	r6, #4294967295
  103772:	4a1d      	ldr	r2, [pc, #116]	; (1037e8 <_GLOBAL__sub_I_TOUCH_LC717A00_mode+0xf4>)
  103774:	4925      	ldr	r1, [pc, #148]	; (10380c <_GLOBAL__sub_I_TOUCH_LC717A00_mode+0x118>)
  103776:	4824      	ldr	r0, [pc, #144]	; (103808 <_GLOBAL__sub_I_TOUCH_LC717A00_mode+0x114>)
  103778:	f005 f9e3 	bl	108b42 <__aeabi_atexit>
  10377c:	2304      	movs	r3, #4
  10377e:	2206      	movs	r2, #6
  103780:	9600      	str	r6, [sp, #0]
  103782:	2105      	movs	r1, #5
  103784:	4628      	mov	r0, r5
  103786:	f004 fd9f 	bl	1082c8 <mbed::SPI::SPI(PinName, PinName, PinName, PinName)>
  10378a:	4631      	mov	r1, r6
  10378c:	f105 002c 	add.w	r0, r5, #44	; 0x2c
  103790:	62ec      	str	r4, [r5, #44]	; 0x2c
  103792:	f885 4030 	strb.w	r4, [r5, #48]	; 0x30
  103796:	636c      	str	r4, [r5, #52]	; 0x34
  103798:	f001 f822 	bl	1047e0 <gpio_init_out>
  10379c:	2320      	movs	r3, #32
  10379e:	9600      	str	r6, [sp, #0]
  1037a0:	2202      	movs	r2, #2
  1037a2:	2103      	movs	r1, #3
  1037a4:	f105 0040 	add.w	r0, r5, #64	; 0x40
  1037a8:	f000 fc5e 	bl	104068 <PCA9655E::PCA9655E(PinName, PinName, unsigned char, PinName)>
  1037ac:	4a0e      	ldr	r2, [pc, #56]	; (1037e8 <_GLOBAL__sub_I_TOUCH_LC717A00_mode+0xf4>)
  1037ae:	4918      	ldr	r1, [pc, #96]	; (103810 <_GLOBAL__sub_I_TOUCH_LC717A00_mode+0x11c>)
  1037b0:	4628      	mov	r0, r5
  1037b2:	f005 f9c6 	bl	108b42 <__aeabi_atexit>
  1037b6:	f44f 5316 	mov.w	r3, #9600	; 0x2580
  1037ba:	4621      	mov	r1, r4
  1037bc:	2201      	movs	r2, #1
  1037be:	4815      	ldr	r0, [pc, #84]	; (103814 <_GLOBAL__sub_I_TOUCH_LC717A00_mode+0x120>)
  1037c0:	f004 fcca 	bl	108158 <mbed::Serial::Serial(PinName, PinName, int)>
  1037c4:	4a08      	ldr	r2, [pc, #32]	; (1037e8 <_GLOBAL__sub_I_TOUCH_LC717A00_mode+0xf4>)
  1037c6:	4914      	ldr	r1, [pc, #80]	; (103818 <_GLOBAL__sub_I_TOUCH_LC717A00_mode+0x124>)
  1037c8:	4812      	ldr	r0, [pc, #72]	; (103814 <_GLOBAL__sub_I_TOUCH_LC717A00_mode+0x120>)
  1037ca:	f005 f9ba 	bl	108b42 <__aeabi_atexit>
  1037ce:	4813      	ldr	r0, [pc, #76]	; (10381c <_GLOBAL__sub_I_TOUCH_LC717A00_mode+0x128>)
  1037d0:	2110      	movs	r1, #16
  1037d2:	6004      	str	r4, [r0, #0]
  1037d4:	7104      	strb	r4, [r0, #4]
  1037d6:	6084      	str	r4, [r0, #8]
  1037d8:	b002      	add	sp, #8
  1037da:	e8bd 4070 	ldmia.w	sp!, {r4, r5, r6, lr}
  1037de:	f000 bfd8 	b.w	104792 <gpio_init_in>
  1037e2:	bf00      	nop
  1037e4:	3fff7cd4 	.word	0x3fff7cd4
  1037e8:	3fff40a0 	.word	0x3fff40a0
  1037ec:	0010917f 	.word	0x0010917f
  1037f0:	3fff7b5c 	.word	0x3fff7b5c
  1037f4:	00103429 	.word	0x00103429
  1037f8:	3fff7d04 	.word	0x3fff7d04
  1037fc:	3fff7cec 	.word	0x3fff7cec
  103800:	3fff7dd4 	.word	0x3fff7dd4
  103804:	3fff7dec 	.word	0x3fff7dec
  103808:	3fff7da4 	.word	0x3fff7da4
  10380c:	00109013 	.word	0x00109013
  103810:	00102165 	.word	0x00102165
  103814:	3fff7d28 	.word	0x3fff7d28
  103818:	001034a5 	.word	0x001034a5
  10381c:	3fff7d1c 	.word	0x3fff7d1c

00103820 <__tcf_0>:
  103820:	b538      	push	{r3, r4, r5, lr}
  103822:	4d06      	ldr	r5, [pc, #24]	; (10383c <__tcf_0+0x1c>)
  103824:	2400      	movs	r4, #0
  103826:	f504 70b4 	add.w	r0, r4, #360	; 0x168
  10382a:	4428      	add	r0, r5
  10382c:	3c18      	subs	r4, #24
  10382e:	f005 fc8b 	bl	109148 <std::__cxx11::basic_string<char, std::char_traits<char>, std::allocator<char> >::_M_dispose()>
  103832:	f514 7fc0 	cmn.w	r4, #384	; 0x180
  103836:	d1f6      	bne.n	103826 <__tcf_0+0x6>
  103838:	bd38      	pop	{r3, r4, r5, pc}
  10383a:	bf00      	nop
  10383c:	3fff7e88 	.word	0x3fff7e88

00103840 <std::__cxx11::basic_string<char, std::char_traits<char>, std::allocator<char> >::basic_string(char const*, std::allocator<char> const&) [clone .isra.15] [clone .constprop.17]>:
  103840:	b510      	push	{r4, lr}
  103842:	4604      	mov	r4, r0
  103844:	4a05      	ldr	r2, [pc, #20]	; (10385c <std::__cxx11::basic_string<char, std::char_traits<char>, std::allocator<char> >::basic_string(char const*, std::allocator<char> const&) [clone .isra.15] [clone .constprop.17]+0x1c>)
  103846:	3008      	adds	r0, #8
  103848:	6020      	str	r0, [r4, #0]
  10384a:	4611      	mov	r1, r2
  10384c:	f005 fc92 	bl	109174 <std::__cxx11::basic_string<char, std::char_traits<char>, std::allocator<char> >::_S_copy_chars(char*, char const*, char const*)>
  103850:	6822      	ldr	r2, [r4, #0]
  103852:	2300      	movs	r3, #0
  103854:	6063      	str	r3, [r4, #4]
  103856:	7013      	strb	r3, [r2, #0]
  103858:	4620      	mov	r0, r4
  10385a:	bd10      	pop	{r4, pc}
  10385c:	00110e2d 	.word	0x00110e2d

00103860 <_GLOBAL__sub_I_TOUCH_LC717A00_mode>:
  103860:	b538      	push	{r3, r4, r5, lr}
  103862:	4827      	ldr	r0, [pc, #156]	; (103900 <_GLOBAL__sub_I_TOUCH_LC717A00_mode+0xa0>)
  103864:	f7ff ffec 	bl	103840 <std::__cxx11::basic_string<char, std::char_traits<char>, std::allocator<char> >::basic_string(char const*, std::allocator<char> const&) [clone .isra.15] [clone .constprop.17]>
  103868:	4a26      	ldr	r2, [pc, #152]	; (103904 <_GLOBAL__sub_I_TOUCH_LC717A00_mode+0xa4>)
  10386a:	4927      	ldr	r1, [pc, #156]	; (103908 <_GLOBAL__sub_I_TOUCH_LC717A00_mode+0xa8>)
  10386c:	4824      	ldr	r0, [pc, #144]	; (103900 <_GLOBAL__sub_I_TOUCH_LC717A00_mode+0xa0>)
  10386e:	f005 f968 	bl	108b42 <__aeabi_atexit>
  103872:	4b26      	ldr	r3, [pc, #152]	; (10390c <_GLOBAL__sub_I_TOUCH_LC717A00_mode+0xac>)
  103874:	2200      	movs	r2, #0
  103876:	f503 70c0 	add.w	r0, r3, #384	; 0x180
  10387a:	4619      	mov	r1, r3
  10387c:	f843 2c04 	str.w	r2, [r3, #-4]
  103880:	f843 3c08 	str.w	r3, [r3, #-8]
  103884:	f801 2b18 	strb.w	r2, [r1], #24
  103888:	6119      	str	r1, [r3, #16]
  10388a:	615a      	str	r2, [r3, #20]
  10388c:	761a      	strb	r2, [r3, #24]
  10388e:	3330      	adds	r3, #48	; 0x30
  103890:	4283      	cmp	r3, r0
  103892:	f04f 0500 	mov.w	r5, #0
  103896:	d1f0      	bne.n	10387a <_GLOBAL__sub_I_TOUCH_LC717A00_mode+0x1a>
  103898:	4a1a      	ldr	r2, [pc, #104]	; (103904 <_GLOBAL__sub_I_TOUCH_LC717A00_mode+0xa4>)
  10389a:	491d      	ldr	r1, [pc, #116]	; (103910 <_GLOBAL__sub_I_TOUCH_LC717A00_mode+0xb0>)
  10389c:	4628      	mov	r0, r5
  10389e:	f005 f950 	bl	108b42 <__aeabi_atexit>
  1038a2:	481c      	ldr	r0, [pc, #112]	; (103914 <_GLOBAL__sub_I_TOUCH_LC717A00_mode+0xb4>)
  1038a4:	f7ff ffcc 	bl	103840 <std::__cxx11::basic_string<char, std::char_traits<char>, std::allocator<char> >::basic_string(char const*, std::allocator<char> const&) [clone .isra.15] [clone .constprop.17]>
  1038a8:	4a16      	ldr	r2, [pc, #88]	; (103904 <_GLOBAL__sub_I_TOUCH_LC717A00_mode+0xa4>)
  1038aa:	4917      	ldr	r1, [pc, #92]	; (103908 <_GLOBAL__sub_I_TOUCH_LC717A00_mode+0xa8>)
  1038ac:	4819      	ldr	r0, [pc, #100]	; (103914 <_GLOBAL__sub_I_TOUCH_LC717A00_mode+0xb4>)
  1038ae:	f005 f948 	bl	108b42 <__aeabi_atexit>
  1038b2:	4819      	ldr	r0, [pc, #100]	; (103918 <_GLOBAL__sub_I_TOUCH_LC717A00_mode+0xb8>)
  1038b4:	f7ff ffc4 	bl	103840 <std::__cxx11::basic_string<char, std::char_traits<char>, std::allocator<char> >::basic_string(char const*, std::allocator<char> const&) [clone .isra.15] [clone .constprop.17]>
  1038b8:	4a12      	ldr	r2, [pc, #72]	; (103904 <_GLOBAL__sub_I_TOUCH_LC717A00_mode+0xa4>)
  1038ba:	4913      	ldr	r1, [pc, #76]	; (103908 <_GLOBAL__sub_I_TOUCH_LC717A00_mode+0xa8>)
  1038bc:	4816      	ldr	r0, [pc, #88]	; (103918 <_GLOBAL__sub_I_TOUCH_LC717A00_mode+0xb8>)
  1038be:	f005 f940 	bl	108b42 <__aeabi_atexit>
  1038c2:	4816      	ldr	r0, [pc, #88]	; (10391c <_GLOBAL__sub_I_TOUCH_LC717A00_mode+0xbc>)
  1038c4:	f7ff ffbc 	bl	103840 <std::__cxx11::basic_string<char, std::char_traits<char>, std::allocator<char> >::basic_string(char const*, std::allocator<char> const&) [clone .isra.15] [clone .constprop.17]>
  1038c8:	4a0e      	ldr	r2, [pc, #56]	; (103904 <_GLOBAL__sub_I_TOUCH_LC717A00_mode+0xa4>)
  1038ca:	490f      	ldr	r1, [pc, #60]	; (103908 <_GLOBAL__sub_I_TOUCH_LC717A00_mode+0xa8>)
  1038cc:	4813      	ldr	r0, [pc, #76]	; (10391c <_GLOBAL__sub_I_TOUCH_LC717A00_mode+0xbc>)
  1038ce:	f005 f938 	bl	108b42 <__aeabi_atexit>
  1038d2:	4c13      	ldr	r4, [pc, #76]	; (103920 <_GLOBAL__sub_I_TOUCH_LC717A00_mode+0xc0>)
  1038d4:	4813      	ldr	r0, [pc, #76]	; (103924 <_GLOBAL__sub_I_TOUCH_LC717A00_mode+0xc4>)
  1038d6:	f005 fb8f 	bl	108ff8 <rtos::Mutex::Mutex()>
  1038da:	4a0a      	ldr	r2, [pc, #40]	; (103904 <_GLOBAL__sub_I_TOUCH_LC717A00_mode+0xa4>)
  1038dc:	4912      	ldr	r1, [pc, #72]	; (103928 <_GLOBAL__sub_I_TOUCH_LC717A00_mode+0xc8>)
  1038de:	4811      	ldr	r0, [pc, #68]	; (103924 <_GLOBAL__sub_I_TOUCH_LC717A00_mode+0xc4>)
  1038e0:	f005 f92f 	bl	108b42 <__aeabi_atexit>
  1038e4:	4620      	mov	r0, r4
  1038e6:	f004 fe73 	bl	1085d0 <mbed::TimerEvent::TimerEvent()>
  1038ea:	4b10      	ldr	r3, [pc, #64]	; (10392c <_GLOBAL__sub_I_TOUCH_LC717A00_mode+0xcc>)
  1038ec:	6365      	str	r5, [r4, #52]	; 0x34
  1038ee:	6023      	str	r3, [r4, #0]
  1038f0:	4620      	mov	r0, r4
  1038f2:	e8bd 4038 	ldmia.w	sp!, {r3, r4, r5, lr}
  1038f6:	4a03      	ldr	r2, [pc, #12]	; (103904 <_GLOBAL__sub_I_TOUCH_LC717A00_mode+0xa4>)
  1038f8:	490d      	ldr	r1, [pc, #52]	; (103930 <_GLOBAL__sub_I_TOUCH_LC717A00_mode+0xd0>)
  1038fa:	f005 b922 	b.w	108b42 <__aeabi_atexit>
  1038fe:	bf00      	nop
  103900:	3fff8008 	.word	0x3fff8008
  103904:	3fff40a0 	.word	0x3fff40a0
  103908:	0010917f 	.word	0x0010917f
  10390c:	3fff7e90 	.word	0x3fff7e90
  103910:	00103821 	.word	0x00103821
  103914:	3fff8070 	.word	0x3fff8070
  103918:	3fff8020 	.word	0x3fff8020
  10391c:	3fff80b8 	.word	0x3fff80b8
  103920:	3fff8038 	.word	0x3fff8038
  103924:	3fff8088 	.word	0x3fff8088
  103928:	00109013 	.word	0x00109013
  10392c:	00110bd0 	.word	0x00110bd0
  103930:	00102175 	.word	0x00102175

00103934 <__tcf_0>:
  103934:	b538      	push	{r3, r4, r5, lr}
  103936:	4d06      	ldr	r5, [pc, #24]	; (103950 <__tcf_0+0x1c>)
  103938:	2400      	movs	r4, #0
  10393a:	f504 70b4 	add.w	r0, r4, #360	; 0x168
  10393e:	4428      	add	r0, r5
  103940:	3c18      	subs	r4, #24
  103942:	f005 fc01 	bl	109148 <std::__cxx11::basic_string<char, std::char_traits<char>, std::allocator<char> >::_M_dispose()>
  103946:	f514 7fc0 	cmn.w	r4, #384	; 0x180
  10394a:	d1f6      	bne.n	10393a <__tcf_0+0x6>
  10394c:	bd38      	pop	{r3, r4, r5, pc}
  10394e:	bf00      	nop
  103950:	3fff80d0 	.word	0x3fff80d0

00103954 <std::__cxx11::basic_string<char, std::char_traits<char>, std::allocator<char> >::basic_string(char const*, std::allocator<char> const&) [clone .isra.20] [clone .constprop.23]>:
  103954:	b510      	push	{r4, lr}
  103956:	4604      	mov	r4, r0
  103958:	4a05      	ldr	r2, [pc, #20]	; (103970 <std::__cxx11::basic_string<char, std::char_traits<char>, std::allocator<char> >::basic_string(char const*, std::allocator<char> const&) [clone .isra.20] [clone .constprop.23]+0x1c>)
  10395a:	3008      	adds	r0, #8
  10395c:	6020      	str	r0, [r4, #0]
  10395e:	4611      	mov	r1, r2
  103960:	f005 fc08 	bl	109174 <std::__cxx11::basic_string<char, std::char_traits<char>, std::allocator<char> >::_S_copy_chars(char*, char const*, char const*)>
  103964:	6822      	ldr	r2, [r4, #0]
  103966:	2300      	movs	r3, #0
  103968:	6063      	str	r3, [r4, #4]
  10396a:	7013      	strb	r3, [r2, #0]
  10396c:	4620      	mov	r0, r4
  10396e:	bd10      	pop	{r4, pc}
  103970:	00110e2d 	.word	0x00110e2d

00103974 <_GLOBAL__sub_I_TOUCH_LC717A00_mode>:
  103974:	b573      	push	{r0, r1, r4, r5, r6, lr}
  103976:	4866      	ldr	r0, [pc, #408]	; (103b10 <_GLOBAL__sub_I_TOUCH_LC717A00_mode+0x19c>)
  103978:	f7ff ffec 	bl	103954 <std::__cxx11::basic_string<char, std::char_traits<char>, std::allocator<char> >::basic_string(char const*, std::allocator<char> const&) [clone .isra.20] [clone .constprop.23]>
  10397c:	4a65      	ldr	r2, [pc, #404]	; (103b14 <_GLOBAL__sub_I_TOUCH_LC717A00_mode+0x1a0>)
  10397e:	4966      	ldr	r1, [pc, #408]	; (103b18 <_GLOBAL__sub_I_TOUCH_LC717A00_mode+0x1a4>)
  103980:	4863      	ldr	r0, [pc, #396]	; (103b10 <_GLOBAL__sub_I_TOUCH_LC717A00_mode+0x19c>)
  103982:	f005 f8de 	bl	108b42 <__aeabi_atexit>
  103986:	4b65      	ldr	r3, [pc, #404]	; (103b1c <_GLOBAL__sub_I_TOUCH_LC717A00_mode+0x1a8>)
  103988:	2200      	movs	r2, #0
  10398a:	f503 70c0 	add.w	r0, r3, #384	; 0x180
  10398e:	4619      	mov	r1, r3
  103990:	f843 2c04 	str.w	r2, [r3, #-4]
  103994:	f843 3c08 	str.w	r3, [r3, #-8]
  103998:	f801 2b18 	strb.w	r2, [r1], #24
  10399c:	6119      	str	r1, [r3, #16]
  10399e:	615a      	str	r2, [r3, #20]
  1039a0:	761a      	strb	r2, [r3, #24]
  1039a2:	3330      	adds	r3, #48	; 0x30
  1039a4:	4283      	cmp	r3, r0
  1039a6:	f04f 0400 	mov.w	r4, #0
  1039aa:	d1f0      	bne.n	10398e <_GLOBAL__sub_I_TOUCH_LC717A00_mode+0x1a>
  1039ac:	4a59      	ldr	r2, [pc, #356]	; (103b14 <_GLOBAL__sub_I_TOUCH_LC717A00_mode+0x1a0>)
  1039ae:	495c      	ldr	r1, [pc, #368]	; (103b20 <_GLOBAL__sub_I_TOUCH_LC717A00_mode+0x1ac>)
  1039b0:	4620      	mov	r0, r4
  1039b2:	f005 f8c6 	bl	108b42 <__aeabi_atexit>
  1039b6:	485b      	ldr	r0, [pc, #364]	; (103b24 <_GLOBAL__sub_I_TOUCH_LC717A00_mode+0x1b0>)
  1039b8:	f7ff ffcc 	bl	103954 <std::__cxx11::basic_string<char, std::char_traits<char>, std::allocator<char> >::basic_string(char const*, std::allocator<char> const&) [clone .isra.20] [clone .constprop.23]>
  1039bc:	4a55      	ldr	r2, [pc, #340]	; (103b14 <_GLOBAL__sub_I_TOUCH_LC717A00_mode+0x1a0>)
  1039be:	4956      	ldr	r1, [pc, #344]	; (103b18 <_GLOBAL__sub_I_TOUCH_LC717A00_mode+0x1a4>)
  1039c0:	4858      	ldr	r0, [pc, #352]	; (103b24 <_GLOBAL__sub_I_TOUCH_LC717A00_mode+0x1b0>)
  1039c2:	f005 f8be 	bl	108b42 <__aeabi_atexit>
  1039c6:	4858      	ldr	r0, [pc, #352]	; (103b28 <_GLOBAL__sub_I_TOUCH_LC717A00_mode+0x1b4>)
  1039c8:	f7ff ffc4 	bl	103954 <std::__cxx11::basic_string<char, std::char_traits<char>, std::allocator<char> >::basic_string(char const*, std::allocator<char> const&) [clone .isra.20] [clone .constprop.23]>
  1039cc:	4a51      	ldr	r2, [pc, #324]	; (103b14 <_GLOBAL__sub_I_TOUCH_LC717A00_mode+0x1a0>)
  1039ce:	4952      	ldr	r1, [pc, #328]	; (103b18 <_GLOBAL__sub_I_TOUCH_LC717A00_mode+0x1a4>)
  1039d0:	4855      	ldr	r0, [pc, #340]	; (103b28 <_GLOBAL__sub_I_TOUCH_LC717A00_mode+0x1b4>)
  1039d2:	f005 f8b6 	bl	108b42 <__aeabi_atexit>
  1039d6:	4855      	ldr	r0, [pc, #340]	; (103b2c <_GLOBAL__sub_I_TOUCH_LC717A00_mode+0x1b8>)
  1039d8:	f7ff ffbc 	bl	103954 <std::__cxx11::basic_string<char, std::char_traits<char>, std::allocator<char> >::basic_string(char const*, std::allocator<char> const&) [clone .isra.20] [clone .constprop.23]>
  1039dc:	4a4d      	ldr	r2, [pc, #308]	; (103b14 <_GLOBAL__sub_I_TOUCH_LC717A00_mode+0x1a0>)
  1039de:	494e      	ldr	r1, [pc, #312]	; (103b18 <_GLOBAL__sub_I_TOUCH_LC717A00_mode+0x1a4>)
  1039e0:	4852      	ldr	r0, [pc, #328]	; (103b2c <_GLOBAL__sub_I_TOUCH_LC717A00_mode+0x1b8>)
  1039e2:	4d53      	ldr	r5, [pc, #332]	; (103b30 <_GLOBAL__sub_I_TOUCH_LC717A00_mode+0x1bc>)
  1039e4:	f005 f8ad 	bl	108b42 <__aeabi_atexit>
  1039e8:	4852      	ldr	r0, [pc, #328]	; (103b34 <_GLOBAL__sub_I_TOUCH_LC717A00_mode+0x1c0>)
  1039ea:	f005 fb05 	bl	108ff8 <rtos::Mutex::Mutex()>
  1039ee:	f04f 36ff 	mov.w	r6, #4294967295
  1039f2:	4a48      	ldr	r2, [pc, #288]	; (103b14 <_GLOBAL__sub_I_TOUCH_LC717A00_mode+0x1a0>)
  1039f4:	4950      	ldr	r1, [pc, #320]	; (103b38 <_GLOBAL__sub_I_TOUCH_LC717A00_mode+0x1c4>)
  1039f6:	484f      	ldr	r0, [pc, #316]	; (103b34 <_GLOBAL__sub_I_TOUCH_LC717A00_mode+0x1c0>)
  1039f8:	f005 f8a3 	bl	108b42 <__aeabi_atexit>
  1039fc:	2304      	movs	r3, #4
  1039fe:	2206      	movs	r2, #6
  103a00:	9600      	str	r6, [sp, #0]
  103a02:	2105      	movs	r1, #5
  103a04:	4628      	mov	r0, r5
  103a06:	f004 fc5f 	bl	1082c8 <mbed::SPI::SPI(PinName, PinName, PinName, PinName)>
  103a0a:	4631      	mov	r1, r6
  103a0c:	f105 002c 	add.w	r0, r5, #44	; 0x2c
  103a10:	62ec      	str	r4, [r5, #44]	; 0x2c
  103a12:	f885 4030 	strb.w	r4, [r5, #48]	; 0x30
  103a16:	636c      	str	r4, [r5, #52]	; 0x34
  103a18:	f000 fee2 	bl	1047e0 <gpio_init_out>
  103a1c:	2320      	movs	r3, #32
  103a1e:	9600      	str	r6, [sp, #0]
  103a20:	2202      	movs	r2, #2
  103a22:	2103      	movs	r1, #3
  103a24:	f105 0040 	add.w	r0, r5, #64	; 0x40
  103a28:	f000 fb1e 	bl	104068 <PCA9655E::PCA9655E(PinName, PinName, unsigned char, PinName)>
  103a2c:	4a39      	ldr	r2, [pc, #228]	; (103b14 <_GLOBAL__sub_I_TOUCH_LC717A00_mode+0x1a0>)
  103a2e:	4943      	ldr	r1, [pc, #268]	; (103b3c <_GLOBAL__sub_I_TOUCH_LC717A00_mode+0x1c8>)
  103a30:	4628      	mov	r0, r5
  103a32:	f005 f886 	bl	108b42 <__aeabi_atexit>
  103a36:	4842      	ldr	r0, [pc, #264]	; (103b40 <_GLOBAL__sub_I_TOUCH_LC717A00_mode+0x1cc>)
  103a38:	f7ff fbf0 	bl	10321c <GPS::GPS()>
  103a3c:	4a35      	ldr	r2, [pc, #212]	; (103b14 <_GLOBAL__sub_I_TOUCH_LC717A00_mode+0x1a0>)
  103a3e:	4941      	ldr	r1, [pc, #260]	; (103b44 <_GLOBAL__sub_I_TOUCH_LC717A00_mode+0x1d0>)
  103a40:	483f      	ldr	r0, [pc, #252]	; (103b40 <_GLOBAL__sub_I_TOUCH_LC717A00_mode+0x1cc>)
  103a42:	f005 f87e 	bl	108b42 <__aeabi_atexit>
  103a46:	4840      	ldr	r0, [pc, #256]	; (103b48 <_GLOBAL__sub_I_TOUCH_LC717A00_mode+0x1d4>)
  103a48:	f7ff fe3e 	bl	1036c8 <GSM::GSM()>
  103a4c:	4a31      	ldr	r2, [pc, #196]	; (103b14 <_GLOBAL__sub_I_TOUCH_LC717A00_mode+0x1a0>)
  103a4e:	493f      	ldr	r1, [pc, #252]	; (103b4c <_GLOBAL__sub_I_TOUCH_LC717A00_mode+0x1d8>)
  103a50:	483d      	ldr	r0, [pc, #244]	; (103b48 <_GLOBAL__sub_I_TOUCH_LC717A00_mode+0x1d4>)
  103a52:	f005 f876 	bl	108b42 <__aeabi_atexit>
  103a56:	2111      	movs	r1, #17
  103a58:	483d      	ldr	r0, [pc, #244]	; (103b50 <_GLOBAL__sub_I_TOUCH_LC717A00_mode+0x1dc>)
  103a5a:	f004 faf7 	bl	10804c <mbed::InterruptIn::InterruptIn(PinName)>
  103a5e:	4a2d      	ldr	r2, [pc, #180]	; (103b14 <_GLOBAL__sub_I_TOUCH_LC717A00_mode+0x1a0>)
  103a60:	493c      	ldr	r1, [pc, #240]	; (103b54 <_GLOBAL__sub_I_TOUCH_LC717A00_mode+0x1e0>)
  103a62:	483b      	ldr	r0, [pc, #236]	; (103b50 <_GLOBAL__sub_I_TOUCH_LC717A00_mode+0x1dc>)
  103a64:	f005 f86d 	bl	108b42 <__aeabi_atexit>
  103a68:	483b      	ldr	r0, [pc, #236]	; (103b58 <_GLOBAL__sub_I_TOUCH_LC717A00_mode+0x1e4>)
  103a6a:	f7fe fcf1 	bl	102450 <Accelerometer::Accelerometer()>
  103a6e:	4a29      	ldr	r2, [pc, #164]	; (103b14 <_GLOBAL__sub_I_TOUCH_LC717A00_mode+0x1a0>)
  103a70:	493a      	ldr	r1, [pc, #232]	; (103b5c <_GLOBAL__sub_I_TOUCH_LC717A00_mode+0x1e8>)
  103a72:	4839      	ldr	r0, [pc, #228]	; (103b58 <_GLOBAL__sub_I_TOUCH_LC717A00_mode+0x1e4>)
  103a74:	f005 f865 	bl	108b42 <__aeabi_atexit>
  103a78:	4839      	ldr	r0, [pc, #228]	; (103b60 <_GLOBAL__sub_I_TOUCH_LC717A00_mode+0x1ec>)
  103a7a:	f7fe fe59 	bl	102730 <mbed::Ticker::Ticker()>
  103a7e:	4a25      	ldr	r2, [pc, #148]	; (103b14 <_GLOBAL__sub_I_TOUCH_LC717A00_mode+0x1a0>)
  103a80:	4938      	ldr	r1, [pc, #224]	; (103b64 <_GLOBAL__sub_I_TOUCH_LC717A00_mode+0x1f0>)
  103a82:	4837      	ldr	r0, [pc, #220]	; (103b60 <_GLOBAL__sub_I_TOUCH_LC717A00_mode+0x1ec>)
  103a84:	f005 f85d 	bl	108b42 <__aeabi_atexit>
  103a88:	4837      	ldr	r0, [pc, #220]	; (103b68 <_GLOBAL__sub_I_TOUCH_LC717A00_mode+0x1f4>)
  103a8a:	4a22      	ldr	r2, [pc, #136]	; (103b14 <_GLOBAL__sub_I_TOUCH_LC717A00_mode+0x1a0>)
  103a8c:	f100 0308 	add.w	r3, r0, #8
  103a90:	e880 0018 	stmia.w	r0, {r3, r4}
  103a94:	4920      	ldr	r1, [pc, #128]	; (103b18 <_GLOBAL__sub_I_TOUCH_LC717A00_mode+0x1a4>)
  103a96:	7204      	strb	r4, [r0, #8]
  103a98:	f005 f853 	bl	108b42 <__aeabi_atexit>
  103a9c:	4833      	ldr	r0, [pc, #204]	; (103b6c <_GLOBAL__sub_I_TOUCH_LC717A00_mode+0x1f8>)
  103a9e:	f7fe fe47 	bl	102730 <mbed::Ticker::Ticker()>
  103aa2:	4a1c      	ldr	r2, [pc, #112]	; (103b14 <_GLOBAL__sub_I_TOUCH_LC717A00_mode+0x1a0>)
  103aa4:	492f      	ldr	r1, [pc, #188]	; (103b64 <_GLOBAL__sub_I_TOUCH_LC717A00_mode+0x1f0>)
  103aa6:	4831      	ldr	r0, [pc, #196]	; (103b6c <_GLOBAL__sub_I_TOUCH_LC717A00_mode+0x1f8>)
  103aa8:	f005 f84b 	bl	108b42 <__aeabi_atexit>
  103aac:	4830      	ldr	r0, [pc, #192]	; (103b70 <_GLOBAL__sub_I_TOUCH_LC717A00_mode+0x1fc>)
  103aae:	2111      	movs	r1, #17
  103ab0:	6004      	str	r4, [r0, #0]
  103ab2:	7104      	strb	r4, [r0, #4]
  103ab4:	6084      	str	r4, [r0, #8]
  103ab6:	f000 fe6c 	bl	104792 <gpio_init_in>
  103aba:	482e      	ldr	r0, [pc, #184]	; (103b74 <_GLOBAL__sub_I_TOUCH_LC717A00_mode+0x200>)
  103abc:	f7fe fe38 	bl	102730 <mbed::Ticker::Ticker()>
  103ac0:	4a14      	ldr	r2, [pc, #80]	; (103b14 <_GLOBAL__sub_I_TOUCH_LC717A00_mode+0x1a0>)
  103ac2:	4928      	ldr	r1, [pc, #160]	; (103b64 <_GLOBAL__sub_I_TOUCH_LC717A00_mode+0x1f0>)
  103ac4:	482b      	ldr	r0, [pc, #172]	; (103b74 <_GLOBAL__sub_I_TOUCH_LC717A00_mode+0x200>)
  103ac6:	f005 f83c 	bl	108b42 <__aeabi_atexit>
  103aca:	482b      	ldr	r0, [pc, #172]	; (103b78 <_GLOBAL__sub_I_TOUCH_LC717A00_mode+0x204>)
  103acc:	f7fe fe30 	bl	102730 <mbed::Ticker::Ticker()>
  103ad0:	4a10      	ldr	r2, [pc, #64]	; (103b14 <_GLOBAL__sub_I_TOUCH_LC717A00_mode+0x1a0>)
  103ad2:	4924      	ldr	r1, [pc, #144]	; (103b64 <_GLOBAL__sub_I_TOUCH_LC717A00_mode+0x1f0>)
  103ad4:	4828      	ldr	r0, [pc, #160]	; (103b78 <_GLOBAL__sub_I_TOUCH_LC717A00_mode+0x204>)
  103ad6:	f005 f834 	bl	108b42 <__aeabi_atexit>
  103ada:	4828      	ldr	r0, [pc, #160]	; (103b7c <_GLOBAL__sub_I_TOUCH_LC717A00_mode+0x208>)
  103adc:	f7fe fe28 	bl	102730 <mbed::Ticker::Ticker()>
  103ae0:	4a0c      	ldr	r2, [pc, #48]	; (103b14 <_GLOBAL__sub_I_TOUCH_LC717A00_mode+0x1a0>)
  103ae2:	4920      	ldr	r1, [pc, #128]	; (103b64 <_GLOBAL__sub_I_TOUCH_LC717A00_mode+0x1f0>)
  103ae4:	4825      	ldr	r0, [pc, #148]	; (103b7c <_GLOBAL__sub_I_TOUCH_LC717A00_mode+0x208>)
  103ae6:	f005 f82c 	bl	108b42 <__aeabi_atexit>
  103aea:	4825      	ldr	r0, [pc, #148]	; (103b80 <_GLOBAL__sub_I_TOUCH_LC717A00_mode+0x20c>)
  103aec:	f7fe fe20 	bl	102730 <mbed::Ticker::Ticker()>
  103af0:	4a08      	ldr	r2, [pc, #32]	; (103b14 <_GLOBAL__sub_I_TOUCH_LC717A00_mode+0x1a0>)
  103af2:	491c      	ldr	r1, [pc, #112]	; (103b64 <_GLOBAL__sub_I_TOUCH_LC717A00_mode+0x1f0>)
  103af4:	4822      	ldr	r0, [pc, #136]	; (103b80 <_GLOBAL__sub_I_TOUCH_LC717A00_mode+0x20c>)
  103af6:	f005 f824 	bl	108b42 <__aeabi_atexit>
  103afa:	4822      	ldr	r0, [pc, #136]	; (103b84 <_GLOBAL__sub_I_TOUCH_LC717A00_mode+0x210>)
  103afc:	f7fe fe18 	bl	102730 <mbed::Ticker::Ticker()>
  103b00:	4a04      	ldr	r2, [pc, #16]	; (103b14 <_GLOBAL__sub_I_TOUCH_LC717A00_mode+0x1a0>)
  103b02:	4918      	ldr	r1, [pc, #96]	; (103b64 <_GLOBAL__sub_I_TOUCH_LC717A00_mode+0x1f0>)
  103b04:	481f      	ldr	r0, [pc, #124]	; (103b84 <_GLOBAL__sub_I_TOUCH_LC717A00_mode+0x210>)
  103b06:	b002      	add	sp, #8
  103b08:	e8bd 4070 	ldmia.w	sp!, {r4, r5, r6, lr}
  103b0c:	f005 b819 	b.w	108b42 <__aeabi_atexit>
  103b10:	3fff82ec 	.word	0x3fff82ec
  103b14:	3fff40a0 	.word	0x3fff40a0
  103b18:	0010917f 	.word	0x0010917f
  103b1c:	3fff80d8 	.word	0x3fff80d8
  103b20:	00103935 	.word	0x00103935
  103b24:	3fff8438 	.word	0x3fff8438
  103b28:	3fff8304 	.word	0x3fff8304
  103b2c:	3fff85ec 	.word	0x3fff85ec
  103b30:	3fff8250 	.word	0x3fff8250
  103b34:	3fff85bc 	.word	0x3fff85bc
  103b38:	00109013 	.word	0x00109013
  103b3c:	00102165 	.word	0x00102165
  103b40:	3fff8640 	.word	0x3fff8640
  103b44:	00103021 	.word	0x00103021
  103b48:	3fff8358 	.word	0x3fff8358
  103b4c:	00103425 	.word	0x00103425
  103b50:	3fff8580 	.word	0x3fff8580
  103b54:	00108011 	.word	0x00108011
  103b58:	3fff8428 	.word	0x3fff8428
  103b5c:	00102137 	.word	0x00102137
  103b60:	3fff8450 	.word	0x3fff8450
  103b64:	00102175 	.word	0x00102175
  103b68:	3fff8488 	.word	0x3fff8488
  103b6c:	3fff8548 	.word	0x3fff8548
  103b70:	3fff8b08 	.word	0x3fff8b08
  103b74:	3fff8608 	.word	0x3fff8608
  103b78:	3fff84d8 	.word	0x3fff84d8
  103b7c:	3fff8510 	.word	0x3fff8510
  103b80:	3fff84a0 	.word	0x3fff84a0
  103b84:	3fff8320 	.word	0x3fff8320

00103b88 <__tcf_0>:
  103b88:	b538      	push	{r3, r4, r5, lr}
  103b8a:	4d06      	ldr	r5, [pc, #24]	; (103ba4 <__tcf_0+0x1c>)
  103b8c:	2400      	movs	r4, #0
  103b8e:	f504 70b4 	add.w	r0, r4, #360	; 0x168
  103b92:	4428      	add	r0, r5
  103b94:	3c18      	subs	r4, #24
  103b96:	f005 fad7 	bl	109148 <std::__cxx11::basic_string<char, std::char_traits<char>, std::allocator<char> >::_M_dispose()>
  103b9a:	f514 7fc0 	cmn.w	r4, #384	; 0x180
  103b9e:	d1f6      	bne.n	103b8e <__tcf_0+0x6>
  103ba0:	bd38      	pop	{r3, r4, r5, pc}
  103ba2:	bf00      	nop
  103ba4:	3fff8b14 	.word	0x3fff8b14

00103ba8 <std::__cxx11::basic_string<char, std::char_traits<char>, std::allocator<char> >::basic_string(char const*, std::allocator<char> const&) [clone .isra.14] [clone .constprop.16]>:
  103ba8:	b510      	push	{r4, lr}
  103baa:	4604      	mov	r4, r0
  103bac:	4a05      	ldr	r2, [pc, #20]	; (103bc4 <std::__cxx11::basic_string<char, std::char_traits<char>, std::allocator<char> >::basic_string(char const*, std::allocator<char> const&) [clone .isra.14] [clone .constprop.16]+0x1c>)
  103bae:	3008      	adds	r0, #8
  103bb0:	6020      	str	r0, [r4, #0]
  103bb2:	4611      	mov	r1, r2
  103bb4:	f005 fade 	bl	109174 <std::__cxx11::basic_string<char, std::char_traits<char>, std::allocator<char> >::_S_copy_chars(char*, char const*, char const*)>
  103bb8:	6822      	ldr	r2, [r4, #0]
  103bba:	2300      	movs	r3, #0
  103bbc:	6063      	str	r3, [r4, #4]
  103bbe:	7013      	strb	r3, [r2, #0]
  103bc0:	4620      	mov	r0, r4
  103bc2:	bd10      	pop	{r4, pc}
  103bc4:	00110e2d 	.word	0x00110e2d

00103bc8 <_GLOBAL__sub_I_TOUCH_LC717A00_mode>:
  103bc8:	b508      	push	{r3, lr}
  103bca:	4820      	ldr	r0, [pc, #128]	; (103c4c <_GLOBAL__sub_I_TOUCH_LC717A00_mode+0x84>)
  103bcc:	f7ff ffec 	bl	103ba8 <std::__cxx11::basic_string<char, std::char_traits<char>, std::allocator<char> >::basic_string(char const*, std::allocator<char> const&) [clone .isra.14] [clone .constprop.16]>
  103bd0:	4a1f      	ldr	r2, [pc, #124]	; (103c50 <_GLOBAL__sub_I_TOUCH_LC717A00_mode+0x88>)
  103bd2:	4920      	ldr	r1, [pc, #128]	; (103c54 <_GLOBAL__sub_I_TOUCH_LC717A00_mode+0x8c>)
  103bd4:	481d      	ldr	r0, [pc, #116]	; (103c4c <_GLOBAL__sub_I_TOUCH_LC717A00_mode+0x84>)
  103bd6:	f004 ffb4 	bl	108b42 <__aeabi_atexit>
  103bda:	4b1f      	ldr	r3, [pc, #124]	; (103c58 <_GLOBAL__sub_I_TOUCH_LC717A00_mode+0x90>)
  103bdc:	2200      	movs	r2, #0
  103bde:	f503 70c0 	add.w	r0, r3, #384	; 0x180
  103be2:	4619      	mov	r1, r3
  103be4:	f843 2c04 	str.w	r2, [r3, #-4]
  103be8:	f843 3c08 	str.w	r3, [r3, #-8]
  103bec:	f801 2b18 	strb.w	r2, [r1], #24
  103bf0:	6119      	str	r1, [r3, #16]
  103bf2:	615a      	str	r2, [r3, #20]
  103bf4:	761a      	strb	r2, [r3, #24]
  103bf6:	3330      	adds	r3, #48	; 0x30
  103bf8:	4283      	cmp	r3, r0
  103bfa:	d1f2      	bne.n	103be2 <_GLOBAL__sub_I_TOUCH_LC717A00_mode+0x1a>
  103bfc:	4a14      	ldr	r2, [pc, #80]	; (103c50 <_GLOBAL__sub_I_TOUCH_LC717A00_mode+0x88>)
  103bfe:	4917      	ldr	r1, [pc, #92]	; (103c5c <_GLOBAL__sub_I_TOUCH_LC717A00_mode+0x94>)
  103c00:	2000      	movs	r0, #0
  103c02:	f004 ff9e 	bl	108b42 <__aeabi_atexit>
  103c06:	4816      	ldr	r0, [pc, #88]	; (103c60 <_GLOBAL__sub_I_TOUCH_LC717A00_mode+0x98>)
  103c08:	f7ff ffce 	bl	103ba8 <std::__cxx11::basic_string<char, std::char_traits<char>, std::allocator<char> >::basic_string(char const*, std::allocator<char> const&) [clone .isra.14] [clone .constprop.16]>
  103c0c:	4a10      	ldr	r2, [pc, #64]	; (103c50 <_GLOBAL__sub_I_TOUCH_LC717A00_mode+0x88>)
  103c0e:	4911      	ldr	r1, [pc, #68]	; (103c54 <_GLOBAL__sub_I_TOUCH_LC717A00_mode+0x8c>)
  103c10:	4813      	ldr	r0, [pc, #76]	; (103c60 <_GLOBAL__sub_I_TOUCH_LC717A00_mode+0x98>)
  103c12:	f004 ff96 	bl	108b42 <__aeabi_atexit>
  103c16:	4813      	ldr	r0, [pc, #76]	; (103c64 <_GLOBAL__sub_I_TOUCH_LC717A00_mode+0x9c>)
  103c18:	f7ff ffc6 	bl	103ba8 <std::__cxx11::basic_string<char, std::char_traits<char>, std::allocator<char> >::basic_string(char const*, std::allocator<char> const&) [clone .isra.14] [clone .constprop.16]>
  103c1c:	4a0c      	ldr	r2, [pc, #48]	; (103c50 <_GLOBAL__sub_I_TOUCH_LC717A00_mode+0x88>)
  103c1e:	490d      	ldr	r1, [pc, #52]	; (103c54 <_GLOBAL__sub_I_TOUCH_LC717A00_mode+0x8c>)
  103c20:	4810      	ldr	r0, [pc, #64]	; (103c64 <_GLOBAL__sub_I_TOUCH_LC717A00_mode+0x9c>)
  103c22:	f004 ff8e 	bl	108b42 <__aeabi_atexit>
  103c26:	4810      	ldr	r0, [pc, #64]	; (103c68 <_GLOBAL__sub_I_TOUCH_LC717A00_mode+0xa0>)
  103c28:	f7ff ffbe 	bl	103ba8 <std::__cxx11::basic_string<char, std::char_traits<char>, std::allocator<char> >::basic_string(char const*, std::allocator<char> const&) [clone .isra.14] [clone .constprop.16]>
  103c2c:	4a08      	ldr	r2, [pc, #32]	; (103c50 <_GLOBAL__sub_I_TOUCH_LC717A00_mode+0x88>)
  103c2e:	4909      	ldr	r1, [pc, #36]	; (103c54 <_GLOBAL__sub_I_TOUCH_LC717A00_mode+0x8c>)
  103c30:	480d      	ldr	r0, [pc, #52]	; (103c68 <_GLOBAL__sub_I_TOUCH_LC717A00_mode+0xa0>)
  103c32:	f004 ff86 	bl	108b42 <__aeabi_atexit>
  103c36:	480d      	ldr	r0, [pc, #52]	; (103c6c <_GLOBAL__sub_I_TOUCH_LC717A00_mode+0xa4>)
  103c38:	f005 f9de 	bl	108ff8 <rtos::Mutex::Mutex()>
  103c3c:	e8bd 4008 	ldmia.w	sp!, {r3, lr}
  103c40:	4a03      	ldr	r2, [pc, #12]	; (103c50 <_GLOBAL__sub_I_TOUCH_LC717A00_mode+0x88>)
  103c42:	490b      	ldr	r1, [pc, #44]	; (103c70 <_GLOBAL__sub_I_TOUCH_LC717A00_mode+0xa8>)
  103c44:	4809      	ldr	r0, [pc, #36]	; (103c6c <_GLOBAL__sub_I_TOUCH_LC717A00_mode+0xa4>)
  103c46:	f004 bf7c 	b.w	108b42 <__aeabi_atexit>
  103c4a:	bf00      	nop
  103c4c:	3fff8c94 	.word	0x3fff8c94
  103c50:	3fff40a0 	.word	0x3fff40a0
  103c54:	0010917f 	.word	0x0010917f
  103c58:	3fff8b1c 	.word	0x3fff8b1c
  103c5c:	00103b89 	.word	0x00103b89
  103c60:	3fff8cc4 	.word	0x3fff8cc4
  103c64:	3fff8cac 	.word	0x3fff8cac
  103c68:	3fff8d0c 	.word	0x3fff8d0c
  103c6c:	3fff8cdc 	.word	0x3fff8cdc
  103c70:	00109013 	.word	0x00109013

00103c74 <__tcf_0>:
  103c74:	b538      	push	{r3, r4, r5, lr}
  103c76:	4d06      	ldr	r5, [pc, #24]	; (103c90 <__tcf_0+0x1c>)
  103c78:	2400      	movs	r4, #0
  103c7a:	f504 70b4 	add.w	r0, r4, #360	; 0x168
  103c7e:	4428      	add	r0, r5
  103c80:	3c18      	subs	r4, #24
  103c82:	f005 fa61 	bl	109148 <std::__cxx11::basic_string<char, std::char_traits<char>, std::allocator<char> >::_M_dispose()>
  103c86:	f514 7fc0 	cmn.w	r4, #384	; 0x180
  103c8a:	d1f6      	bne.n	103c7a <__tcf_0+0x6>
  103c8c:	bd38      	pop	{r3, r4, r5, pc}
  103c8e:	bf00      	nop
  103c90:	3fff8d24 	.word	0x3fff8d24

00103c94 <std::__cxx11::basic_string<char, std::char_traits<char>, std::allocator<char> >::basic_string(char const*, std::allocator<char> const&) [clone .isra.16] [clone .constprop.18]>:
  103c94:	b510      	push	{r4, lr}
  103c96:	4604      	mov	r4, r0
  103c98:	4a05      	ldr	r2, [pc, #20]	; (103cb0 <std::__cxx11::basic_string<char, std::char_traits<char>, std::allocator<char> >::basic_string(char const*, std::allocator<char> const&) [clone .isra.16] [clone .constprop.18]+0x1c>)
  103c9a:	3008      	adds	r0, #8
  103c9c:	6020      	str	r0, [r4, #0]
  103c9e:	4611      	mov	r1, r2
  103ca0:	f005 fa68 	bl	109174 <std::__cxx11::basic_string<char, std::char_traits<char>, std::allocator<char> >::_S_copy_chars(char*, char const*, char const*)>
  103ca4:	6822      	ldr	r2, [r4, #0]
  103ca6:	2300      	movs	r3, #0
  103ca8:	6063      	str	r3, [r4, #4]
  103caa:	7013      	strb	r3, [r2, #0]
  103cac:	4620      	mov	r0, r4
  103cae:	bd10      	pop	{r4, pc}
  103cb0:	00110e2d 	.word	0x00110e2d

00103cb4 <IRQ_GSM_ReadUART()>:
  103cb4:	b508      	push	{r3, lr}
  103cb6:	480a      	ldr	r0, [pc, #40]	; (103ce0 <IRQ_GSM_ReadUART()+0x2c>)
  103cb8:	f004 fbda 	bl	108470 <mbed::Ticker::detach()>
  103cbc:	4809      	ldr	r0, [pc, #36]	; (103ce4 <IRQ_GSM_ReadUART()+0x30>)
  103cbe:	f004 fa81 	bl	1081c4 <mbed::SerialBase::readable()>
  103cc2:	b130      	cbz	r0, 103cd2 <IRQ_GSM_ReadUART()+0x1e>
  103cc4:	e8bd 4008 	ldmia.w	sp!, {r3, lr}
  103cc8:	4a07      	ldr	r2, [pc, #28]	; (103ce8 <IRQ_GSM_ReadUART()+0x34>)
  103cca:	4908      	ldr	r1, [pc, #32]	; (103cec <IRQ_GSM_ReadUART()+0x38>)
  103ccc:	4808      	ldr	r0, [pc, #32]	; (103cf0 <IRQ_GSM_ReadUART()+0x3c>)
  103cce:	f005 b948 	b.w	108f62 <mbed::Stream::scanf(char const*, ...)>
  103cd2:	2232      	movs	r2, #50	; 0x32
  103cd4:	2120      	movs	r1, #32
  103cd6:	4804      	ldr	r0, [pc, #16]	; (103ce8 <IRQ_GSM_ReadUART()+0x34>)
  103cd8:	e8bd 4008 	ldmia.w	sp!, {r3, lr}
  103cdc:	f007 b8b0 	b.w	10ae40 <memset>
  103ce0:	3fff9500 	.word	0x3fff9500
  103ce4:	3fff8f88 	.word	0x3fff8f88
  103ce8:	3fff9004 	.word	0x3fff9004
  103cec:	00110104 	.word	0x00110104
  103cf0:	3fff8fbc 	.word	0x3fff8fbc

00103cf4 <Reading_UART(char*)>:
  103cf4:	4602      	mov	r2, r0
  103cf6:	4902      	ldr	r1, [pc, #8]	; (103d00 <Reading_UART(char*)+0xc>)
  103cf8:	4802      	ldr	r0, [pc, #8]	; (103d04 <Reading_UART(char*)+0x10>)
  103cfa:	f005 b932 	b.w	108f62 <mbed::Stream::scanf(char const*, ...)>
  103cfe:	bf00      	nop
  103d00:	00110104 	.word	0x00110104
  103d04:	3fff8fbc 	.word	0x3fff8fbc

00103d08 <Send_UART(char*)>:
  103d08:	b508      	push	{r3, lr}
  103d0a:	4602      	mov	r2, r0
  103d0c:	4902      	ldr	r1, [pc, #8]	; (103d18 <Send_UART(char*)+0x10>)
  103d0e:	4803      	ldr	r0, [pc, #12]	; (103d1c <Send_UART(char*)+0x14>)
  103d10:	f005 f90a 	bl	108f28 <mbed::Stream::printf(char const*, ...)>
  103d14:	2000      	movs	r0, #0
  103d16:	bd08      	pop	{r3, pc}
  103d18:	001100af 	.word	0x001100af
  103d1c:	3fff8fbc 	.word	0x3fff8fbc

00103d20 <uart_IsReadable()>:
  103d20:	b508      	push	{r3, lr}
  103d22:	4803      	ldr	r0, [pc, #12]	; (103d30 <uart_IsReadable()+0x10>)
  103d24:	f004 fa4e 	bl	1081c4 <mbed::SerialBase::readable()>
  103d28:	3000      	adds	r0, #0
  103d2a:	bf18      	it	ne
  103d2c:	2001      	movne	r0, #1
  103d2e:	bd08      	pop	{r3, pc}
  103d30:	3fff8f88 	.word	0x3fff8f88

00103d34 <Send_UART_nonPrintableChar(int*, int)>:
  103d34:	b570      	push	{r4, r5, r6, lr}
  103d36:	4605      	mov	r5, r0
  103d38:	460e      	mov	r6, r1
  103d3a:	2400      	movs	r4, #0
  103d3c:	42b4      	cmp	r4, r6
  103d3e:	dc07      	bgt.n	103d50 <Send_UART_nonPrintableChar(int*, int)+0x1c>
  103d40:	f855 2024 	ldr.w	r2, [r5, r4, lsl #2]
  103d44:	4906      	ldr	r1, [pc, #24]	; (103d60 <Send_UART_nonPrintableChar(int*, int)+0x2c>)
  103d46:	4807      	ldr	r0, [pc, #28]	; (103d64 <Send_UART_nonPrintableChar(int*, int)+0x30>)
  103d48:	f005 f8ee 	bl	108f28 <mbed::Stream::printf(char const*, ...)>
  103d4c:	3401      	adds	r4, #1
  103d4e:	e7f5      	b.n	103d3c <Send_UART_nonPrintableChar(int*, int)+0x8>
  103d50:	220d      	movs	r2, #13
  103d52:	4905      	ldr	r1, [pc, #20]	; (103d68 <Send_UART_nonPrintableChar(int*, int)+0x34>)
  103d54:	4803      	ldr	r0, [pc, #12]	; (103d64 <Send_UART_nonPrintableChar(int*, int)+0x30>)
  103d56:	f005 f8e7 	bl	108f28 <mbed::Stream::printf(char const*, ...)>
  103d5a:	2000      	movs	r0, #0
  103d5c:	bd70      	pop	{r4, r5, r6, pc}
  103d5e:	bf00      	nop
  103d60:	0011010c 	.word	0x0011010c
  103d64:	3fff8fbc 	.word	0x3fff8fbc
  103d68:	0011004f 	.word	0x0011004f

00103d6c <Take_dataUART(char*)>:
  103d6c:	4901      	ldr	r1, [pc, #4]	; (103d74 <Take_dataUART(char*)+0x8>)
  103d6e:	f008 be04 	b.w	10c97a <strcpy>
  103d72:	bf00      	nop
  103d74:	3fff9004 	.word	0x3fff9004

00103d78 <mbed::Callback<void ()>::operator=(mbed::Callback<void ()> const&)>:
  103d78:	4288      	cmp	r0, r1
  103d7a:	b538      	push	{r3, r4, r5, lr}
  103d7c:	4604      	mov	r4, r0
  103d7e:	460d      	mov	r5, r1
  103d80:	d00a      	beq.n	103d98 <mbed::Callback<void ()>::operator=(mbed::Callback<void ()> const&)+0x20>
  103d82:	f7fe fd37 	bl	1027f4 <mbed::Callback<void ()>::~Callback()>
  103d86:	b13c      	cbz	r4, 103d98 <mbed::Callback<void ()>::operator=(mbed::Callback<void ()> const&)+0x20>
  103d88:	68eb      	ldr	r3, [r5, #12]
  103d8a:	b11b      	cbz	r3, 103d94 <mbed::Callback<void ()>::operator=(mbed::Callback<void ()> const&)+0x1c>
  103d8c:	685b      	ldr	r3, [r3, #4]
  103d8e:	4629      	mov	r1, r5
  103d90:	4620      	mov	r0, r4
  103d92:	4798      	blx	r3
  103d94:	68eb      	ldr	r3, [r5, #12]
  103d96:	60e3      	str	r3, [r4, #12]
  103d98:	4620      	mov	r0, r4
  103d9a:	bd38      	pop	{r3, r4, r5, pc}

00103d9c <Read_GSM_UART_Wait(float)>:
  103d9c:	b570      	push	{r4, r5, r6, lr}
  103d9e:	4b14      	ldr	r3, [pc, #80]	; (103df0 <Read_GSM_UART_Wait(float)+0x54>)
  103da0:	b08c      	sub	sp, #48	; 0x30
  103da2:	6018      	str	r0, [r3, #0]
  103da4:	4604      	mov	r4, r0
  103da6:	a804      	add	r0, sp, #16
  103da8:	f004 fbfa 	bl	1085a0 <mbed::Timer::Timer()>
  103dac:	a804      	add	r0, sp, #16
  103dae:	f004 fb80 	bl	1084b2 <mbed::Timer::start()>
  103db2:	4e10      	ldr	r6, [pc, #64]	; (103df4 <Read_GSM_UART_Wait(float)+0x58>)
  103db4:	4d10      	ldr	r5, [pc, #64]	; (103df8 <Read_GSM_UART_Wait(float)+0x5c>)
  103db6:	a804      	add	r0, sp, #16
  103db8:	f004 fc04 	bl	1085c4 <mbed::Timer::operator float()>
  103dbc:	4601      	mov	r1, r0
  103dbe:	4620      	mov	r0, r4
  103dc0:	f006 f85e 	bl	109e80 <__aeabi_fcmpge>
  103dc4:	b170      	cbz	r0, 103de4 <Read_GSM_UART_Wait(float)+0x48>
  103dc6:	4669      	mov	r1, sp
  103dc8:	480c      	ldr	r0, [pc, #48]	; (103dfc <Read_GSM_UART_Wait(float)+0x60>)
  103dca:	9600      	str	r6, [sp, #0]
  103dcc:	9503      	str	r5, [sp, #12]
  103dce:	f7ff ffd3 	bl	103d78 <mbed::Callback<void ()>::operator=(mbed::Callback<void ()> const&)>
  103dd2:	220a      	movs	r2, #10
  103dd4:	2300      	movs	r3, #0
  103dd6:	480a      	ldr	r0, [pc, #40]	; (103e00 <Read_GSM_UART_Wait(float)+0x64>)
  103dd8:	f004 fb32 	bl	108440 <mbed::Ticker::setup(unsigned long long)>
  103ddc:	4668      	mov	r0, sp
  103dde:	f7fe fd09 	bl	1027f4 <mbed::Callback<void ()>::~Callback()>
  103de2:	e7e8      	b.n	103db6 <Read_GSM_UART_Wait(float)+0x1a>
  103de4:	a804      	add	r0, sp, #16
  103de6:	f004 fb8d 	bl	108504 <mbed::Timer::stop()>
  103dea:	b00c      	add	sp, #48	; 0x30
  103dec:	bd70      	pop	{r4, r5, r6, pc}
  103dee:	bf00      	nop
  103df0:	3fff63fc 	.word	0x3fff63fc
  103df4:	00103cb5 	.word	0x00103cb5
  103df8:	0010ff2c 	.word	0x0010ff2c
  103dfc:	3fff9528 	.word	0x3fff9528
  103e00:	3fff9500 	.word	0x3fff9500

00103e04 <_GLOBAL__sub_I_TOUCH_LC717A00_mode>:
  103e04:	b573      	push	{r0, r1, r4, r5, r6, lr}
  103e06:	483d      	ldr	r0, [pc, #244]	; (103efc <_GLOBAL__sub_I_TOUCH_LC717A00_mode+0xf8>)
  103e08:	f7ff ff44 	bl	103c94 <std::__cxx11::basic_string<char, std::char_traits<char>, std::allocator<char> >::basic_string(char const*, std::allocator<char> const&) [clone .isra.16] [clone .constprop.18]>
  103e0c:	4a3c      	ldr	r2, [pc, #240]	; (103f00 <_GLOBAL__sub_I_TOUCH_LC717A00_mode+0xfc>)
  103e0e:	493d      	ldr	r1, [pc, #244]	; (103f04 <_GLOBAL__sub_I_TOUCH_LC717A00_mode+0x100>)
  103e10:	483a      	ldr	r0, [pc, #232]	; (103efc <_GLOBAL__sub_I_TOUCH_LC717A00_mode+0xf8>)
  103e12:	f004 fe96 	bl	108b42 <__aeabi_atexit>
  103e16:	4b3c      	ldr	r3, [pc, #240]	; (103f08 <_GLOBAL__sub_I_TOUCH_LC717A00_mode+0x104>)
  103e18:	2200      	movs	r2, #0
  103e1a:	f503 70c0 	add.w	r0, r3, #384	; 0x180
  103e1e:	4619      	mov	r1, r3
  103e20:	f843 2c04 	str.w	r2, [r3, #-4]
  103e24:	f843 3c08 	str.w	r3, [r3, #-8]
  103e28:	f801 2b18 	strb.w	r2, [r1], #24
  103e2c:	6119      	str	r1, [r3, #16]
  103e2e:	615a      	str	r2, [r3, #20]
  103e30:	761a      	strb	r2, [r3, #24]
  103e32:	3330      	adds	r3, #48	; 0x30
  103e34:	4283      	cmp	r3, r0
  103e36:	f04f 0500 	mov.w	r5, #0
  103e3a:	d1f0      	bne.n	103e1e <_GLOBAL__sub_I_TOUCH_LC717A00_mode+0x1a>
  103e3c:	4a30      	ldr	r2, [pc, #192]	; (103f00 <_GLOBAL__sub_I_TOUCH_LC717A00_mode+0xfc>)
  103e3e:	4933      	ldr	r1, [pc, #204]	; (103f0c <_GLOBAL__sub_I_TOUCH_LC717A00_mode+0x108>)
  103e40:	4628      	mov	r0, r5
  103e42:	f004 fe7e 	bl	108b42 <__aeabi_atexit>
  103e46:	4832      	ldr	r0, [pc, #200]	; (103f10 <_GLOBAL__sub_I_TOUCH_LC717A00_mode+0x10c>)
  103e48:	f7ff ff24 	bl	103c94 <std::__cxx11::basic_string<char, std::char_traits<char>, std::allocator<char> >::basic_string(char const*, std::allocator<char> const&) [clone .isra.16] [clone .constprop.18]>
  103e4c:	4a2c      	ldr	r2, [pc, #176]	; (103f00 <_GLOBAL__sub_I_TOUCH_LC717A00_mode+0xfc>)
  103e4e:	492d      	ldr	r1, [pc, #180]	; (103f04 <_GLOBAL__sub_I_TOUCH_LC717A00_mode+0x100>)
  103e50:	482f      	ldr	r0, [pc, #188]	; (103f10 <_GLOBAL__sub_I_TOUCH_LC717A00_mode+0x10c>)
  103e52:	f004 fe76 	bl	108b42 <__aeabi_atexit>
  103e56:	482f      	ldr	r0, [pc, #188]	; (103f14 <_GLOBAL__sub_I_TOUCH_LC717A00_mode+0x110>)
  103e58:	f7ff ff1c 	bl	103c94 <std::__cxx11::basic_string<char, std::char_traits<char>, std::allocator<char> >::basic_string(char const*, std::allocator<char> const&) [clone .isra.16] [clone .constprop.18]>
  103e5c:	4a28      	ldr	r2, [pc, #160]	; (103f00 <_GLOBAL__sub_I_TOUCH_LC717A00_mode+0xfc>)
  103e5e:	4929      	ldr	r1, [pc, #164]	; (103f04 <_GLOBAL__sub_I_TOUCH_LC717A00_mode+0x100>)
  103e60:	482c      	ldr	r0, [pc, #176]	; (103f14 <_GLOBAL__sub_I_TOUCH_LC717A00_mode+0x110>)
  103e62:	f004 fe6e 	bl	108b42 <__aeabi_atexit>
  103e66:	482c      	ldr	r0, [pc, #176]	; (103f18 <_GLOBAL__sub_I_TOUCH_LC717A00_mode+0x114>)
  103e68:	f7ff ff14 	bl	103c94 <std::__cxx11::basic_string<char, std::char_traits<char>, std::allocator<char> >::basic_string(char const*, std::allocator<char> const&) [clone .isra.16] [clone .constprop.18]>
  103e6c:	4a24      	ldr	r2, [pc, #144]	; (103f00 <_GLOBAL__sub_I_TOUCH_LC717A00_mode+0xfc>)
  103e6e:	4925      	ldr	r1, [pc, #148]	; (103f04 <_GLOBAL__sub_I_TOUCH_LC717A00_mode+0x100>)
  103e70:	4829      	ldr	r0, [pc, #164]	; (103f18 <_GLOBAL__sub_I_TOUCH_LC717A00_mode+0x114>)
  103e72:	4c2a      	ldr	r4, [pc, #168]	; (103f1c <_GLOBAL__sub_I_TOUCH_LC717A00_mode+0x118>)
  103e74:	f004 fe65 	bl	108b42 <__aeabi_atexit>
  103e78:	4829      	ldr	r0, [pc, #164]	; (103f20 <_GLOBAL__sub_I_TOUCH_LC717A00_mode+0x11c>)
  103e7a:	f005 f8bd 	bl	108ff8 <rtos::Mutex::Mutex()>
  103e7e:	f04f 36ff 	mov.w	r6, #4294967295
  103e82:	4a1f      	ldr	r2, [pc, #124]	; (103f00 <_GLOBAL__sub_I_TOUCH_LC717A00_mode+0xfc>)
  103e84:	4927      	ldr	r1, [pc, #156]	; (103f24 <_GLOBAL__sub_I_TOUCH_LC717A00_mode+0x120>)
  103e86:	4826      	ldr	r0, [pc, #152]	; (103f20 <_GLOBAL__sub_I_TOUCH_LC717A00_mode+0x11c>)
  103e88:	f004 fe5b 	bl	108b42 <__aeabi_atexit>
  103e8c:	2304      	movs	r3, #4
  103e8e:	2206      	movs	r2, #6
  103e90:	9600      	str	r6, [sp, #0]
  103e92:	2105      	movs	r1, #5
  103e94:	4620      	mov	r0, r4
  103e96:	f004 fa17 	bl	1082c8 <mbed::SPI::SPI(PinName, PinName, PinName, PinName)>
  103e9a:	62e5      	str	r5, [r4, #44]	; 0x2c
  103e9c:	f884 5030 	strb.w	r5, [r4, #48]	; 0x30
  103ea0:	6365      	str	r5, [r4, #52]	; 0x34
  103ea2:	4631      	mov	r1, r6
  103ea4:	f104 002c 	add.w	r0, r4, #44	; 0x2c
  103ea8:	f000 fc9a 	bl	1047e0 <gpio_init_out>
  103eac:	2320      	movs	r3, #32
  103eae:	9600      	str	r6, [sp, #0]
  103eb0:	2202      	movs	r2, #2
  103eb2:	2103      	movs	r1, #3
  103eb4:	f104 0040 	add.w	r0, r4, #64	; 0x40
  103eb8:	f000 f8d6 	bl	104068 <PCA9655E::PCA9655E(PinName, PinName, unsigned char, PinName)>
  103ebc:	4620      	mov	r0, r4
  103ebe:	4c1a      	ldr	r4, [pc, #104]	; (103f28 <_GLOBAL__sub_I_TOUCH_LC717A00_mode+0x124>)
  103ec0:	4a0f      	ldr	r2, [pc, #60]	; (103f00 <_GLOBAL__sub_I_TOUCH_LC717A00_mode+0xfc>)
  103ec2:	491a      	ldr	r1, [pc, #104]	; (103f2c <_GLOBAL__sub_I_TOUCH_LC717A00_mode+0x128>)
  103ec4:	f004 fe3d 	bl	108b42 <__aeabi_atexit>
  103ec8:	4620      	mov	r0, r4
  103eca:	f004 fb81 	bl	1085d0 <mbed::TimerEvent::TimerEvent()>
  103ece:	4b18      	ldr	r3, [pc, #96]	; (103f30 <_GLOBAL__sub_I_TOUCH_LC717A00_mode+0x12c>)
  103ed0:	6365      	str	r5, [r4, #52]	; 0x34
  103ed2:	4a0b      	ldr	r2, [pc, #44]	; (103f00 <_GLOBAL__sub_I_TOUCH_LC717A00_mode+0xfc>)
  103ed4:	4917      	ldr	r1, [pc, #92]	; (103f34 <_GLOBAL__sub_I_TOUCH_LC717A00_mode+0x130>)
  103ed6:	4620      	mov	r0, r4
  103ed8:	6023      	str	r3, [r4, #0]
  103eda:	f004 fe32 	bl	108b42 <__aeabi_atexit>
  103ede:	4629      	mov	r1, r5
  103ee0:	f44f 5316 	mov.w	r3, #9600	; 0x2580
  103ee4:	2201      	movs	r2, #1
  103ee6:	4814      	ldr	r0, [pc, #80]	; (103f38 <_GLOBAL__sub_I_TOUCH_LC717A00_mode+0x134>)
  103ee8:	f004 f936 	bl	108158 <mbed::Serial::Serial(PinName, PinName, int)>
  103eec:	4a04      	ldr	r2, [pc, #16]	; (103f00 <_GLOBAL__sub_I_TOUCH_LC717A00_mode+0xfc>)
  103eee:	4913      	ldr	r1, [pc, #76]	; (103f3c <_GLOBAL__sub_I_TOUCH_LC717A00_mode+0x138>)
  103ef0:	4811      	ldr	r0, [pc, #68]	; (103f38 <_GLOBAL__sub_I_TOUCH_LC717A00_mode+0x134>)
  103ef2:	b002      	add	sp, #8
  103ef4:	e8bd 4070 	ldmia.w	sp!, {r4, r5, r6, lr}
  103ef8:	f004 be23 	b.w	108b42 <__aeabi_atexit>
  103efc:	3fff8f40 	.word	0x3fff8f40
  103f00:	3fff40a0 	.word	0x3fff40a0
  103f04:	0010917f 	.word	0x0010917f
  103f08:	3fff8d2c 	.word	0x3fff8d2c
  103f0c:	00103c75 	.word	0x00103c75
  103f10:	3fff8f70 	.word	0x3fff8f70
  103f14:	3fff8f58 	.word	0x3fff8f58
  103f18:	3fff94e4 	.word	0x3fff94e4
  103f1c:	3fff8ea4 	.word	0x3fff8ea4
  103f20:	3fff94b4 	.word	0x3fff94b4
  103f24:	00109013 	.word	0x00109013
  103f28:	3fff9500 	.word	0x3fff9500
  103f2c:	00102165 	.word	0x00102165
  103f30:	00110bd0 	.word	0x00110bd0
  103f34:	00102175 	.word	0x00102175
  103f38:	3fff8f88 	.word	0x3fff8f88
  103f3c:	001034a5 	.word	0x001034a5

00103f40 <_start>:
  103f40:	4808      	ldr	r0, [pc, #32]	; (103f64 <_start+0x24>)
  103f42:	4a09      	ldr	r2, [pc, #36]	; (103f68 <_start+0x28>)
  103f44:	b508      	push	{r3, lr}
  103f46:	1a12      	subs	r2, r2, r0
  103f48:	2100      	movs	r1, #0
  103f4a:	f006 ff79 	bl	10ae40 <memset>
  103f4e:	f000 feb7 	bl	104cc0 <software_init_hook>
  103f52:	f006 febb 	bl	10accc <__libc_init_array>
  103f56:	f002 ff2b 	bl	106db0 <expReset_AppLedON>
  103f5a:	f000 fea9 	bl	104cb0 <__wrap_main>
  103f5e:	f004 fdf2 	bl	108b46 <__wrap_exit>
  103f62:	bf00      	nop
  103f64:	3fff65c0 	.word	0x3fff65c0
  103f68:	3fffafc4 	.word	0x3fffafc4

00103f6c <__wrap__isatty>:
  103f6c:	2802      	cmp	r0, #2
  103f6e:	dd01      	ble.n	103f74 <__wrap__isatty+0x8>
  103f70:	f004 bd6e 	b.w	108a50 <_isatty>
  103f74:	2001      	movs	r0, #1
  103f76:	4770      	bx	lr

00103f78 <abort>:
  103f78:	b508      	push	{r3, lr}
  103f7a:	2001      	movs	r0, #1
  103f7c:	f004 fde3 	bl	108b46 <__wrap_exit>

00103f80 <__cxa_pure_virtual>:
  103f80:	b508      	push	{r3, lr}
  103f82:	f7ff fff9 	bl	103f78 <abort>
	...

00103f88 <LED::LED()>:
  103f88:	b538      	push	{r3, r4, r5, lr}
  103f8a:	4605      	mov	r5, r0
  103f8c:	4c09      	ldr	r4, [pc, #36]	; (103fb4 <LED::LED()+0x2c>)
  103f8e:	490a      	ldr	r1, [pc, #40]	; (103fb8 <LED::LED()+0x30>)
  103f90:	4620      	mov	r0, r4
  103f92:	f000 f87d 	bl	104090 <PCA9655E::frequency(int)>
  103f96:	4620      	mov	r0, r4
  103f98:	2300      	movs	r3, #0
  103f9a:	2202      	movs	r2, #2
  103f9c:	2101      	movs	r1, #1
  103f9e:	f000 f8f7 	bl	104190 <PCA9655E::setDirection(Port, signed char, Direction)>
  103fa2:	4620      	mov	r0, r4
  103fa4:	2300      	movs	r3, #0
  103fa6:	2203      	movs	r2, #3
  103fa8:	2101      	movs	r1, #1
  103faa:	f000 f8f1 	bl	104190 <PCA9655E::setDirection(Port, signed char, Direction)>
  103fae:	4628      	mov	r0, r5
  103fb0:	bd38      	pop	{r3, r4, r5, pc}
  103fb2:	bf00      	nop
  103fb4:	3fff9538 	.word	0x3fff9538
  103fb8:	000f4240 	.word	0x000f4240

00103fbc <LED::ledOn(myLED)>:
  103fbc:	2901      	cmp	r1, #1
  103fbe:	b510      	push	{r4, lr}
  103fc0:	460a      	mov	r2, r1
  103fc2:	d006      	beq.n	103fd2 <LED::ledOn(myLED)+0x16>
  103fc4:	d302      	bcc.n	103fcc <LED::ledOn(myLED)+0x10>
  103fc6:	2902      	cmp	r1, #2
  103fc8:	d006      	beq.n	103fd8 <LED::ledOn(myLED)+0x1c>
  103fca:	bd10      	pop	{r4, pc}
  103fcc:	2300      	movs	r3, #0
  103fce:	2202      	movs	r2, #2
  103fd0:	e009      	b.n	103fe6 <LED::ledOn(myLED)+0x2a>
  103fd2:	2300      	movs	r3, #0
  103fd4:	2203      	movs	r2, #3
  103fd6:	e007      	b.n	103fe8 <LED::ledOn(myLED)+0x2c>
  103fd8:	2300      	movs	r3, #0
  103fda:	2101      	movs	r1, #1
  103fdc:	4805      	ldr	r0, [pc, #20]	; (103ff4 <LED::ledOn(myLED)+0x38>)
  103fde:	f000 f8a7 	bl	104130 <PCA9655E::setValue(Port, signed char, SetVal)>
  103fe2:	2300      	movs	r3, #0
  103fe4:	2203      	movs	r2, #3
  103fe6:	2101      	movs	r1, #1
  103fe8:	4802      	ldr	r0, [pc, #8]	; (103ff4 <LED::ledOn(myLED)+0x38>)
  103fea:	e8bd 4010 	ldmia.w	sp!, {r4, lr}
  103fee:	f000 b89f 	b.w	104130 <PCA9655E::setValue(Port, signed char, SetVal)>
  103ff2:	bf00      	nop
  103ff4:	3fff9538 	.word	0x3fff9538

00103ff8 <LED::ledOff(myLED)>:
  103ff8:	2901      	cmp	r1, #1
  103ffa:	b510      	push	{r4, lr}
  103ffc:	460a      	mov	r2, r1
  103ffe:	d006      	beq.n	10400e <LED::ledOff(myLED)+0x16>
  104000:	d302      	bcc.n	104008 <LED::ledOff(myLED)+0x10>
  104002:	2902      	cmp	r1, #2
  104004:	d006      	beq.n	104014 <LED::ledOff(myLED)+0x1c>
  104006:	bd10      	pop	{r4, pc}
  104008:	2301      	movs	r3, #1
  10400a:	2202      	movs	r2, #2
  10400c:	e009      	b.n	104022 <LED::ledOff(myLED)+0x2a>
  10400e:	460b      	mov	r3, r1
  104010:	2203      	movs	r2, #3
  104012:	e007      	b.n	104024 <LED::ledOff(myLED)+0x2c>
  104014:	2301      	movs	r3, #1
  104016:	4619      	mov	r1, r3
  104018:	4805      	ldr	r0, [pc, #20]	; (104030 <LED::ledOff(myLED)+0x38>)
  10401a:	f000 f889 	bl	104130 <PCA9655E::setValue(Port, signed char, SetVal)>
  10401e:	2301      	movs	r3, #1
  104020:	2203      	movs	r2, #3
  104022:	4619      	mov	r1, r3
  104024:	e8bd 4010 	ldmia.w	sp!, {r4, lr}
  104028:	4801      	ldr	r0, [pc, #4]	; (104030 <LED::ledOff(myLED)+0x38>)
  10402a:	f000 b881 	b.w	104130 <PCA9655E::setValue(Port, signed char, SetVal)>
  10402e:	bf00      	nop
  104030:	3fff9538 	.word	0x3fff9538

00104034 <_GLOBAL__sub_I_led_ioexp>:
  104034:	b513      	push	{r0, r1, r4, lr}
  104036:	4c09      	ldr	r4, [pc, #36]	; (10405c <_GLOBAL__sub_I_led_ioexp+0x28>)
  104038:	f04f 33ff 	mov.w	r3, #4294967295
  10403c:	9300      	str	r3, [sp, #0]
  10403e:	2202      	movs	r2, #2
  104040:	2320      	movs	r3, #32
  104042:	2103      	movs	r1, #3
  104044:	4620      	mov	r0, r4
  104046:	f000 f80f 	bl	104068 <PCA9655E::PCA9655E(PinName, PinName, unsigned char, PinName)>
  10404a:	4620      	mov	r0, r4
  10404c:	4a04      	ldr	r2, [pc, #16]	; (104060 <_GLOBAL__sub_I_led_ioexp+0x2c>)
  10404e:	4905      	ldr	r1, [pc, #20]	; (104064 <_GLOBAL__sub_I_led_ioexp+0x30>)
  104050:	b002      	add	sp, #8
  104052:	e8bd 4010 	ldmia.w	sp!, {r4, lr}
  104056:	f004 bd74 	b.w	108b42 <__aeabi_atexit>
  10405a:	bf00      	nop
  10405c:	3fff9538 	.word	0x3fff9538
  104060:	3fff40a0 	.word	0x3fff40a0
  104064:	001041f1 	.word	0x001041f1

00104068 <PCA9655E::PCA9655E(PinName, PinName, unsigned char, PinName)>:
  104068:	b538      	push	{r3, r4, r5, lr}
  10406a:	4604      	mov	r4, r0
  10406c:	461d      	mov	r5, r3
  10406e:	f003 ff07 	bl	107e80 <mbed::I2C::I2C(PinName, PinName)>
  104072:	f99d 1010 	ldrsb.w	r1, [sp, #16]
  104076:	f104 0020 	add.w	r0, r4, #32
  10407a:	f003 ffe7 	bl	10804c <mbed::InterruptIn::InterruptIn(PinName)>
  10407e:	4620      	mov	r0, r4
  104080:	7725      	strb	r5, [r4, #28]
  104082:	4902      	ldr	r1, [pc, #8]	; (10408c <PCA9655E::PCA9655E(PinName, PinName, unsigned char, PinName)+0x24>)
  104084:	f003 ff1a 	bl	107ebc <mbed::I2C::frequency(int)>
  104088:	4620      	mov	r0, r4
  10408a:	bd38      	pop	{r3, r4, r5, pc}
  10408c:	000f4240 	.word	0x000f4240

00104090 <PCA9655E::frequency(int)>:
  104090:	b508      	push	{r3, lr}
  104092:	b672      	cpsid	i
  104094:	f003 ff12 	bl	107ebc <mbed::I2C::frequency(int)>
  104098:	b662      	cpsie	i
  10409a:	bd08      	pop	{r3, pc}

0010409c <PCA9655E::write(Register, char)>:
  10409c:	b51f      	push	{r0, r1, r2, r3, r4, lr}
  10409e:	b672      	cpsid	i
  1040a0:	2300      	movs	r3, #0
  1040a2:	f88d 100c 	strb.w	r1, [sp, #12]
  1040a6:	f88d 200d 	strb.w	r2, [sp, #13]
  1040aa:	7f01      	ldrb	r1, [r0, #28]
  1040ac:	aa03      	add	r2, sp, #12
  1040ae:	9300      	str	r3, [sp, #0]
  1040b0:	2302      	movs	r3, #2
  1040b2:	f003 ff2f 	bl	107f14 <mbed::I2C::write(int, char const*, int, bool)>
  1040b6:	b662      	cpsie	i
  1040b8:	b005      	add	sp, #20
  1040ba:	f85d fb04 	ldr.w	pc, [sp], #4

001040be <PCA9655E::read(Register)>:
  1040be:	b530      	push	{r4, r5, lr}
  1040c0:	b085      	sub	sp, #20
  1040c2:	aa04      	add	r2, sp, #16
  1040c4:	4604      	mov	r4, r0
  1040c6:	f802 1d01 	strb.w	r1, [r2, #-1]!
  1040ca:	b672      	cpsid	i
  1040cc:	2501      	movs	r5, #1
  1040ce:	7f01      	ldrb	r1, [r0, #28]
  1040d0:	462b      	mov	r3, r5
  1040d2:	9500      	str	r5, [sp, #0]
  1040d4:	f003 ff1e 	bl	107f14 <mbed::I2C::write(int, char const*, int, bool)>
  1040d8:	2300      	movs	r3, #0
  1040da:	9300      	str	r3, [sp, #0]
  1040dc:	7f21      	ldrb	r1, [r4, #28]
  1040de:	462b      	mov	r3, r5
  1040e0:	f10d 020e 	add.w	r2, sp, #14
  1040e4:	4620      	mov	r0, r4
  1040e6:	f003 ff35 	bl	107f54 <mbed::I2C::read(int, char*, int, bool)>
  1040ea:	b662      	cpsie	i
  1040ec:	f89d 000e 	ldrb.w	r0, [sp, #14]
  1040f0:	b005      	add	sp, #20
  1040f2:	bd30      	pop	{r4, r5, pc}

001040f4 <PCA9655E::readPinVal(Port, signed char)>:
  1040f4:	b2d3      	uxtb	r3, r2
  1040f6:	2b07      	cmp	r3, #7
  1040f8:	b570      	push	{r4, r5, r6, lr}
  1040fa:	4606      	mov	r6, r0
  1040fc:	460d      	mov	r5, r1
  1040fe:	4614      	mov	r4, r2
  104100:	d904      	bls.n	10410c <PCA9655E::readPinVal(Port, signed char)+0x18>
  104102:	2233      	movs	r2, #51	; 0x33
  104104:	4908      	ldr	r1, [pc, #32]	; (104128 <PCA9655E::readPinVal(Port, signed char)+0x34>)
  104106:	4809      	ldr	r0, [pc, #36]	; (10412c <PCA9655E::readPinVal(Port, signed char)+0x38>)
  104108:	f000 fc8e 	bl	104a28 <mbed_assert_internal>
  10410c:	b10d      	cbz	r5, 104112 <PCA9655E::readPinVal(Port, signed char)+0x1e>
  10410e:	2d01      	cmp	r5, #1
  104110:	d107      	bne.n	104122 <PCA9655E::readPinVal(Port, signed char)+0x2e>
  104112:	4629      	mov	r1, r5
  104114:	4630      	mov	r0, r6
  104116:	f7ff ffd2 	bl	1040be <PCA9655E::read(Register)>
  10411a:	4120      	asrs	r0, r4
  10411c:	f000 0001 	and.w	r0, r0, #1
  104120:	bd70      	pop	{r4, r5, r6, pc}
  104122:	f04f 30ff 	mov.w	r0, #4294967295
  104126:	bd70      	pop	{r4, r5, r6, pc}
  104128:	0011010f 	.word	0x0011010f
  10412c:	00110134 	.word	0x00110134

00104130 <PCA9655E::setValue(Port, signed char, SetVal)>:
  104130:	b5f8      	push	{r3, r4, r5, r6, r7, lr}
  104132:	461c      	mov	r4, r3
  104134:	b2d3      	uxtb	r3, r2
  104136:	2b07      	cmp	r3, #7
  104138:	4606      	mov	r6, r0
  10413a:	460d      	mov	r5, r1
  10413c:	4617      	mov	r7, r2
  10413e:	d904      	bls.n	10414a <PCA9655E::setValue(Port, signed char, SetVal)+0x1a>
  104140:	225c      	movs	r2, #92	; 0x5c
  104142:	4911      	ldr	r1, [pc, #68]	; (104188 <PCA9655E::setValue(Port, signed char, SetVal)+0x58>)
  104144:	4811      	ldr	r0, [pc, #68]	; (10418c <PCA9655E::setValue(Port, signed char, SetVal)+0x5c>)
  104146:	f000 fc6f 	bl	104a28 <mbed_assert_internal>
  10414a:	b11d      	cbz	r5, 104154 <PCA9655E::setValue(Port, signed char, SetVal)+0x24>
  10414c:	2d01      	cmp	r5, #1
  10414e:	d11a      	bne.n	104186 <PCA9655E::setValue(Port, signed char, SetVal)+0x56>
  104150:	2503      	movs	r5, #3
  104152:	e000      	b.n	104156 <PCA9655E::setValue(Port, signed char, SetVal)+0x26>
  104154:	2502      	movs	r5, #2
  104156:	4629      	mov	r1, r5
  104158:	4630      	mov	r0, r6
  10415a:	f7ff ffb0 	bl	1040be <PCA9655E::read(Register)>
  10415e:	b13c      	cbz	r4, 104170 <PCA9655E::setValue(Port, signed char, SetVal)+0x40>
  104160:	2c01      	cmp	r4, #1
  104162:	d001      	beq.n	104168 <PCA9655E::setValue(Port, signed char, SetVal)+0x38>
  104164:	b2c2      	uxtb	r2, r0
  104166:	e008      	b.n	10417a <PCA9655E::setValue(Port, signed char, SetVal)+0x4a>
  104168:	fa04 f207 	lsl.w	r2, r4, r7
  10416c:	4302      	orrs	r2, r0
  10416e:	e003      	b.n	104178 <PCA9655E::setValue(Port, signed char, SetVal)+0x48>
  104170:	2201      	movs	r2, #1
  104172:	40ba      	lsls	r2, r7
  104174:	ea20 0202 	bic.w	r2, r0, r2
  104178:	b2d2      	uxtb	r2, r2
  10417a:	4629      	mov	r1, r5
  10417c:	4630      	mov	r0, r6
  10417e:	e8bd 40f8 	ldmia.w	sp!, {r3, r4, r5, r6, r7, lr}
  104182:	f7ff bf8b 	b.w	10409c <PCA9655E::write(Register, char)>
  104186:	bdf8      	pop	{r3, r4, r5, r6, r7, pc}
  104188:	0011010f 	.word	0x0011010f
  10418c:	00110134 	.word	0x00110134

00104190 <PCA9655E::setDirection(Port, signed char, Direction)>:
  104190:	b5f8      	push	{r3, r4, r5, r6, r7, lr}
  104192:	461c      	mov	r4, r3
  104194:	b2d3      	uxtb	r3, r2
  104196:	2b07      	cmp	r3, #7
  104198:	4606      	mov	r6, r0
  10419a:	460d      	mov	r5, r1
  10419c:	4617      	mov	r7, r2
  10419e:	d904      	bls.n	1041aa <PCA9655E::setDirection(Port, signed char, Direction)+0x1a>
  1041a0:	227b      	movs	r2, #123	; 0x7b
  1041a2:	4911      	ldr	r1, [pc, #68]	; (1041e8 <PCA9655E::setDirection(Port, signed char, Direction)+0x58>)
  1041a4:	4811      	ldr	r0, [pc, #68]	; (1041ec <PCA9655E::setDirection(Port, signed char, Direction)+0x5c>)
  1041a6:	f000 fc3f 	bl	104a28 <mbed_assert_internal>
  1041aa:	b11d      	cbz	r5, 1041b4 <PCA9655E::setDirection(Port, signed char, Direction)+0x24>
  1041ac:	2d01      	cmp	r5, #1
  1041ae:	d11a      	bne.n	1041e6 <PCA9655E::setDirection(Port, signed char, Direction)+0x56>
  1041b0:	2507      	movs	r5, #7
  1041b2:	e000      	b.n	1041b6 <PCA9655E::setDirection(Port, signed char, Direction)+0x26>
  1041b4:	2506      	movs	r5, #6
  1041b6:	4629      	mov	r1, r5
  1041b8:	4630      	mov	r0, r6
  1041ba:	f7ff ff80 	bl	1040be <PCA9655E::read(Register)>
  1041be:	b11c      	cbz	r4, 1041c8 <PCA9655E::setDirection(Port, signed char, Direction)+0x38>
  1041c0:	2c01      	cmp	r4, #1
  1041c2:	d006      	beq.n	1041d2 <PCA9655E::setDirection(Port, signed char, Direction)+0x42>
  1041c4:	b2c2      	uxtb	r2, r0
  1041c6:	e008      	b.n	1041da <PCA9655E::setDirection(Port, signed char, Direction)+0x4a>
  1041c8:	2201      	movs	r2, #1
  1041ca:	40ba      	lsls	r2, r7
  1041cc:	ea20 0202 	bic.w	r2, r0, r2
  1041d0:	e002      	b.n	1041d8 <PCA9655E::setDirection(Port, signed char, Direction)+0x48>
  1041d2:	fa04 f207 	lsl.w	r2, r4, r7
  1041d6:	4302      	orrs	r2, r0
  1041d8:	b2d2      	uxtb	r2, r2
  1041da:	4629      	mov	r1, r5
  1041dc:	4630      	mov	r0, r6
  1041de:	e8bd 40f8 	ldmia.w	sp!, {r3, r4, r5, r6, r7, lr}
  1041e2:	f7ff bf5b 	b.w	10409c <PCA9655E::write(Register, char)>
  1041e6:	bdf8      	pop	{r3, r4, r5, r6, r7, pc}
  1041e8:	0011010f 	.word	0x0011010f
  1041ec:	00110134 	.word	0x00110134

001041f0 <PCA9655E::~PCA9655E()>:
  1041f0:	b510      	push	{r4, lr}
  1041f2:	4604      	mov	r4, r0
  1041f4:	3020      	adds	r0, #32
  1041f6:	f003 ff0b 	bl	108010 <mbed::InterruptIn::~InterruptIn()>
  1041fa:	4620      	mov	r0, r4
  1041fc:	bd10      	pop	{r4, pc}

001041fe <NHD_C0216CZ::getDdramAddr(int, int, unsigned char*)>:
  1041fe:	1e48      	subs	r0, r1, #1
  104200:	2801      	cmp	r0, #1
  104202:	d809      	bhi.n	104218 <NHD_C0216CZ::getDdramAddr(int, int, unsigned char*)+0x1a>
  104204:	1e50      	subs	r0, r2, #1
  104206:	280f      	cmp	r0, #15
  104208:	d806      	bhi.n	104218 <NHD_C0216CZ::getDdramAddr(int, int, unsigned char*)+0x1a>
  10420a:	2902      	cmp	r1, #2
  10420c:	bf0a      	itet	eq
  10420e:	323f      	addeq	r2, #63	; 0x3f
  104210:	7018      	strbne	r0, [r3, #0]
  104212:	701a      	strbeq	r2, [r3, #0]
  104214:	2001      	movs	r0, #1
  104216:	4770      	bx	lr
  104218:	2000      	movs	r0, #0
  10421a:	4770      	bx	lr

0010421c <NHD_C0216CZ::i2cCsEnable()>:
  10421c:	b510      	push	{r4, lr}
  10421e:	f100 0440 	add.w	r4, r0, #64	; 0x40
  104222:	2301      	movs	r3, #1
  104224:	2202      	movs	r2, #2
  104226:	2100      	movs	r1, #0
  104228:	4620      	mov	r0, r4
  10422a:	f7ff ff81 	bl	104130 <PCA9655E::setValue(Port, signed char, SetVal)>
  10422e:	2014      	movs	r0, #20
  104230:	f004 fdbe 	bl	108db0 <wait_us>
  104234:	2001      	movs	r0, #1
  104236:	f004 fdbb 	bl	108db0 <wait_us>
  10423a:	2300      	movs	r3, #0
  10423c:	4620      	mov	r0, r4
  10423e:	2202      	movs	r2, #2
  104240:	4619      	mov	r1, r3
  104242:	f7ff ff75 	bl	104130 <PCA9655E::setValue(Port, signed char, SetVal)>
  104246:	2014      	movs	r0, #20
  104248:	f004 fdb2 	bl	108db0 <wait_us>
  10424c:	e8bd 4010 	ldmia.w	sp!, {r4, lr}
  104250:	2001      	movs	r0, #1
  104252:	f004 bdad 	b.w	108db0 <wait_us>

00104256 <NHD_C0216CZ::i2cCsDisable()>:
  104256:	b510      	push	{r4, lr}
  104258:	4604      	mov	r4, r0
  10425a:	2001      	movs	r0, #1
  10425c:	f004 fda8 	bl	108db0 <wait_us>
  104260:	f104 0040 	add.w	r0, r4, #64	; 0x40
  104264:	2301      	movs	r3, #1
  104266:	2202      	movs	r2, #2
  104268:	2100      	movs	r1, #0
  10426a:	f7ff ff61 	bl	104130 <PCA9655E::setValue(Port, signed char, SetVal)>
  10426e:	e8bd 4010 	ldmia.w	sp!, {r4, lr}
  104272:	2014      	movs	r0, #20
  104274:	f004 bd9c 	b.w	108db0 <wait_us>

00104278 <NHD_C0216CZ::setRsPin(NHD_C0216CZ::LEVEL_T)>:
  104278:	b538      	push	{r3, r4, r5, lr}
  10427a:	460c      	mov	r4, r1
  10427c:	4605      	mov	r5, r0
  10427e:	f44f 70fa 	mov.w	r0, #500	; 0x1f4
  104282:	f004 fd95 	bl	108db0 <wait_us>
  104286:	b12c      	cbz	r4, 104294 <NHD_C0216CZ::setRsPin(NHD_C0216CZ::LEVEL_T)+0x1c>
  104288:	2c01      	cmp	r4, #1
  10428a:	d10a      	bne.n	1042a2 <NHD_C0216CZ::setRsPin(NHD_C0216CZ::LEVEL_T)+0x2a>
  10428c:	4623      	mov	r3, r4
  10428e:	2203      	movs	r2, #3
  104290:	2100      	movs	r1, #0
  104292:	e002      	b.n	10429a <NHD_C0216CZ::setRsPin(NHD_C0216CZ::LEVEL_T)+0x22>
  104294:	4623      	mov	r3, r4
  104296:	4621      	mov	r1, r4
  104298:	2203      	movs	r2, #3
  10429a:	f105 0040 	add.w	r0, r5, #64	; 0x40
  10429e:	f7ff ff47 	bl	104130 <PCA9655E::setValue(Port, signed char, SetVal)>
  1042a2:	2014      	movs	r0, #20
  1042a4:	f004 fd84 	bl	108db0 <wait_us>
  1042a8:	e8bd 4038 	ldmia.w	sp!, {r3, r4, r5, lr}
  1042ac:	f44f 70fa 	mov.w	r0, #500	; 0x1f4
  1042b0:	f004 bd7e 	b.w	108db0 <wait_us>

001042b4 <NHD_C0216CZ::setSpiParams()>:
  1042b4:	b510      	push	{r4, lr}
  1042b6:	4604      	mov	r4, r0
  1042b8:	2108      	movs	r1, #8
  1042ba:	2200      	movs	r2, #0
  1042bc:	f004 f82e 	bl	10831c <mbed::SPI::format(int, int)>
  1042c0:	4620      	mov	r0, r4
  1042c2:	e8bd 4010 	ldmia.w	sp!, {r4, lr}
  1042c6:	4901      	ldr	r1, [pc, #4]	; (1042cc <NHD_C0216CZ::setSpiParams()+0x18>)
  1042c8:	f004 b840 	b.w	10834c <mbed::SPI::frequency(int)>
  1042cc:	0007a120 	.word	0x0007a120

001042d0 <NHD_C0216CZ::resetSpiParams()>:
  1042d0:	b510      	push	{r4, lr}
  1042d2:	4604      	mov	r4, r0
  1042d4:	2108      	movs	r1, #8
  1042d6:	2200      	movs	r2, #0
  1042d8:	f004 f820 	bl	10831c <mbed::SPI::format(int, int)>
  1042dc:	4620      	mov	r0, r4
  1042de:	e8bd 4010 	ldmia.w	sp!, {r4, lr}
  1042e2:	4901      	ldr	r1, [pc, #4]	; (1042e8 <NHD_C0216CZ::resetSpiParams()+0x18>)
  1042e4:	f004 b832 	b.w	10834c <mbed::SPI::frequency(int)>
  1042e8:	000f4240 	.word	0x000f4240

001042ec <NHD_C0216CZ::sendCommand(unsigned char)>:
  1042ec:	b538      	push	{r3, r4, r5, lr}
  1042ee:	4604      	mov	r4, r0
  1042f0:	460d      	mov	r5, r1
  1042f2:	4811      	ldr	r0, [pc, #68]	; (104338 <NHD_C0216CZ::sendCommand(unsigned char)+0x4c>)
  1042f4:	f04f 31ff 	mov.w	r1, #4294967295
  1042f8:	f004 fe85 	bl	109006 <rtos::Mutex::lock(unsigned long)>
  1042fc:	4620      	mov	r0, r4
  1042fe:	f7ff ffd9 	bl	1042b4 <NHD_C0216CZ::setSpiParams()>
  104302:	4620      	mov	r0, r4
  104304:	f7ff ff8a 	bl	10421c <NHD_C0216CZ::i2cCsEnable()>
  104308:	4620      	mov	r0, r4
  10430a:	2100      	movs	r1, #0
  10430c:	f7ff ffb4 	bl	104278 <NHD_C0216CZ::setRsPin(NHD_C0216CZ::LEVEL_T)>
  104310:	4629      	mov	r1, r5
  104312:	4620      	mov	r0, r4
  104314:	f004 f830 	bl	108378 <mbed::SPI::write(int)>
  104318:	4620      	mov	r0, r4
  10431a:	f7ff ff9c 	bl	104256 <NHD_C0216CZ::i2cCsDisable()>
  10431e:	2d01      	cmp	r5, #1
  104320:	4620      	mov	r0, r4
  104322:	bf04      	itt	eq
  104324:	63a5      	streq	r5, [r4, #56]	; 0x38
  104326:	63e5      	streq	r5, [r4, #60]	; 0x3c
  104328:	f7ff ffd2 	bl	1042d0 <NHD_C0216CZ::resetSpiParams()>
  10432c:	e8bd 4038 	ldmia.w	sp!, {r3, r4, r5, lr}
  104330:	4801      	ldr	r0, [pc, #4]	; (104338 <NHD_C0216CZ::sendCommand(unsigned char)+0x4c>)
  104332:	f004 be6b 	b.w	10900c <rtos::Mutex::unlock()>
  104336:	bf00      	nop
  104338:	3fff67f8 	.word	0x3fff67f8

0010433c <NHD_C0216CZ::clearDisplay()>:
  10433c:	2101      	movs	r1, #1
  10433e:	f7ff bfd5 	b.w	1042ec <NHD_C0216CZ::sendCommand(unsigned char)>

00104342 <NHD_C0216CZ::setPosition(int, int)>:
  104342:	b573      	push	{r0, r1, r4, r5, r6, lr}
  104344:	f10d 0307 	add.w	r3, sp, #7
  104348:	4604      	mov	r4, r0
  10434a:	4615      	mov	r5, r2
  10434c:	f7ff ff57 	bl	1041fe <NHD_C0216CZ::getDdramAddr(int, int, unsigned char*)>
  104350:	b150      	cbz	r0, 104368 <NHD_C0216CZ::setPosition(int, int)+0x26>
  104352:	63a1      	str	r1, [r4, #56]	; 0x38
  104354:	f89d 1007 	ldrb.w	r1, [sp, #7]
  104358:	4620      	mov	r0, r4
  10435a:	63e5      	str	r5, [r4, #60]	; 0x3c
  10435c:	f041 0180 	orr.w	r1, r1, #128	; 0x80
  104360:	f7ff ffc4 	bl	1042ec <NHD_C0216CZ::sendCommand(unsigned char)>
  104364:	2000      	movs	r0, #0
  104366:	e001      	b.n	10436c <NHD_C0216CZ::setPosition(int, int)+0x2a>
  104368:	f04f 30ff 	mov.w	r0, #4294967295
  10436c:	b002      	add	sp, #8
  10436e:	bd70      	pop	{r4, r5, r6, pc}

00104370 <NHD_C0216CZ::intializeLcd()>:
  104370:	b510      	push	{r4, lr}
  104372:	4604      	mov	r4, r0
  104374:	2130      	movs	r1, #48	; 0x30
  104376:	f7ff ffb9 	bl	1042ec <NHD_C0216CZ::sendCommand(unsigned char)>
  10437a:	2002      	movs	r0, #2
  10437c:	f004 fd3c 	bl	108df8 <wait_ms>
  104380:	4620      	mov	r0, r4
  104382:	2130      	movs	r1, #48	; 0x30
  104384:	f7ff ffb2 	bl	1042ec <NHD_C0216CZ::sendCommand(unsigned char)>
  104388:	4620      	mov	r0, r4
  10438a:	2130      	movs	r1, #48	; 0x30
  10438c:	f7ff ffae 	bl	1042ec <NHD_C0216CZ::sendCommand(unsigned char)>
  104390:	4620      	mov	r0, r4
  104392:	2139      	movs	r1, #57	; 0x39
  104394:	f7ff ffaa 	bl	1042ec <NHD_C0216CZ::sendCommand(unsigned char)>
  104398:	4620      	mov	r0, r4
  10439a:	2114      	movs	r1, #20
  10439c:	f7ff ffa6 	bl	1042ec <NHD_C0216CZ::sendCommand(unsigned char)>
  1043a0:	4620      	mov	r0, r4
  1043a2:	2156      	movs	r1, #86	; 0x56
  1043a4:	f7ff ffa2 	bl	1042ec <NHD_C0216CZ::sendCommand(unsigned char)>
  1043a8:	4620      	mov	r0, r4
  1043aa:	216d      	movs	r1, #109	; 0x6d
  1043ac:	f7ff ff9e 	bl	1042ec <NHD_C0216CZ::sendCommand(unsigned char)>
  1043b0:	4620      	mov	r0, r4
  1043b2:	2170      	movs	r1, #112	; 0x70
  1043b4:	f7ff ff9a 	bl	1042ec <NHD_C0216CZ::sendCommand(unsigned char)>
  1043b8:	4620      	mov	r0, r4
  1043ba:	210c      	movs	r1, #12
  1043bc:	f7ff ff96 	bl	1042ec <NHD_C0216CZ::sendCommand(unsigned char)>
  1043c0:	4620      	mov	r0, r4
  1043c2:	2106      	movs	r1, #6
  1043c4:	f7ff ff92 	bl	1042ec <NHD_C0216CZ::sendCommand(unsigned char)>
  1043c8:	4620      	mov	r0, r4
  1043ca:	2101      	movs	r1, #1
  1043cc:	f7ff ff8e 	bl	1042ec <NHD_C0216CZ::sendCommand(unsigned char)>
  1043d0:	e8bd 4010 	ldmia.w	sp!, {r4, lr}
  1043d4:	200a      	movs	r0, #10
  1043d6:	f004 bd0f 	b.w	108df8 <wait_ms>
	...

001043dc <NHD_C0216CZ::init()>:
  1043dc:	b538      	push	{r3, r4, r5, lr}
  1043de:	4604      	mov	r4, r0
  1043e0:	f100 0540 	add.w	r5, r0, #64	; 0x40
  1043e4:	4628      	mov	r0, r5
  1043e6:	490f      	ldr	r1, [pc, #60]	; (104424 <NHD_C0216CZ::init()+0x48>)
  1043e8:	f7ff fe52 	bl	104090 <PCA9655E::frequency(int)>
  1043ec:	2300      	movs	r3, #0
  1043ee:	4619      	mov	r1, r3
  1043f0:	4628      	mov	r0, r5
  1043f2:	2202      	movs	r2, #2
  1043f4:	f7ff fecc 	bl	104190 <PCA9655E::setDirection(Port, signed char, Direction)>
  1043f8:	2300      	movs	r3, #0
  1043fa:	4619      	mov	r1, r3
  1043fc:	2203      	movs	r2, #3
  1043fe:	4628      	mov	r0, r5
  104400:	f7ff fec6 	bl	104190 <PCA9655E::setDirection(Port, signed char, Direction)>
  104404:	4620      	mov	r0, r4
  104406:	f7ff ff26 	bl	104256 <NHD_C0216CZ::i2cCsDisable()>
  10440a:	4620      	mov	r0, r4
  10440c:	f7ff ff52 	bl	1042b4 <NHD_C0216CZ::setSpiParams()>
  104410:	4620      	mov	r0, r4
  104412:	f7ff ffad 	bl	104370 <NHD_C0216CZ::intializeLcd()>
  104416:	2201      	movs	r2, #1
  104418:	4620      	mov	r0, r4
  10441a:	e8bd 4038 	ldmia.w	sp!, {r3, r4, r5, lr}
  10441e:	4611      	mov	r1, r2
  104420:	f7ff bf8f 	b.w	104342 <NHD_C0216CZ::setPosition(int, int)>
  104424:	000f4240 	.word	0x000f4240

00104428 <NHD_C0216CZ::sendData(char const*, int)>:
  104428:	e92d 41f0 	stmdb	sp!, {r4, r5, r6, r7, r8, lr}
  10442c:	1e16      	subs	r6, r2, #0
  10442e:	4604      	mov	r4, r0
  104430:	460d      	mov	r5, r1
  104432:	dd48      	ble.n	1044c6 <NHD_C0216CZ::sendData(char const*, int)+0x9e>
  104434:	2900      	cmp	r1, #0
  104436:	d046      	beq.n	1044c6 <NHD_C0216CZ::sendData(char const*, int)+0x9e>
  104438:	f04f 31ff 	mov.w	r1, #4294967295
  10443c:	4824      	ldr	r0, [pc, #144]	; (1044d0 <NHD_C0216CZ::sendData(char const*, int)+0xa8>)
  10443e:	f004 fde2 	bl	109006 <rtos::Mutex::lock(unsigned long)>
  104442:	4620      	mov	r0, r4
  104444:	f7ff ff36 	bl	1042b4 <NHD_C0216CZ::setSpiParams()>
  104448:	4620      	mov	r0, r4
  10444a:	f7ff fee7 	bl	10421c <NHD_C0216CZ::i2cCsEnable()>
  10444e:	2101      	movs	r1, #1
  104450:	4620      	mov	r0, r4
  104452:	f7ff ff11 	bl	104278 <NHD_C0216CZ::setRsPin(NHD_C0216CZ::LEVEL_T)>
  104456:	442e      	add	r6, r5
  104458:	f04f 0801 	mov.w	r8, #1
  10445c:	6be3      	ldr	r3, [r4, #60]	; 0x3c
  10445e:	f815 7b01 	ldrb.w	r7, [r5], #1
  104462:	2b10      	cmp	r3, #16
  104464:	dc09      	bgt.n	10447a <NHD_C0216CZ::sendData(char const*, int)+0x52>
  104466:	2f0a      	cmp	r7, #10
  104468:	d007      	beq.n	10447a <NHD_C0216CZ::sendData(char const*, int)+0x52>
  10446a:	4639      	mov	r1, r7
  10446c:	4620      	mov	r0, r4
  10446e:	f003 ff83 	bl	108378 <mbed::SPI::write(int)>
  104472:	6be3      	ldr	r3, [r4, #60]	; 0x3c
  104474:	3301      	adds	r3, #1
  104476:	63e3      	str	r3, [r4, #60]	; 0x3c
  104478:	e017      	b.n	1044aa <NHD_C0216CZ::sendData(char const*, int)+0x82>
  10447a:	6ba1      	ldr	r1, [r4, #56]	; 0x38
  10447c:	2201      	movs	r2, #1
  10447e:	3101      	adds	r1, #1
  104480:	2902      	cmp	r1, #2
  104482:	bfc8      	it	gt
  104484:	2101      	movgt	r1, #1
  104486:	63a1      	str	r1, [r4, #56]	; 0x38
  104488:	f8c4 803c 	str.w	r8, [r4, #60]	; 0x3c
  10448c:	4620      	mov	r0, r4
  10448e:	f7ff ff58 	bl	104342 <NHD_C0216CZ::setPosition(int, int)>
  104492:	4620      	mov	r0, r4
  104494:	f7ff ff0e 	bl	1042b4 <NHD_C0216CZ::setSpiParams()>
  104498:	2101      	movs	r1, #1
  10449a:	4620      	mov	r0, r4
  10449c:	f7ff feec 	bl	104278 <NHD_C0216CZ::setRsPin(NHD_C0216CZ::LEVEL_T)>
  1044a0:	4620      	mov	r0, r4
  1044a2:	f7ff febb 	bl	10421c <NHD_C0216CZ::i2cCsEnable()>
  1044a6:	2f0a      	cmp	r7, #10
  1044a8:	d1df      	bne.n	10446a <NHD_C0216CZ::sendData(char const*, int)+0x42>
  1044aa:	42b5      	cmp	r5, r6
  1044ac:	d1d6      	bne.n	10445c <NHD_C0216CZ::sendData(char const*, int)+0x34>
  1044ae:	4620      	mov	r0, r4
  1044b0:	f7ff fed1 	bl	104256 <NHD_C0216CZ::i2cCsDisable()>
  1044b4:	4620      	mov	r0, r4
  1044b6:	f7ff ff0b 	bl	1042d0 <NHD_C0216CZ::resetSpiParams()>
  1044ba:	4805      	ldr	r0, [pc, #20]	; (1044d0 <NHD_C0216CZ::sendData(char const*, int)+0xa8>)
  1044bc:	f004 fda6 	bl	10900c <rtos::Mutex::unlock()>
  1044c0:	2000      	movs	r0, #0
  1044c2:	e8bd 81f0 	ldmia.w	sp!, {r4, r5, r6, r7, r8, pc}
  1044c6:	f04f 30ff 	mov.w	r0, #4294967295
  1044ca:	e8bd 81f0 	ldmia.w	sp!, {r4, r5, r6, r7, r8, pc}
  1044ce:	bf00      	nop
  1044d0:	3fff67f8 	.word	0x3fff67f8

001044d4 <NHD_C0216CZ::displayStringToPos(char const*, int, int)>:
  1044d4:	b570      	push	{r4, r5, r6, lr}
  1044d6:	4606      	mov	r6, r0
  1044d8:	4614      	mov	r4, r2
  1044da:	460d      	mov	r5, r1
  1044dc:	b911      	cbnz	r1, 1044e4 <NHD_C0216CZ::displayStringToPos(char const*, int, int)+0x10>
  1044de:	f04f 30ff 	mov.w	r0, #4294967295
  1044e2:	bd70      	pop	{r4, r5, r6, pc}
  1044e4:	461a      	mov	r2, r3
  1044e6:	4621      	mov	r1, r4
  1044e8:	f7ff ff2b 	bl	104342 <NHD_C0216CZ::setPosition(int, int)>
  1044ec:	2800      	cmp	r0, #0
  1044ee:	d1f6      	bne.n	1044de <NHD_C0216CZ::displayStringToPos(char const*, int, int)+0xa>
  1044f0:	462b      	mov	r3, r5
  1044f2:	1b5a      	subs	r2, r3, r5
  1044f4:	f813 4b01 	ldrb.w	r4, [r3], #1
  1044f8:	2c00      	cmp	r4, #0
  1044fa:	d1fa      	bne.n	1044f2 <NHD_C0216CZ::displayStringToPos(char const*, int, int)+0x1e>
  1044fc:	4629      	mov	r1, r5
  1044fe:	4630      	mov	r0, r6
  104500:	f7ff ff92 	bl	104428 <NHD_C0216CZ::sendData(char const*, int)>
  104504:	4620      	mov	r0, r4
  104506:	bd70      	pop	{r4, r5, r6, pc}

00104508 <NHD_C0216CZ::displayString(char const*)>:
  104508:	b570      	push	{r4, r5, r6, lr}
  10450a:	4604      	mov	r4, r0
  10450c:	460d      	mov	r5, r1
  10450e:	f7ff ff15 	bl	10433c <NHD_C0216CZ::clearDisplay()>
  104512:	2301      	movs	r3, #1
  104514:	4629      	mov	r1, r5
  104516:	4620      	mov	r0, r4
  104518:	e8bd 4070 	ldmia.w	sp!, {r4, r5, r6, lr}
  10451c:	461a      	mov	r2, r3
  10451e:	f7ff bfd9 	b.w	1044d4 <NHD_C0216CZ::displayStringToPos(char const*, int, int)>

00104522 <RSL10_BLE::spiCsEnable()>:
  104522:	2300      	movs	r3, #0
  104524:	461a      	mov	r2, r3
  104526:	2101      	movs	r1, #1
  104528:	3004      	adds	r0, #4
  10452a:	f7ff be01 	b.w	104130 <PCA9655E::setValue(Port, signed char, SetVal)>

0010452e <RSL10_BLE::spiCsDisable()>:
  10452e:	2301      	movs	r3, #1
  104530:	2200      	movs	r2, #0
  104532:	4619      	mov	r1, r3
  104534:	3004      	adds	r0, #4
  104536:	f7ff bdfb 	b.w	104130 <PCA9655E::setValue(Port, signed char, SetVal)>
	...

0010453c <RSL10_BLE::RSL10_BLE()>:
  10453c:	b573      	push	{r0, r1, r4, r5, r6, lr}
  10453e:	4604      	mov	r4, r0
  104540:	4605      	mov	r5, r0
  104542:	4b18      	ldr	r3, [pc, #96]	; (1045a4 <RSL10_BLE::RSL10_BLE()+0x68>)
  104544:	2202      	movs	r2, #2
  104546:	f844 3b04 	str.w	r3, [r4], #4
  10454a:	2311      	movs	r3, #17
  10454c:	9300      	str	r3, [sp, #0]
  10454e:	2103      	movs	r1, #3
  104550:	234a      	movs	r3, #74	; 0x4a
  104552:	4620      	mov	r0, r4
  104554:	f7ff fd88 	bl	104068 <PCA9655E::PCA9655E(PinName, PinName, unsigned char, PinName)>
  104558:	f105 0660 	add.w	r6, r5, #96	; 0x60
  10455c:	f04f 33ff 	mov.w	r3, #4294967295
  104560:	9300      	str	r3, [sp, #0]
  104562:	2206      	movs	r2, #6
  104564:	2304      	movs	r3, #4
  104566:	2105      	movs	r1, #5
  104568:	4630      	mov	r0, r6
  10456a:	f003 fead 	bl	1082c8 <mbed::SPI::SPI(PinName, PinName, PinName, PinName)>
  10456e:	2200      	movs	r2, #0
  104570:	4630      	mov	r0, r6
  104572:	2120      	movs	r1, #32
  104574:	f003 fed2 	bl	10831c <mbed::SPI::format(int, int)>
  104578:	4630      	mov	r0, r6
  10457a:	490b      	ldr	r1, [pc, #44]	; (1045a8 <RSL10_BLE::RSL10_BLE()+0x6c>)
  10457c:	f003 fee6 	bl	10834c <mbed::SPI::frequency(int)>
  104580:	2300      	movs	r3, #0
  104582:	461a      	mov	r2, r3
  104584:	2101      	movs	r1, #1
  104586:	4620      	mov	r0, r4
  104588:	f7ff fe02 	bl	104190 <PCA9655E::setDirection(Port, signed char, Direction)>
  10458c:	4628      	mov	r0, r5
  10458e:	f7ff ffce 	bl	10452e <RSL10_BLE::spiCsDisable()>
  104592:	2200      	movs	r2, #0
  104594:	4620      	mov	r0, r4
  104596:	2301      	movs	r3, #1
  104598:	4611      	mov	r1, r2
  10459a:	f7ff fdf9 	bl	104190 <PCA9655E::setDirection(Port, signed char, Direction)>
  10459e:	4628      	mov	r0, r5
  1045a0:	b002      	add	sp, #8
  1045a2:	bd70      	pop	{r4, r5, r6, pc}
  1045a4:	0010ff24 	.word	0x0010ff24
  1045a8:	000f4240 	.word	0x000f4240

001045ac <RSL10_BLE::send(char const*, unsigned int)>:
  1045ac:	e92d 41f0 	stmdb	sp!, {r4, r5, r6, r7, r8, lr}
  1045b0:	4607      	mov	r7, r0
  1045b2:	4615      	mov	r5, r2
  1045b4:	460c      	mov	r4, r1
  1045b6:	b921      	cbnz	r1, 1045c2 <RSL10_BLE::send(char const*, unsigned int)+0x16>
  1045b8:	225b      	movs	r2, #91	; 0x5b
  1045ba:	4920      	ldr	r1, [pc, #128]	; (10463c <RSL10_BLE::send(char const*, unsigned int)+0x90>)
  1045bc:	4820      	ldr	r0, [pc, #128]	; (104640 <RSL10_BLE::send(char const*, unsigned int)+0x94>)
  1045be:	f000 fa33 	bl	104a28 <mbed_assert_internal>
  1045c2:	2d14      	cmp	r5, #20
  1045c4:	d904      	bls.n	1045d0 <RSL10_BLE::send(char const*, unsigned int)+0x24>
  1045c6:	225c      	movs	r2, #92	; 0x5c
  1045c8:	491c      	ldr	r1, [pc, #112]	; (10463c <RSL10_BLE::send(char const*, unsigned int)+0x90>)
  1045ca:	481e      	ldr	r0, [pc, #120]	; (104644 <RSL10_BLE::send(char const*, unsigned int)+0x98>)
  1045cc:	f000 fa2c 	bl	104a28 <mbed_assert_internal>
  1045d0:	f04f 31ff 	mov.w	r1, #4294967295
  1045d4:	481c      	ldr	r0, [pc, #112]	; (104648 <RSL10_BLE::send(char const*, unsigned int)+0x9c>)
  1045d6:	f004 fd16 	bl	109006 <rtos::Mutex::lock(unsigned long)>
  1045da:	f107 0660 	add.w	r6, r7, #96	; 0x60
  1045de:	4638      	mov	r0, r7
  1045e0:	f7ff ff9f 	bl	104522 <RSL10_BLE::spiCsEnable()>
  1045e4:	4919      	ldr	r1, [pc, #100]	; (10464c <RSL10_BLE::send(char const*, unsigned int)+0xa0>)
  1045e6:	4630      	mov	r0, r6
  1045e8:	f003 fec6 	bl	108378 <mbed::SPI::write(int)>
  1045ec:	200a      	movs	r0, #10
  1045ee:	f004 fbdf 	bl	108db0 <wait_us>
  1045f2:	eb04 0805 	add.w	r8, r4, r5
  1045f6:	4544      	cmp	r4, r8
  1045f8:	d008      	beq.n	10460c <RSL10_BLE::send(char const*, unsigned int)+0x60>
  1045fa:	f814 1b01 	ldrb.w	r1, [r4], #1
  1045fe:	4630      	mov	r0, r6
  104600:	f003 feba 	bl	108378 <mbed::SPI::write(int)>
  104604:	200a      	movs	r0, #10
  104606:	f004 fbd3 	bl	108db0 <wait_us>
  10460a:	e7f4      	b.n	1045f6 <RSL10_BLE::send(char const*, unsigned int)+0x4a>
  10460c:	4910      	ldr	r1, [pc, #64]	; (104650 <RSL10_BLE::send(char const*, unsigned int)+0xa4>)
  10460e:	4630      	mov	r0, r6
  104610:	f003 feb2 	bl	108378 <mbed::SPI::write(int)>
  104614:	4606      	mov	r6, r0
  104616:	200a      	movs	r0, #10
  104618:	f004 fbca 	bl	108db0 <wait_us>
  10461c:	4638      	mov	r0, r7
  10461e:	f7ff ff86 	bl	10452e <RSL10_BLE::spiCsDisable()>
  104622:	f814 3c01 	ldrb.w	r3, [r4, #-1]
  104626:	b2f6      	uxtb	r6, r6
  104628:	42b3      	cmp	r3, r6
  10462a:	bf18      	it	ne
  10462c:	f04f 35ff 	movne.w	r5, #4294967295
  104630:	4805      	ldr	r0, [pc, #20]	; (104648 <RSL10_BLE::send(char const*, unsigned int)+0x9c>)
  104632:	f004 fceb 	bl	10900c <rtos::Mutex::unlock()>
  104636:	4628      	mov	r0, r5
  104638:	e8bd 81f0 	ldmia.w	sp!, {r4, r5, r6, r7, r8, pc}
  10463c:	0011014d 	.word	0x0011014d
  104640:	0011015b 	.word	0x0011015b
  104644:	00110167 	.word	0x00110167
  104648:	3fff67f8 	.word	0x3fff67f8
  10464c:	f0000002 	.word	0xf0000002
  104650:	f0000004 	.word	0xf0000004

00104654 <RSL10_BLE::readable()>:
  104654:	b538      	push	{r3, r4, r5, lr}
  104656:	4605      	mov	r5, r0
  104658:	4c09      	ldr	r4, [pc, #36]	; (104680 <RSL10_BLE::readable()+0x2c>)
  10465a:	f04f 31ff 	mov.w	r1, #4294967295
  10465e:	4620      	mov	r0, r4
  104660:	f004 fcd1 	bl	109006 <rtos::Mutex::lock(unsigned long)>
  104664:	2200      	movs	r2, #0
  104666:	4611      	mov	r1, r2
  104668:	1d28      	adds	r0, r5, #4
  10466a:	f7ff fd43 	bl	1040f4 <PCA9655E::readPinVal(Port, signed char)>
  10466e:	4605      	mov	r5, r0
  104670:	4620      	mov	r0, r4
  104672:	f004 fccb 	bl	10900c <rtos::Mutex::unlock()>
  104676:	fab5 f085 	clz	r0, r5
  10467a:	0940      	lsrs	r0, r0, #5
  10467c:	bd38      	pop	{r3, r4, r5, pc}
  10467e:	bf00      	nop
  104680:	3fff67f8 	.word	0x3fff67f8

00104684 <RSL10_BLE::readableNoLock()>:
  104684:	2200      	movs	r2, #0
  104686:	b508      	push	{r3, lr}
  104688:	4611      	mov	r1, r2
  10468a:	3004      	adds	r0, #4
  10468c:	f7ff fd32 	bl	1040f4 <PCA9655E::readPinVal(Port, signed char)>
  104690:	fab0 f080 	clz	r0, r0
  104694:	0940      	lsrs	r0, r0, #5
  104696:	bd08      	pop	{r3, pc}

00104698 <RSL10_BLE::recv(char*, unsigned int)>:
  104698:	e92d 4ff7 	stmdb	sp!, {r0, r1, r2, r4, r5, r6, r7, r8, r9, r10, r11, lr}
  10469c:	4680      	mov	r8, r0
  10469e:	4692      	mov	r10, r2
  1046a0:	4689      	mov	r9, r1
  1046a2:	b921      	cbnz	r1, 1046ae <RSL10_BLE::recv(char*, unsigned int)+0x16>
  1046a4:	227d      	movs	r2, #125	; 0x7d
  1046a6:	492a      	ldr	r1, [pc, #168]	; (104750 <RSL10_BLE::recv(char*, unsigned int)+0xb8>)
  1046a8:	482a      	ldr	r0, [pc, #168]	; (104754 <RSL10_BLE::recv(char*, unsigned int)+0xbc>)
  1046aa:	f000 f9bd 	bl	104a28 <mbed_assert_internal>
  1046ae:	f1ba 0f14 	cmp.w	r10, #20
  1046b2:	d904      	bls.n	1046be <RSL10_BLE::recv(char*, unsigned int)+0x26>
  1046b4:	227e      	movs	r2, #126	; 0x7e
  1046b6:	4926      	ldr	r1, [pc, #152]	; (104750 <RSL10_BLE::recv(char*, unsigned int)+0xb8>)
  1046b8:	4827      	ldr	r0, [pc, #156]	; (104758 <RSL10_BLE::recv(char*, unsigned int)+0xc0>)
  1046ba:	f000 f9b5 	bl	104a28 <mbed_assert_internal>
  1046be:	f04f 31ff 	mov.w	r1, #4294967295
  1046c2:	4826      	ldr	r0, [pc, #152]	; (10475c <RSL10_BLE::recv(char*, unsigned int)+0xc4>)
  1046c4:	f004 fc9f 	bl	109006 <rtos::Mutex::lock(unsigned long)>
  1046c8:	4640      	mov	r0, r8
  1046ca:	f7ff ffdb 	bl	104684 <RSL10_BLE::readableNoLock()>
  1046ce:	b3b0      	cbz	r0, 10473e <RSL10_BLE::recv(char*, unsigned int)+0xa6>
  1046d0:	464d      	mov	r5, r9
  1046d2:	4640      	mov	r0, r8
  1046d4:	f108 0660 	add.w	r6, r8, #96	; 0x60
  1046d8:	f7ff ff23 	bl	104522 <RSL10_BLE::spiCsEnable()>
  1046dc:	4920      	ldr	r1, [pc, #128]	; (104760 <RSL10_BLE::recv(char*, unsigned int)+0xc8>)
  1046de:	4630      	mov	r0, r6
  1046e0:	f003 fe4a 	bl	108378 <mbed::SPI::write(int)>
  1046e4:	200a      	movs	r0, #10
  1046e6:	f004 fb63 	bl	108db0 <wait_us>
  1046ea:	4b1e      	ldr	r3, [pc, #120]	; (104764 <RSL10_BLE::recv(char*, unsigned int)+0xcc>)
  1046ec:	4a1e      	ldr	r2, [pc, #120]	; (104768 <RSL10_BLE::recv(char*, unsigned int)+0xd0>)
  1046ee:	eb09 0b0a 	add.w	r11, r9, r10
  1046f2:	455d      	cmp	r5, r11
  1046f4:	9201      	str	r2, [sp, #4]
  1046f6:	9300      	str	r3, [sp, #0]
  1046f8:	ebc9 0405 	rsb	r4, r9, r5
  1046fc:	d012      	beq.n	104724 <RSL10_BLE::recv(char*, unsigned int)+0x8c>
  1046fe:	2100      	movs	r1, #0
  104700:	4630      	mov	r0, r6
  104702:	f003 fe39 	bl	108378 <mbed::SPI::write(int)>
  104706:	4607      	mov	r7, r0
  104708:	200a      	movs	r0, #10
  10470a:	f004 fb51 	bl	108db0 <wait_us>
  10470e:	9b00      	ldr	r3, [sp, #0]
  104710:	429f      	cmp	r7, r3
  104712:	d007      	beq.n	104724 <RSL10_BLE::recv(char*, unsigned int)+0x8c>
  104714:	9a01      	ldr	r2, [sp, #4]
  104716:	4297      	cmp	r7, r2
  104718:	d002      	beq.n	104720 <RSL10_BLE::recv(char*, unsigned int)+0x88>
  10471a:	f805 7b01 	strb.w	r7, [r5], #1
  10471e:	e7e8      	b.n	1046f2 <RSL10_BLE::recv(char*, unsigned int)+0x5a>
  104720:	f04f 34ff 	mov.w	r4, #4294967295
  104724:	4554      	cmp	r4, r10
  104726:	d106      	bne.n	104736 <RSL10_BLE::recv(char*, unsigned int)+0x9e>
  104728:	490e      	ldr	r1, [pc, #56]	; (104764 <RSL10_BLE::recv(char*, unsigned int)+0xcc>)
  10472a:	4630      	mov	r0, r6
  10472c:	f003 fe24 	bl	108378 <mbed::SPI::write(int)>
  104730:	200a      	movs	r0, #10
  104732:	f004 fb3d 	bl	108db0 <wait_us>
  104736:	4640      	mov	r0, r8
  104738:	f7ff fef9 	bl	10452e <RSL10_BLE::spiCsDisable()>
  10473c:	e000      	b.n	104740 <RSL10_BLE::recv(char*, unsigned int)+0xa8>
  10473e:	4604      	mov	r4, r0
  104740:	4806      	ldr	r0, [pc, #24]	; (10475c <RSL10_BLE::recv(char*, unsigned int)+0xc4>)
  104742:	f004 fc63 	bl	10900c <rtos::Mutex::unlock()>
  104746:	4620      	mov	r0, r4
  104748:	b003      	add	sp, #12
  10474a:	e8bd 8ff0 	ldmia.w	sp!, {r4, r5, r6, r7, r8, r9, r10, r11, pc}
  10474e:	bf00      	nop
  104750:	0011014d 	.word	0x0011014d
  104754:	0011015b 	.word	0x0011015b
  104758:	00110167 	.word	0x00110167
  10475c:	3fff67f8 	.word	0x3fff67f8
  104760:	f0000001 	.word	0xf0000001
  104764:	f0000004 	.word	0xf0000004
  104768:	f0000010 	.word	0xf0000010

0010476c <_gpio_init_in>:
  10476c:	b570      	push	{r4, r5, r6, lr}
  10476e:	460e      	mov	r6, r1
  104770:	4604      	mov	r4, r0
  104772:	4615      	mov	r5, r2
  104774:	f002 f926 	bl	1069c4 <gpio_init>
  104778:	3601      	adds	r6, #1
  10477a:	d009      	beq.n	104790 <_gpio_init_in+0x24>
  10477c:	4620      	mov	r0, r4
  10477e:	2100      	movs	r1, #0
  104780:	f002 f94a 	bl	106a18 <gpio_dir>
  104784:	4629      	mov	r1, r5
  104786:	4620      	mov	r0, r4
  104788:	e8bd 4070 	ldmia.w	sp!, {r4, r5, r6, lr}
  10478c:	f002 b940 	b.w	106a10 <gpio_mode>
  104790:	bd70      	pop	{r4, r5, r6, pc}

00104792 <gpio_init_in>:
  104792:	b538      	push	{r3, r4, r5, lr}
  104794:	460c      	mov	r4, r1
  104796:	2201      	movs	r2, #1
  104798:	4605      	mov	r5, r0
  10479a:	f7ff ffe7 	bl	10476c <_gpio_init_in>
  10479e:	2c0f      	cmp	r4, #15
  1047a0:	d106      	bne.n	1047b0 <gpio_init_in+0x1e>
  1047a2:	4621      	mov	r1, r4
  1047a4:	4628      	mov	r0, r5
  1047a6:	e8bd 4038 	ldmia.w	sp!, {r3, r4, r5, lr}
  1047aa:	2201      	movs	r2, #1
  1047ac:	f7ff bfde 	b.w	10476c <_gpio_init_in>
  1047b0:	bd38      	pop	{r3, r4, r5, pc}

001047b2 <gpio_init_out_ex>:
  1047b2:	b570      	push	{r4, r5, r6, lr}
  1047b4:	460e      	mov	r6, r1
  1047b6:	4604      	mov	r4, r0
  1047b8:	4615      	mov	r5, r2
  1047ba:	f002 f903 	bl	1069c4 <gpio_init>
  1047be:	3601      	adds	r6, #1
  1047c0:	d00d      	beq.n	1047de <gpio_init_out_ex+0x2c>
  1047c2:	4629      	mov	r1, r5
  1047c4:	4620      	mov	r0, r4
  1047c6:	f002 f939 	bl	106a3c <gpio_write>
  1047ca:	4620      	mov	r0, r4
  1047cc:	2101      	movs	r1, #1
  1047ce:	f002 f923 	bl	106a18 <gpio_dir>
  1047d2:	4620      	mov	r0, r4
  1047d4:	e8bd 4070 	ldmia.w	sp!, {r4, r5, r6, lr}
  1047d8:	2101      	movs	r1, #1
  1047da:	f002 b919 	b.w	106a10 <gpio_mode>
  1047de:	bd70      	pop	{r4, r5, r6, pc}

001047e0 <gpio_init_out>:
  1047e0:	2200      	movs	r2, #0
  1047e2:	f7ff bfe6 	b.w	1047b2 <gpio_init_out_ex>
	...

001047e8 <lp_ticker_irq_handler>:
  1047e8:	4801      	ldr	r0, [pc, #4]	; (1047f0 <lp_ticker_irq_handler+0x8>)
  1047ea:	f000 b8a4 	b.w	104936 <ticker_irq_handler>
  1047ee:	bf00      	nop
  1047f0:	00110198 	.word	0x00110198

001047f4 <pinmap_pinout>:
  1047f4:	b510      	push	{r4, lr}
  1047f6:	4604      	mov	r4, r0
  1047f8:	3001      	adds	r0, #1
  1047fa:	d101      	bne.n	104800 <pinmap_pinout+0xc>
  1047fc:	bd10      	pop	{r4, pc}
  1047fe:	310c      	adds	r1, #12
  104800:	f991 3000 	ldrsb.w	r3, [r1]
  104804:	1c5a      	adds	r2, r3, #1
  104806:	d00b      	beq.n	104820 <pinmap_pinout+0x2c>
  104808:	429c      	cmp	r4, r3
  10480a:	d1f8      	bne.n	1047fe <pinmap_pinout+0xa>
  10480c:	4620      	mov	r0, r4
  10480e:	6889      	ldr	r1, [r1, #8]
  104810:	f002 ff78 	bl	107704 <pin_function>
  104814:	4620      	mov	r0, r4
  104816:	e8bd 4010 	ldmia.w	sp!, {r4, lr}
  10481a:	2101      	movs	r1, #1
  10481c:	f002 bf84 	b.w	107728 <pin_mode>
  104820:	4802      	ldr	r0, [pc, #8]	; (10482c <pinmap_pinout+0x38>)
  104822:	e8bd 4010 	ldmia.w	sp!, {r4, lr}
  104826:	f000 b9a1 	b.w	104b6c <error>
  10482a:	bf00      	nop
  10482c:	001101a0 	.word	0x001101a0

00104830 <pinmap_merge>:
  104830:	4288      	cmp	r0, r1
  104832:	b508      	push	{r3, lr}
  104834:	d00a      	beq.n	10484c <pinmap_merge+0x1c>
  104836:	1c43      	adds	r3, r0, #1
  104838:	d007      	beq.n	10484a <pinmap_merge+0x1a>
  10483a:	3101      	adds	r1, #1
  10483c:	d006      	beq.n	10484c <pinmap_merge+0x1c>
  10483e:	4804      	ldr	r0, [pc, #16]	; (104850 <pinmap_merge+0x20>)
  104840:	f000 f994 	bl	104b6c <error>
  104844:	f04f 30ff 	mov.w	r0, #4294967295
  104848:	bd08      	pop	{r3, pc}
  10484a:	4608      	mov	r0, r1
  10484c:	bd08      	pop	{r3, pc}
  10484e:	bf00      	nop
  104850:	001101b1 	.word	0x001101b1

00104854 <pinmap_find_peripheral>:
  104854:	f991 3000 	ldrsb.w	r3, [r1]
  104858:	1c5a      	adds	r2, r3, #1
  10485a:	d005      	beq.n	104868 <pinmap_find_peripheral+0x14>
  10485c:	4283      	cmp	r3, r0
  10485e:	d101      	bne.n	104864 <pinmap_find_peripheral+0x10>
  104860:	6848      	ldr	r0, [r1, #4]
  104862:	4770      	bx	lr
  104864:	310c      	adds	r1, #12
  104866:	e7f5      	b.n	104854 <pinmap_find_peripheral>
  104868:	4618      	mov	r0, r3
  10486a:	4770      	bx	lr

0010486c <pinmap_peripheral>:
  10486c:	1c42      	adds	r2, r0, #1
  10486e:	b510      	push	{r4, lr}
  104870:	4604      	mov	r4, r0
  104872:	d007      	beq.n	104884 <pinmap_peripheral+0x18>
  104874:	f7ff ffee 	bl	104854 <pinmap_find_peripheral>
  104878:	1c43      	adds	r3, r0, #1
  10487a:	4604      	mov	r4, r0
  10487c:	d102      	bne.n	104884 <pinmap_peripheral+0x18>
  10487e:	4802      	ldr	r0, [pc, #8]	; (104888 <pinmap_peripheral+0x1c>)
  104880:	f000 f974 	bl	104b6c <error>
  104884:	4620      	mov	r0, r4
  104886:	bd10      	pop	{r4, pc}
  104888:	001101c2 	.word	0x001101c2

0010488c <update_present_time>:
  10488c:	6803      	ldr	r3, [r0, #0]
  10488e:	b5d0      	push	{r4, r6, r7, lr}
  104890:	6844      	ldr	r4, [r0, #4]
  104892:	685b      	ldr	r3, [r3, #4]
  104894:	e9d4 6702 	ldrd	r6, r7, [r4, #8]
  104898:	4798      	blx	r3
  10489a:	2200      	movs	r2, #0
  10489c:	42b0      	cmp	r0, r6
  10489e:	ea42 0200 	orr.w	r2, r2, r0
  1048a2:	463b      	mov	r3, r7
  1048a4:	d202      	bcs.n	1048ac <update_present_time+0x20>
  1048a6:	3200      	adds	r2, #0
  1048a8:	f147 0301 	adc.w	r3, r7, #1
  1048ac:	e9c4 2302 	strd	r2, r3, [r4, #8]
  1048b0:	bdd0      	pop	{r4, r6, r7, pc}

001048b2 <schedule_interrupt>:
  1048b2:	e92d 4370 	stmdb	sp!, {r4, r5, r6, r8, r9, lr}
  1048b6:	4606      	mov	r6, r0
  1048b8:	f7ff ffe8 	bl	10488c <update_present_time>
  1048bc:	6871      	ldr	r1, [r6, #4]
  1048be:	684b      	ldr	r3, [r1, #4]
  1048c0:	b1ab      	cbz	r3, 1048ee <schedule_interrupt+0x3c>
  1048c2:	e9d1 4502 	ldrd	r4, r5, [r1, #8]
  1048c6:	e9d3 2300 	ldrd	r2, r3, [r3]
  1048ca:	42ab      	cmp	r3, r5
  1048cc:	bf08      	it	eq
  1048ce:	42a2      	cmpeq	r2, r4
  1048d0:	d30b      	bcc.n	1048ea <schedule_interrupt+0x38>
  1048d2:	ebb2 0804 	subs.w	r8, r2, r4
  1048d6:	eb63 0905 	sbc.w	r9, r3, r5
  1048da:	f1b9 0f00 	cmp.w	r9, #0
  1048de:	bf08      	it	eq
  1048e0:	f1b8 4fe0 	cmpeq.w	r8, #1879048192	; 0x70000000
  1048e4:	d203      	bcs.n	1048ee <schedule_interrupt+0x3c>
  1048e6:	1b12      	subs	r2, r2, r4
  1048e8:	e003      	b.n	1048f2 <schedule_interrupt+0x40>
  1048ea:	2200      	movs	r2, #0
  1048ec:	e001      	b.n	1048f2 <schedule_interrupt+0x40>
  1048ee:	f04f 42e0 	mov.w	r2, #1879048192	; 0x70000000
  1048f2:	6833      	ldr	r3, [r6, #0]
  1048f4:	6888      	ldr	r0, [r1, #8]
  1048f6:	691b      	ldr	r3, [r3, #16]
  1048f8:	4410      	add	r0, r2
  1048fa:	e8bd 4370 	ldmia.w	sp!, {r4, r5, r6, r8, r9, lr}
  1048fe:	4718      	bx	r3

00104900 <ticker_set_handler>:
  104900:	6843      	ldr	r3, [r0, #4]
  104902:	b570      	push	{r4, r5, r6, lr}
  104904:	7c1d      	ldrb	r5, [r3, #16]
  104906:	4604      	mov	r4, r0
  104908:	460e      	mov	r6, r1
  10490a:	b98d      	cbnz	r5, 104930 <ticker_set_handler+0x30>
  10490c:	6803      	ldr	r3, [r0, #0]
  10490e:	681b      	ldr	r3, [r3, #0]
  104910:	4798      	blx	r3
  104912:	6863      	ldr	r3, [r4, #4]
  104914:	2000      	movs	r0, #0
  104916:	2100      	movs	r1, #0
  104918:	2201      	movs	r2, #1
  10491a:	e9c3 0102 	strd	r0, r1, [r3, #8]
  10491e:	601d      	str	r5, [r3, #0]
  104920:	4620      	mov	r0, r4
  104922:	605d      	str	r5, [r3, #4]
  104924:	741a      	strb	r2, [r3, #16]
  104926:	f7ff ffb1 	bl	10488c <update_present_time>
  10492a:	4620      	mov	r0, r4
  10492c:	f7ff ffc1 	bl	1048b2 <schedule_interrupt>
  104930:	6863      	ldr	r3, [r4, #4]
  104932:	601e      	str	r6, [r3, #0]
  104934:	bd70      	pop	{r4, r5, r6, pc}

00104936 <ticker_irq_handler>:
  104936:	6803      	ldr	r3, [r0, #0]
  104938:	b570      	push	{r4, r5, r6, lr}
  10493a:	68db      	ldr	r3, [r3, #12]
  10493c:	4604      	mov	r4, r0
  10493e:	4798      	blx	r3
  104940:	6863      	ldr	r3, [r4, #4]
  104942:	685b      	ldr	r3, [r3, #4]
  104944:	b1a3      	cbz	r3, 104970 <ticker_irq_handler+0x3a>
  104946:	4620      	mov	r0, r4
  104948:	f7ff ffa0 	bl	10488c <update_present_time>
  10494c:	6865      	ldr	r5, [r4, #4]
  10494e:	686e      	ldr	r6, [r5, #4]
  104950:	e9d5 0102 	ldrd	r0, r1, [r5, #8]
  104954:	e9d6 2300 	ldrd	r2, r3, [r6]
  104958:	4299      	cmp	r1, r3
  10495a:	bf08      	it	eq
  10495c:	4290      	cmpeq	r0, r2
  10495e:	d307      	bcc.n	104970 <ticker_irq_handler+0x3a>
  104960:	68f3      	ldr	r3, [r6, #12]
  104962:	606b      	str	r3, [r5, #4]
  104964:	682b      	ldr	r3, [r5, #0]
  104966:	2b00      	cmp	r3, #0
  104968:	d0ea      	beq.n	104940 <ticker_irq_handler+0xa>
  10496a:	68b0      	ldr	r0, [r6, #8]
  10496c:	4798      	blx	r3
  10496e:	e7e7      	b.n	104940 <ticker_irq_handler+0xa>
  104970:	4620      	mov	r0, r4
  104972:	e8bd 4070 	ldmia.w	sp!, {r4, r5, r6, lr}
  104976:	f7ff bf9c 	b.w	1048b2 <schedule_interrupt>

0010497a <ticker_insert_event_us>:
  10497a:	e92d 43f8 	stmdb	sp!, {r3, r4, r5, r6, r7, r8, r9, lr}
  10497e:	4605      	mov	r5, r0
  104980:	460c      	mov	r4, r1
  104982:	4616      	mov	r6, r2
  104984:	461f      	mov	r7, r3
  104986:	f8dd 8020 	ldr.w	r8, [sp, #32]
  10498a:	f000 f8a5 	bl	104ad8 <core_util_critical_section_enter>
  10498e:	4628      	mov	r0, r5
  104990:	f7ff ff7c 	bl	10488c <update_present_time>
  104994:	6869      	ldr	r1, [r5, #4]
  104996:	e9c4 6700 	strd	r6, r7, [r4]
  10499a:	684b      	ldr	r3, [r1, #4]
  10499c:	f8c4 8008 	str.w	r8, [r4, #8]
  1049a0:	2200      	movs	r2, #0
  1049a2:	b143      	cbz	r3, 1049b6 <ticker_insert_event_us+0x3c>
  1049a4:	e9d3 8900 	ldrd	r8, r9, [r3]
  1049a8:	454f      	cmp	r7, r9
  1049aa:	bf08      	it	eq
  1049ac:	4546      	cmpeq	r6, r8
  1049ae:	d302      	bcc.n	1049b6 <ticker_insert_event_us+0x3c>
  1049b0:	461a      	mov	r2, r3
  1049b2:	68db      	ldr	r3, [r3, #12]
  1049b4:	e7f5      	b.n	1049a2 <ticker_insert_event_us+0x28>
  1049b6:	60e3      	str	r3, [r4, #12]
  1049b8:	b90a      	cbnz	r2, 1049be <ticker_insert_event_us+0x44>
  1049ba:	604c      	str	r4, [r1, #4]
  1049bc:	e000      	b.n	1049c0 <ticker_insert_event_us+0x46>
  1049be:	60d4      	str	r4, [r2, #12]
  1049c0:	4628      	mov	r0, r5
  1049c2:	f7ff ff76 	bl	1048b2 <schedule_interrupt>
  1049c6:	e8bd 43f8 	ldmia.w	sp!, {r3, r4, r5, r6, r7, r8, r9, lr}
  1049ca:	f000 b8b1 	b.w	104b30 <core_util_critical_section_exit>

001049ce <ticker_remove_event>:
  1049ce:	b538      	push	{r3, r4, r5, lr}
  1049d0:	4605      	mov	r5, r0
  1049d2:	460c      	mov	r4, r1
  1049d4:	f000 f880 	bl	104ad8 <core_util_critical_section_enter>
  1049d8:	686a      	ldr	r2, [r5, #4]
  1049da:	6853      	ldr	r3, [r2, #4]
  1049dc:	42a3      	cmp	r3, r4
  1049de:	d106      	bne.n	1049ee <ticker_remove_event+0x20>
  1049e0:	68db      	ldr	r3, [r3, #12]
  1049e2:	4628      	mov	r0, r5
  1049e4:	6053      	str	r3, [r2, #4]
  1049e6:	f7ff ff64 	bl	1048b2 <schedule_interrupt>
  1049ea:	e006      	b.n	1049fa <ticker_remove_event+0x2c>
  1049ec:	4613      	mov	r3, r2
  1049ee:	b123      	cbz	r3, 1049fa <ticker_remove_event+0x2c>
  1049f0:	68da      	ldr	r2, [r3, #12]
  1049f2:	4294      	cmp	r4, r2
  1049f4:	d1fa      	bne.n	1049ec <ticker_remove_event+0x1e>
  1049f6:	68e2      	ldr	r2, [r4, #12]
  1049f8:	60da      	str	r2, [r3, #12]
  1049fa:	e8bd 4038 	ldmia.w	sp!, {r3, r4, r5, lr}
  1049fe:	f000 b897 	b.w	104b30 <core_util_critical_section_exit>

00104a02 <ticker_read_us>:
  104a02:	b510      	push	{r4, lr}
  104a04:	4604      	mov	r4, r0
  104a06:	f7ff ff41 	bl	10488c <update_present_time>
  104a0a:	6863      	ldr	r3, [r4, #4]
  104a0c:	e9d3 0102 	ldrd	r0, r1, [r3, #8]
  104a10:	bd10      	pop	{r4, pc}
	...

00104a14 <get_us_ticker_data>:
  104a14:	4800      	ldr	r0, [pc, #0]	; (104a18 <get_us_ticker_data+0x4>)
  104a16:	4770      	bx	lr
  104a18:	00110214 	.word	0x00110214

00104a1c <us_ticker_irq_handler>:
  104a1c:	4801      	ldr	r0, [pc, #4]	; (104a24 <us_ticker_irq_handler+0x8>)
  104a1e:	f7ff bf8a 	b.w	104936 <ticker_irq_handler>
  104a22:	bf00      	nop
  104a24:	00110214 	.word	0x00110214

00104a28 <mbed_assert_internal>:
  104a28:	b570      	push	{r4, r5, r6, lr}
  104a2a:	4604      	mov	r4, r0
  104a2c:	460d      	mov	r5, r1
  104a2e:	4616      	mov	r6, r2
  104a30:	f000 f852 	bl	104ad8 <core_util_critical_section_enter>
  104a34:	4633      	mov	r3, r6
  104a36:	462a      	mov	r2, r5
  104a38:	4621      	mov	r1, r4
  104a3a:	4803      	ldr	r0, [pc, #12]	; (104a48 <mbed_assert_internal+0x20>)
  104a3c:	f000 f838 	bl	104ab0 <mbed_error_printf>
  104a40:	e8bd 4070 	ldmia.w	sp!, {r4, r5, r6, lr}
  104a44:	f000 b802 	b.w	104a4c <mbed_die>
  104a48:	0011021c 	.word	0x0011021c

00104a4c <mbed_die>:
  104a4c:	b508      	push	{r3, lr}
  104a4e:	f000 f843 	bl	104ad8 <core_util_critical_section_enter>
  104a52:	2096      	movs	r0, #150	; 0x96
  104a54:	f004 f9d0 	bl	108df8 <wait_ms>
  104a58:	2096      	movs	r0, #150	; 0x96
  104a5a:	f004 f9cd 	bl	108df8 <wait_ms>
  104a5e:	e7f8      	b.n	104a52 <mbed_die+0x6>

00104a60 <mbed_error_vfprintf>:
  104a60:	b530      	push	{r4, r5, lr}
  104a62:	460d      	mov	r5, r1
  104a64:	4604      	mov	r4, r0
  104a66:	b0a1      	sub	sp, #132	; 0x84
  104a68:	f000 f836 	bl	104ad8 <core_util_critical_section_enter>
  104a6c:	462b      	mov	r3, r5
  104a6e:	4622      	mov	r2, r4
  104a70:	2180      	movs	r1, #128	; 0x80
  104a72:	4668      	mov	r0, sp
  104a74:	f009 f80c 	bl	10da90 <vsniprintf>
  104a78:	1e05      	subs	r5, r0, #0
  104a7a:	dc03      	bgt.n	104a84 <mbed_error_vfprintf+0x24>
  104a7c:	f000 f858 	bl	104b30 <core_util_critical_section_exit>
  104a80:	b021      	add	sp, #132	; 0x84
  104a82:	bd30      	pop	{r4, r5, pc}
  104a84:	4b08      	ldr	r3, [pc, #32]	; (104aa8 <mbed_error_vfprintf+0x48>)
  104a86:	681b      	ldr	r3, [r3, #0]
  104a88:	b923      	cbnz	r3, 104a94 <mbed_error_vfprintf+0x34>
  104a8a:	2209      	movs	r2, #9
  104a8c:	2108      	movs	r1, #8
  104a8e:	4807      	ldr	r0, [pc, #28]	; (104aac <mbed_error_vfprintf+0x4c>)
  104a90:	f003 f836 	bl	107b00 <serial_init>
  104a94:	2400      	movs	r4, #0
  104a96:	f81d 1004 	ldrb.w	r1, [sp, r4]
  104a9a:	4804      	ldr	r0, [pc, #16]	; (104aac <mbed_error_vfprintf+0x4c>)
  104a9c:	3401      	adds	r4, #1
  104a9e:	f003 f926 	bl	107cee <serial_putc>
  104aa2:	42a5      	cmp	r5, r4
  104aa4:	d1f7      	bne.n	104a96 <mbed_error_vfprintf+0x36>
  104aa6:	e7e9      	b.n	104a7c <mbed_error_vfprintf+0x1c>
  104aa8:	3fff9ba0 	.word	0x3fff9ba0
  104aac:	3fffafb4 	.word	0x3fffafb4

00104ab0 <mbed_error_printf>:
  104ab0:	b40f      	push	{r0, r1, r2, r3}
  104ab2:	b507      	push	{r0, r1, r2, lr}
  104ab4:	a904      	add	r1, sp, #16
  104ab6:	f851 0b04 	ldr.w	r0, [r1], #4
  104aba:	9101      	str	r1, [sp, #4]
  104abc:	f7ff ffd0 	bl	104a60 <mbed_error_vfprintf>
  104ac0:	b003      	add	sp, #12
  104ac2:	f85d eb04 	ldr.w	lr, [sp], #4
  104ac6:	b004      	add	sp, #16
  104ac8:	4770      	bx	lr

00104aca <core_util_are_interrupts_enabled>:
  104aca:	f3ef 8010 	mrs	r0, PRIMASK
  104ace:	f000 0001 	and.w	r0, r0, #1
  104ad2:	f080 0001 	eor.w	r0, r0, #1
  104ad6:	4770      	bx	lr

00104ad8 <core_util_critical_section_enter>:
  104ad8:	b538      	push	{r3, r4, r5, lr}
  104ada:	f7ff fff6 	bl	104aca <core_util_are_interrupts_enabled>
  104ade:	4605      	mov	r5, r0
  104ae0:	b672      	cpsid	i
  104ae2:	4c0e      	ldr	r4, [pc, #56]	; (104b1c <core_util_critical_section_enter+0x44>)
  104ae4:	6823      	ldr	r3, [r4, #0]
  104ae6:	b923      	cbnz	r3, 104af2 <core_util_critical_section_enter+0x1a>
  104ae8:	f080 0301 	eor.w	r3, r0, #1
  104aec:	4a0c      	ldr	r2, [pc, #48]	; (104b20 <core_util_critical_section_enter+0x48>)
  104aee:	b2db      	uxtb	r3, r3
  104af0:	7013      	strb	r3, [r2, #0]
  104af2:	6823      	ldr	r3, [r4, #0]
  104af4:	3301      	adds	r3, #1
  104af6:	d104      	bne.n	104b02 <core_util_critical_section_enter+0x2a>
  104af8:	2245      	movs	r2, #69	; 0x45
  104afa:	490a      	ldr	r1, [pc, #40]	; (104b24 <core_util_critical_section_enter+0x4c>)
  104afc:	480a      	ldr	r0, [pc, #40]	; (104b28 <core_util_critical_section_enter+0x50>)
  104afe:	f7ff ff93 	bl	104a28 <mbed_assert_internal>
  104b02:	6823      	ldr	r3, [r4, #0]
  104b04:	b12b      	cbz	r3, 104b12 <core_util_critical_section_enter+0x3a>
  104b06:	b125      	cbz	r5, 104b12 <core_util_critical_section_enter+0x3a>
  104b08:	2249      	movs	r2, #73	; 0x49
  104b0a:	4906      	ldr	r1, [pc, #24]	; (104b24 <core_util_critical_section_enter+0x4c>)
  104b0c:	4807      	ldr	r0, [pc, #28]	; (104b2c <core_util_critical_section_enter+0x54>)
  104b0e:	f7ff ff8b 	bl	104a28 <mbed_assert_internal>
  104b12:	6823      	ldr	r3, [r4, #0]
  104b14:	3301      	adds	r3, #1
  104b16:	6023      	str	r3, [r4, #0]
  104b18:	bd38      	pop	{r3, r4, r5, pc}
  104b1a:	bf00      	nop
  104b1c:	3fff95c8 	.word	0x3fff95c8
  104b20:	3fff95cc 	.word	0x3fff95cc
  104b24:	0011024d 	.word	0x0011024d
  104b28:	0011027d 	.word	0x0011027d
  104b2c:	001102a3 	.word	0x001102a3

00104b30 <core_util_critical_section_exit>:
  104b30:	b510      	push	{r4, lr}
  104b32:	4c0a      	ldr	r4, [pc, #40]	; (104b5c <core_util_critical_section_exit+0x2c>)
  104b34:	6823      	ldr	r3, [r4, #0]
  104b36:	b183      	cbz	r3, 104b5a <core_util_critical_section_exit+0x2a>
  104b38:	f7ff ffc7 	bl	104aca <core_util_are_interrupts_enabled>
  104b3c:	b120      	cbz	r0, 104b48 <core_util_critical_section_exit+0x18>
  104b3e:	225a      	movs	r2, #90	; 0x5a
  104b40:	4907      	ldr	r1, [pc, #28]	; (104b60 <core_util_critical_section_exit+0x30>)
  104b42:	4808      	ldr	r0, [pc, #32]	; (104b64 <core_util_critical_section_exit+0x34>)
  104b44:	f7ff ff70 	bl	104a28 <mbed_assert_internal>
  104b48:	6823      	ldr	r3, [r4, #0]
  104b4a:	3b01      	subs	r3, #1
  104b4c:	6023      	str	r3, [r4, #0]
  104b4e:	6823      	ldr	r3, [r4, #0]
  104b50:	b91b      	cbnz	r3, 104b5a <core_util_critical_section_exit+0x2a>
  104b52:	4b05      	ldr	r3, [pc, #20]	; (104b68 <core_util_critical_section_exit+0x38>)
  104b54:	781b      	ldrb	r3, [r3, #0]
  104b56:	b903      	cbnz	r3, 104b5a <core_util_critical_section_exit+0x2a>
  104b58:	b662      	cpsie	i
  104b5a:	bd10      	pop	{r4, pc}
  104b5c:	3fff95c8 	.word	0x3fff95c8
  104b60:	0011024d 	.word	0x0011024d
  104b64:	001102a3 	.word	0x001102a3
  104b68:	3fff95cc 	.word	0x3fff95cc

00104b6c <error>:
  104b6c:	b40f      	push	{r0, r1, r2, r3}
  104b6e:	b513      	push	{r0, r1, r4, lr}
  104b70:	4b08      	ldr	r3, [pc, #32]	; (104b94 <error+0x28>)
  104b72:	781a      	ldrb	r2, [r3, #0]
  104b74:	b94a      	cbnz	r2, 104b8a <error+0x1e>
  104b76:	2401      	movs	r4, #1
  104b78:	a905      	add	r1, sp, #20
  104b7a:	9804      	ldr	r0, [sp, #16]
  104b7c:	701c      	strb	r4, [r3, #0]
  104b7e:	9101      	str	r1, [sp, #4]
  104b80:	f7ff ff6e 	bl	104a60 <mbed_error_vfprintf>
  104b84:	4620      	mov	r0, r4
  104b86:	f003 ffde 	bl	108b46 <__wrap_exit>
  104b8a:	b002      	add	sp, #8
  104b8c:	e8bd 4010 	ldmia.w	sp!, {r4, lr}
  104b90:	b004      	add	sp, #16
  104b92:	4770      	bx	lr
  104b94:	3fff95cd 	.word	0x3fff95cd

00104b98 <pre_main>:
  104b98:	b538      	push	{r3, r4, r5, lr}
  104b9a:	4815      	ldr	r0, [pc, #84]	; (104bf0 <pre_main+0x58>)
  104b9c:	4b15      	ldr	r3, [pc, #84]	; (104bf4 <pre_main+0x5c>)
  104b9e:	250b      	movs	r5, #11
  104ba0:	6003      	str	r3, [r0, #0]
  104ba2:	4b15      	ldr	r3, [pc, #84]	; (104bf8 <pre_main+0x60>)
  104ba4:	241c      	movs	r4, #28
  104ba6:	6045      	str	r5, [r0, #4]
  104ba8:	60c4      	str	r4, [r0, #12]
  104baa:	6083      	str	r3, [r0, #8]
  104bac:	f001 f916 	bl	105ddc <osMutexNew>
  104bb0:	4b12      	ldr	r3, [pc, #72]	; (104bfc <pre_main+0x64>)
  104bb2:	6018      	str	r0, [r3, #0]
  104bb4:	4812      	ldr	r0, [pc, #72]	; (104c00 <pre_main+0x68>)
  104bb6:	4b13      	ldr	r3, [pc, #76]	; (104c04 <pre_main+0x6c>)
  104bb8:	60c4      	str	r4, [r0, #12]
  104bba:	e880 0028 	stmia.w	r0, {r3, r5}
  104bbe:	4b12      	ldr	r3, [pc, #72]	; (104c08 <pre_main+0x70>)
  104bc0:	6083      	str	r3, [r0, #8]
  104bc2:	f001 f90b 	bl	105ddc <osMutexNew>
  104bc6:	4b11      	ldr	r3, [pc, #68]	; (104c0c <pre_main+0x74>)
  104bc8:	6018      	str	r0, [r3, #0]
  104bca:	4811      	ldr	r0, [pc, #68]	; (104c10 <pre_main+0x78>)
  104bcc:	4b11      	ldr	r3, [pc, #68]	; (104c14 <pre_main+0x7c>)
  104bce:	60c4      	str	r4, [r0, #12]
  104bd0:	e880 0028 	stmia.w	r0, {r3, r5}
  104bd4:	4b10      	ldr	r3, [pc, #64]	; (104c18 <pre_main+0x80>)
  104bd6:	6083      	str	r3, [r0, #8]
  104bd8:	f001 f900 	bl	105ddc <osMutexNew>
  104bdc:	4b0f      	ldr	r3, [pc, #60]	; (104c1c <pre_main+0x84>)
  104bde:	6018      	str	r0, [r3, #0]
  104be0:	f006 f874 	bl	10accc <__libc_init_array>
  104be4:	e8bd 4038 	ldmia.w	sp!, {r3, r4, r5, lr}
  104be8:	2100      	movs	r1, #0
  104bea:	4608      	mov	r0, r1
  104bec:	f000 b860 	b.w	104cb0 <__wrap_main>
  104bf0:	3fff9edc 	.word	0x3fff9edc
  104bf4:	001102b7 	.word	0x001102b7
  104bf8:	3fff9eb0 	.word	0x3fff9eb0
  104bfc:	3fff9f28 	.word	0x3fff9f28
  104c00:	3fff9ecc 	.word	0x3fff9ecc
  104c04:	001102c7 	.word	0x001102c7
  104c08:	3fff9f2c 	.word	0x3fff9f2c
  104c0c:	3fff9f24 	.word	0x3fff9f24
  104c10:	3fff9eec 	.word	0x3fff9eec
  104c14:	001102d4 	.word	0x001102d4
  104c18:	3fff9f48 	.word	0x3fff9f48
  104c1c:	3fff9efc 	.word	0x3fff9efc

00104c20 <mbed_set_stack_heap>:
  104c20:	4a09      	ldr	r2, [pc, #36]	; (104c48 <mbed_set_stack_heap+0x28>)
  104c22:	480a      	ldr	r0, [pc, #40]	; (104c4c <mbed_set_stack_heap+0x2c>)
  104c24:	f1c2 4380 	rsb	r3, r2, #1073741824	; 0x40000000
  104c28:	4619      	mov	r1, r3
  104c2a:	f5b3 6f80 	cmp.w	r3, #1024	; 0x400
  104c2e:	bf28      	it	cs
  104c30:	f44f 6180 	movcs.w	r1, #1024	; 0x400
  104c34:	1a5b      	subs	r3, r3, r1
  104c36:	6001      	str	r1, [r0, #0]
  104c38:	4905      	ldr	r1, [pc, #20]	; (104c50 <mbed_set_stack_heap+0x30>)
  104c3a:	1898      	adds	r0, r3, r2
  104c3c:	6008      	str	r0, [r1, #0]
  104c3e:	4905      	ldr	r1, [pc, #20]	; (104c54 <mbed_set_stack_heap+0x34>)
  104c40:	600b      	str	r3, [r1, #0]
  104c42:	4b05      	ldr	r3, [pc, #20]	; (104c58 <mbed_set_stack_heap+0x38>)
  104c44:	601a      	str	r2, [r3, #0]
  104c46:	4770      	bx	lr
  104c48:	3fffafc8 	.word	0x3fffafc8
  104c4c:	3fff95d4 	.word	0x3fff95d4
  104c50:	3fff95d0 	.word	0x3fff95d0
  104c54:	3fff9ccc 	.word	0x3fff9ccc
  104c58:	3fff9dd0 	.word	0x3fff9dd0

00104c5c <mbed_main>:
  104c5c:	4770      	bx	lr

00104c5e <mbed_sdk_init>:
  104c5e:	4770      	bx	lr

00104c60 <mbed_start_main>:
  104c60:	b508      	push	{r3, lr}
  104c62:	4a0d      	ldr	r2, [pc, #52]	; (104c98 <mbed_start_main+0x38>)
  104c64:	4b0d      	ldr	r3, [pc, #52]	; (104c9c <mbed_start_main+0x3c>)
  104c66:	2100      	movs	r1, #0
  104c68:	6113      	str	r3, [r2, #16]
  104c6a:	f44f 5380 	mov.w	r3, #4096	; 0x1000
  104c6e:	6153      	str	r3, [r2, #20]
  104c70:	2348      	movs	r3, #72	; 0x48
  104c72:	60d3      	str	r3, [r2, #12]
  104c74:	4b0a      	ldr	r3, [pc, #40]	; (104ca0 <mbed_start_main+0x40>)
  104c76:	480b      	ldr	r0, [pc, #44]	; (104ca4 <mbed_start_main+0x44>)
  104c78:	6093      	str	r3, [r2, #8]
  104c7a:	2318      	movs	r3, #24
  104c7c:	6193      	str	r3, [r2, #24]
  104c7e:	4b0a      	ldr	r3, [pc, #40]	; (104ca8 <mbed_start_main+0x48>)
  104c80:	6013      	str	r3, [r2, #0]
  104c82:	f001 fde1 	bl	106848 <osThreadNew>
  104c86:	b910      	cbnz	r0, 104c8e <mbed_start_main+0x2e>
  104c88:	4808      	ldr	r0, [pc, #32]	; (104cac <mbed_start_main+0x4c>)
  104c8a:	f7ff ff6f 	bl	104b6c <error>
  104c8e:	e8bd 4008 	ldmia.w	sp!, {r3, lr}
  104c92:	f000 ba63 	b.w	10515c <osKernelStart>
  104c96:	bf00      	nop
  104c98:	3fff9f00 	.word	0x3fff9f00
  104c9c:	3fff9fb0 	.word	0x3fff9fb0
  104ca0:	3fff9f64 	.word	0x3fff9f64
  104ca4:	00104b99 	.word	0x00104b99
  104ca8:	001102de 	.word	0x001102de
  104cac:	001102ea 	.word	0x001102ea

00104cb0 <__wrap_main>:
  104cb0:	b508      	push	{r3, lr}
  104cb2:	f7ff ffd3 	bl	104c5c <mbed_main>
  104cb6:	e8bd 4008 	ldmia.w	sp!, {r3, lr}
  104cba:	f7fd bdd9 	b.w	102870 <main>
	...

00104cc0 <software_init_hook>:
  104cc0:	b510      	push	{r4, lr}
  104cc2:	f7ff ffad 	bl	104c20 <mbed_set_stack_heap>
  104cc6:	4b0a      	ldr	r3, [pc, #40]	; (104cf0 <software_init_hook+0x30>)
  104cc8:	490a      	ldr	r1, [pc, #40]	; (104cf4 <software_init_hook+0x34>)
  104cca:	689a      	ldr	r2, [r3, #8]
  104ccc:	480a      	ldr	r0, [pc, #40]	; (104cf8 <software_init_hook+0x38>)
  104cce:	3a04      	subs	r2, #4
  104cd0:	f852 4f04 	ldr.w	r4, [r2, #4]!
  104cd4:	f841 4f04 	str.w	r4, [r1, #4]!
  104cd8:	4281      	cmp	r1, r0
  104cda:	d1f9      	bne.n	104cd0 <software_init_hook+0x10>
  104cdc:	4a07      	ldr	r2, [pc, #28]	; (104cfc <software_init_hook+0x3c>)
  104cde:	609a      	str	r2, [r3, #8]
  104ce0:	f7ff ffbd 	bl	104c5e <mbed_sdk_init>
  104ce4:	f000 f9f4 	bl	1050d0 <osKernelInitialize>
  104ce8:	e8bd 4010 	ldmia.w	sp!, {r4, lr}
  104cec:	f7ff bfb8 	b.w	104c60 <mbed_start_main>
  104cf0:	e000ed00 	.word	0xe000ed00
  104cf4:	3fff3ffc 	.word	0x3fff3ffc
  104cf8:	3fff408c 	.word	0x3fff408c
  104cfc:	3fff4000 	.word	0x3fff4000

00104d00 <default_idle_hook>:
  104d00:	f003 b812 	b.w	107d28 <hal_sleep>

00104d04 <rtos_idle_loop>:
  104d04:	b508      	push	{r3, lr}
  104d06:	4c02      	ldr	r4, [pc, #8]	; (104d10 <rtos_idle_loop+0xc>)
  104d08:	6823      	ldr	r3, [r4, #0]
  104d0a:	4798      	blx	r3
  104d0c:	e7fc      	b.n	104d08 <rtos_idle_loop+0x4>
  104d0e:	bf00      	nop
  104d10:	3fff6400 	.word	0x3fff6400

00104d14 <osRtxIdleThread>:
  104d14:	b508      	push	{r3, lr}
  104d16:	f7ff fff5 	bl	104d04 <rtos_idle_loop>
  104d1a:	e7fc      	b.n	104d16 <osRtxIdleThread+0x2>

00104d1c <osRtxErrorNotify>:
  104d1c:	b508      	push	{r3, lr}
  104d1e:	4605      	mov	r5, r0
  104d20:	460c      	mov	r4, r1
  104d22:	f001 fdad 	bl	106880 <osThreadGetId>
  104d26:	1e6b      	subs	r3, r5, #1
  104d28:	4602      	mov	r2, r0
  104d2a:	2b04      	cmp	r3, #4
  104d2c:	d824      	bhi.n	104d78 <osRtxErrorNotify+0x5c>
  104d2e:	e8df f003 	tbb	[pc, r3]
  104d32:	0d03      	.short	0x0d03
  104d34:	1913      	.short	0x1913
  104d36:	1e          	.byte	0x1e
  104d37:	00          	.byte	0x00
  104d38:	4620      	mov	r0, r4
  104d3a:	f001 fd89 	bl	106850 <osThreadGetName>
  104d3e:	4622      	mov	r2, r4
  104d40:	4603      	mov	r3, r0
  104d42:	2101      	movs	r1, #1
  104d44:	480f      	ldr	r0, [pc, #60]	; (104d84 <osRtxErrorNotify+0x68>)
  104d46:	f7ff ff11 	bl	104b6c <error>
  104d4a:	e019      	b.n	104d80 <osRtxErrorNotify+0x64>
  104d4c:	4623      	mov	r3, r4
  104d4e:	2102      	movs	r1, #2
  104d50:	480d      	ldr	r0, [pc, #52]	; (104d88 <osRtxErrorNotify+0x6c>)
  104d52:	f7ff ff0b 	bl	104b6c <error>
  104d56:	e013      	b.n	104d80 <osRtxErrorNotify+0x64>
  104d58:	4623      	mov	r3, r4
  104d5a:	2103      	movs	r1, #3
  104d5c:	480b      	ldr	r0, [pc, #44]	; (104d8c <osRtxErrorNotify+0x70>)
  104d5e:	f7ff ff05 	bl	104b6c <error>
  104d62:	e00d      	b.n	104d80 <osRtxErrorNotify+0x64>
  104d64:	2104      	movs	r1, #4
  104d66:	480a      	ldr	r0, [pc, #40]	; (104d90 <osRtxErrorNotify+0x74>)
  104d68:	f7ff ff00 	bl	104b6c <error>
  104d6c:	e008      	b.n	104d80 <osRtxErrorNotify+0x64>
  104d6e:	2105      	movs	r1, #5
  104d70:	4808      	ldr	r0, [pc, #32]	; (104d94 <osRtxErrorNotify+0x78>)
  104d72:	f7ff fefb 	bl	104b6c <error>
  104d76:	e003      	b.n	104d80 <osRtxErrorNotify+0x64>
  104d78:	4629      	mov	r1, r5
  104d7a:	4807      	ldr	r0, [pc, #28]	; (104d98 <osRtxErrorNotify+0x7c>)
  104d7c:	f7ff fef6 	bl	104b6c <error>
  104d80:	e7fe      	b.n	104d80 <osRtxErrorNotify+0x64>
  104d82:	bf00      	nop
  104d84:	00110306 	.word	0x00110306
  104d88:	00110357 	.word	0x00110357
  104d8c:	001103ad 	.word	0x001103ad
  104d90:	00110412 	.word	0x00110412
  104d94:	0011046d 	.word	0x0011046d
  104d98:	001104cd 	.word	0x001104cd

00104d9c <svcRtxDelay>:
  104d9c:	b508      	push	{r3, lr}
  104d9e:	4601      	mov	r1, r0
  104da0:	b110      	cbz	r0, 104da8 <svcRtxDelay+0xc>
  104da2:	2013      	movs	r0, #19
  104da4:	f001 fcc2 	bl	10672c <osRtxThreadWaitEnter>
  104da8:	2000      	movs	r0, #0
  104daa:	bd08      	pop	{r3, pc}

00104dac <osDelay>:
  104dac:	b510      	push	{r4, lr}
  104dae:	4604      	mov	r4, r0
  104db0:	f000 f831 	bl	104e16 <EvrRtxThreadDelay>
  104db4:	f3ef 8305 	mrs	r3, IPSR
  104db8:	b92b      	cbnz	r3, 104dc6 <osDelay+0x1a>
  104dba:	f3ef 8310 	mrs	r3, PRIMASK
  104dbe:	b913      	cbnz	r3, 104dc6 <osDelay+0x1a>
  104dc0:	f3ef 8311 	mrs	r3, BASEPRI
  104dc4:	b13b      	cbz	r3, 104dd6 <osDelay+0x2a>
  104dc6:	f06f 0105 	mvn.w	r1, #5
  104dca:	2000      	movs	r0, #0
  104dcc:	f000 f816 	bl	104dfc <EvrRtxThreadError>
  104dd0:	f06f 0005 	mvn.w	r0, #5
  104dd4:	bd10      	pop	{r4, pc}
  104dd6:	4620      	mov	r0, r4
  104dd8:	f8df c004 	ldr.w	r12, [pc, #4]	; 104de0 <osDelay+0x34>
  104ddc:	df00      	svc	0
  104dde:	bd10      	pop	{r4, pc}
  104de0:	00104d9d 	.word	0x00104d9d

00104de4 <EvrRtxMemoryInit>:
  104de4:	4770      	bx	lr

00104de6 <EvrRtxMemoryAlloc>:
  104de6:	4770      	bx	lr

00104de8 <EvrRtxMemoryFree>:
  104de8:	4770      	bx	lr

00104dea <EvrRtxMemoryBlockInit>:
  104dea:	4770      	bx	lr

00104dec <EvrRtxMemoryBlockAlloc>:
  104dec:	4770      	bx	lr

00104dee <EvrRtxMemoryBlockFree>:
  104dee:	4770      	bx	lr

00104df0 <EvrRtxKernelError>:
  104df0:	4770      	bx	lr

00104df2 <EvrRtxKernelInitialize>:
  104df2:	4770      	bx	lr

00104df4 <EvrRtxKernelInitializeCompleted>:
  104df4:	4770      	bx	lr

00104df6 <EvrRtxKernelGetState>:
  104df6:	4770      	bx	lr

00104df8 <EvrRtxKernelStart>:
  104df8:	4770      	bx	lr

00104dfa <EvrRtxKernelStarted>:
  104dfa:	4770      	bx	lr

00104dfc <EvrRtxThreadError>:
  104dfc:	4770      	bx	lr

00104dfe <EvrRtxThreadNew>:
  104dfe:	4770      	bx	lr

00104e00 <EvrRtxThreadCreated>:
  104e00:	4770      	bx	lr

00104e02 <EvrRtxThreadGetName>:
  104e02:	4770      	bx	lr

00104e04 <EvrRtxThreadGetId>:
  104e04:	4770      	bx	lr

00104e06 <EvrRtxThreadJoined>:
  104e06:	4770      	bx	lr

00104e08 <EvrRtxThreadBlocked>:
  104e08:	4770      	bx	lr

00104e0a <EvrRtxThreadUnblocked>:
  104e0a:	4770      	bx	lr

00104e0c <EvrRtxThreadSwitch>:
  104e0c:	4770      	bx	lr

00104e0e <EvrRtxThreadExit>:
  104e0e:	4770      	bx	lr

00104e10 <EvrRtxThreadDestroyed>:
  104e10:	4770      	bx	lr

00104e12 <EvrRtxThreadFlagsWaitTimeout>:
  104e12:	4770      	bx	lr

00104e14 <EvrRtxThreadFlagsWaitCompleted>:
  104e14:	4770      	bx	lr

00104e16 <EvrRtxThreadDelay>:
  104e16:	4770      	bx	lr

00104e18 <EvrRtxThreadDelayCompleted>:
  104e18:	4770      	bx	lr

00104e1a <EvrRtxTimerCallback>:
  104e1a:	4770      	bx	lr

00104e1c <EvrRtxEventFlagsWaitTimeout>:
  104e1c:	4770      	bx	lr

00104e1e <EvrRtxMutexError>:
  104e1e:	4770      	bx	lr

00104e20 <EvrRtxMutexNew>:
  104e20:	4770      	bx	lr

00104e22 <EvrRtxMutexCreated>:
  104e22:	4770      	bx	lr

00104e24 <EvrRtxMutexAcquire>:
  104e24:	4770      	bx	lr

00104e26 <EvrRtxMutexAcquirePending>:
  104e26:	4770      	bx	lr

00104e28 <EvrRtxMutexAcquireTimeout>:
  104e28:	4770      	bx	lr

00104e2a <EvrRtxMutexAcquired>:
  104e2a:	4770      	bx	lr

00104e2c <EvrRtxMutexNotAcquired>:
  104e2c:	4770      	bx	lr

00104e2e <EvrRtxMutexRelease>:
  104e2e:	4770      	bx	lr

00104e30 <EvrRtxMutexReleased>:
  104e30:	4770      	bx	lr

00104e32 <EvrRtxMutexDelete>:
  104e32:	4770      	bx	lr

00104e34 <EvrRtxMutexDestroyed>:
  104e34:	4770      	bx	lr

00104e36 <EvrRtxSemaphoreAcquireTimeout>:
  104e36:	4770      	bx	lr

00104e38 <EvrRtxMemoryPoolAllocTimeout>:
  104e38:	4770      	bx	lr

00104e3a <EvrRtxMessageQueueError>:
  104e3a:	4770      	bx	lr

00104e3c <EvrRtxMessageQueueNew>:
  104e3c:	4770      	bx	lr

00104e3e <EvrRtxMessageQueueCreated>:
  104e3e:	4770      	bx	lr

00104e40 <EvrRtxMessageQueuePut>:
  104e40:	4770      	bx	lr

00104e42 <EvrRtxMessageQueuePutPending>:
  104e42:	4770      	bx	lr

00104e44 <EvrRtxMessageQueuePutTimeout>:
  104e44:	4770      	bx	lr

00104e46 <EvrRtxMessageQueueInsertPending>:
  104e46:	4770      	bx	lr

00104e48 <EvrRtxMessageQueueInserted>:
  104e48:	4770      	bx	lr

00104e4a <EvrRtxMessageQueueNotInserted>:
  104e4a:	4770      	bx	lr

00104e4c <EvrRtxMessageQueueGet>:
  104e4c:	4770      	bx	lr

00104e4e <EvrRtxMessageQueueGetPending>:
  104e4e:	4770      	bx	lr

00104e50 <EvrRtxMessageQueueGetTimeout>:
  104e50:	4770      	bx	lr

00104e52 <EvrRtxMessageQueueRetrieved>:
  104e52:	4770      	bx	lr

00104e54 <EvrRtxMessageQueueNotRetrieved>:
  104e54:	4770      	bx	lr
	...

00104e58 <svcRtxKernelInitialize>:
  104e58:	b570      	push	{r4, r5, r6, lr}
  104e5a:	4863      	ldr	r0, [pc, #396]	; (104fe8 <svcRtxKernelInitialize+0x190>)
  104e5c:	7a01      	ldrb	r1, [r0, #8]
  104e5e:	4604      	mov	r4, r0
  104e60:	2901      	cmp	r1, #1
  104e62:	f000 80bd 	beq.w	104fe0 <svcRtxKernelInitialize+0x188>
  104e66:	b111      	cbz	r1, 104e6e <svcRtxKernelInitialize+0x16>
  104e68:	f04f 30ff 	mov.w	r0, #4294967295
  104e6c:	e009      	b.n	104e82 <svcRtxKernelInitialize+0x2a>
  104e6e:	4d5f      	ldr	r5, [pc, #380]	; (104fec <svcRtxKernelInitialize+0x194>)
  104e70:	22a8      	movs	r2, #168	; 0xa8
  104e72:	3008      	adds	r0, #8
  104e74:	f005 ffe4 	bl	10ae40 <memset>
  104e78:	6d6b      	ldr	r3, [r5, #84]	; 0x54
  104e7a:	2b47      	cmp	r3, #71	; 0x47
  104e7c:	d806      	bhi.n	104e8c <svcRtxKernelInitialize+0x34>
  104e7e:	f06f 000a 	mvn.w	r0, #10
  104e82:	f7ff ffb5 	bl	104df0 <EvrRtxKernelError>
  104e86:	f04f 30ff 	mov.w	r0, #4294967295
  104e8a:	bd70      	pop	{r4, r5, r6, pc}
  104e8c:	68ea      	ldr	r2, [r5, #12]
  104e8e:	2a00      	cmp	r2, #0
  104e90:	d0ea      	beq.n	104e68 <svcRtxKernelInitialize+0x10>
  104e92:	8a2b      	ldrh	r3, [r5, #16]
  104e94:	2b00      	cmp	r3, #0
  104e96:	d0e7      	beq.n	104e68 <svcRtxKernelInitialize+0x10>
  104e98:	6aee      	ldr	r6, [r5, #44]	; 0x2c
  104e9a:	f8a4 305c 	strh.w	r3, [r4, #92]	; 0x5c
  104e9e:	68ab      	ldr	r3, [r5, #8]
  104ea0:	6b29      	ldr	r1, [r5, #48]	; 0x30
  104ea2:	4630      	mov	r0, r6
  104ea4:	6662      	str	r2, [r4, #100]	; 0x64
  104ea6:	64a3      	str	r3, [r4, #72]	; 0x48
  104ea8:	f000 f98a 	bl	1051c0 <osRtxMemoryInit>
  104eac:	b108      	cbz	r0, 104eb2 <svcRtxKernelInitialize+0x5a>
  104eae:	f8c4 6088 	str.w	r6, [r4, #136]	; 0x88
  104eb2:	696e      	ldr	r6, [r5, #20]
  104eb4:	69a9      	ldr	r1, [r5, #24]
  104eb6:	4630      	mov	r0, r6
  104eb8:	f000 f982 	bl	1051c0 <osRtxMemoryInit>
  104ebc:	b108      	cbz	r0, 104ec2 <svcRtxKernelInitialize+0x6a>
  104ebe:	67e6      	str	r6, [r4, #124]	; 0x7c
  104ec0:	e002      	b.n	104ec8 <svcRtxKernelInitialize+0x70>
  104ec2:	f8d4 3088 	ldr.w	r3, [r4, #136]	; 0x88
  104ec6:	67e3      	str	r3, [r4, #124]	; 0x7c
  104ec8:	69ee      	ldr	r6, [r5, #28]
  104eca:	6a29      	ldr	r1, [r5, #32]
  104ecc:	4630      	mov	r0, r6
  104ece:	f000 f977 	bl	1051c0 <osRtxMemoryInit>
  104ed2:	b110      	cbz	r0, 104eda <svcRtxKernelInitialize+0x82>
  104ed4:	f8c4 6080 	str.w	r6, [r4, #128]	; 0x80
  104ed8:	e003      	b.n	104ee2 <svcRtxKernelInitialize+0x8a>
  104eda:	f8d4 3088 	ldr.w	r3, [r4, #136]	; 0x88
  104ede:	f8c4 3080 	str.w	r3, [r4, #128]	; 0x80
  104ee2:	6a6e      	ldr	r6, [r5, #36]	; 0x24
  104ee4:	6aa9      	ldr	r1, [r5, #40]	; 0x28
  104ee6:	4630      	mov	r0, r6
  104ee8:	f000 f96a 	bl	1051c0 <osRtxMemoryInit>
  104eec:	b110      	cbz	r0, 104ef4 <svcRtxKernelInitialize+0x9c>
  104eee:	f8c4 6084 	str.w	r6, [r4, #132]	; 0x84
  104ef2:	e003      	b.n	104efc <svcRtxKernelInitialize+0xa4>
  104ef4:	f8d4 3088 	ldr.w	r3, [r4, #136]	; 0x88
  104ef8:	f8c4 3084 	str.w	r3, [r4, #132]	; 0x84
  104efc:	6b6e      	ldr	r6, [r5, #52]	; 0x34
  104efe:	b146      	cbz	r6, 104f12 <svcRtxKernelInitialize+0xba>
  104f00:	68f3      	ldr	r3, [r6, #12]
  104f02:	68b2      	ldr	r2, [r6, #8]
  104f04:	6831      	ldr	r1, [r6, #0]
  104f06:	4630      	mov	r0, r6
  104f08:	f000 f9d5 	bl	1052b6 <osRtxMemoryPoolInit>
  104f0c:	b108      	cbz	r0, 104f12 <svcRtxKernelInitialize+0xba>
  104f0e:	f8c4 608c 	str.w	r6, [r4, #140]	; 0x8c
  104f12:	6bae      	ldr	r6, [r5, #56]	; 0x38
  104f14:	b146      	cbz	r6, 104f28 <svcRtxKernelInitialize+0xd0>
  104f16:	68f3      	ldr	r3, [r6, #12]
  104f18:	68b2      	ldr	r2, [r6, #8]
  104f1a:	6831      	ldr	r1, [r6, #0]
  104f1c:	4630      	mov	r0, r6
  104f1e:	f000 f9ca 	bl	1052b6 <osRtxMemoryPoolInit>
  104f22:	b108      	cbz	r0, 104f28 <svcRtxKernelInitialize+0xd0>
  104f24:	f8c4 6090 	str.w	r6, [r4, #144]	; 0x90
  104f28:	6bee      	ldr	r6, [r5, #60]	; 0x3c
  104f2a:	b146      	cbz	r6, 104f3e <svcRtxKernelInitialize+0xe6>
  104f2c:	68f3      	ldr	r3, [r6, #12]
  104f2e:	68b2      	ldr	r2, [r6, #8]
  104f30:	6831      	ldr	r1, [r6, #0]
  104f32:	4630      	mov	r0, r6
  104f34:	f000 f9bf 	bl	1052b6 <osRtxMemoryPoolInit>
  104f38:	b108      	cbz	r0, 104f3e <svcRtxKernelInitialize+0xe6>
  104f3a:	f8c4 6094 	str.w	r6, [r4, #148]	; 0x94
  104f3e:	6c2e      	ldr	r6, [r5, #64]	; 0x40
  104f40:	b146      	cbz	r6, 104f54 <svcRtxKernelInitialize+0xfc>
  104f42:	68f3      	ldr	r3, [r6, #12]
  104f44:	68b2      	ldr	r2, [r6, #8]
  104f46:	6831      	ldr	r1, [r6, #0]
  104f48:	4630      	mov	r0, r6
  104f4a:	f000 f9b4 	bl	1052b6 <osRtxMemoryPoolInit>
  104f4e:	b108      	cbz	r0, 104f54 <svcRtxKernelInitialize+0xfc>
  104f50:	f8c4 6098 	str.w	r6, [r4, #152]	; 0x98
  104f54:	6c6e      	ldr	r6, [r5, #68]	; 0x44
  104f56:	b146      	cbz	r6, 104f6a <svcRtxKernelInitialize+0x112>
  104f58:	68f3      	ldr	r3, [r6, #12]
  104f5a:	68b2      	ldr	r2, [r6, #8]
  104f5c:	6831      	ldr	r1, [r6, #0]
  104f5e:	4630      	mov	r0, r6
  104f60:	f000 f9a9 	bl	1052b6 <osRtxMemoryPoolInit>
  104f64:	b108      	cbz	r0, 104f6a <svcRtxKernelInitialize+0x112>
  104f66:	f8c4 609c 	str.w	r6, [r4, #156]	; 0x9c
  104f6a:	6cae      	ldr	r6, [r5, #72]	; 0x48
  104f6c:	b146      	cbz	r6, 104f80 <svcRtxKernelInitialize+0x128>
  104f6e:	68f3      	ldr	r3, [r6, #12]
  104f70:	68b2      	ldr	r2, [r6, #8]
  104f72:	6831      	ldr	r1, [r6, #0]
  104f74:	4630      	mov	r0, r6
  104f76:	f000 f99e 	bl	1052b6 <osRtxMemoryPoolInit>
  104f7a:	b108      	cbz	r0, 104f80 <svcRtxKernelInitialize+0x128>
  104f7c:	f8c4 60a0 	str.w	r6, [r4, #160]	; 0xa0
  104f80:	6cee      	ldr	r6, [r5, #76]	; 0x4c
  104f82:	b146      	cbz	r6, 104f96 <svcRtxKernelInitialize+0x13e>
  104f84:	68f3      	ldr	r3, [r6, #12]
  104f86:	68b2      	ldr	r2, [r6, #8]
  104f88:	6831      	ldr	r1, [r6, #0]
  104f8a:	4630      	mov	r0, r6
  104f8c:	f000 f993 	bl	1052b6 <osRtxMemoryPoolInit>
  104f90:	b108      	cbz	r0, 104f96 <svcRtxKernelInitialize+0x13e>
  104f92:	f8c4 60a4 	str.w	r6, [r4, #164]	; 0xa4
  104f96:	6d2d      	ldr	r5, [r5, #80]	; 0x50
  104f98:	b145      	cbz	r5, 104fac <svcRtxKernelInitialize+0x154>
  104f9a:	68eb      	ldr	r3, [r5, #12]
  104f9c:	68aa      	ldr	r2, [r5, #8]
  104f9e:	6829      	ldr	r1, [r5, #0]
  104fa0:	4628      	mov	r0, r5
  104fa2:	f000 f988 	bl	1052b6 <osRtxMemoryPoolInit>
  104fa6:	b108      	cbz	r0, 104fac <svcRtxKernelInitialize+0x154>
  104fa8:	f8c4 50a8 	str.w	r5, [r4, #168]	; 0xa8
  104fac:	4a10      	ldr	r2, [pc, #64]	; (104ff0 <svcRtxKernelInitialize+0x198>)
  104fae:	23ff      	movs	r3, #255	; 0xff
  104fb0:	f882 3022 	strb.w	r3, [r2, #34]	; 0x22
  104fb4:	f892 3022 	ldrb.w	r3, [r2, #34]	; 0x22
  104fb8:	68d1      	ldr	r1, [r2, #12]
  104fba:	f063 03ff 	orn	r3, r3, #255	; 0xff
  104fbe:	43db      	mvns	r3, r3
  104fc0:	fab3 f383 	clz	r3, r3
  104fc4:	f3c1 2102 	ubfx	r1, r1, #8, #3
  104fc8:	f1c3 0320 	rsb	r3, r3, #32
  104fcc:	428b      	cmp	r3, r1
  104fce:	bf98      	it	ls
  104fd0:	1c4b      	addls	r3, r1, #1
  104fd2:	21fe      	movs	r1, #254	; 0xfe
  104fd4:	fa01 f303 	lsl.w	r3, r1, r3
  104fd8:	b2db      	uxtb	r3, r3
  104fda:	77d3      	strb	r3, [r2, #31]
  104fdc:	2301      	movs	r3, #1
  104fde:	7223      	strb	r3, [r4, #8]
  104fe0:	f7ff ff08 	bl	104df4 <EvrRtxKernelInitializeCompleted>
  104fe4:	2000      	movs	r0, #0
  104fe6:	bd70      	pop	{r4, r5, r6, pc}
  104fe8:	3fff6408 	.word	0x3fff6408
  104fec:	0011054c 	.word	0x0011054c
  104ff0:	e000ed00 	.word	0xe000ed00

00104ff4 <svcRtxKernelGetState>:
  104ff4:	b510      	push	{r4, lr}
  104ff6:	4c03      	ldr	r4, [pc, #12]	; (105004 <svcRtxKernelGetState+0x10>)
  104ff8:	7a20      	ldrb	r0, [r4, #8]
  104ffa:	f7ff fefc 	bl	104df6 <EvrRtxKernelGetState>
  104ffe:	7a20      	ldrb	r0, [r4, #8]
  105000:	bd10      	pop	{r4, pc}
  105002:	bf00      	nop
  105004:	3fff6408 	.word	0x3fff6408

00105008 <svcRtxKernelStart>:
  105008:	b538      	push	{r3, r4, r5, lr}
  10500a:	4c2a      	ldr	r4, [pc, #168]	; (1050b4 <svcRtxKernelStart+0xac>)
  10500c:	7a23      	ldrb	r3, [r4, #8]
  10500e:	2b01      	cmp	r3, #1
  105010:	d002      	beq.n	105018 <svcRtxKernelStart+0x10>
  105012:	f06f 0006 	mvn.w	r0, #6
  105016:	e00b      	b.n	105030 <svcRtxKernelStart+0x28>
  105018:	6b23      	ldr	r3, [r4, #48]	; 0x30
  10501a:	4d27      	ldr	r5, [pc, #156]	; (1050b8 <svcRtxKernelStart+0xb0>)
  10501c:	b96b      	cbnz	r3, 10503a <svcRtxKernelStart+0x32>
  10501e:	6daa      	ldr	r2, [r5, #88]	; 0x58
  105020:	4619      	mov	r1, r3
  105022:	4826      	ldr	r0, [pc, #152]	; (1050bc <svcRtxKernelStart+0xb4>)
  105024:	f001 fa80 	bl	106528 <svcRtxThreadNew>
  105028:	6320      	str	r0, [r4, #48]	; 0x30
  10502a:	b930      	cbnz	r0, 10503a <svcRtxKernelStart+0x32>
  10502c:	f04f 30ff 	mov.w	r0, #4294967295
  105030:	f7ff fede 	bl	104df0 <EvrRtxKernelError>
  105034:	f04f 30ff 	mov.w	r0, #4294967295
  105038:	bd38      	pop	{r3, r4, r5, pc}
  10503a:	6e6b      	ldr	r3, [r5, #100]	; 0x64
  10503c:	b15b      	cbz	r3, 105056 <svcRtxKernelStart+0x4e>
  10503e:	6d23      	ldr	r3, [r4, #80]	; 0x50
  105040:	b94b      	cbnz	r3, 105056 <svcRtxKernelStart+0x4e>
  105042:	4a1d      	ldr	r2, [pc, #116]	; (1050b8 <svcRtxKernelStart+0xb0>)
  105044:	4619      	mov	r1, r3
  105046:	6dd2      	ldr	r2, [r2, #92]	; 0x5c
  105048:	481d      	ldr	r0, [pc, #116]	; (1050c0 <svcRtxKernelStart+0xb8>)
  10504a:	f001 fa6d 	bl	106528 <svcRtxThreadNew>
  10504e:	4b19      	ldr	r3, [pc, #100]	; (1050b4 <svcRtxKernelStart+0xac>)
  105050:	6518      	str	r0, [r3, #80]	; 0x50
  105052:	2800      	cmp	r0, #0
  105054:	d0ea      	beq.n	10502c <svcRtxKernelStart+0x24>
  105056:	481b      	ldr	r0, [pc, #108]	; (1050c4 <svcRtxKernelStart+0xbc>)
  105058:	f001 f8db 	bl	106212 <osRtxThreadListGet>
  10505c:	2800      	cmp	r0, #0
  10505e:	d0e5      	beq.n	10502c <svcRtxKernelStart+0x24>
  105060:	f001 f9f4 	bl	10644c <osRtxThreadSwitch>
  105064:	682b      	ldr	r3, [r5, #0]
  105066:	07db      	lsls	r3, r3, #31
  105068:	bf4c      	ite	mi
  10506a:	2302      	movmi	r3, #2
  10506c:	2303      	movpl	r3, #3
  10506e:	f383 8814 	msr	CONTROL, r3
  105072:	4b15      	ldr	r3, [pc, #84]	; (1050c8 <svcRtxKernelStart+0xc0>)
  105074:	681b      	ldr	r3, [r3, #0]
  105076:	60e3      	str	r3, [r4, #12]
  105078:	f000 ffb4 	bl	105fe4 <osRtxSysTimerSetup>
  10507c:	2800      	cmp	r0, #0
  10507e:	61a0      	str	r0, [r4, #24]
  105080:	db0f      	blt.n	1050a2 <svcRtxKernelStart+0x9a>
  105082:	f100 4360 	add.w	r3, r0, #3758096384	; 0xe0000000
  105086:	f503 4361 	add.w	r3, r3, #57600	; 0xe100
  10508a:	22ff      	movs	r2, #255	; 0xff
  10508c:	f883 2300 	strb.w	r2, [r3, #768]	; 0x300
  105090:	1142      	asrs	r2, r0, #5
  105092:	2301      	movs	r3, #1
  105094:	f000 001f 	and.w	r0, r0, #31
  105098:	fa03 f000 	lsl.w	r0, r3, r0
  10509c:	4b0b      	ldr	r3, [pc, #44]	; (1050cc <svcRtxKernelStart+0xc4>)
  10509e:	f843 0022 	str.w	r0, [r3, r2, lsl #2]
  1050a2:	f000 ffb9 	bl	106018 <osRtxSysTimerEnable>
  1050a6:	2302      	movs	r3, #2
  1050a8:	7223      	strb	r3, [r4, #8]
  1050aa:	f7ff fea6 	bl	104dfa <EvrRtxKernelStarted>
  1050ae:	2000      	movs	r0, #0
  1050b0:	bd38      	pop	{r3, r4, r5, pc}
  1050b2:	bf00      	nop
  1050b4:	3fff6408 	.word	0x3fff6408
  1050b8:	0011054c 	.word	0x0011054c
  1050bc:	00104d15 	.word	0x00104d15
  1050c0:	00106939 	.word	0x00106939
  1050c4:	3fff642c 	.word	0x3fff642c
  1050c8:	3fff64b8 	.word	0x3fff64b8
  1050cc:	e000e100 	.word	0xe000e100

001050d0 <osKernelInitialize>:
  1050d0:	b508      	push	{r3, lr}
  1050d2:	f7ff fe8e 	bl	104df2 <EvrRtxKernelInitialize>
  1050d6:	f3ef 8305 	mrs	r3, IPSR
  1050da:	b92b      	cbnz	r3, 1050e8 <osKernelInitialize+0x18>
  1050dc:	f3ef 8310 	mrs	r3, PRIMASK
  1050e0:	b913      	cbnz	r3, 1050e8 <osKernelInitialize+0x18>
  1050e2:	f3ef 8311 	mrs	r3, BASEPRI
  1050e6:	b133      	cbz	r3, 1050f6 <osKernelInitialize+0x26>
  1050e8:	f06f 0005 	mvn.w	r0, #5
  1050ec:	f7ff fe80 	bl	104df0 <EvrRtxKernelError>
  1050f0:	f06f 0005 	mvn.w	r0, #5
  1050f4:	bd08      	pop	{r3, pc}
  1050f6:	f8df c020 	ldr.w	r12, [pc, #32]	; 105118 <osKernelInitialize+0x48>
  1050fa:	f3ef 8314 	mrs	r3, CONTROL
  1050fe:	f013 0f02 	tst.w	r3, #2
  105102:	d106      	bne.n	105112 <osKernelInitialize+0x42>
  105104:	f3ef 8308 	mrs	r3, MSP
  105108:	3b20      	subs	r3, #32
  10510a:	f023 0307 	bic.w	r3, r3, #7
  10510e:	f383 8809 	msr	PSP, r3
  105112:	df00      	svc	0
  105114:	bd08      	pop	{r3, pc}
  105116:	bf00      	nop
  105118:	00104e59 	.word	0x00104e59

0010511c <osKernelGetState>:
  10511c:	b508      	push	{r3, lr}
  10511e:	f3ef 8305 	mrs	r3, IPSR
  105122:	b92b      	cbnz	r3, 105130 <osKernelGetState+0x14>
  105124:	f3ef 8310 	mrs	r3, PRIMASK
  105128:	b913      	cbnz	r3, 105130 <osKernelGetState+0x14>
  10512a:	f3ef 8311 	mrs	r3, BASEPRI
  10512e:	b133      	cbz	r3, 10513e <osKernelGetState+0x22>
  105130:	f04f 30ff 	mov.w	r0, #4294967295
  105134:	f7ff fe5f 	bl	104df6 <EvrRtxKernelGetState>
  105138:	f04f 30ff 	mov.w	r0, #4294967295
  10513c:	bd08      	pop	{r3, pc}
  10513e:	f3ef 8314 	mrs	r3, CONTROL
  105142:	07db      	lsls	r3, r3, #31
  105144:	d403      	bmi.n	10514e <osKernelGetState+0x32>
  105146:	e8bd 4008 	ldmia.w	sp!, {r3, lr}
  10514a:	f7ff bf53 	b.w	104ff4 <svcRtxKernelGetState>
  10514e:	f8df c008 	ldr.w	r12, [pc, #8]	; 105158 <osKernelGetState+0x3c>
  105152:	df00      	svc	0
  105154:	bd08      	pop	{r3, pc}
  105156:	bf00      	nop
  105158:	00104ff5 	.word	0x00104ff5

0010515c <osKernelStart>:
  10515c:	b508      	push	{r3, lr}
  10515e:	f7ff fe4b 	bl	104df8 <EvrRtxKernelStart>
  105162:	f3ef 8305 	mrs	r3, IPSR
  105166:	b92b      	cbnz	r3, 105174 <osKernelStart+0x18>
  105168:	f3ef 8310 	mrs	r3, PRIMASK
